///////////////////////////////////////////////////////////////////////////////
//                                                                            /
// IAR C/C++ Compiler V8.10.1.10194/W32 for 8051        08/Aug/2017  09:57:17 /
// Copyright 2004-2011 IAR Systems AB.                                        /
//                                                                            /
//    Core               =  plain                                             /
//    Code model         =  banked                                            /
//    Data model         =  large                                             /
//    Calling convention =  xdata reentrant                                   /
//    Constant location  =  data_rom                                          /
//    Dptr setup         =  1,16                                              /
//    Source file        =  D:\work space\Smart Product\Two YHY\Door\v1.03.0  /
//                           Green\ZStack-CC2530-2.5.1a\Components\mt\MT_AF.c /
//    Command line       =  -f "D:\work space\Smart Product\Two               /
//                          YHY\Door\v1.03.0  Green\ZStack-CC2530-2.5.1a\Proj /
//                          ects\zstack\HomeAutomation\SmartDoor\CC2530DB\..\ /
//                          Tools\CC2530DB\f8wEndev.cfg" (-DCPU32MHZ          /
//                          -DROOT=__near_func -DMAC_CFG_TX_DATA_MAX=3        /
//                          -DMAC_CFG_TX_MAX=6 -DMAC_CFG_RX_MAX=3             /
//                          -DHAL_KEY=FALSE -DHAL_LED=FALSE -DHAL_LCD=FALSE   /
//                          -DHAL_ADC=FALSE -DNV_RESTORE -DNV_INIT            /
//                          -DPOWER_SAVING -DTC_LINKKEY_JOIN) -f "D:\work     /
//                          space\Smart Product\Two YHY\Door\v1.03.0          /
//                          Green\ZStack-CC2530-2.5.1a\Projects\zstack\HomeAu /
//                          tomation\SmartDoor\CC2530DB\..\Tools\CC2530DB\f8w /
//                          Config.cfg" (-DZIGBEEPRO -DSECURE=1               /
//                          -DZG_SECURE_DYNAMIC=0 -DREFLECTOR                 /
//                          -DDEFAULT_CHANLIST=0x06108800                     /
//                          -DZDAPP_CONFIG_PAN_ID=0xFFFF                      /
//                          -DNWK_START_DELAY=100 -DEXTENDED_JOINING_RANDOM_M /
//                          ASK=0x007F -DBEACON_REQUEST_DELAY=100             /
//                          -DBEACON_REQ_DELAY_MASK=0x00FF                    /
//                          -DLINK_STATUS_JITTER_MASK=0x007F                  /
//                          -DROUTE_EXPIRY_TIME=30 -DAPSC_ACK_WAIT_DURATION_P /
//                          OLLED=3000 -DNWK_INDIRECT_MSG_TIMEOUT=7           /
//                          -DMAX_RREQ_ENTRIES=8 -DAPSC_MAX_FRAME_RETRIES=3   /
//                          -DNWK_MAX_DATA_RETRIES=2                          /
//                          -DMAX_POLL_FAILURE_RETRIES=2 -DMAX_BCAST=9        /
//                          -DAPS_MAX_GROUPS=16 -DMAX_RTG_ENTRIES=40          /
//                          -DNWK_MAX_BINDING_ENTRIES=4                       /
//                          -DMAX_BINDING_CLUSTER_IDS=4                       /
//                          -DDEFAULT_KEY={0x58,0x69,0x6E,0x67,0x48,0x75,     /
//                          0x6F,0x59,0x75,0x61,0x6E,0x53,0x6D,0x61,0x72,     /
//                          0x74} -DMAC_MAX_FRAME_SIZE=116                    /
//                          -DZDNWKMGR_MIN_TRANSMISSIONS=20 "-DCONST=const    /
//                          __code" -DGENERIC=__generic                       /
//                          -DRFD_RCVC_ALWAYS_ON=FALSE -DPOLL_RATE=0          /
//                          -DQUEUED_POLL_RATE=0 -DRESPONSE_POLL_RATE=0       /
//                          -DREJOIN_POLL_RATE=440) -f "D:\work space\Smart   /
//                          Product\Two YHY\Door\v1.03.0                      /
//                          Green\ZStack-CC2530-2.5.1a\Projects\zstack\HomeAu /
//                          tomation\SmartDoor\CC2530DB\..\Tools\CC2530DB\f8w /
//                          ZCL.cfg" (-DZCL_READ -DZCL_WRITE -DZCL_REPORT     /
//                          -DZCL_BASIC -DZCL_IDENTIFY -DZCL_ON_OFF           /
//                          -DZCL_KEY_ESTABLISH -DZCL_KEY_ESTABLISHMENT_KEY_G /
//                          ENERATE_TIMEOUT=4 -DZCL_KEY_ESTABLISHMENT_MAC_GEN /
//                          ERATE_TIMEOUT=10 -DZCL_KEY_ESTABLISHMENT_EKEY_GEN /
//                          ERATE_TIMEOUT=10 -DZCL_LOAD_CONTROL               /
//                          -DZCL_SIMPLE_METERING -DZCL_PRICING               /
//                          -DZCL_MESSAGE -DZCL_TUNNELING -DZCL_TOU)          /
//                          -DZCL_DEVICE_MGMT "D:\work space\Smart            /
//                          Product\Two YHY\Door\v1.03.0                      /
//                          Green\ZStack-CC2530-2.5.1a\Components\mt\MT_AF.c" /
//                           -lC "D:\work space\Smart Product\Two             /
//                          YHY\Door\v1.03.0  Green\ZStack-CC2530-2.5.1a\Proj /
//                          ects\zstack\HomeAutomation\SmartDoor\CC2530DB\End /
//                          DeviceEB\List\" -lA "D:\work space\Smart          /
//                          Product\Two YHY\Door\v1.03.0                      /
//                          Green\ZStack-CC2530-2.5.1a\Projects\zstack\HomeAu /
//                          tomation\SmartDoor\CC2530DB\EndDeviceEB\List\"    /
//                          --diag_suppress Pe001,Pa010 -o "D:\work           /
//                          space\Smart Product\Two YHY\Door\v1.03.0          /
//                          Green\ZStack-CC2530-2.5.1a\Projects\zstack\HomeAu /
//                          tomation\SmartDoor\CC2530DB\EndDeviceEB\Obj\" -e  /
//                          --debug --core=plain --dptr=16,1                  /
//                          --data_model=large --code_model=banked            /
//                          --calling_convention=xdata_reentrant              /
//                          --place_constants=data_rom --nr_virtual_regs 16   /
//                          -I "D:\work space\Smart Product\Two               /
//                          YHY\Door\v1.03.0  Green\ZStack-CC2530-2.5.1a\Proj /
//                          ects\zstack\HomeAutomation\SmartDoor\CC2530DB\"   /
//                          -I "D:\work space\Smart Product\Two               /
//                          YHY\Door\v1.03.0  Green\ZStack-CC2530-2.5.1a\Proj /
//                          ects\zstack\HomeAutomation\SmartDoor\CC2530DB\..\ /
//                          Source\" -I "D:\work space\Smart Product\Two      /
//                          YHY\Door\v1.03.0  Green\ZStack-CC2530-2.5.1a\Proj /
//                          ects\zstack\HomeAutomation\SmartDoor\CC2530DB\..\ /
//                          ..\Source\" -I "D:\work space\Smart Product\Two   /
//                          YHY\Door\v1.03.0  Green\ZStack-CC2530-2.5.1a\Proj /
//                          ects\zstack\HomeAutomation\SmartDoor\CC2530DB\..\ /
//                          ..\..\ZMain\TI2530DB\" -I "D:\work space\Smart    /
//                          Product\Two YHY\Door\v1.03.0                      /
//                          Green\ZStack-CC2530-2.5.1a\Projects\zstack\HomeAu /
//                          tomation\SmartDoor\CC2530DB\..\..\..\..\..\Compon /
//                          ents\hal\include\" -I "D:\work space\Smart        /
//                          Product\Two YHY\Door\v1.03.0                      /
//                          Green\ZStack-CC2530-2.5.1a\Projects\zstack\HomeAu /
//                          tomation\SmartDoor\CC2530DB\..\..\..\..\..\Compon /
//                          ents\hal\target\CC2530EB\" -I "D:\work            /
//                          space\Smart Product\Two YHY\Door\v1.03.0          /
//                          Green\ZStack-CC2530-2.5.1a\Projects\zstack\HomeAu /
//                          tomation\SmartDoor\CC2530DB\..\..\..\..\..\Compon /
//                          ents\mac\include\" -I "D:\work space\Smart        /
//                          Product\Two YHY\Door\v1.03.0                      /
//                          Green\ZStack-CC2530-2.5.1a\Projects\zstack\HomeAu /
//                          tomation\SmartDoor\CC2530DB\..\..\..\..\..\Compon /
//                          ents\mac\high_level\" -I "D:\work space\Smart     /
//                          Product\Two YHY\Door\v1.03.0                      /
//                          Green\ZStack-CC2530-2.5.1a\Projects\zstack\HomeAu /
//                          tomation\SmartDoor\CC2530DB\..\..\..\..\..\Compon /
//                          ents\mac\low_level\srf04\" -I "D:\work            /
//                          space\Smart Product\Two YHY\Door\v1.03.0          /
//                          Green\ZStack-CC2530-2.5.1a\Projects\zstack\HomeAu /
//                          tomation\SmartDoor\CC2530DB\..\..\..\..\..\Compon /
//                          ents\mac\low_level\srf04\single_chip\" -I         /
//                          "D:\work space\Smart Product\Two                  /
//                          YHY\Door\v1.03.0  Green\ZStack-CC2530-2.5.1a\Proj /
//                          ects\zstack\HomeAutomation\SmartDoor\CC2530DB\..\ /
//                          ..\..\..\..\Components\mt\" -I "D:\work           /
//                          space\Smart Product\Two YHY\Door\v1.03.0          /
//                          Green\ZStack-CC2530-2.5.1a\Projects\zstack\HomeAu /
//                          tomation\SmartDoor\CC2530DB\..\..\..\..\..\Compon /
//                          ents\osal\include\" -I "D:\work space\Smart       /
//                          Product\Two YHY\Door\v1.03.0                      /
//                          Green\ZStack-CC2530-2.5.1a\Projects\zstack\HomeAu /
//                          tomation\SmartDoor\CC2530DB\..\..\..\..\..\Compon /
//                          ents\services\saddr\" -I "D:\work space\Smart     /
//                          Product\Two YHY\Door\v1.03.0                      /
//                          Green\ZStack-CC2530-2.5.1a\Projects\zstack\HomeAu /
//                          tomation\SmartDoor\CC2530DB\..\..\..\..\..\Compon /
//                          ents\services\sdata\" -I "D:\work space\Smart     /
//                          Product\Two YHY\Door\v1.03.0                      /
//                          Green\ZStack-CC2530-2.5.1a\Projects\zstack\HomeAu /
//                          tomation\SmartDoor\CC2530DB\..\..\..\..\..\Compon /
//                          ents\stack\af\" -I "D:\work space\Smart           /
//                          Product\Two YHY\Door\v1.03.0                      /
//                          Green\ZStack-CC2530-2.5.1a\Projects\zstack\HomeAu /
//                          tomation\SmartDoor\CC2530DB\..\..\..\..\..\Compon /
//                          ents\stack\nwk\" -I "D:\work space\Smart          /
//                          Product\Two YHY\Door\v1.03.0                      /
//                          Green\ZStack-CC2530-2.5.1a\Projects\zstack\HomeAu /
//                          tomation\SmartDoor\CC2530DB\..\..\..\..\..\Compon /
//                          ents\stack\sapi\" -I "D:\work space\Smart         /
//                          Product\Two YHY\Door\v1.03.0                      /
//                          Green\ZStack-CC2530-2.5.1a\Projects\zstack\HomeAu /
//                          tomation\SmartDoor\CC2530DB\..\..\..\..\..\Compon /
//                          ents\stack\sec\" -I "D:\work space\Smart          /
//                          Product\Two YHY\Door\v1.03.0                      /
//                          Green\ZStack-CC2530-2.5.1a\Projects\zstack\HomeAu /
//                          tomation\SmartDoor\CC2530DB\..\..\..\..\..\Compon /
//                          ents\stack\sys\" -I "D:\work space\Smart          /
//                          Product\Two YHY\Door\v1.03.0                      /
//                          Green\ZStack-CC2530-2.5.1a\Projects\zstack\HomeAu /
//                          tomation\SmartDoor\CC2530DB\..\..\..\..\..\Compon /
//                          ents\stack\zcl\" -I "D:\work space\Smart          /
//                          Product\Two YHY\Door\v1.03.0                      /
//                          Green\ZStack-CC2530-2.5.1a\Projects\zstack\HomeAu /
//                          tomation\SmartDoor\CC2530DB\..\..\..\..\..\Compon /
//                          ents\stack\zdo\" -I "D:\work space\Smart          /
//                          Product\Two YHY\Door\v1.03.0                      /
//                          Green\ZStack-CC2530-2.5.1a\Projects\zstack\HomeAu /
//                          tomation\SmartDoor\CC2530DB\..\..\..\..\..\Compon /
//                          ents\zmac\" -I "D:\work space\Smart Product\Two   /
//                          YHY\Door\v1.03.0  Green\ZStack-CC2530-2.5.1a\Proj /
//                          ects\zstack\HomeAutomation\SmartDoor\CC2530DB\..\ /
//                          ..\..\..\..\Components\zmac\f8w\" -Oh             /
//                          --require_prototypes                              /
//    List file          =  D:\work space\Smart Product\Two YHY\Door\v1.03.0  /
//                           Green\ZStack-CC2530-2.5.1a\Projects\zstack\HomeA /
//                          utomation\SmartDoor\CC2530DB\EndDeviceEB\List\MT_ /
//                          AF.s51                                            /
//                                                                            /
//                                                                            /
///////////////////////////////////////////////////////////////////////////////

        NAME MT_AF

        RTMODEL "__SystemLibrary", "CLib"
        RTMODEL "__calling_convention", "xdata_reentrant"
        RTMODEL "__code_model", "banked"
        RTMODEL "__core", "plain"
        RTMODEL "__data_model", "large"
        RTMODEL "__dptr_size", "16"
        RTMODEL "__extended_stack", "disabled"
        RTMODEL "__location_for_constants", "data"
        RTMODEL "__number_of_dptrs", "1"
        RTMODEL "__rt_version", "1"

        RSEG DOVERLAY:DATA:NOROOT(0)
        RSEG IOVERLAY:IDATA:NOROOT(0)
        RSEG ISTACK:IDATA:NOROOT(0)
        RSEG PSTACK:XDATA:NOROOT(0)
        RSEG XSTACK:XDATA:NOROOT(0)

        EXTERN ?ALLOC_XSTACK8
        EXTERN ?BANKED_ENTER_XDATA
        EXTERN ?BANKED_LEAVE_XDATA
        EXTERN ?BDISPATCH
        EXTERN ?BRET
        EXTERN ?DEALLOC_XSTACK8
        EXTERN ?L_ADD
        EXTERN ?L_EQ_X
        EXTERN ?L_MOV_X
        EXTERN ?L_SHL
        EXTERN ?PUSH_XSTACK8_X_TWO
        EXTERN ?PUSH_XSTACK_I_ONE
        EXTERN ?PUSH_XSTACK_I_THREE
        EXTERN ?PUSH_XSTACK_I_TWO
        EXTERN ?UL_SHR
        EXTERN ?V0
        EXTERN ?XLOAD_R2345
        EXTERN ?XSP
        EXTERN ?XSTACK_DISP0_8
        EXTERN ?XSTORE_R2345
        EXTERN __INIT_XDATA_Z

        PUBLIC ??MT_AfCommandProcessing?relay
        FUNCTION ??MT_AfCommandProcessing?relay,0203H
        PUBLIC ??MT_AfDataConfirm?relay
        FUNCTION ??MT_AfDataConfirm?relay,0203H
        PUBLIC ??MT_AfDataRequest?relay
        FUNCTION ??MT_AfDataRequest?relay,0203H
        PUBLIC ??MT_AfDataRequestSrcRtg?relay
        FUNCTION ??MT_AfDataRequestSrcRtg?relay,0203H
        FUNCTION ??MT_AfDataRetrieve?relay,0203H
        FUNCTION ??MT_AfDataStore?relay,0203H
        PUBLIC ??MT_AfExec?relay
        FUNCTION ??MT_AfExec?relay,0203H
        PUBLIC ??MT_AfIncomingMsg?relay
        FUNCTION ??MT_AfIncomingMsg?relay,0203H
        PUBLIC ??MT_AfRegister?relay
        FUNCTION ??MT_AfRegister?relay,0203H
        PUBLIC MT_AfCommandProcessing
        FUNCTION MT_AfCommandProcessing,021203H
        ARGFRAME XSTACK, 0, STACK
        LOCFRAME ISTACK, 1, STACK
        LOCFRAME XSTACK, 12, STACK
        PUBLIC MT_AfDataConfirm
        FUNCTION MT_AfDataConfirm,021203H
        ARGFRAME XSTACK, 0, STACK
        LOCFRAME ISTACK, 3, STACK
        LOCFRAME XSTACK, 3, STACK
        PUBLIC MT_AfDataRequest
        FUNCTION MT_AfDataRequest,021203H
        ARGFRAME XSTACK, 12, STACK
        ARGFRAME IOVERLAY, 0, STATIC
        ARGFRAME DOVERLAY, 0, STATIC
        LOCFRAME ISTACK, 1, STACK
        LOCFRAME XSTACK, 45, STACK
        PUBLIC MT_AfDataRequestSrcRtg
        FUNCTION MT_AfDataRequestSrcRtg,021203H
        ARGFRAME XSTACK, 12, STACK
        ARGFRAME IOVERLAY, 0, STATIC
        ARGFRAME DOVERLAY, 0, STATIC
        LOCFRAME ISTACK, 1, STACK
        LOCFRAME XSTACK, 47, STACK
        FUNCTION MT_AfDataRetrieve,021203H
        ARGFRAME XSTACK, 12, STACK
        ARGFRAME IOVERLAY, 0, STATIC
        ARGFRAME DOVERLAY, 0, STATIC
        LOCFRAME ISTACK, 1, STACK
        LOCFRAME XSTACK, 23, STACK
        FUNCTION MT_AfDataStore,021203H
        ARGFRAME XSTACK, 12, STACK
        ARGFRAME IOVERLAY, 0, STATIC
        ARGFRAME DOVERLAY, 0, STATIC
        LOCFRAME ISTACK, 1, STACK
        LOCFRAME XSTACK, 24, STACK
        PUBLIC MT_AfExec
        FUNCTION MT_AfExec,021203H
        ARGFRAME XSTACK, 0, STACK
        LOCFRAME XSTACK, 9, STACK
        PUBLIC MT_AfIncomingMsg
        FUNCTION MT_AfIncomingMsg,021203H
        ARGFRAME XSTACK, 0, STACK
        LOCFRAME ISTACK, 1, STACK
        LOCFRAME XSTACK, 28, STACK
        PUBLIC MT_AfRegister
        FUNCTION MT_AfRegister,021203H
        ARGFRAME XSTACK, 12, STACK
        ARGFRAME IOVERLAY, 0, STATIC
        ARGFRAME DOVERLAY, 0, STATIC
        LOCFRAME ISTACK, 1, STACK
        LOCFRAME XSTACK, 15, STACK
        PUBLIC pMtAfDataReq
        PUBLIC pMtAfInMsgList
        
        CFI Names cfiNames0
        CFI StackFrame CFA_SP SP IDATA
        CFI StackFrame CFA_PSP16 PSP16 XDATA
        CFI StackFrame CFA_XSP16 XSP16 XDATA
        CFI StaticOverlayFrame CFA_IOVERLAY IOVERLAY
        CFI StaticOverlayFrame CFA_DOVERLAY DOVERLAY
        CFI Resource `PSW.CY`:1, `B.BR0`:1, `B.BR1`:1, `B.BR2`:1, `B.BR3`:1
        CFI Resource `B.BR4`:1, `B.BR5`:1, `B.BR6`:1, `B.BR7`:1, `VB.BR8`:1
        CFI Resource `VB.BR9`:1, `VB.BR10`:1, `VB.BR11`:1, `VB.BR12`:1
        CFI Resource `VB.BR13`:1, `VB.BR14`:1, `VB.BR15`:1, VB:8, B:8, A:8
        CFI Resource PSW:8, DPL0:8, DPH0:8, R0:8, R1:8, R2:8, R3:8, R4:8, R5:8
        CFI Resource R6:8, R7:8, V0:8, V1:8, V2:8, V3:8, V4:8, V5:8, V6:8, V7:8
        CFI Resource V8:8, V9:8, V10:8, V11:8, V12:8, V13:8, V14:8, V15:8, SP:8
        CFI Resource PSPH:8, PSPL:8, PSP16:16, XSPH:8, XSPL:8, XSP16:16
        CFI VirtualResource ?RET:24
        CFI Resource ?BRET_EXT:8
        CFI VirtualResource ?RET_HIGH:8, ?RET_LOW:8
        CFI ResourceParts PSP16 PSPH, PSPL
        CFI ResourceParts XSP16 XSPH, XSPL
        CFI ResourceParts ?RET ?BRET_EXT, ?RET_HIGH, ?RET_LOW
        CFI EndNames cfiNames0
        
        CFI Common cfiCommon0 Using cfiNames0
        CFI CodeAlign 1
        CFI DataAlign -1
        CFI ReturnAddress ?RET CODE
        CFI CFA_DOVERLAY Used
        CFI CFA_IOVERLAY Used
        CFI CFA_SP SP+-3
        CFI CFA_PSP16 PSP16+0
        CFI CFA_XSP16 XSP16+0
        CFI `PSW.CY` SameValue
        CFI `B.BR0` SameValue
        CFI `B.BR1` SameValue
        CFI `B.BR2` SameValue
        CFI `B.BR3` SameValue
        CFI `B.BR4` SameValue
        CFI `B.BR5` SameValue
        CFI `B.BR6` SameValue
        CFI `B.BR7` SameValue
        CFI `VB.BR8` SameValue
        CFI `VB.BR9` SameValue
        CFI `VB.BR10` SameValue
        CFI `VB.BR11` SameValue
        CFI `VB.BR12` SameValue
        CFI `VB.BR13` SameValue
        CFI `VB.BR14` SameValue
        CFI `VB.BR15` SameValue
        CFI VB SameValue
        CFI B Undefined
        CFI A Undefined
        CFI PSW SameValue
        CFI DPL0 SameValue
        CFI DPH0 SameValue
        CFI R0 Undefined
        CFI R1 Undefined
        CFI R2 Undefined
        CFI R3 Undefined
        CFI R4 Undefined
        CFI R5 Undefined
        CFI R6 SameValue
        CFI R7 SameValue
        CFI V0 SameValue
        CFI V1 SameValue
        CFI V2 SameValue
        CFI V3 SameValue
        CFI V4 SameValue
        CFI V5 SameValue
        CFI V6 SameValue
        CFI V7 SameValue
        CFI V8 SameValue
        CFI V9 SameValue
        CFI V10 SameValue
        CFI V11 SameValue
        CFI V12 SameValue
        CFI V13 SameValue
        CFI V14 SameValue
        CFI V15 SameValue
        CFI PSPH Undefined
        CFI PSPL Undefined
        CFI XSPH Undefined
        CFI XSPL Undefined
        CFI ?RET Concat
        CFI ?BRET_EXT Frame(CFA_SP, 3)
        CFI ?RET_HIGH Frame(CFA_SP, 2)
        CFI ?RET_LOW Frame(CFA_SP, 1)
        CFI EndCommon cfiCommon0
        
        
        CFI Common cfiCommon1 Using cfiNames0
        CFI CodeAlign 1
        CFI DataAlign -1
        CFI ReturnAddress ?RET CODE
        CFI CFA_DOVERLAY Used
        CFI CFA_IOVERLAY Used
        CFI CFA_SP SP+-2
        CFI CFA_PSP16 PSP16+0
        CFI CFA_XSP16 XSP16+0
        CFI `PSW.CY` SameValue
        CFI `B.BR0` SameValue
        CFI `B.BR1` SameValue
        CFI `B.BR2` SameValue
        CFI `B.BR3` SameValue
        CFI `B.BR4` SameValue
        CFI `B.BR5` SameValue
        CFI `B.BR6` SameValue
        CFI `B.BR7` SameValue
        CFI `VB.BR8` SameValue
        CFI `VB.BR9` SameValue
        CFI `VB.BR10` SameValue
        CFI `VB.BR11` SameValue
        CFI `VB.BR12` SameValue
        CFI `VB.BR13` SameValue
        CFI `VB.BR14` SameValue
        CFI `VB.BR15` SameValue
        CFI VB SameValue
        CFI B SameValue
        CFI A SameValue
        CFI PSW SameValue
        CFI DPL0 SameValue
        CFI DPH0 SameValue
        CFI R0 SameValue
        CFI R1 SameValue
        CFI R2 SameValue
        CFI R3 SameValue
        CFI R4 SameValue
        CFI R5 SameValue
        CFI R6 SameValue
        CFI R7 SameValue
        CFI V0 SameValue
        CFI V1 SameValue
        CFI V2 SameValue
        CFI V3 SameValue
        CFI V4 SameValue
        CFI V5 SameValue
        CFI V6 SameValue
        CFI V7 SameValue
        CFI V8 SameValue
        CFI V9 SameValue
        CFI V10 SameValue
        CFI V11 SameValue
        CFI V12 SameValue
        CFI V13 SameValue
        CFI V14 SameValue
        CFI V15 SameValue
        CFI PSPH Undefined
        CFI PSPL Undefined
        CFI XSPH Undefined
        CFI XSPL Undefined
        CFI ?RET Concat
        CFI ?BRET_EXT SameValue
        CFI ?RET_HIGH Frame(CFA_SP, 2)
        CFI ?RET_LOW Frame(CFA_SP, 1)
        CFI EndCommon cfiCommon1
        
osal_mem_free       SYMBOL "osal_mem_free"
osal_start_timerEx  SYMBOL "osal_start_timerEx"
osal_set_event      SYMBOL "osal_set_event"
afAPSF_ConfigSet    SYMBOL "afAPSF_ConfigSet"
MT_BuildAndSendZToolResponse SYMBOL "MT_BuildAndSendZToolResponse"
osal_mem_alloc      SYMBOL "osal_mem_alloc"
MT_BuildEndpointDesc SYMBOL "MT_BuildEndpointDesc"
afRegister          SYMBOL "afRegister"
osal_memcpy         SYMBOL "osal_memcpy"
afFindEndPointDesc  SYMBOL "afFindEndPointDesc"
AF_DataRequest      SYMBOL "AF_DataRequest"
osal_memset         SYMBOL "osal_memset"
AF_DataRequestSrcRtg SYMBOL "AF_DataRequestSrcRtg"
??AF_DataRequest?relay SYMBOL "?relay", AF_DataRequest
??AF_DataRequestSrcRtg?relay SYMBOL "?relay", AF_DataRequestSrcRtg
??MT_BuildAndSendZToolResponse?relay SYMBOL "?relay", MT_BuildAndSendZToolResponse
??MT_BuildEndpointDesc?relay SYMBOL "?relay", MT_BuildEndpointDesc
??afAPSF_ConfigSet?relay SYMBOL "?relay", afAPSF_ConfigSet
??afFindEndPointDesc?relay SYMBOL "?relay", afFindEndPointDesc
??afRegister?relay  SYMBOL "?relay", afRegister
??osal_mem_alloc?relay SYMBOL "?relay", osal_mem_alloc
??osal_mem_free?relay SYMBOL "?relay", osal_mem_free
??osal_memcpy?relay SYMBOL "?relay", osal_memcpy
??osal_memset?relay SYMBOL "?relay", osal_memset
??osal_set_event?relay SYMBOL "?relay", osal_set_event
??osal_start_timerEx?relay SYMBOL "?relay", osal_start_timerEx
MT_AfCommandProcessing SYMBOL "MT_AfCommandProcessing"
??MT_AfCommandProcessing?relay SYMBOL "?relay", MT_AfCommandProcessing
MT_AfDataConfirm    SYMBOL "MT_AfDataConfirm"
??MT_AfDataConfirm?relay SYMBOL "?relay", MT_AfDataConfirm
MT_AfDataRequest    SYMBOL "MT_AfDataRequest"
??MT_AfDataRequest?relay SYMBOL "?relay", MT_AfDataRequest
MT_AfDataRequestSrcRtg SYMBOL "MT_AfDataRequestSrcRtg"
??MT_AfDataRequestSrcRtg?relay SYMBOL "?relay", MT_AfDataRequestSrcRtg
MT_AfExec           SYMBOL "MT_AfExec"
??MT_AfExec?relay   SYMBOL "?relay", MT_AfExec
MT_AfIncomingMsg    SYMBOL "MT_AfIncomingMsg"
??MT_AfIncomingMsg?relay SYMBOL "?relay", MT_AfIncomingMsg
MT_AfRegister       SYMBOL "MT_AfRegister"
??MT_AfRegister?relay SYMBOL "?relay", MT_AfRegister

        EXTERN osal_mem_free
        FUNCTION osal_mem_free,0202H
        ARGFRAME ISTACK, 0, STACK
        ARGFRAME PSTACK, 0, STACK
        ARGFRAME XSTACK, 35, STACK
        ARGFRAME IOVERLAY, 0, STATIC
        ARGFRAME DOVERLAY, 0, STATIC
        EXTERN osal_start_timerEx
        FUNCTION osal_start_timerEx,0202H
        ARGFRAME ISTACK, 0, STACK
        ARGFRAME PSTACK, 0, STACK
        ARGFRAME XSTACK, 36, STACK
        ARGFRAME IOVERLAY, 0, STATIC
        ARGFRAME DOVERLAY, 0, STATIC
        EXTERN osal_set_event
        FUNCTION osal_set_event,0202H
        ARGFRAME ISTACK, 0, STACK
        ARGFRAME PSTACK, 0, STACK
        ARGFRAME XSTACK, 36, STACK
        ARGFRAME IOVERLAY, 0, STATIC
        ARGFRAME DOVERLAY, 0, STATIC
        EXTERN afAPSF_ConfigSet
        FUNCTION afAPSF_ConfigSet,0202H
        ARGFRAME ISTACK, 0, STACK
        ARGFRAME PSTACK, 0, STACK
        ARGFRAME XSTACK, 12, STACK
        ARGFRAME IOVERLAY, 0, STATIC
        ARGFRAME DOVERLAY, 0, STATIC
        EXTERN MT_BuildAndSendZToolResponse
        FUNCTION MT_BuildAndSendZToolResponse,0202H
        ARGFRAME ISTACK, 2, STACK
        ARGFRAME PSTACK, 0, STACK
        ARGFRAME XSTACK, 36, STACK
        ARGFRAME IOVERLAY, 0, STATIC
        ARGFRAME DOVERLAY, 0, STATIC
        EXTERN osal_mem_alloc
        FUNCTION osal_mem_alloc,0202H
        ARGFRAME ISTACK, 0, STACK
        ARGFRAME PSTACK, 0, STACK
        ARGFRAME XSTACK, 36, STACK
        ARGFRAME IOVERLAY, 0, STATIC
        ARGFRAME DOVERLAY, 0, STATIC
        EXTERN MT_BuildEndpointDesc
        FUNCTION MT_BuildEndpointDesc,0202H
        ARGFRAME ISTACK, 0, STACK
        ARGFRAME PSTACK, 0, STACK
        ARGFRAME XSTACK, 15, STACK
        ARGFRAME IOVERLAY, 0, STATIC
        ARGFRAME DOVERLAY, 0, STATIC
        EXTERN afRegister
        FUNCTION afRegister,0202H
        ARGFRAME ISTACK, 0, STACK
        ARGFRAME PSTACK, 0, STACK
        ARGFRAME XSTACK, 15, STACK
        ARGFRAME IOVERLAY, 0, STATIC
        ARGFRAME DOVERLAY, 0, STATIC
        EXTERN osal_memcpy
        FUNCTION osal_memcpy,0202H
        ARGFRAME ISTACK, 0, STACK
        ARGFRAME PSTACK, 0, STACK
        ARGFRAME XSTACK, 39, STACK
        ARGFRAME IOVERLAY, 0, STATIC
        ARGFRAME DOVERLAY, 0, STATIC
        EXTERN afFindEndPointDesc
        FUNCTION afFindEndPointDesc,0202H
        ARGFRAME ISTACK, 0, STACK
        ARGFRAME PSTACK, 0, STACK
        ARGFRAME XSTACK, 36, STACK
        ARGFRAME IOVERLAY, 0, STATIC
        ARGFRAME DOVERLAY, 0, STATIC
        EXTERN AF_DataRequest
        FUNCTION AF_DataRequest,0202H
        ARGFRAME ISTACK, 0, STACK
        ARGFRAME PSTACK, 0, STACK
        ARGFRAME XSTACK, 45, STACK
        ARGFRAME IOVERLAY, 0, STATIC
        ARGFRAME DOVERLAY, 0, STATIC
        EXTERN osal_memset
        FUNCTION osal_memset,0202H
        ARGFRAME ISTACK, 0, STACK
        ARGFRAME PSTACK, 0, STACK
        ARGFRAME XSTACK, 35, STACK
        ARGFRAME IOVERLAY, 0, STATIC
        ARGFRAME DOVERLAY, 0, STATIC
        EXTERN AF_DataRequestSrcRtg
        FUNCTION AF_DataRequestSrcRtg,0202H
        ARGFRAME ISTACK, 0, STACK
        ARGFRAME PSTACK, 0, STACK
        ARGFRAME XSTACK, 47, STACK
        ARGFRAME IOVERLAY, 0, STATIC
        ARGFRAME DOVERLAY, 0, STATIC
        EXTERN ??AF_DataRequest?relay
        FUNCTION ??AF_DataRequest?relay,00H
        EXTERN ??AF_DataRequestSrcRtg?relay
        FUNCTION ??AF_DataRequestSrcRtg?relay,00H
        EXTERN ??MT_BuildAndSendZToolResponse?relay
        FUNCTION ??MT_BuildAndSendZToolResponse?relay,00H
        EXTERN ??MT_BuildEndpointDesc?relay
        FUNCTION ??MT_BuildEndpointDesc?relay,00H
        EXTERN ??afAPSF_ConfigSet?relay
        FUNCTION ??afAPSF_ConfigSet?relay,00H
        EXTERN ??afFindEndPointDesc?relay
        FUNCTION ??afFindEndPointDesc?relay,00H
        EXTERN ??afRegister?relay
        FUNCTION ??afRegister?relay,00H
        EXTERN ??osal_mem_alloc?relay
        FUNCTION ??osal_mem_alloc?relay,00H
        EXTERN ??osal_mem_free?relay
        FUNCTION ??osal_mem_free?relay,00H
        EXTERN ??osal_memcpy?relay
        FUNCTION ??osal_memcpy?relay,00H
        EXTERN ??osal_memset?relay
        FUNCTION ??osal_memset?relay,00H
        EXTERN ??osal_set_event?relay
        FUNCTION ??osal_set_event?relay,00H
        EXTERN ??osal_start_timerEx?relay
        FUNCTION ??osal_start_timerEx?relay,00H
        EXTERN MT_TaskID

// D:\work space\Smart Product\Two YHY\Door\v1.03.0  Green\ZStack-CC2530-2.5.1a\Components\mt\MT_AF.c
//    1 /**************************************************************************************************
//    2   Filename:       MT_AF.c
//    3   Revised:        $Date: 2011-05-27 16:00:27 -0700 (Fri, 27 May 2011) $
//    4   Revision:       $Revision: 26145 $
//    5 
//    6 
//    7   Description:    MonitorTest functions for the AF layer.
//    8 
//    9 
//   10   Copyright 2007-2011 Texas Instruments Incorporated. All rights reserved.
//   11 
//   12   IMPORTANT: Your use of this Software is limited to those specific rights
//   13   granted under the terms of a software license agreement between the user
//   14   who downloaded the software, his/her employer (which must be your employer)
//   15   and Texas Instruments Incorporated (the "License").  You may not use this
//   16   Software unless you agree to abide by the terms of the License. The License
//   17   limits your use, and you acknowledge, that the Software may not be modified,
//   18   copied or distributed unless embedded on a Texas Instruments microcontroller
//   19   or used solely and exclusively in conjunction with a Texas Instruments radio
//   20   frequency transceiver, which is integrated into your product.  Other than for
//   21   the foregoing purpose, you may not use, reproduce, copy, prepare derivative
//   22   works of, modify, distribute, perform, display or sell this Software and/or
//   23   its documentation for any purpose.
//   24 
//   25   YOU FURTHER ACKNOWLEDGE AND AGREE THAT THE SOFTWARE AND DOCUMENTATION ARE
//   26   PROVIDED “AS IS” WITHOUT WARRANTY OF ANY KIND, EITHER EXPRESS OR IMPLIED,
//   27   INCLUDING WITHOUT LIMITATION, ANY WARRANTY OF MERCHANTABILITY, TITLE,
//   28   NON-INFRINGEMENT AND FITNESS FOR A PARTICULAR PURPOSE. IN NO EVENT SHALL
//   29   TEXAS INSTRUMENTS OR ITS LICENSORS BE LIABLE OR OBLIGATED UNDER CONTRACT,
//   30   NEGLIGENCE, STRICT LIABILITY, CONTRIBUTION, BREACH OF WARRANTY, OR OTHER
//   31   LEGAL EQUITABLE THEORY ANY DIRECT OR INDIRECT DAMAGES OR EXPENSES
//   32   INCLUDING BUT NOT LIMITED TO ANY INCIDENTAL, SPECIAL, INDIRECT, PUNITIVE
//   33   OR CONSEQUENTIAL DAMAGES, LOST PROFITS OR LOST DATA, COST OF PROCUREMENT
//   34   OF SUBSTITUTE GOODS, TECHNOLOGY, SERVICES, OR ANY CLAIMS BY THIRD PARTIES
//   35   (INCLUDING BUT NOT LIMITED TO ANY DEFENSE THEREOF), OR OTHER SIMILAR COSTS.
//   36 
//   37   Should you have any questions regarding your right to use this Software,
//   38   contact Texas Instruments Incorporated at www.TI.com.
//   39 
//   40 **************************************************************************************************/
//   41 
//   42 /* ------------------------------------------------------------------------------------------------
//   43  *                                          Includes
//   44  * ------------------------------------------------------------------------------------------------
//   45  */
//   46 #include "ZComDef.h"
//   47 #include "OSAL.h"
//   48 #include "MT.h"
//   49 #include "MT_AF.h"
//   50 #include "MT_ZDO.h"
//   51 #include "nwk.h"
//   52 #include "OnBoard.h"
//   53 #include "MT_UART.h"
//   54 
//   55 #if defined INTER_PAN
//   56 #include "stub_aps.h"
//   57 #endif
//   58 
//   59 /* ------------------------------------------------------------------------------------------------
//   60  *                                          Constants
//   61  * ------------------------------------------------------------------------------------------------
//   62  */
//   63 
//   64 #if !defined MT_AF_EXEC_CNT
//   65 #define MT_AF_EXEC_CNT  15
//   66 #endif
//   67 
//   68 #if !defined MT_AF_EXEC_DLY
//   69 #define MT_AF_EXEC_DLY  1000
//   70 #endif
//   71 
//   72 /* ------------------------------------------------------------------------------------------------
//   73  *                                           Typedefs
//   74  * ------------------------------------------------------------------------------------------------
//   75  */
//   76 
//   77 typedef struct
//   78 {
//   79   uint8 *data;
//   80   afAddrType_t dstAddr;
//   81   endPointDesc_t *epDesc;
//   82   uint16 cId;
//   83   uint16 dataLen;
//   84   uint8 transId;
//   85   uint8 txOpts;
//   86   uint8 radius;
//   87   uint8 tick;
//   88 } mtAfDataReq_t;
//   89 
//   90 typedef struct _mtAfInMsgList_t
//   91 {
//   92   struct _mtAfInMsgList_t *next;
//   93   uint8 *data;
//   94   uint32 timestamp;         // Receipt timestamp from MAC.
//   95   uint8 tick;
//   96 } mtAfInMsgList_t;
//   97 
//   98 /* ------------------------------------------------------------------------------------------------
//   99  *                                        Local Variables
//  100  * ------------------------------------------------------------------------------------------------
//  101  */
//  102 

        RSEG XDATA_Z:XDATA:NOROOT(0)
        DATA16
//  103 mtAfInMsgList_t *pMtAfInMsgList = NULL;
pMtAfInMsgList:
        DS 2
        REQUIRE __INIT_XDATA_Z

        RSEG XDATA_Z:XDATA:NOROOT(0)
        DATA16
//  104 mtAfDataReq_t *pMtAfDataReq = NULL;
pMtAfDataReq:
        DS 2
        REQUIRE __INIT_XDATA_Z
//  105 
//  106 /* ------------------------------------------------------------------------------------------------
//  107  *                                        Global Variables
//  108  * ------------------------------------------------------------------------------------------------
//  109  */
//  110 
//  111 #if defined ( MT_AF_CB_FUNC )
//  112 uint16 _afCallbackSub;
//  113 #endif
//  114 
//  115 /* ------------------------------------------------------------------------------------------------
//  116  *                                        Local Functions
//  117  * ------------------------------------------------------------------------------------------------
//  118  */
//  119 
//  120 void MT_AfRegister(uint8 *pBuf);
//  121 void MT_AfDataRequest(uint8 *pBuf);
//  122 
//  123 #if defined ( ZIGBEE_SOURCE_ROUTING )
//  124 void MT_AfDataRequestSrcRtg(uint8 *pBuf);
//  125 #endif
//  126 
//  127 #if defined INTER_PAN
//  128 static void MT_AfInterPanCtl(uint8 *pBuf);
//  129 #endif
//  130 
//  131 static void MT_AfDataRetrieve(uint8 *pBuf);
//  132 static void MT_AfDataStore(uint8 *pBuf);
//  133 static void MT_AfAPSF_ConfigSet(uint8 *pBuf);
//  134 
//  135 /**************************************************************************************************
//  136  * @fn          MT_AfExec
//  137  *
//  138  * @brief       This function is invoked by an MT timer event.
//  139  *
//  140  * input parameters
//  141  *
//  142  * None.
//  143  *
//  144  * output parameters
//  145  *
//  146  * None.
//  147  *
//  148  * @return      None.
//  149  **************************************************************************************************
//  150  */

        RSEG BANKED_CODE:CODE:NOROOT(0)
//  151 void MT_AfExec(void)
MT_AfExec:
        CFI Block cfiBlock0 Using cfiCommon0
        CFI Function MT_AfExec
        CODE
//  152 {
        FUNCALL MT_AfExec, osal_mem_free
        LOCFRAME ISTACK, 0, STACK
        LOCFRAME PSTACK, 0, STACK
        LOCFRAME XSTACK, 9, STACK
        LOCFRAME IOVERLAY, 0, STATIC
        LOCFRAME DOVERLAY, 0, STATIC
        ARGFRAME ISTACK, 0, STACK
        ARGFRAME PSTACK, 0, STACK
        ARGFRAME XSTACK, 9, STACK
        ARGFRAME IOVERLAY, 0, STATIC
        ARGFRAME DOVERLAY, 0, STATIC
        FUNCALL MT_AfExec, osal_mem_free
        LOCFRAME ISTACK, 0, STACK
        LOCFRAME PSTACK, 0, STACK
        LOCFRAME XSTACK, 9, STACK
        LOCFRAME IOVERLAY, 0, STATIC
        LOCFRAME DOVERLAY, 0, STATIC
        ARGFRAME ISTACK, 0, STACK
        ARGFRAME PSTACK, 0, STACK
        ARGFRAME XSTACK, 9, STACK
        ARGFRAME IOVERLAY, 0, STATIC
        ARGFRAME DOVERLAY, 0, STATIC
        FUNCALL MT_AfExec, osal_mem_free
        LOCFRAME ISTACK, 0, STACK
        LOCFRAME PSTACK, 0, STACK
        LOCFRAME XSTACK, 9, STACK
        LOCFRAME IOVERLAY, 0, STATIC
        LOCFRAME DOVERLAY, 0, STATIC
        ARGFRAME ISTACK, 0, STACK
        ARGFRAME PSTACK, 0, STACK
        ARGFRAME XSTACK, 9, STACK
        ARGFRAME IOVERLAY, 0, STATIC
        ARGFRAME DOVERLAY, 0, STATIC
        FUNCALL MT_AfExec, osal_start_timerEx
        LOCFRAME ISTACK, 0, STACK
        LOCFRAME PSTACK, 0, STACK
        LOCFRAME XSTACK, 9, STACK
        LOCFRAME IOVERLAY, 0, STATIC
        LOCFRAME DOVERLAY, 0, STATIC
        ARGFRAME ISTACK, 0, STACK
        ARGFRAME PSTACK, 0, STACK
        ARGFRAME XSTACK, 9, STACK
        ARGFRAME IOVERLAY, 0, STATIC
        ARGFRAME DOVERLAY, 0, STATIC
        FUNCALL MT_AfExec, osal_set_event
        LOCFRAME ISTACK, 0, STACK
        LOCFRAME PSTACK, 0, STACK
        LOCFRAME XSTACK, 9, STACK
        LOCFRAME IOVERLAY, 0, STATIC
        LOCFRAME DOVERLAY, 0, STATIC
        ARGFRAME ISTACK, 0, STACK
        ARGFRAME PSTACK, 0, STACK
        ARGFRAME XSTACK, 9, STACK
        ARGFRAME IOVERLAY, 0, STATIC
        ARGFRAME DOVERLAY, 0, STATIC
        MOV     A,#-0x9
        LCALL   ?BANKED_ENTER_XDATA
        CFI R6 load(1, XDATA, add(CFA_XSP16, literal(-9)))
        CFI VB load(1, XDATA, add(CFA_XSP16, literal(-8)))
        CFI V0 load(1, XDATA, add(CFA_XSP16, literal(-7)))
        CFI R7 load(1, XDATA, add(CFA_XSP16, literal(-6)))
        CFI ?RET_LOW load(1, XDATA, add(CFA_XSP16, literal(-5)))
        CFI ?RET_HIGH load(1, XDATA, add(CFA_XSP16, literal(-4)))
        CFI ?BRET_EXT load(1, XDATA, add(CFA_XSP16, literal(-3)))
        CFI DPL0 load(1, XDATA, add(CFA_XSP16, literal(-2)))
        CFI DPH0 load(1, XDATA, add(CFA_XSP16, literal(-1)))
        CFI CFA_SP SP+0
        CFI CFA_XSP16 add(XSP16, 9)
        ; Saved register size: 9
        ; Auto size: 0
//  153   mtAfInMsgList_t *pPrev, *pItem = pMtAfInMsgList;
??MT_AfExec_0:
        LCALL   ?Subroutine41 & 0xFFFF
??CrossCallReturnLabel_92:
        SJMP    ??MT_AfExec_1
//  154 
//  155   while (pItem != NULL)
//  156   {
//  157     if (--(pItem->tick) == 0)
//  158     {
//  159       if (pMtAfInMsgList == pItem)
//  160       {
//  161         pMtAfInMsgList = pItem->next;
//  162         (void)osal_mem_free(pItem);
//  163         pItem = pMtAfInMsgList;
//  164       }
//  165       else
//  166       {
//  167         pPrev->next = pItem->next;
//  168         (void)osal_mem_free(pItem);
//  169         pItem = pPrev->next;
//  170       }
//  171     }
//  172     else
//  173     {
//  174       pPrev = pItem;
??MT_AfExec_2:
        MOV     A,R2
        MOV     R6,A
        MOV     A,R3
        MOV     R7,A
//  175       pItem = pItem->next;
        MOV     A,R0
        MOV     R2,A
        MOV     A,R1
??MT_AfExec_1:
        MOV     R3,A
//  176     }
        MOV     A,R2
        ORL     A,R3
        JZ      ??MT_AfExec_3
        MOV     A,R2
        ADD     A,#0x8
        MOV     R0,A
        MOV     A,R3
        ADDC    A,#0x0
        MOV     R1,A
        MOV     A,R0
        MOV     R4,A
        MOV     A,R1
        MOV     R5,A
        MOV     DPL,R4
        MOV     DPH,R5
        MOVX    A,@DPTR
        DEC     A
        MOVX    @DPTR,A
        MOV     DPL,R2
        MOV     DPH,R3
        LCALL   ?Subroutine36 & 0xFFFF
??CrossCallReturnLabel_76:
        MOV     DPL,R4
        MOV     DPH,R5
        MOVX    A,@DPTR
        JNZ     ??MT_AfExec_2
        MOV     DPTR,#pMtAfInMsgList
        MOVX    A,@DPTR
        MOV     R4,A
        INC     DPTR
        MOVX    A,@DPTR
        MOV     R5,A
        MOV     A,R2
        XRL     A,R4
        JNZ     ??MT_AfExec_4
        MOV     A,R3
        XRL     A,R5
??MT_AfExec_4:
        JNZ     ??MT_AfExec_5
        MOV     DPTR,#pMtAfInMsgList
        LCALL   ?Subroutine29 & 0xFFFF
??CrossCallReturnLabel_39:
        SJMP    ??MT_AfExec_0
??MT_AfExec_5:
        MOV     DPL,R6
        MOV     DPH,R7
        LCALL   ?Subroutine29 & 0xFFFF
??CrossCallReturnLabel_40:
        MOV     DPL,R6
        MOV     DPH,R7
        LCALL   ??Subroutine52_0 & 0xFFFF
//  177   }
??CrossCallReturnLabel_89:
        SJMP    ??MT_AfExec_1
//  178 
//  179   if (pMtAfDataReq != NULL)
??MT_AfExec_3:
        LCALL   ?Subroutine3 & 0xFFFF
??CrossCallReturnLabel_71:
        JZ      ??MT_AfExec_6
//  180   {
//  181     if (--(pMtAfDataReq->tick) == 0)
        LCALL   ?Subroutine4 & 0xFFFF
??CrossCallReturnLabel_57:
        DEC     A
        MOVX    @DPTR,A
        LCALL   ?Subroutine4 & 0xFFFF
??CrossCallReturnLabel_58:
        JNZ     ??MT_AfExec_6
//  182     {
//  183       (void)osal_mem_free(pMtAfDataReq);
        ; Setup parameters for call to function osal_mem_free
        LCALL   ?Subroutine8 & 0xFFFF
//  184       pMtAfDataReq = NULL;
//  185     }
//  186   }
??CrossCallReturnLabel_2:
        MOVX    @DPTR,A
//  187 
//  188   if ((pMtAfInMsgList != NULL) || (pMtAfDataReq != NULL))
??MT_AfExec_6:
        MOV     DPTR,#pMtAfInMsgList
        LCALL   ??Subroutine48_0 & 0xFFFF
??CrossCallReturnLabel_70:
        JNZ     ??MT_AfExec_7
        LCALL   ?Subroutine3 & 0xFFFF
??CrossCallReturnLabel_72:
        JZ      ??CrossCallReturnLabel_12
//  189   {
//  190     if (ZSuccess != osal_start_timerEx(MT_TaskID, MT_AF_EXEC_EVT, MT_AF_EXEC_DLY))
??MT_AfExec_7:
        ; Setup parameters for call to function osal_start_timerEx
        LCALL   ??Subroutine47_0 & 0xFFFF
??CrossCallReturnLabel_69:
        JZ      ??CrossCallReturnLabel_12
//  191     {
//  192       osal_set_event(MT_TaskID, MT_AF_EXEC_EVT);
        ; Setup parameters for call to function osal_set_event
        LCALL   ?Subroutine15 & 0xFFFF
        CFI EndBlock cfiBlock0
//  193     }
//  194   }
//  195 }
??CrossCallReturnLabel_12:
        REQUIRE ?Subroutine0
        ; // Fall through to label ?Subroutine0

        RSEG BANKED_CODE:CODE:NOROOT(0)
?Subroutine0:
        CFI Block cfiBlock1 Using cfiCommon0
        CFI NoFunction
        CFI CFA_SP SP+0
        CFI CFA_XSP16 add(XSP16, 9)
        CFI VB load(1, XDATA, add(CFA_XSP16, literal(-8)))
        CFI DPL0 load(1, XDATA, add(CFA_XSP16, literal(-2)))
        CFI DPH0 load(1, XDATA, add(CFA_XSP16, literal(-1)))
        CFI R6 load(1, XDATA, add(CFA_XSP16, literal(-9)))
        CFI R7 load(1, XDATA, add(CFA_XSP16, literal(-6)))
        CFI V0 load(1, XDATA, add(CFA_XSP16, literal(-7)))
        CFI ?BRET_EXT load(1, XDATA, add(CFA_XSP16, literal(-3)))
        CFI ?RET_HIGH load(1, XDATA, add(CFA_XSP16, literal(-4)))
        CFI ?RET_LOW load(1, XDATA, add(CFA_XSP16, literal(-5)))
        MOV     R7,#0x1
        LJMP    ?BANKED_LEAVE_XDATA
        CFI EndBlock cfiBlock1

        RSEG BANKED_CODE:CODE:NOROOT(0)
?Subroutine29:
        CFI Block cfiCond2 Using cfiCommon0
        CFI NoFunction
        CFI Conditional ??CrossCallReturnLabel_39
        CFI R6 load(1, XDATA, add(CFA_XSP16, literal(-9)))
        CFI VB load(1, XDATA, add(CFA_XSP16, literal(-8)))
        CFI V0 load(1, XDATA, add(CFA_XSP16, literal(-7)))
        CFI R7 load(1, XDATA, add(CFA_XSP16, literal(-6)))
        CFI ?RET_LOW load(1, XDATA, add(CFA_XSP16, literal(-5)))
        CFI ?RET_HIGH load(1, XDATA, add(CFA_XSP16, literal(-4)))
        CFI ?BRET_EXT load(1, XDATA, add(CFA_XSP16, literal(-3)))
        CFI DPL0 load(1, XDATA, add(CFA_XSP16, literal(-2)))
        CFI DPH0 load(1, XDATA, add(CFA_XSP16, literal(-1)))
        CFI CFA_SP SP+0
        CFI CFA_XSP16 add(XSP16, 9)
        CFI Block cfiCond3 Using cfiCommon0
        CFI (cfiCond3) NoFunction
        CFI (cfiCond3) Conditional ??CrossCallReturnLabel_40
        CFI (cfiCond3) R6 load(1, XDATA, add(CFA_XSP16, literal(-9)))
        CFI (cfiCond3) VB load(1, XDATA, add(CFA_XSP16, literal(-8)))
        CFI (cfiCond3) V0 load(1, XDATA, add(CFA_XSP16, literal(-7)))
        CFI (cfiCond3) R7 load(1, XDATA, add(CFA_XSP16, literal(-6)))
        CFI (cfiCond3) ?RET_LOW load(1, XDATA, add(CFA_XSP16, literal(-5)))
        CFI (cfiCond3) ?RET_HIGH load(1, XDATA, add(CFA_XSP16, literal(-4)))
        CFI (cfiCond3) ?BRET_EXT load(1, XDATA, add(CFA_XSP16, literal(-3)))
        CFI (cfiCond3) DPL0 load(1, XDATA, add(CFA_XSP16, literal(-2)))
        CFI (cfiCond3) DPH0 load(1, XDATA, add(CFA_XSP16, literal(-1)))
        CFI (cfiCond3) CFA_SP SP+0
        CFI (cfiCond3) CFA_XSP16 add(XSP16, 9)
        CFI Block cfiPicker4 Using cfiCommon1
        CFI (cfiPicker4) NoFunction
        CFI (cfiPicker4) Picker
        MOV     A,R0
        MOVX    @DPTR,A
        INC     DPTR
        MOV     A,R1
        MOVX    @DPTR,A
        ; Setup parameters for call to function osal_mem_free
        ; Setup parameters for call to function osal_mem_free
        LCALL   ??osal_mem_free?relay
        RET
        CFI EndBlock cfiCond2
        CFI EndBlock cfiCond3
        CFI EndBlock cfiPicker4

        RSEG BANKED_CODE:CODE:NOROOT(0)
?Subroutine4:
        CFI Block cfiCond5 Using cfiCommon0
        CFI NoFunction
        CFI Conditional ??CrossCallReturnLabel_57
        CFI R6 load(1, XDATA, add(CFA_XSP16, literal(-9)))
        CFI VB load(1, XDATA, add(CFA_XSP16, literal(-8)))
        CFI V0 load(1, XDATA, add(CFA_XSP16, literal(-7)))
        CFI R7 load(1, XDATA, add(CFA_XSP16, literal(-6)))
        CFI ?RET_LOW load(1, XDATA, add(CFA_XSP16, literal(-5)))
        CFI ?RET_HIGH load(1, XDATA, add(CFA_XSP16, literal(-4)))
        CFI ?BRET_EXT load(1, XDATA, add(CFA_XSP16, literal(-3)))
        CFI DPL0 load(1, XDATA, add(CFA_XSP16, literal(-2)))
        CFI DPH0 load(1, XDATA, add(CFA_XSP16, literal(-1)))
        CFI CFA_SP SP+0
        CFI CFA_XSP16 add(XSP16, 9)
        CFI Block cfiCond6 Using cfiCommon0
        CFI (cfiCond6) NoFunction
        CFI (cfiCond6) Conditional ??CrossCallReturnLabel_58
        CFI (cfiCond6) R6 load(1, XDATA, add(CFA_XSP16, literal(-9)))
        CFI (cfiCond6) VB load(1, XDATA, add(CFA_XSP16, literal(-8)))
        CFI (cfiCond6) V0 load(1, XDATA, add(CFA_XSP16, literal(-7)))
        CFI (cfiCond6) R7 load(1, XDATA, add(CFA_XSP16, literal(-6)))
        CFI (cfiCond6) ?RET_LOW load(1, XDATA, add(CFA_XSP16, literal(-5)))
        CFI (cfiCond6) ?RET_HIGH load(1, XDATA, add(CFA_XSP16, literal(-4)))
        CFI (cfiCond6) ?BRET_EXT load(1, XDATA, add(CFA_XSP16, literal(-3)))
        CFI (cfiCond6) DPL0 load(1, XDATA, add(CFA_XSP16, literal(-2)))
        CFI (cfiCond6) DPH0 load(1, XDATA, add(CFA_XSP16, literal(-1)))
        CFI (cfiCond6) CFA_SP SP+0
        CFI (cfiCond6) CFA_XSP16 add(XSP16, 9)
        CFI Block cfiPicker7 Using cfiCommon1
        CFI (cfiPicker7) NoFunction
        CFI (cfiPicker7) Picker
        MOV     DPTR,#pMtAfDataReq
        MOVX    A,@DPTR
        ADD     A,#0x17
        CFI EndBlock cfiCond5
        CFI EndBlock cfiCond6
        CFI EndBlock cfiPicker7
        REQUIRE ??Subroutine44_0
        ; // Fall through to label ??Subroutine44_0

        RSEG BANKED_CODE:CODE:NOROOT(0)
??Subroutine44_0:
        CFI Block cfiCond8 Using cfiCommon0
        CFI NoFunction
        CFI Conditional ??CrossCallReturnLabel_55
        CFI R6 load(1, XDATA, add(CFA_XSP16, literal(-14)))
        CFI VB load(1, XDATA, add(CFA_XSP16, literal(-13)))
        CFI V0 load(1, XDATA, add(CFA_XSP16, literal(-12)))
        CFI V1 load(1, XDATA, add(CFA_XSP16, literal(-11)))
        CFI V2 load(1, XDATA, add(CFA_XSP16, literal(-10)))
        CFI V3 load(1, XDATA, add(CFA_XSP16, literal(-9)))
        CFI V4 load(1, XDATA, add(CFA_XSP16, literal(-8)))
        CFI V5 load(1, XDATA, add(CFA_XSP16, literal(-7)))
        CFI R7 load(1, XDATA, add(CFA_XSP16, literal(-6)))
        CFI ?RET_LOW load(1, XDATA, add(CFA_XSP16, literal(-5)))
        CFI ?RET_HIGH load(1, XDATA, add(CFA_XSP16, literal(-4)))
        CFI ?BRET_EXT load(1, XDATA, add(CFA_XSP16, literal(-3)))
        CFI DPL0 load(1, XDATA, add(CFA_XSP16, literal(-2)))
        CFI DPH0 load(1, XDATA, add(CFA_XSP16, literal(-1)))
        CFI CFA_SP SP+0
        CFI CFA_XSP16 add(XSP16, 15)
        CFI Block cfiCond9 Using cfiCommon0
        CFI (cfiCond9) NoFunction
        CFI (cfiCond9) Conditional ??CrossCallReturnLabel_56
        CFI (cfiCond9) R6 load(1, XDATA, add(CFA_XSP16, literal(-14)))
        CFI (cfiCond9) VB load(1, XDATA, add(CFA_XSP16, literal(-13)))
        CFI (cfiCond9) V0 load(1, XDATA, add(CFA_XSP16, literal(-12)))
        CFI (cfiCond9) V1 load(1, XDATA, add(CFA_XSP16, literal(-11)))
        CFI (cfiCond9) V2 load(1, XDATA, add(CFA_XSP16, literal(-10)))
        CFI (cfiCond9) V3 load(1, XDATA, add(CFA_XSP16, literal(-9)))
        CFI (cfiCond9) V4 load(1, XDATA, add(CFA_XSP16, literal(-8)))
        CFI (cfiCond9) V5 load(1, XDATA, add(CFA_XSP16, literal(-7)))
        CFI (cfiCond9) R7 load(1, XDATA, add(CFA_XSP16, literal(-6)))
        CFI (cfiCond9) ?RET_LOW load(1, XDATA, add(CFA_XSP16, literal(-5)))
        CFI (cfiCond9) ?RET_HIGH load(1, XDATA, add(CFA_XSP16, literal(-4)))
        CFI (cfiCond9) ?BRET_EXT load(1, XDATA, add(CFA_XSP16, literal(-3)))
        CFI (cfiCond9) DPL0 load(1, XDATA, add(CFA_XSP16, literal(-2)))
        CFI (cfiCond9) DPH0 load(1, XDATA, add(CFA_XSP16, literal(-1)))
        CFI (cfiCond9) CFA_SP SP+0
        CFI (cfiCond9) CFA_XSP16 add(XSP16, 24)
        CFI Block cfiCond10 Using cfiCommon0
        CFI (cfiCond10) NoFunction
        CFI (cfiCond10) Conditional ??CrossCallReturnLabel_57
        CFI (cfiCond10) R6 load(1, XDATA, add(CFA_XSP16, literal(-9)))
        CFI (cfiCond10) VB load(1, XDATA, add(CFA_XSP16, literal(-8)))
        CFI (cfiCond10) V0 load(1, XDATA, add(CFA_XSP16, literal(-7)))
        CFI (cfiCond10) R7 load(1, XDATA, add(CFA_XSP16, literal(-6)))
        CFI (cfiCond10) ?RET_LOW load(1, XDATA, add(CFA_XSP16, literal(-5)))
        CFI (cfiCond10) ?RET_HIGH load(1, XDATA, add(CFA_XSP16, literal(-4)))
        CFI (cfiCond10) ?BRET_EXT load(1, XDATA, add(CFA_XSP16, literal(-3)))
        CFI (cfiCond10) DPL0 load(1, XDATA, add(CFA_XSP16, literal(-2)))
        CFI (cfiCond10) DPH0 load(1, XDATA, add(CFA_XSP16, literal(-1)))
        CFI (cfiCond10) CFA_SP SP+0
        CFI (cfiCond10) CFA_XSP16 add(XSP16, 9)
        CFI Block cfiCond11 Using cfiCommon0
        CFI (cfiCond11) NoFunction
        CFI (cfiCond11) Conditional ??CrossCallReturnLabel_58
        CFI (cfiCond11) R6 load(1, XDATA, add(CFA_XSP16, literal(-9)))
        CFI (cfiCond11) VB load(1, XDATA, add(CFA_XSP16, literal(-8)))
        CFI (cfiCond11) V0 load(1, XDATA, add(CFA_XSP16, literal(-7)))
        CFI (cfiCond11) R7 load(1, XDATA, add(CFA_XSP16, literal(-6)))
        CFI (cfiCond11) ?RET_LOW load(1, XDATA, add(CFA_XSP16, literal(-5)))
        CFI (cfiCond11) ?RET_HIGH load(1, XDATA, add(CFA_XSP16, literal(-4)))
        CFI (cfiCond11) ?BRET_EXT load(1, XDATA, add(CFA_XSP16, literal(-3)))
        CFI (cfiCond11) DPL0 load(1, XDATA, add(CFA_XSP16, literal(-2)))
        CFI (cfiCond11) DPH0 load(1, XDATA, add(CFA_XSP16, literal(-1)))
        CFI (cfiCond11) CFA_SP SP+0
        CFI (cfiCond11) CFA_XSP16 add(XSP16, 9)
        CFI Block cfiPicker12 Using cfiCommon1
        CFI (cfiPicker12) NoFunction
        CFI (cfiPicker12) Picker
        LCALL   ?Subroutine37 & 0xFFFF
??CrossCallReturnLabel_129:
        MOVX    A,@DPTR
        RET
        CFI EndBlock cfiCond8
        CFI EndBlock cfiCond9
        CFI EndBlock cfiCond10
        CFI EndBlock cfiCond11
        CFI EndBlock cfiPicker12
//  196 
//  197 /***************************************************************************************************
//  198  * @fn      MT_AfCommandProcessing
//  199  *
//  200  * @brief   Process all the AF commands that are issued by test tool
//  201  *
//  202  * @param   pBuf - pointer to the received buffer
//  203  *
//  204  * @return  status
//  205  ***************************************************************************************************/

        RSEG BANKED_CODE:CODE:NOROOT(0)
//  206 uint8 MT_AfCommandProcessing(uint8 *pBuf)
MT_AfCommandProcessing:
        CFI Block cfiBlock13 Using cfiCommon0
        CFI Function MT_AfCommandProcessing
        CODE
//  207 {
        FUNCALL MT_AfCommandProcessing, MT_AfRegister
        LOCFRAME ISTACK, 0, STACK
        LOCFRAME PSTACK, 0, STACK
        LOCFRAME XSTACK, 12, STACK
        LOCFRAME IOVERLAY, 0, STATIC
        LOCFRAME DOVERLAY, 0, STATIC
        ARGFRAME ISTACK, 0, STACK
        ARGFRAME PSTACK, 0, STACK
        ARGFRAME XSTACK, 12, STACK
        ARGFRAME IOVERLAY, 0, STATIC
        ARGFRAME DOVERLAY, 0, STATIC
        FUNCALL MT_AfCommandProcessing, MT_AfDataRequest
        LOCFRAME ISTACK, 0, STACK
        LOCFRAME PSTACK, 0, STACK
        LOCFRAME XSTACK, 12, STACK
        LOCFRAME IOVERLAY, 0, STATIC
        LOCFRAME DOVERLAY, 0, STATIC
        ARGFRAME ISTACK, 0, STACK
        ARGFRAME PSTACK, 0, STACK
        ARGFRAME XSTACK, 12, STACK
        ARGFRAME IOVERLAY, 0, STATIC
        ARGFRAME DOVERLAY, 0, STATIC
        FUNCALL MT_AfCommandProcessing, MT_AfDataRequestSrcRtg
        LOCFRAME ISTACK, 0, STACK
        LOCFRAME PSTACK, 0, STACK
        LOCFRAME XSTACK, 12, STACK
        LOCFRAME IOVERLAY, 0, STATIC
        LOCFRAME DOVERLAY, 0, STATIC
        ARGFRAME ISTACK, 0, STACK
        ARGFRAME PSTACK, 0, STACK
        ARGFRAME XSTACK, 12, STACK
        ARGFRAME IOVERLAY, 0, STATIC
        ARGFRAME DOVERLAY, 0, STATIC
        FUNCALL MT_AfCommandProcessing, MT_AfDataRetrieve
        LOCFRAME ISTACK, 0, STACK
        LOCFRAME PSTACK, 0, STACK
        LOCFRAME XSTACK, 12, STACK
        LOCFRAME IOVERLAY, 0, STATIC
        LOCFRAME DOVERLAY, 0, STATIC
        ARGFRAME ISTACK, 0, STACK
        ARGFRAME PSTACK, 0, STACK
        ARGFRAME XSTACK, 12, STACK
        ARGFRAME IOVERLAY, 0, STATIC
        ARGFRAME DOVERLAY, 0, STATIC
        FUNCALL MT_AfCommandProcessing, MT_AfDataStore
        LOCFRAME ISTACK, 0, STACK
        LOCFRAME PSTACK, 0, STACK
        LOCFRAME XSTACK, 12, STACK
        LOCFRAME IOVERLAY, 0, STATIC
        LOCFRAME DOVERLAY, 0, STATIC
        ARGFRAME ISTACK, 0, STACK
        ARGFRAME PSTACK, 0, STACK
        ARGFRAME XSTACK, 12, STACK
        ARGFRAME IOVERLAY, 0, STATIC
        ARGFRAME DOVERLAY, 0, STATIC
        FUNCALL MT_AfCommandProcessing, afAPSF_ConfigSet
        LOCFRAME ISTACK, 0, STACK
        LOCFRAME PSTACK, 0, STACK
        LOCFRAME XSTACK, 12, STACK
        LOCFRAME IOVERLAY, 0, STATIC
        LOCFRAME DOVERLAY, 0, STATIC
        ARGFRAME ISTACK, 0, STACK
        ARGFRAME PSTACK, 0, STACK
        ARGFRAME XSTACK, 12, STACK
        ARGFRAME IOVERLAY, 0, STATIC
        ARGFRAME DOVERLAY, 0, STATIC
        FUNCALL MT_AfCommandProcessing, MT_BuildAndSendZToolResponse
        LOCFRAME ISTACK, 0, STACK
        LOCFRAME PSTACK, 0, STACK
        LOCFRAME XSTACK, 12, STACK
        LOCFRAME IOVERLAY, 0, STATIC
        LOCFRAME DOVERLAY, 0, STATIC
        ARGFRAME ISTACK, 0, STACK
        ARGFRAME PSTACK, 0, STACK
        ARGFRAME XSTACK, 12, STACK
        ARGFRAME IOVERLAY, 0, STATIC
        ARGFRAME DOVERLAY, 0, STATIC
        MOV     A,#-0x9
        LCALL   ?BANKED_ENTER_XDATA
        CFI DPH0 load(1, XDATA, add(CFA_XSP16, literal(-1)))
        CFI DPL0 load(1, XDATA, add(CFA_XSP16, literal(-2)))
        CFI ?BRET_EXT load(1, XDATA, add(CFA_XSP16, literal(-3)))
        CFI ?RET_HIGH load(1, XDATA, add(CFA_XSP16, literal(-4)))
        CFI ?RET_LOW load(1, XDATA, add(CFA_XSP16, literal(-5)))
        CFI R7 load(1, XDATA, add(CFA_XSP16, literal(-6)))
        CFI V0 load(1, XDATA, add(CFA_XSP16, literal(-7)))
        CFI VB load(1, XDATA, add(CFA_XSP16, literal(-8)))
        CFI R6 load(1, XDATA, add(CFA_XSP16, literal(-9)))
        CFI CFA_SP SP+0
        CFI CFA_XSP16 add(XSP16, 9)
        ; Saved register size: 9
        ; Auto size: 3
        MOV     A,#-0x3
        LCALL   ?ALLOC_XSTACK8
        CFI CFA_XSP16 add(XSP16, 12)
        MOV     A,R2
        MOV     R0,A
        MOV     A,R3
        MOV     R1,A
//  208   uint8 status = MT_RPC_SUCCESS;
        MOV     R6,#0x0
//  209 
//  210   switch (pBuf[MT_RPC_POS_CMD1])
        MOV     DPL,R0
        MOV     DPH,R1
        INC     DPTR
        INC     DPTR
        MOVX    A,@DPTR
        JZ      ??MT_AfCommandProcessing_0
        DEC     A
        JZ      ??MT_AfCommandProcessing_1
        DEC     A
        JZ      ??MT_AfCommandProcessing_1
        DEC     A
        JZ      ??MT_AfCommandProcessing_2
        ADD     A,#-0xe
        JZ      ??MT_AfCommandProcessing_3
        DEC     A
        JZ      ??MT_AfCommandProcessing_4
        DEC     A
        JZ      ??MT_AfCommandProcessing_5
        SJMP    ??MT_AfCommandProcessing_6
//  211   {
//  212     case MT_AF_REGISTER:
//  213       MT_AfRegister(pBuf);
??MT_AfCommandProcessing_0:
        ; Setup parameters for call to function MT_AfRegister
        LCALL   ??MT_AfRegister?relay
//  214       break;
        SJMP    ??MT_AfCommandProcessing_7
//  215 
//  216     case MT_AF_DATA_REQUEST:
//  217     case MT_AF_DATA_REQUEST_EXT:
//  218       MT_AfDataRequest(pBuf);
??MT_AfCommandProcessing_1:
        ; Setup parameters for call to function MT_AfDataRequest
        LCALL   ??MT_AfDataRequest?relay
//  219       break;
        SJMP    ??MT_AfCommandProcessing_7
//  220 
//  221 #if defined ( ZIGBEE_SOURCE_ROUTING )
//  222     case MT_AF_DATA_REQUEST_SRCRTG:
//  223       MT_AfDataRequestSrcRtg(pBuf);
??MT_AfCommandProcessing_2:
        ; Setup parameters for call to function MT_AfDataRequestSrcRtg
        LCALL   ??MT_AfDataRequestSrcRtg?relay
//  224       break;
        SJMP    ??MT_AfCommandProcessing_7
//  225 #endif
//  226 
//  227 #if defined INTER_PAN
//  228     case MT_AF_INTER_PAN_CTL:
//  229       MT_AfInterPanCtl(pBuf);
//  230       break;
//  231 #endif
//  232 
//  233     case MT_AF_DATA_RETRIEVE:
//  234       MT_AfDataRetrieve(pBuf);
??MT_AfCommandProcessing_4:
        ; Setup parameters for call to function MT_AfDataRetrieve
        LCALL   ??MT_AfDataRetrieve?relay
//  235       break;
        SJMP    ??MT_AfCommandProcessing_7
//  236 
//  237     case MT_AF_DATA_STORE:
//  238       MT_AfDataStore(pBuf);
??MT_AfCommandProcessing_3:
        ; Setup parameters for call to function MT_AfDataStore
        LCALL   ??MT_AfDataStore?relay
//  239       break;
        SJMP    ??MT_AfCommandProcessing_7
//  240 
//  241     case MT_AF_APSF_CONFIG_SET:
//  242       MT_AfAPSF_ConfigSet(pBuf);
??MT_AfCommandProcessing_5:
        MOV     DPL,R0
        MOV     DPH,R1
        INC     DPTR
        INC     DPTR
        INC     DPTR
        INC     DPTR
        MOVX    A,@DPTR
        PUSH    A
        CFI CFA_SP SP+-1
        MOV     A,#0x1
        LCALL   ?XSTACK_DISP0_8
        POP     A
        CFI CFA_SP SP+0
        MOVX    @DPTR,A
        MOV     DPL,R0
        MOV     DPH,R1
        INC     DPTR
        INC     DPTR
        INC     DPTR
        INC     DPTR
        INC     DPTR
        MOVX    A,@DPTR
        PUSH    A
        CFI CFA_SP SP+-1
        MOV     A,#0x2
        LCALL   ?XSTACK_DISP0_8
        POP     A
        CFI CFA_SP SP+0
        MOVX    @DPTR,A
        ; Setup parameters for call to function afAPSF_ConfigSet
        MOV     A,#0x1
        LCALL   ?XSTACK_DISP0_8
        MOV     R2,DPL
        MOV     R3,DPH
        MOV     DPL,R0
        MOV     DPH,R1
        INC     DPTR
        INC     DPTR
        INC     DPTR
        MOVX    A,@DPTR
        MOV     R1,A
        LCALL   ??afAPSF_ConfigSet?relay
        MOV     A,R1
        MOV     DPL,?XSP + 0
        MOV     DPH,?XSP + 1
        MOVX    @DPTR,A
        ; Setup parameters for call to function MT_BuildAndSendZToolResponse
        MOV     R4,DPL
        MOV     R5,DPH
        MOV     R3,#0x1
        MOV     R2,#0x13
        MOV     R1,#0x64
        LCALL   ??MT_BuildAndSendZToolResponse?relay
//  243       break;
        SJMP    ??MT_AfCommandProcessing_7
//  244 
//  245     default:
//  246       status = MT_RPC_ERR_COMMAND_ID;
??MT_AfCommandProcessing_6:
        INC     R6
        INC     R6
//  247       break;
//  248   }
//  249 
//  250   return status;
??MT_AfCommandProcessing_7:
        MOV     A,R6
        MOV     R1,A
        MOV     A,#0x3
        LCALL   ?DEALLOC_XSTACK8
        CFI CFA_XSP16 add(XSP16, 9)
        LJMP    ?Subroutine0 & 0xFFFF
        CFI EndBlock cfiBlock13
//  251 }
//  252 
//  253 /***************************************************************************************************
//  254  * @fn      MT_AfRegister
//  255  *
//  256  * @brief   Process AF Register command
//  257  *
//  258  * @param   pBuf - pointer to the received buffer
//  259  *
//  260  * @return  none
//  261  ***************************************************************************************************/

        RSEG BANKED_CODE:CODE:NOROOT(0)
//  262 void MT_AfRegister(uint8 *pBuf)
MT_AfRegister:
        CFI Block cfiBlock14 Using cfiCommon0
        CFI Function MT_AfRegister
        CODE
//  263 {
        FUNCALL MT_AfRegister, osal_mem_alloc
        LOCFRAME ISTACK, 0, STACK
        LOCFRAME PSTACK, 0, STACK
        LOCFRAME XSTACK, 15, STACK
        LOCFRAME IOVERLAY, 0, STATIC
        LOCFRAME DOVERLAY, 0, STATIC
        ARGFRAME ISTACK, 0, STACK
        ARGFRAME PSTACK, 0, STACK
        ARGFRAME XSTACK, 15, STACK
        ARGFRAME IOVERLAY, 0, STATIC
        ARGFRAME DOVERLAY, 0, STATIC
        FUNCALL MT_AfRegister, MT_BuildEndpointDesc
        LOCFRAME ISTACK, 0, STACK
        LOCFRAME PSTACK, 0, STACK
        LOCFRAME XSTACK, 15, STACK
        LOCFRAME IOVERLAY, 0, STATIC
        LOCFRAME DOVERLAY, 0, STATIC
        ARGFRAME ISTACK, 0, STACK
        ARGFRAME PSTACK, 0, STACK
        ARGFRAME XSTACK, 15, STACK
        ARGFRAME IOVERLAY, 0, STATIC
        ARGFRAME DOVERLAY, 0, STATIC
        FUNCALL MT_AfRegister, afRegister
        LOCFRAME ISTACK, 0, STACK
        LOCFRAME PSTACK, 0, STACK
        LOCFRAME XSTACK, 15, STACK
        LOCFRAME IOVERLAY, 0, STATIC
        LOCFRAME DOVERLAY, 0, STATIC
        ARGFRAME ISTACK, 0, STACK
        ARGFRAME PSTACK, 0, STACK
        ARGFRAME XSTACK, 15, STACK
        ARGFRAME IOVERLAY, 0, STATIC
        ARGFRAME DOVERLAY, 0, STATIC
        FUNCALL MT_AfRegister, osal_mem_free
        LOCFRAME ISTACK, 0, STACK
        LOCFRAME PSTACK, 0, STACK
        LOCFRAME XSTACK, 15, STACK
        LOCFRAME IOVERLAY, 0, STATIC
        LOCFRAME DOVERLAY, 0, STATIC
        ARGFRAME ISTACK, 0, STACK
        ARGFRAME PSTACK, 0, STACK
        ARGFRAME XSTACK, 15, STACK
        ARGFRAME IOVERLAY, 0, STATIC
        ARGFRAME DOVERLAY, 0, STATIC
        FUNCALL MT_AfRegister, MT_BuildAndSendZToolResponse
        LOCFRAME ISTACK, 0, STACK
        LOCFRAME PSTACK, 0, STACK
        LOCFRAME XSTACK, 15, STACK
        LOCFRAME IOVERLAY, 0, STATIC
        LOCFRAME DOVERLAY, 0, STATIC
        ARGFRAME ISTACK, 0, STACK
        ARGFRAME PSTACK, 0, STACK
        ARGFRAME XSTACK, 15, STACK
        ARGFRAME IOVERLAY, 0, STATIC
        ARGFRAME DOVERLAY, 0, STATIC
        MOV     A,#-0xe
        LCALL   ?BANKED_ENTER_XDATA
        CFI DPH0 load(1, XDATA, add(CFA_XSP16, literal(-1)))
        CFI DPL0 load(1, XDATA, add(CFA_XSP16, literal(-2)))
        CFI ?BRET_EXT load(1, XDATA, add(CFA_XSP16, literal(-3)))
        CFI ?RET_HIGH load(1, XDATA, add(CFA_XSP16, literal(-4)))
        CFI ?RET_LOW load(1, XDATA, add(CFA_XSP16, literal(-5)))
        CFI R7 load(1, XDATA, add(CFA_XSP16, literal(-6)))
        CFI V5 load(1, XDATA, add(CFA_XSP16, literal(-7)))
        CFI V4 load(1, XDATA, add(CFA_XSP16, literal(-8)))
        CFI V3 load(1, XDATA, add(CFA_XSP16, literal(-9)))
        CFI V2 load(1, XDATA, add(CFA_XSP16, literal(-10)))
        CFI V1 load(1, XDATA, add(CFA_XSP16, literal(-11)))
        CFI V0 load(1, XDATA, add(CFA_XSP16, literal(-12)))
        CFI VB load(1, XDATA, add(CFA_XSP16, literal(-13)))
        CFI R6 load(1, XDATA, add(CFA_XSP16, literal(-14)))
        CFI CFA_SP SP+0
        CFI CFA_XSP16 add(XSP16, 14)
        ; Saved register size: 14
        ; Auto size: 1
        MOV     A,#-0x1
        LCALL   ?ALLOC_XSTACK8
        CFI CFA_XSP16 add(XSP16, 15)
        MOV     ?V0 + 0,R2
        MOV     ?V0 + 1,R3
//  264   uint8 cmdId;
//  265   uint8 retValue = ZMemError;
        MOV     DPL,?XSP + 0
        MOV     DPH,?XSP + 1
        MOV     A,#0x10
        LCALL   ?Subroutine27 & 0xFFFF
//  266   endPointDesc_t *epDesc;
//  267 
//  268   /* parse header */
//  269   cmdId = pBuf[MT_RPC_POS_CMD1];
??CrossCallReturnLabel_34:
        MOV     ?V0 + 2,A
//  270   pBuf += MT_RPC_FRAME_HDR_SZ;
//  271 
//  272   epDesc = (endPointDesc_t *)osal_mem_alloc(sizeof(endPointDesc_t));
        ; Setup parameters for call to function osal_mem_alloc
        MOV     R2,#0x6
        MOV     R3,#0x0
        LCALL   ??osal_mem_alloc?relay
        MOV     ?V0 + 4,R2
        MOV     ?V0 + 5,R3
        MOV     R6,?V0 + 4
        MOV     R7,?V0 + 5
//  273   if ( epDesc )
        MOV     A,R6
        ORL     A,R7
        JZ      ??MT_AfRegister_0
//  274   {
//  275     epDesc->task_id = &MT_TaskID;
        MOV     DPL,R6
        MOV     DPH,R7
        INC     DPTR
        MOV     A,#MT_TaskID & 0xff
        MOVX    @DPTR,A
        INC     DPTR
        MOV     A,#(MT_TaskID >> 8) & 0xff
        MOVX    @DPTR,A
//  276     retValue = MT_BuildEndpointDesc( pBuf, epDesc );
        ; Setup parameters for call to function MT_BuildEndpointDesc
        MOV     A,R6
        MOV     R4,A
        MOV     A,R7
        MOV     R5,A
        MOV     A,?V0 + 0
        ADD     A,#0x3
        MOV     R2,A
        MOV     A,?V0 + 1
        ADDC    A,#0x0
        MOV     R3,A
        LCALL   ??MT_BuildEndpointDesc?relay
        MOV     A,R1
        MOV     DPL,?XSP + 0
        MOV     DPH,?XSP + 1
        MOVX    @DPTR,A
//  277     if ( retValue == ZSuccess )
        JNZ     ??MT_AfRegister_1
//  278     {
//  279       retValue = afRegister( epDesc );
        ; Setup parameters for call to function afRegister
        MOV     A,R6
        MOV     R2,A
        MOV     A,R7
        MOV     R3,A
        LCALL   ??afRegister?relay
        MOV     A,R1
        MOV     DPL,?XSP + 0
        MOV     DPH,?XSP + 1
        MOVX    @DPTR,A
//  280     }
//  281 
//  282     if ( retValue != ZSuccess )
??MT_AfRegister_1:
        MOVX    A,@DPTR
        JZ      ??MT_AfRegister_0
//  283     {
//  284       osal_mem_free( epDesc );
        ; Setup parameters for call to function osal_mem_free
        MOV     A,R6
        MOV     R2,A
        MOV     A,R7
        MOV     R3,A
        LCALL   ??osal_mem_free?relay
//  285     }
//  286   }
//  287 
//  288   /* Build and send back the response */
//  289   MT_BuildAndSendZToolResponse(((uint8)MT_RPC_CMD_SRSP | (uint8)MT_RPC_SYS_AF), cmdId, 1, &retValue);
??MT_AfRegister_0:
        ; Setup parameters for call to function MT_BuildAndSendZToolResponse
        MOV     DPL,?XSP + 0
        MOV     DPH,?XSP + 1
        MOV     R4,DPL
        MOV     R5,DPH
        MOV     R3,#0x1
        MOV     R2,?V0 + 2
        CFI EndBlock cfiBlock14
        REQUIRE ?Subroutine1
        ; // Fall through to label ?Subroutine1
//  290 }

        RSEG BANKED_CODE:CODE:NOROOT(0)
?Subroutine1:
        CFI Block cfiBlock15 Using cfiCommon0
        CFI NoFunction
        CFI CFA_SP SP+0
        CFI CFA_XSP16 add(XSP16, 15)
        CFI VB load(1, XDATA, add(CFA_XSP16, literal(-13)))
        CFI DPL0 load(1, XDATA, add(CFA_XSP16, literal(-2)))
        CFI DPH0 load(1, XDATA, add(CFA_XSP16, literal(-1)))
        CFI R6 load(1, XDATA, add(CFA_XSP16, literal(-14)))
        CFI R7 load(1, XDATA, add(CFA_XSP16, literal(-6)))
        CFI V0 load(1, XDATA, add(CFA_XSP16, literal(-12)))
        CFI V1 load(1, XDATA, add(CFA_XSP16, literal(-11)))
        CFI V2 load(1, XDATA, add(CFA_XSP16, literal(-10)))
        CFI V3 load(1, XDATA, add(CFA_XSP16, literal(-9)))
        CFI V4 load(1, XDATA, add(CFA_XSP16, literal(-8)))
        CFI V5 load(1, XDATA, add(CFA_XSP16, literal(-7)))
        CFI ?BRET_EXT load(1, XDATA, add(CFA_XSP16, literal(-3)))
        CFI ?RET_HIGH load(1, XDATA, add(CFA_XSP16, literal(-4)))
        CFI ?RET_LOW load(1, XDATA, add(CFA_XSP16, literal(-5)))
        MOV     R1,#0x64
        LCALL   ??MT_BuildAndSendZToolResponse?relay
        MOV     A,#0x1
        LCALL   ?DEALLOC_XSTACK8
        CFI CFA_XSP16 add(XSP16, 14)
        MOV     R7,#0x6
        LJMP    ?BANKED_LEAVE_XDATA
        CFI EndBlock cfiBlock15
//  291 
//  292 /***************************************************************************************************
//  293  * @fn      MT_AfDataRequest
//  294  *
//  295  * @brief   Process AF Register command
//  296  *
//  297  * @param   pBuf - pointer to the received buffer
//  298  *
//  299  * @return  none
//  300  ***************************************************************************************************/

        RSEG BANKED_CODE:CODE:NOROOT(0)
//  301 void MT_AfDataRequest(uint8 *pBuf)
MT_AfDataRequest:
        CFI Block cfiBlock16 Using cfiCommon0
        CFI Function MT_AfDataRequest
        CODE
//  302 {
        FUNCALL MT_AfDataRequest, osal_memcpy
        LOCFRAME ISTACK, 0, STACK
        LOCFRAME PSTACK, 0, STACK
        LOCFRAME XSTACK, 39, STACK
        LOCFRAME IOVERLAY, 0, STATIC
        LOCFRAME DOVERLAY, 0, STATIC
        ARGFRAME ISTACK, 0, STACK
        ARGFRAME PSTACK, 0, STACK
        ARGFRAME XSTACK, 39, STACK
        ARGFRAME IOVERLAY, 0, STATIC
        ARGFRAME DOVERLAY, 0, STATIC
        FUNCALL MT_AfDataRequest, afFindEndPointDesc
        LOCFRAME ISTACK, 0, STACK
        LOCFRAME PSTACK, 0, STACK
        LOCFRAME XSTACK, 36, STACK
        LOCFRAME IOVERLAY, 0, STATIC
        LOCFRAME DOVERLAY, 0, STATIC
        ARGFRAME ISTACK, 0, STACK
        ARGFRAME PSTACK, 0, STACK
        ARGFRAME XSTACK, 36, STACK
        ARGFRAME IOVERLAY, 0, STATIC
        ARGFRAME DOVERLAY, 0, STATIC
        FUNCALL MT_AfDataRequest, osal_mem_alloc
        LOCFRAME ISTACK, 0, STACK
        LOCFRAME PSTACK, 0, STACK
        LOCFRAME XSTACK, 36, STACK
        LOCFRAME IOVERLAY, 0, STATIC
        LOCFRAME DOVERLAY, 0, STATIC
        ARGFRAME ISTACK, 0, STACK
        ARGFRAME PSTACK, 0, STACK
        ARGFRAME XSTACK, 36, STACK
        ARGFRAME IOVERLAY, 0, STATIC
        ARGFRAME DOVERLAY, 0, STATIC
        FUNCALL MT_AfDataRequest, osal_memcpy
        LOCFRAME ISTACK, 0, STACK
        LOCFRAME PSTACK, 0, STACK
        LOCFRAME XSTACK, 39, STACK
        LOCFRAME IOVERLAY, 0, STATIC
        LOCFRAME DOVERLAY, 0, STATIC
        ARGFRAME ISTACK, 0, STACK
        ARGFRAME PSTACK, 0, STACK
        ARGFRAME XSTACK, 39, STACK
        ARGFRAME IOVERLAY, 0, STATIC
        ARGFRAME DOVERLAY, 0, STATIC
        FUNCALL MT_AfDataRequest, osal_start_timerEx
        LOCFRAME ISTACK, 0, STACK
        LOCFRAME PSTACK, 0, STACK
        LOCFRAME XSTACK, 36, STACK
        LOCFRAME IOVERLAY, 0, STATIC
        LOCFRAME DOVERLAY, 0, STATIC
        ARGFRAME ISTACK, 0, STACK
        ARGFRAME PSTACK, 0, STACK
        ARGFRAME XSTACK, 36, STACK
        ARGFRAME IOVERLAY, 0, STATIC
        ARGFRAME DOVERLAY, 0, STATIC
        FUNCALL MT_AfDataRequest, osal_set_event
        LOCFRAME ISTACK, 0, STACK
        LOCFRAME PSTACK, 0, STACK
        LOCFRAME XSTACK, 36, STACK
        LOCFRAME IOVERLAY, 0, STATIC
        LOCFRAME DOVERLAY, 0, STATIC
        ARGFRAME ISTACK, 0, STACK
        ARGFRAME PSTACK, 0, STACK
        ARGFRAME XSTACK, 36, STACK
        ARGFRAME IOVERLAY, 0, STATIC
        ARGFRAME DOVERLAY, 0, STATIC
        FUNCALL MT_AfDataRequest, AF_DataRequest
        LOCFRAME ISTACK, 0, STACK
        LOCFRAME PSTACK, 0, STACK
        LOCFRAME XSTACK, 45, STACK
        LOCFRAME IOVERLAY, 0, STATIC
        LOCFRAME DOVERLAY, 0, STATIC
        ARGFRAME ISTACK, 0, STACK
        ARGFRAME PSTACK, 0, STACK
        ARGFRAME XSTACK, 45, STACK
        ARGFRAME IOVERLAY, 0, STATIC
        ARGFRAME DOVERLAY, 0, STATIC
        FUNCALL MT_AfDataRequest, MT_BuildAndSendZToolResponse
        LOCFRAME ISTACK, 0, STACK
        LOCFRAME PSTACK, 0, STACK
        LOCFRAME XSTACK, 36, STACK
        LOCFRAME IOVERLAY, 0, STATIC
        LOCFRAME DOVERLAY, 0, STATIC
        ARGFRAME ISTACK, 0, STACK
        ARGFRAME PSTACK, 0, STACK
        ARGFRAME XSTACK, 36, STACK
        ARGFRAME IOVERLAY, 0, STATIC
        ARGFRAME DOVERLAY, 0, STATIC
        MOV     A,#-0x16
        LCALL   ?BANKED_ENTER_XDATA
        CFI DPH0 load(1, XDATA, add(CFA_XSP16, literal(-1)))
        CFI DPL0 load(1, XDATA, add(CFA_XSP16, literal(-2)))
        CFI ?BRET_EXT load(1, XDATA, add(CFA_XSP16, literal(-3)))
        CFI ?RET_HIGH load(1, XDATA, add(CFA_XSP16, literal(-4)))
        CFI ?RET_LOW load(1, XDATA, add(CFA_XSP16, literal(-5)))
        CFI R7 load(1, XDATA, add(CFA_XSP16, literal(-6)))
        CFI V13 load(1, XDATA, add(CFA_XSP16, literal(-7)))
        CFI V12 load(1, XDATA, add(CFA_XSP16, literal(-8)))
        CFI V11 load(1, XDATA, add(CFA_XSP16, literal(-9)))
        CFI V10 load(1, XDATA, add(CFA_XSP16, literal(-10)))
        CFI V9 load(1, XDATA, add(CFA_XSP16, literal(-11)))
        CFI V8 load(1, XDATA, add(CFA_XSP16, literal(-12)))
        CFI V7 load(1, XDATA, add(CFA_XSP16, literal(-13)))
        CFI V6 load(1, XDATA, add(CFA_XSP16, literal(-14)))
        CFI V5 load(1, XDATA, add(CFA_XSP16, literal(-15)))
        CFI V4 load(1, XDATA, add(CFA_XSP16, literal(-16)))
        CFI V3 load(1, XDATA, add(CFA_XSP16, literal(-17)))
        CFI V2 load(1, XDATA, add(CFA_XSP16, literal(-18)))
        CFI V1 load(1, XDATA, add(CFA_XSP16, literal(-19)))
        CFI V0 load(1, XDATA, add(CFA_XSP16, literal(-20)))
        CFI VB load(1, XDATA, add(CFA_XSP16, literal(-21)))
        CFI R6 load(1, XDATA, add(CFA_XSP16, literal(-22)))
        CFI CFA_SP SP+0
        CFI CFA_XSP16 add(XSP16, 22)
        ; Saved register size: 22
        ; Auto size: 14
        MOV     A,#-0xe
        LCALL   ?ALLOC_XSTACK8
        CFI CFA_XSP16 add(XSP16, 36)
//  303   #define MT_AF_REQ_MSG_LEN  10
//  304   #define MT_AF_REQ_MSG_EXT  10
//  305 
//  306   endPointDesc_t *epDesc;
//  307   afAddrType_t dstAddr;
//  308   cId_t cId;
//  309   uint8 transId, txOpts, radius;
//  310   uint8 cmd0, cmd1;
//  311   uint8 retValue = ZFailure;
        MOV     DPL,?XSP + 0
        MOV     DPH,?XSP + 1
        MOV     A,#0x1
        LCALL   ?Subroutine28 & 0xFFFF
//  312   uint16 dataLen, tempLen;
//  313 
//  314   /* Parse header */
//  315   cmd0 = pBuf[MT_RPC_POS_CMD0];
??CrossCallReturnLabel_36:
        MOVX    A,@DPTR
        MOV     ?V0 + 7,A
//  316   cmd1 = pBuf[MT_RPC_POS_CMD1];
        MOV     DPL,R2
        MOV     DPH,R3
        INC     DPTR
        INC     DPTR
        MOVX    A,@DPTR
        MOV     ?V0 + 6,A
//  317   pBuf += MT_RPC_FRAME_HDR_SZ;
        MOV     A,R2
        ADD     A,#0x3
        MOV     ?V0 + 2,A
        MOV     A,R3
        LCALL   ?Subroutine39 & 0xFFFF
//  318 
//  319   if (cmd1 == MT_AF_DATA_REQUEST_EXT)
??CrossCallReturnLabel_65:
        INC     DPTR
        MOV     R0,DPL
        MOV     R1,DPH
        MOV     A,#0x2
        XRL     A,?V0 + 6
        JNZ     ??MT_AfDataRequest_0
//  320   {
//  321     dstAddr.addrMode = (afAddrMode_t)*pBuf++;
        MOV     DPL,?V0 + 2
        MOV     DPH,?V0 + 3
        MOVX    A,@DPTR
        MOV     R2,A
        MOV     A,#0xa
        LCALL   ?XSTACK_DISP0_8
        MOV     A,R2
        MOVX    @DPTR,A
        MOV     ?V0 + 2,R0
        MOV     ?V0 + 3,R1
//  322 
//  323     if (dstAddr.addrMode == afAddr64Bit)
        MOV     A,#0x3
        XRL     A,R2
        JNZ     ??MT_AfDataRequest_1
//  324     {
//  325       (void)osal_memcpy(dstAddr.addr.extAddr, pBuf, Z_EXTADDR_LEN);
        ; Setup parameters for call to function osal_memcpy
        MOV     ?V0 + 8,R0
        MOV     ?V0 + 9,R1
        MOV     ?V0 + 10,#0x0
        MOV     R0,#?V0 + 8
        LCALL   ?PUSH_XSTACK_I_THREE
        CFI CFA_XSP16 add(XSP16, 39)
        MOV     R4,#0x8
        MOV     R5,#0x0
        MOV     A,#0x5
        LCALL   ?XSTACK_DISP0_8
        MOV     R2,DPL
        MOV     R3,DPH
        LCALL   ??Subroutine56_0 & 0xFFFF
//  326     }
??CrossCallReturnLabel_116:
        LCALL   ?DEALLOC_XSTACK8
        CFI CFA_XSP16 add(XSP16, 36)
        SJMP    ??CrossCallReturnLabel_41
//  327     else
//  328     {
//  329       dstAddr.addr.shortAddr = BUILD_UINT16(pBuf[0], pBuf[1]);
??MT_AfDataRequest_1:
        MOV     DPL,R0
        MOV     DPH,R1
        LCALL   ?Subroutine10 & 0xFFFF
//  330     }
??CrossCallReturnLabel_4:
        LCALL   ?XSTACK_DISP0_8
        LCALL   ?Subroutine30 & 0xFFFF
//  331     pBuf += Z_EXTADDR_LEN;
??CrossCallReturnLabel_41:
        MOV     A,?V0 + 2
        ADD     A,#0x8
        LCALL   ??Subroutine46_0 & 0xFFFF
//  332 
//  333     dstAddr.endPoint = *pBuf++;
??CrossCallReturnLabel_64:
        PUSH    A
        CFI CFA_SP SP+-1
        MOV     A,#0xb
        LCALL   ?XSTACK_DISP0_8
        POP     A
        CFI CFA_SP SP+0
        LCALL   ?Subroutine21 & 0xFFFF
//  334     dstAddr.panId = BUILD_UINT16(pBuf[0], pBuf[1]);
??CrossCallReturnLabel_17:
        LCALL   ?Subroutine35 & 0xFFFF
??CrossCallReturnLabel_86:
        MOV     R0,A
        MOV     A,#0xc
        LCALL   ?XSTACK_DISP0_8
        LCALL   ?Subroutine30 & 0xFFFF
//  335     pBuf += 2;
??CrossCallReturnLabel_42:
        LCALL   ?Subroutine32 & 0xFFFF
//  336   }
??CrossCallReturnLabel_48:
        SJMP    ??MT_AfDataRequest_2
//  337   else
//  338   {
//  339     /* Destination address */
//  340     dstAddr.addrMode = afAddr16Bit;
??MT_AfDataRequest_0:
        MOV     A,#0xa
        LCALL   ?XSTACK_DISP0_8
        MOV     A,#0x2
        MOVX    @DPTR,A
//  341     dstAddr.addr.shortAddr = BUILD_UINT16(pBuf[0], pBuf[1]);
        MOV     DPL,?V0 + 2
        MOV     DPH,?V0 + 3
        MOVX    A,@DPTR
        MOV     R2,A
        MOV     DPL,R0
        MOV     DPH,R1
        MOVX    A,@DPTR
        MOV     R1,A
        MOV     A,R2
        MOV     R0,A
        MOV     A,#0x2
        LCALL   ?XSTACK_DISP0_8
        LCALL   ?Subroutine30 & 0xFFFF
//  342     pBuf += 2;
??CrossCallReturnLabel_43:
        LCALL   ?Subroutine16 & 0xFFFF
//  343 
//  344     /* Destination endpoint */
//  345     dstAddr.endPoint = *pBuf++;
??CrossCallReturnLabel_62:
        PUSH    A
        CFI CFA_SP SP+-1
        MOV     A,#0xb
        LCALL   ?XSTACK_DISP0_8
        POP     A
        CFI CFA_SP SP+0
        LCALL   ?Subroutine21 & 0xFFFF
//  346     dstAddr.panId = 0;
??CrossCallReturnLabel_18:
        MOV     A,#0xc
        LCALL   ?XSTACK_DISP0_8
        CLR     A
        MOVX    @DPTR,A
        INC     DPTR
        MOVX    @DPTR,A
//  347   }
//  348 
//  349   /* Source endpoint */
//  350   epDesc = afFindEndPointDesc(*pBuf++);
??MT_AfDataRequest_2:
        ; Setup parameters for call to function afFindEndPointDesc
        MOV     DPL,?V0 + 2
        MOV     DPH,?V0 + 3
        MOVX    A,@DPTR
        MOV     R1,A
        LCALL   ??afFindEndPointDesc?relay
        MOV     ?V0 + 12,R2
        MOV     ?V0 + 13,R3
        MOV     DPL,?V0 + 2
        MOV     DPH,?V0 + 3
        INC     DPTR
        MOV     ?V0 + 2,DPL
        MOV     ?V0 + 3,DPH
//  351 
//  352   /* ClusterId */
//  353   cId = BUILD_UINT16(pBuf[0], pBuf[1]);
        LCALL   ??Subroutine50_0 & 0xFFFF
??CrossCallReturnLabel_83:
        MOV     ?V0 + 0,A
        CLR     A
        ADDC    A,R1
        MOV     ?V0 + 1,A
//  354   pBuf +=2;
        LCALL   ?Subroutine16 & 0xFFFF
//  355 
//  356   /* TransId */
//  357   transId = *pBuf++;
??CrossCallReturnLabel_63:
        PUSH    A
        CFI CFA_SP SP+-1
        MOV     A,#0x1
        LCALL   ?XSTACK_DISP0_8
        POP     A
        CFI CFA_SP SP+0
        LCALL   ?Subroutine40 & 0xFFFF
//  358 
//  359   /* TxOption */
//  360   txOpts = *pBuf++;
??CrossCallReturnLabel_53:
        LCALL   ?Subroutine34 & 0xFFFF
//  361 
//  362   /* Radius */
//  363   radius = *pBuf++;
??CrossCallReturnLabel_50:
        INC     DPTR
        MOV     ?V0 + 2,DPL
        MOV     ?V0 + 3,DPH
//  364 
//  365   /* Length */
//  366   if (cmd1 == MT_AF_DATA_REQUEST_EXT)
        INC     DPTR
        MOV     R0,DPL
        MOV     R1,DPH
        MOV     DPL,?V0 + 2
        MOV     DPH,?V0 + 3
        MOVX    A,@DPTR
        MOV     ?V0 + 8,A
        MOV     A,#0x2
        XRL     A,?V0 + 6
        JNZ     ??MT_AfDataRequest_3
//  367   {
//  368     dataLen = BUILD_UINT16(pBuf[0], pBuf[1]);
        MOV     DPL,R0
        MOV     DPH,R1
        MOVX    A,@DPTR
        MOV     R1,A
        MOV     A,?V0 + 8
        ADD     A,#0x0
        MOV     R6,A
        CLR     A
        ADDC    A,R1
        MOV     R7,A
//  369     tempLen = dataLen + MT_AF_REQ_MSG_LEN + MT_AF_REQ_MSG_EXT;
        MOV     A,R6
        ADD     A,#0x14
        MOV     R0,A
        MOV     A,R7
        ADDC    A,#0x0
        MOV     R1,A
//  370     pBuf += 2;
        LCALL   ?Subroutine32 & 0xFFFF
//  371   }
??CrossCallReturnLabel_49:
        SJMP    ??MT_AfDataRequest_4
//  372   else
//  373   {
//  374     dataLen = *pBuf++;
??MT_AfDataRequest_3:
        MOV     DPL,?V0 + 8
        MOV     R6,DPL
        MOV     R7,#0x0
        MOV     ?V0 + 2,R0
        MOV     ?V0 + 3,R1
//  375     tempLen = dataLen + MT_AF_REQ_MSG_LEN;
        MOV     A,R6
        ADD     A,#0xa
        MOV     R0,A
        CLR     A
        ADDC    A,#0x0
        MOV     R1,A
//  376   }
//  377 
//  378   if ( epDesc == NULL )
??MT_AfDataRequest_4:
        MOV     A,?V0 + 12
        ORL     A,?V0 + 13
        JNZ     ??MT_AfDataRequest_5
//  379   {
//  380     retValue = afStatus_INVALID_PARAMETER;
??MT_AfDataRequest_6:
        MOV     DPL,?XSP + 0
        MOV     DPH,?XSP + 1
        MOV     A,#0x2
        LJMP    ??MT_AfDataRequest_7 & 0xFFFF
//  381   }
//  382   else if (tempLen > (uint16)MT_RPC_DATA_MAX)
??MT_AfDataRequest_5:
        CLR     C
        MOV     A,R0
        SUBB    A,#-0x5
        MOV     A,R1
        SUBB    A,#0x0
        JNC     $+5
        LJMP    ??MT_AfDataRequest_8 & 0xFFFF
//  383   {
//  384     if (pMtAfDataReq != NULL)
        LCALL   ?Subroutine3 & 0xFFFF
??CrossCallReturnLabel_73:
        JNZ     ??MT_AfDataRequest_6
//  385     {
//  386       retValue = afStatus_INVALID_PARAMETER;
//  387     }
//  388     else if ((pMtAfDataReq = osal_mem_alloc(sizeof(mtAfDataReq_t) + dataLen)) == NULL)
        ; Setup parameters for call to function osal_mem_alloc
        MOV     A,R6
        ADD     A,#0x18
        LCALL   ?Subroutine19 & 0xFFFF
??CrossCallReturnLabel_59:
        MOV     DPTR,#pMtAfDataReq
        MOV     A,R2
        MOVX    @DPTR,A
        INC     DPTR
        MOV     A,R3
        MOVX    @DPTR,A
        LCALL   ?Subroutine3 & 0xFFFF
??CrossCallReturnLabel_74:
        MOV     DPL,?XSP + 0
        MOV     DPH,?XSP + 1
        JNZ     ??MT_AfDataRequest_9
//  389     {
//  390       retValue = afStatus_MEM_FAIL;
        MOV     A,#0x10
        LJMP    ??MT_AfDataRequest_7 & 0xFFFF
//  391     }
//  392     else
//  393     {
//  394       retValue = afStatus_SUCCESS;
??MT_AfDataRequest_9:
        CLR     A
        LCALL   ?Subroutine22 & 0xFFFF
//  395 
//  396       pMtAfDataReq->data = (uint8 *)(pMtAfDataReq+1);
??CrossCallReturnLabel_19:
        ADD     A,#0x18
        MOV     R2,A
        INC     DPTR
        MOVX    A,@DPTR
        ADDC    A,#0x0
        MOV     R3,A
        LCALL   ?Subroutine14 & 0xFFFF
??CrossCallReturnLabel_10:
        MOV     A,R2
        MOVX    @DPTR,A
        INC     DPTR
        MOV     A,R3
        MOVX    @DPTR,A
//  397       (void)osal_memcpy(&(pMtAfDataReq->dstAddr), &dstAddr, sizeof(afAddrType_t));
        ; Setup parameters for call to function osal_memcpy
        MOV     A,#0x2
        LCALL   ?XSTACK_DISP0_8
        MOV     R1,DPL
        MOV     R2,DPH
        MOV     ?V0 + 8,R1
        MOV     ?V0 + 9,R2
        MOV     ?V0 + 10,#0x0
        MOV     R0,#?V0 + 8
        LCALL   ?PUSH_XSTACK_I_THREE
        CFI CFA_XSP16 add(XSP16, 39)
        MOV     R4,#0xc
        MOV     R5,#0x0
        LCALL   ?Subroutine13 & 0xFFFF
??CrossCallReturnLabel_8:
        LCALL   ??Subroutine56_0 & 0xFFFF
??CrossCallReturnLabel_117:
        LCALL   ?DEALLOC_XSTACK8
        CFI CFA_XSP16 add(XSP16, 36)
//  398       pMtAfDataReq->epDesc = epDesc;
        MOV     DPTR,#pMtAfDataReq
        MOVX    A,@DPTR
        ADD     A,#0xe
        LCALL   ??Subroutine57_0 & 0xFFFF
??CrossCallReturnLabel_120:
        MOV     A,?V0 + 12
        MOVX    @DPTR,A
        INC     DPTR
        MOV     A,?V0 + 13
        MOVX    @DPTR,A
//  399       pMtAfDataReq->cId = cId;
        LCALL   ?Subroutine5 & 0xFFFF
??CrossCallReturnLabel_127:
        MOV     A,?V0 + 0
        MOVX    @DPTR,A
        INC     DPTR
        MOV     A,?V0 + 1
        LCALL   ?Subroutine22 & 0xFFFF
//  400       pMtAfDataReq->dataLen = dataLen;
??CrossCallReturnLabel_20:
        ADD     A,#0x12
        LCALL   ??Subroutine57_0 & 0xFFFF
??CrossCallReturnLabel_121:
        MOV     A,R6
        MOVX    @DPTR,A
        INC     DPTR
        MOV     A,R7
        MOVX    @DPTR,A
//  401       pMtAfDataReq->transId = transId;
        MOV     A,#0x1
        LCALL   ?XSTACK_DISP0_8
        MOVX    A,@DPTR
        PUSH    A
        CFI CFA_SP SP+-1
        MOV     DPTR,#pMtAfDataReq
        MOVX    A,@DPTR
        ADD     A,#0x14
        LCALL   ??Subroutine57_0 & 0xFFFF
??CrossCallReturnLabel_122:
        POP     A
        CFI CFA_SP SP+0
        LCALL   ?Subroutine22 & 0xFFFF
//  402       pMtAfDataReq->txOpts = txOpts;
??CrossCallReturnLabel_21:
        ADD     A,#0x15
        LCALL   ??Subroutine57_0 & 0xFFFF
??CrossCallReturnLabel_123:
        MOV     A,?V0 + 4
        LCALL   ?Subroutine22 & 0xFFFF
//  403       pMtAfDataReq->radius = radius;
??CrossCallReturnLabel_22:
        ADD     A,#0x16
        LCALL   ??Subroutine57_0 & 0xFFFF
??CrossCallReturnLabel_124:
        MOV     A,?V0 + 5
        LCALL   ?Subroutine22 & 0xFFFF
//  404 
//  405       // Setup to time-out the huge outgoing item if host does not MT_AF_DATA_STORE it.
//  406       pMtAfDataReq->tick = MT_AF_EXEC_CNT;
??CrossCallReturnLabel_23:
        ADD     A,#0x17
        LCALL   ??Subroutine57_0 & 0xFFFF
??CrossCallReturnLabel_125:
        LCALL   ?Subroutine11 & 0xFFFF
//  407       if (ZSuccess != osal_start_timerEx(MT_TaskID, MT_AF_EXEC_EVT, MT_AF_EXEC_DLY))
??CrossCallReturnLabel_67:
        JZ      ??MT_AfDataRequest_10
//  408       {
//  409         (void)osal_set_event(MT_TaskID, MT_AF_EXEC_EVT);
        ; Setup parameters for call to function osal_set_event
        LCALL   ?Subroutine15 & 0xFFFF
//  410       }
//  411     }
//  412   }
??CrossCallReturnLabel_13:
        SJMP    ??MT_AfDataRequest_10
//  413   else
//  414   {
//  415     retValue = AF_DataRequest(&dstAddr, epDesc, cId, dataLen, pBuf, &transId, txOpts, radius);
??MT_AfDataRequest_8:
        ; Setup parameters for call to function AF_DataRequest
        MOV     R0,#?V0 + 5
        LCALL   ?PUSH_XSTACK_I_ONE
        CFI CFA_XSP16 add(XSP16, 37)
        MOV     A,#0x2
        LCALL   ?XSTACK_DISP0_8
        MOV     ?V0 + 8,DPL
        MOV     ?V0 + 9,DPH
        MOV     R0,#?V0 + 8
        LCALL   ?PUSH_XSTACK_I_TWO
        CFI CFA_XSP16 add(XSP16, 39)
        MOV     R0,#?V0 + 2
        LCALL   ?PUSH_XSTACK_I_TWO
        CFI CFA_XSP16 add(XSP16, 41)
        MOV     ?V0 + 2,R6
        MOV     ?V0 + 3,R7
        MOV     R0,#?V0 + 2
        LCALL   ?PUSH_XSTACK_I_TWO
        CFI CFA_XSP16 add(XSP16, 43)
        MOV     R0,#?V0 + 0
        LCALL   ?PUSH_XSTACK_I_TWO
        CFI CFA_XSP16 add(XSP16, 45)
        MOV     R1,?V0 + 4
        MOV     R4,?V0 + 12
        MOV     R5,?V0 + 13
        MOV     A,#0xb
        LCALL   ?XSTACK_DISP0_8
        MOV     R2,DPL
        MOV     R3,DPH
        LCALL   ??AF_DataRequest?relay
        MOV     A,#0x9
        LCALL   ?DEALLOC_XSTACK8
        CFI CFA_XSP16 add(XSP16, 36)
        MOV     A,R1
        MOV     DPL,?XSP + 0
        MOV     DPH,?XSP + 1
??MT_AfDataRequest_7:
        MOVX    @DPTR,A
//  416   }
//  417 
//  418   if (MT_RPC_CMD_SREQ == (cmd0 & MT_RPC_CMD_TYPE_MASK))
??MT_AfDataRequest_10:
        MOV     A,#-0x20
        ANL     A,?V0 + 7
        XRL     A,#0x20
        JNZ     ??MT_AfDataRequest_11
//  419   {
//  420     MT_BuildAndSendZToolResponse(((uint8)MT_RPC_CMD_SRSP|(uint8)MT_RPC_SYS_AF), cmd1, 1, &retValue);
        ; Setup parameters for call to function MT_BuildAndSendZToolResponse
        MOV     DPL,?XSP + 0
        MOV     DPH,?XSP + 1
        MOV     R4,DPL
        MOV     R5,DPH
        MOV     R3,#0x1
        MOV     R2,?V0 + 6
        MOV     R1,#0x64
        LCALL   ??MT_BuildAndSendZToolResponse?relay
//  421   }
//  422 }
??MT_AfDataRequest_11:
        MOV     A,#0xe
        LCALL   ?DEALLOC_XSTACK8
        CFI CFA_XSP16 add(XSP16, 22)
        MOV     R7,#0xe
        LJMP    ?BANKED_LEAVE_XDATA
        CFI EndBlock cfiBlock16

        RSEG BANKED_CODE:CODE:NOROOT(0)
?Subroutine32:
        CFI Block cfiCond17 Using cfiCommon0
        CFI NoFunction
        CFI Conditional ??CrossCallReturnLabel_48
        CFI R6 load(1, XDATA, add(CFA_XSP16, literal(-22)))
        CFI VB load(1, XDATA, add(CFA_XSP16, literal(-21)))
        CFI V0 load(1, XDATA, add(CFA_XSP16, literal(-20)))
        CFI V1 load(1, XDATA, add(CFA_XSP16, literal(-19)))
        CFI V2 load(1, XDATA, add(CFA_XSP16, literal(-18)))
        CFI V3 load(1, XDATA, add(CFA_XSP16, literal(-17)))
        CFI V4 load(1, XDATA, add(CFA_XSP16, literal(-16)))
        CFI V5 load(1, XDATA, add(CFA_XSP16, literal(-15)))
        CFI V6 load(1, XDATA, add(CFA_XSP16, literal(-14)))
        CFI V7 load(1, XDATA, add(CFA_XSP16, literal(-13)))
        CFI V8 load(1, XDATA, add(CFA_XSP16, literal(-12)))
        CFI V9 load(1, XDATA, add(CFA_XSP16, literal(-11)))
        CFI V10 load(1, XDATA, add(CFA_XSP16, literal(-10)))
        CFI V11 load(1, XDATA, add(CFA_XSP16, literal(-9)))
        CFI V12 load(1, XDATA, add(CFA_XSP16, literal(-8)))
        CFI V13 load(1, XDATA, add(CFA_XSP16, literal(-7)))
        CFI R7 load(1, XDATA, add(CFA_XSP16, literal(-6)))
        CFI ?RET_LOW load(1, XDATA, add(CFA_XSP16, literal(-5)))
        CFI ?RET_HIGH load(1, XDATA, add(CFA_XSP16, literal(-4)))
        CFI ?BRET_EXT load(1, XDATA, add(CFA_XSP16, literal(-3)))
        CFI DPL0 load(1, XDATA, add(CFA_XSP16, literal(-2)))
        CFI DPH0 load(1, XDATA, add(CFA_XSP16, literal(-1)))
        CFI CFA_SP SP+0
        CFI CFA_XSP16 add(XSP16, 36)
        CFI Block cfiCond18 Using cfiCommon0
        CFI (cfiCond18) NoFunction
        CFI (cfiCond18) Conditional ??CrossCallReturnLabel_49
        CFI (cfiCond18) R6 load(1, XDATA, add(CFA_XSP16, literal(-22)))
        CFI (cfiCond18) VB load(1, XDATA, add(CFA_XSP16, literal(-21)))
        CFI (cfiCond18) V0 load(1, XDATA, add(CFA_XSP16, literal(-20)))
        CFI (cfiCond18) V1 load(1, XDATA, add(CFA_XSP16, literal(-19)))
        CFI (cfiCond18) V2 load(1, XDATA, add(CFA_XSP16, literal(-18)))
        CFI (cfiCond18) V3 load(1, XDATA, add(CFA_XSP16, literal(-17)))
        CFI (cfiCond18) V4 load(1, XDATA, add(CFA_XSP16, literal(-16)))
        CFI (cfiCond18) V5 load(1, XDATA, add(CFA_XSP16, literal(-15)))
        CFI (cfiCond18) V6 load(1, XDATA, add(CFA_XSP16, literal(-14)))
        CFI (cfiCond18) V7 load(1, XDATA, add(CFA_XSP16, literal(-13)))
        CFI (cfiCond18) V8 load(1, XDATA, add(CFA_XSP16, literal(-12)))
        CFI (cfiCond18) V9 load(1, XDATA, add(CFA_XSP16, literal(-11)))
        CFI (cfiCond18) V10 load(1, XDATA, add(CFA_XSP16, literal(-10)))
        CFI (cfiCond18) V11 load(1, XDATA, add(CFA_XSP16, literal(-9)))
        CFI (cfiCond18) V12 load(1, XDATA, add(CFA_XSP16, literal(-8)))
        CFI (cfiCond18) V13 load(1, XDATA, add(CFA_XSP16, literal(-7)))
        CFI (cfiCond18) R7 load(1, XDATA, add(CFA_XSP16, literal(-6)))
        CFI (cfiCond18) ?RET_LOW load(1, XDATA, add(CFA_XSP16, literal(-5)))
        CFI (cfiCond18) ?RET_HIGH load(1, XDATA, add(CFA_XSP16, literal(-4)))
        CFI (cfiCond18) ?BRET_EXT load(1, XDATA, add(CFA_XSP16, literal(-3)))
        CFI (cfiCond18) DPL0 load(1, XDATA, add(CFA_XSP16, literal(-2)))
        CFI (cfiCond18) DPH0 load(1, XDATA, add(CFA_XSP16, literal(-1)))
        CFI (cfiCond18) CFA_SP SP+0
        CFI (cfiCond18) CFA_XSP16 add(XSP16, 36)
        CFI Block cfiPicker19 Using cfiCommon1
        CFI (cfiPicker19) NoFunction
        CFI (cfiPicker19) Picker
        MOV     A,?V0 + 2
        ADD     A,#0x2
        MOV     ?V0 + 2,A
        MOV     A,?V0 + 3
        ADDC    A,#0x0
        MOV     ?V0 + 3,A
        RET
        CFI EndBlock cfiCond17
        CFI EndBlock cfiCond18
        CFI EndBlock cfiPicker19

        RSEG BANKED_CODE:CODE:NOROOT(0)
?Subroutine22:
        CFI Block cfiCond20 Using cfiCommon0
        CFI NoFunction
        CFI Conditional ??CrossCallReturnLabel_19
        CFI R6 load(1, XDATA, add(CFA_XSP16, literal(-22)))
        CFI VB load(1, XDATA, add(CFA_XSP16, literal(-21)))
        CFI V0 load(1, XDATA, add(CFA_XSP16, literal(-20)))
        CFI V1 load(1, XDATA, add(CFA_XSP16, literal(-19)))
        CFI V2 load(1, XDATA, add(CFA_XSP16, literal(-18)))
        CFI V3 load(1, XDATA, add(CFA_XSP16, literal(-17)))
        CFI V4 load(1, XDATA, add(CFA_XSP16, literal(-16)))
        CFI V5 load(1, XDATA, add(CFA_XSP16, literal(-15)))
        CFI V6 load(1, XDATA, add(CFA_XSP16, literal(-14)))
        CFI V7 load(1, XDATA, add(CFA_XSP16, literal(-13)))
        CFI V8 load(1, XDATA, add(CFA_XSP16, literal(-12)))
        CFI V9 load(1, XDATA, add(CFA_XSP16, literal(-11)))
        CFI V10 load(1, XDATA, add(CFA_XSP16, literal(-10)))
        CFI V11 load(1, XDATA, add(CFA_XSP16, literal(-9)))
        CFI V12 load(1, XDATA, add(CFA_XSP16, literal(-8)))
        CFI V13 load(1, XDATA, add(CFA_XSP16, literal(-7)))
        CFI R7 load(1, XDATA, add(CFA_XSP16, literal(-6)))
        CFI ?RET_LOW load(1, XDATA, add(CFA_XSP16, literal(-5)))
        CFI ?RET_HIGH load(1, XDATA, add(CFA_XSP16, literal(-4)))
        CFI ?BRET_EXT load(1, XDATA, add(CFA_XSP16, literal(-3)))
        CFI DPL0 load(1, XDATA, add(CFA_XSP16, literal(-2)))
        CFI DPH0 load(1, XDATA, add(CFA_XSP16, literal(-1)))
        CFI CFA_SP SP+0
        CFI CFA_XSP16 add(XSP16, 36)
        CFI Block cfiCond21 Using cfiCommon0
        CFI (cfiCond21) NoFunction
        CFI (cfiCond21) Conditional ??CrossCallReturnLabel_20
        CFI (cfiCond21) R6 load(1, XDATA, add(CFA_XSP16, literal(-22)))
        CFI (cfiCond21) VB load(1, XDATA, add(CFA_XSP16, literal(-21)))
        CFI (cfiCond21) V0 load(1, XDATA, add(CFA_XSP16, literal(-20)))
        CFI (cfiCond21) V1 load(1, XDATA, add(CFA_XSP16, literal(-19)))
        CFI (cfiCond21) V2 load(1, XDATA, add(CFA_XSP16, literal(-18)))
        CFI (cfiCond21) V3 load(1, XDATA, add(CFA_XSP16, literal(-17)))
        CFI (cfiCond21) V4 load(1, XDATA, add(CFA_XSP16, literal(-16)))
        CFI (cfiCond21) V5 load(1, XDATA, add(CFA_XSP16, literal(-15)))
        CFI (cfiCond21) V6 load(1, XDATA, add(CFA_XSP16, literal(-14)))
        CFI (cfiCond21) V7 load(1, XDATA, add(CFA_XSP16, literal(-13)))
        CFI (cfiCond21) V8 load(1, XDATA, add(CFA_XSP16, literal(-12)))
        CFI (cfiCond21) V9 load(1, XDATA, add(CFA_XSP16, literal(-11)))
        CFI (cfiCond21) V10 load(1, XDATA, add(CFA_XSP16, literal(-10)))
        CFI (cfiCond21) V11 load(1, XDATA, add(CFA_XSP16, literal(-9)))
        CFI (cfiCond21) V12 load(1, XDATA, add(CFA_XSP16, literal(-8)))
        CFI (cfiCond21) V13 load(1, XDATA, add(CFA_XSP16, literal(-7)))
        CFI (cfiCond21) R7 load(1, XDATA, add(CFA_XSP16, literal(-6)))
        CFI (cfiCond21) ?RET_LOW load(1, XDATA, add(CFA_XSP16, literal(-5)))
        CFI (cfiCond21) ?RET_HIGH load(1, XDATA, add(CFA_XSP16, literal(-4)))
        CFI (cfiCond21) ?BRET_EXT load(1, XDATA, add(CFA_XSP16, literal(-3)))
        CFI (cfiCond21) DPL0 load(1, XDATA, add(CFA_XSP16, literal(-2)))
        CFI (cfiCond21) DPH0 load(1, XDATA, add(CFA_XSP16, literal(-1)))
        CFI (cfiCond21) CFA_SP SP+0
        CFI (cfiCond21) CFA_XSP16 add(XSP16, 36)
        CFI Block cfiCond22 Using cfiCommon0
        CFI (cfiCond22) NoFunction
        CFI (cfiCond22) Conditional ??CrossCallReturnLabel_21
        CFI (cfiCond22) R6 load(1, XDATA, add(CFA_XSP16, literal(-22)))
        CFI (cfiCond22) VB load(1, XDATA, add(CFA_XSP16, literal(-21)))
        CFI (cfiCond22) V0 load(1, XDATA, add(CFA_XSP16, literal(-20)))
        CFI (cfiCond22) V1 load(1, XDATA, add(CFA_XSP16, literal(-19)))
        CFI (cfiCond22) V2 load(1, XDATA, add(CFA_XSP16, literal(-18)))
        CFI (cfiCond22) V3 load(1, XDATA, add(CFA_XSP16, literal(-17)))
        CFI (cfiCond22) V4 load(1, XDATA, add(CFA_XSP16, literal(-16)))
        CFI (cfiCond22) V5 load(1, XDATA, add(CFA_XSP16, literal(-15)))
        CFI (cfiCond22) V6 load(1, XDATA, add(CFA_XSP16, literal(-14)))
        CFI (cfiCond22) V7 load(1, XDATA, add(CFA_XSP16, literal(-13)))
        CFI (cfiCond22) V8 load(1, XDATA, add(CFA_XSP16, literal(-12)))
        CFI (cfiCond22) V9 load(1, XDATA, add(CFA_XSP16, literal(-11)))
        CFI (cfiCond22) V10 load(1, XDATA, add(CFA_XSP16, literal(-10)))
        CFI (cfiCond22) V11 load(1, XDATA, add(CFA_XSP16, literal(-9)))
        CFI (cfiCond22) V12 load(1, XDATA, add(CFA_XSP16, literal(-8)))
        CFI (cfiCond22) V13 load(1, XDATA, add(CFA_XSP16, literal(-7)))
        CFI (cfiCond22) R7 load(1, XDATA, add(CFA_XSP16, literal(-6)))
        CFI (cfiCond22) ?RET_LOW load(1, XDATA, add(CFA_XSP16, literal(-5)))
        CFI (cfiCond22) ?RET_HIGH load(1, XDATA, add(CFA_XSP16, literal(-4)))
        CFI (cfiCond22) ?BRET_EXT load(1, XDATA, add(CFA_XSP16, literal(-3)))
        CFI (cfiCond22) DPL0 load(1, XDATA, add(CFA_XSP16, literal(-2)))
        CFI (cfiCond22) DPH0 load(1, XDATA, add(CFA_XSP16, literal(-1)))
        CFI (cfiCond22) CFA_SP SP+0
        CFI (cfiCond22) CFA_XSP16 add(XSP16, 36)
        CFI Block cfiCond23 Using cfiCommon0
        CFI (cfiCond23) NoFunction
        CFI (cfiCond23) Conditional ??CrossCallReturnLabel_22
        CFI (cfiCond23) R6 load(1, XDATA, add(CFA_XSP16, literal(-22)))
        CFI (cfiCond23) VB load(1, XDATA, add(CFA_XSP16, literal(-21)))
        CFI (cfiCond23) V0 load(1, XDATA, add(CFA_XSP16, literal(-20)))
        CFI (cfiCond23) V1 load(1, XDATA, add(CFA_XSP16, literal(-19)))
        CFI (cfiCond23) V2 load(1, XDATA, add(CFA_XSP16, literal(-18)))
        CFI (cfiCond23) V3 load(1, XDATA, add(CFA_XSP16, literal(-17)))
        CFI (cfiCond23) V4 load(1, XDATA, add(CFA_XSP16, literal(-16)))
        CFI (cfiCond23) V5 load(1, XDATA, add(CFA_XSP16, literal(-15)))
        CFI (cfiCond23) V6 load(1, XDATA, add(CFA_XSP16, literal(-14)))
        CFI (cfiCond23) V7 load(1, XDATA, add(CFA_XSP16, literal(-13)))
        CFI (cfiCond23) V8 load(1, XDATA, add(CFA_XSP16, literal(-12)))
        CFI (cfiCond23) V9 load(1, XDATA, add(CFA_XSP16, literal(-11)))
        CFI (cfiCond23) V10 load(1, XDATA, add(CFA_XSP16, literal(-10)))
        CFI (cfiCond23) V11 load(1, XDATA, add(CFA_XSP16, literal(-9)))
        CFI (cfiCond23) V12 load(1, XDATA, add(CFA_XSP16, literal(-8)))
        CFI (cfiCond23) V13 load(1, XDATA, add(CFA_XSP16, literal(-7)))
        CFI (cfiCond23) R7 load(1, XDATA, add(CFA_XSP16, literal(-6)))
        CFI (cfiCond23) ?RET_LOW load(1, XDATA, add(CFA_XSP16, literal(-5)))
        CFI (cfiCond23) ?RET_HIGH load(1, XDATA, add(CFA_XSP16, literal(-4)))
        CFI (cfiCond23) ?BRET_EXT load(1, XDATA, add(CFA_XSP16, literal(-3)))
        CFI (cfiCond23) DPL0 load(1, XDATA, add(CFA_XSP16, literal(-2)))
        CFI (cfiCond23) DPH0 load(1, XDATA, add(CFA_XSP16, literal(-1)))
        CFI (cfiCond23) CFA_SP SP+0
        CFI (cfiCond23) CFA_XSP16 add(XSP16, 36)
        CFI Block cfiCond24 Using cfiCommon0
        CFI (cfiCond24) NoFunction
        CFI (cfiCond24) Conditional ??CrossCallReturnLabel_23
        CFI (cfiCond24) R6 load(1, XDATA, add(CFA_XSP16, literal(-22)))
        CFI (cfiCond24) VB load(1, XDATA, add(CFA_XSP16, literal(-21)))
        CFI (cfiCond24) V0 load(1, XDATA, add(CFA_XSP16, literal(-20)))
        CFI (cfiCond24) V1 load(1, XDATA, add(CFA_XSP16, literal(-19)))
        CFI (cfiCond24) V2 load(1, XDATA, add(CFA_XSP16, literal(-18)))
        CFI (cfiCond24) V3 load(1, XDATA, add(CFA_XSP16, literal(-17)))
        CFI (cfiCond24) V4 load(1, XDATA, add(CFA_XSP16, literal(-16)))
        CFI (cfiCond24) V5 load(1, XDATA, add(CFA_XSP16, literal(-15)))
        CFI (cfiCond24) V6 load(1, XDATA, add(CFA_XSP16, literal(-14)))
        CFI (cfiCond24) V7 load(1, XDATA, add(CFA_XSP16, literal(-13)))
        CFI (cfiCond24) V8 load(1, XDATA, add(CFA_XSP16, literal(-12)))
        CFI (cfiCond24) V9 load(1, XDATA, add(CFA_XSP16, literal(-11)))
        CFI (cfiCond24) V10 load(1, XDATA, add(CFA_XSP16, literal(-10)))
        CFI (cfiCond24) V11 load(1, XDATA, add(CFA_XSP16, literal(-9)))
        CFI (cfiCond24) V12 load(1, XDATA, add(CFA_XSP16, literal(-8)))
        CFI (cfiCond24) V13 load(1, XDATA, add(CFA_XSP16, literal(-7)))
        CFI (cfiCond24) R7 load(1, XDATA, add(CFA_XSP16, literal(-6)))
        CFI (cfiCond24) ?RET_LOW load(1, XDATA, add(CFA_XSP16, literal(-5)))
        CFI (cfiCond24) ?RET_HIGH load(1, XDATA, add(CFA_XSP16, literal(-4)))
        CFI (cfiCond24) ?BRET_EXT load(1, XDATA, add(CFA_XSP16, literal(-3)))
        CFI (cfiCond24) DPL0 load(1, XDATA, add(CFA_XSP16, literal(-2)))
        CFI (cfiCond24) DPH0 load(1, XDATA, add(CFA_XSP16, literal(-1)))
        CFI (cfiCond24) CFA_SP SP+0
        CFI (cfiCond24) CFA_XSP16 add(XSP16, 36)
        CFI Block cfiPicker25 Using cfiCommon1
        CFI (cfiPicker25) NoFunction
        CFI (cfiPicker25) Picker
        MOVX    @DPTR,A
        MOV     DPTR,#pMtAfDataReq
        MOVX    A,@DPTR
        RET
        CFI EndBlock cfiCond20
        CFI EndBlock cfiCond21
        CFI EndBlock cfiCond22
        CFI EndBlock cfiCond23
        CFI EndBlock cfiCond24
        CFI EndBlock cfiPicker25

        RSEG BANKED_CODE:CODE:NOROOT(0)
?Subroutine21:
        CFI Block cfiCond26 Using cfiCommon0
        CFI NoFunction
        CFI Conditional ??CrossCallReturnLabel_17
        CFI R6 load(1, XDATA, add(CFA_XSP16, literal(-22)))
        CFI VB load(1, XDATA, add(CFA_XSP16, literal(-21)))
        CFI V0 load(1, XDATA, add(CFA_XSP16, literal(-20)))
        CFI V1 load(1, XDATA, add(CFA_XSP16, literal(-19)))
        CFI V2 load(1, XDATA, add(CFA_XSP16, literal(-18)))
        CFI V3 load(1, XDATA, add(CFA_XSP16, literal(-17)))
        CFI V4 load(1, XDATA, add(CFA_XSP16, literal(-16)))
        CFI V5 load(1, XDATA, add(CFA_XSP16, literal(-15)))
        CFI V6 load(1, XDATA, add(CFA_XSP16, literal(-14)))
        CFI V7 load(1, XDATA, add(CFA_XSP16, literal(-13)))
        CFI V8 load(1, XDATA, add(CFA_XSP16, literal(-12)))
        CFI V9 load(1, XDATA, add(CFA_XSP16, literal(-11)))
        CFI V10 load(1, XDATA, add(CFA_XSP16, literal(-10)))
        CFI V11 load(1, XDATA, add(CFA_XSP16, literal(-9)))
        CFI V12 load(1, XDATA, add(CFA_XSP16, literal(-8)))
        CFI V13 load(1, XDATA, add(CFA_XSP16, literal(-7)))
        CFI R7 load(1, XDATA, add(CFA_XSP16, literal(-6)))
        CFI ?RET_LOW load(1, XDATA, add(CFA_XSP16, literal(-5)))
        CFI ?RET_HIGH load(1, XDATA, add(CFA_XSP16, literal(-4)))
        CFI ?BRET_EXT load(1, XDATA, add(CFA_XSP16, literal(-3)))
        CFI DPL0 load(1, XDATA, add(CFA_XSP16, literal(-2)))
        CFI DPH0 load(1, XDATA, add(CFA_XSP16, literal(-1)))
        CFI CFA_SP SP+0
        CFI CFA_XSP16 add(XSP16, 36)
        CFI Block cfiCond27 Using cfiCommon0
        CFI (cfiCond27) NoFunction
        CFI (cfiCond27) Conditional ??CrossCallReturnLabel_18
        CFI (cfiCond27) R6 load(1, XDATA, add(CFA_XSP16, literal(-22)))
        CFI (cfiCond27) VB load(1, XDATA, add(CFA_XSP16, literal(-21)))
        CFI (cfiCond27) V0 load(1, XDATA, add(CFA_XSP16, literal(-20)))
        CFI (cfiCond27) V1 load(1, XDATA, add(CFA_XSP16, literal(-19)))
        CFI (cfiCond27) V2 load(1, XDATA, add(CFA_XSP16, literal(-18)))
        CFI (cfiCond27) V3 load(1, XDATA, add(CFA_XSP16, literal(-17)))
        CFI (cfiCond27) V4 load(1, XDATA, add(CFA_XSP16, literal(-16)))
        CFI (cfiCond27) V5 load(1, XDATA, add(CFA_XSP16, literal(-15)))
        CFI (cfiCond27) V6 load(1, XDATA, add(CFA_XSP16, literal(-14)))
        CFI (cfiCond27) V7 load(1, XDATA, add(CFA_XSP16, literal(-13)))
        CFI (cfiCond27) V8 load(1, XDATA, add(CFA_XSP16, literal(-12)))
        CFI (cfiCond27) V9 load(1, XDATA, add(CFA_XSP16, literal(-11)))
        CFI (cfiCond27) V10 load(1, XDATA, add(CFA_XSP16, literal(-10)))
        CFI (cfiCond27) V11 load(1, XDATA, add(CFA_XSP16, literal(-9)))
        CFI (cfiCond27) V12 load(1, XDATA, add(CFA_XSP16, literal(-8)))
        CFI (cfiCond27) V13 load(1, XDATA, add(CFA_XSP16, literal(-7)))
        CFI (cfiCond27) R7 load(1, XDATA, add(CFA_XSP16, literal(-6)))
        CFI (cfiCond27) ?RET_LOW load(1, XDATA, add(CFA_XSP16, literal(-5)))
        CFI (cfiCond27) ?RET_HIGH load(1, XDATA, add(CFA_XSP16, literal(-4)))
        CFI (cfiCond27) ?BRET_EXT load(1, XDATA, add(CFA_XSP16, literal(-3)))
        CFI (cfiCond27) DPL0 load(1, XDATA, add(CFA_XSP16, literal(-2)))
        CFI (cfiCond27) DPH0 load(1, XDATA, add(CFA_XSP16, literal(-1)))
        CFI (cfiCond27) CFA_SP SP+0
        CFI (cfiCond27) CFA_XSP16 add(XSP16, 36)
        CFI Block cfiPicker28 Using cfiCommon1
        CFI (cfiPicker28) NoFunction
        CFI (cfiPicker28) Picker
        LCALL   ?Subroutine40 & 0xFFFF
??CrossCallReturnLabel_54:
        MOV     ?V0 + 2,DPL
        MOV     ?V0 + 3,DPH
        RET
        CFI EndBlock cfiCond26
        CFI EndBlock cfiCond27
        CFI EndBlock cfiPicker28

        RSEG BANKED_CODE:CODE:NOROOT(0)
?Subroutine40:
        CFI Block cfiCond29 Using cfiCommon0
        CFI NoFunction
        CFI Conditional ??CrossCallReturnLabel_53
        CFI R6 load(1, XDATA, add(CFA_XSP16, literal(-22)))
        CFI VB load(1, XDATA, add(CFA_XSP16, literal(-21)))
        CFI V0 load(1, XDATA, add(CFA_XSP16, literal(-20)))
        CFI V1 load(1, XDATA, add(CFA_XSP16, literal(-19)))
        CFI V2 load(1, XDATA, add(CFA_XSP16, literal(-18)))
        CFI V3 load(1, XDATA, add(CFA_XSP16, literal(-17)))
        CFI V4 load(1, XDATA, add(CFA_XSP16, literal(-16)))
        CFI V5 load(1, XDATA, add(CFA_XSP16, literal(-15)))
        CFI V6 load(1, XDATA, add(CFA_XSP16, literal(-14)))
        CFI V7 load(1, XDATA, add(CFA_XSP16, literal(-13)))
        CFI V8 load(1, XDATA, add(CFA_XSP16, literal(-12)))
        CFI V9 load(1, XDATA, add(CFA_XSP16, literal(-11)))
        CFI V10 load(1, XDATA, add(CFA_XSP16, literal(-10)))
        CFI V11 load(1, XDATA, add(CFA_XSP16, literal(-9)))
        CFI V12 load(1, XDATA, add(CFA_XSP16, literal(-8)))
        CFI V13 load(1, XDATA, add(CFA_XSP16, literal(-7)))
        CFI R7 load(1, XDATA, add(CFA_XSP16, literal(-6)))
        CFI ?RET_LOW load(1, XDATA, add(CFA_XSP16, literal(-5)))
        CFI ?RET_HIGH load(1, XDATA, add(CFA_XSP16, literal(-4)))
        CFI ?BRET_EXT load(1, XDATA, add(CFA_XSP16, literal(-3)))
        CFI DPL0 load(1, XDATA, add(CFA_XSP16, literal(-2)))
        CFI DPH0 load(1, XDATA, add(CFA_XSP16, literal(-1)))
        CFI CFA_SP SP+0
        CFI CFA_XSP16 add(XSP16, 36)
        CFI Block cfiCond30 Using cfiCommon0
        CFI (cfiCond30) NoFunction
        CFI (cfiCond30) Conditional ??CrossCallReturnLabel_54, ??CrossCallReturnLabel_17
        CFI (cfiCond30) R6 load(1, XDATA, add(CFA_XSP16, literal(-22)))
        CFI (cfiCond30) VB load(1, XDATA, add(CFA_XSP16, literal(-21)))
        CFI (cfiCond30) V0 load(1, XDATA, add(CFA_XSP16, literal(-20)))
        CFI (cfiCond30) V1 load(1, XDATA, add(CFA_XSP16, literal(-19)))
        CFI (cfiCond30) V2 load(1, XDATA, add(CFA_XSP16, literal(-18)))
        CFI (cfiCond30) V3 load(1, XDATA, add(CFA_XSP16, literal(-17)))
        CFI (cfiCond30) V4 load(1, XDATA, add(CFA_XSP16, literal(-16)))
        CFI (cfiCond30) V5 load(1, XDATA, add(CFA_XSP16, literal(-15)))
        CFI (cfiCond30) V6 load(1, XDATA, add(CFA_XSP16, literal(-14)))
        CFI (cfiCond30) V7 load(1, XDATA, add(CFA_XSP16, literal(-13)))
        CFI (cfiCond30) V8 load(1, XDATA, add(CFA_XSP16, literal(-12)))
        CFI (cfiCond30) V9 load(1, XDATA, add(CFA_XSP16, literal(-11)))
        CFI (cfiCond30) V10 load(1, XDATA, add(CFA_XSP16, literal(-10)))
        CFI (cfiCond30) V11 load(1, XDATA, add(CFA_XSP16, literal(-9)))
        CFI (cfiCond30) V12 load(1, XDATA, add(CFA_XSP16, literal(-8)))
        CFI (cfiCond30) V13 load(1, XDATA, add(CFA_XSP16, literal(-7)))
        CFI (cfiCond30) R7 load(1, XDATA, add(CFA_XSP16, literal(-6)))
        CFI (cfiCond30) ?RET_LOW load(1, XDATA, add(CFA_XSP16, literal(-5)))
        CFI (cfiCond30) ?RET_HIGH load(1, XDATA, add(CFA_XSP16, literal(-4)))
        CFI (cfiCond30) ?BRET_EXT load(1, XDATA, add(CFA_XSP16, literal(-3)))
        CFI (cfiCond30) DPL0 load(1, XDATA, add(CFA_XSP16, literal(-2)))
        CFI (cfiCond30) DPH0 load(1, XDATA, add(CFA_XSP16, literal(-1)))
        CFI (cfiCond30) CFA_SP SP+0
        CFI (cfiCond30) CFA_XSP16 add(XSP16, 36)
        CFI Block cfiCond31 Using cfiCommon0
        CFI (cfiCond31) NoFunction
        CFI (cfiCond31) Conditional ??CrossCallReturnLabel_54, ??CrossCallReturnLabel_18
        CFI (cfiCond31) R6 load(1, XDATA, add(CFA_XSP16, literal(-22)))
        CFI (cfiCond31) VB load(1, XDATA, add(CFA_XSP16, literal(-21)))
        CFI (cfiCond31) V0 load(1, XDATA, add(CFA_XSP16, literal(-20)))
        CFI (cfiCond31) V1 load(1, XDATA, add(CFA_XSP16, literal(-19)))
        CFI (cfiCond31) V2 load(1, XDATA, add(CFA_XSP16, literal(-18)))
        CFI (cfiCond31) V3 load(1, XDATA, add(CFA_XSP16, literal(-17)))
        CFI (cfiCond31) V4 load(1, XDATA, add(CFA_XSP16, literal(-16)))
        CFI (cfiCond31) V5 load(1, XDATA, add(CFA_XSP16, literal(-15)))
        CFI (cfiCond31) V6 load(1, XDATA, add(CFA_XSP16, literal(-14)))
        CFI (cfiCond31) V7 load(1, XDATA, add(CFA_XSP16, literal(-13)))
        CFI (cfiCond31) V8 load(1, XDATA, add(CFA_XSP16, literal(-12)))
        CFI (cfiCond31) V9 load(1, XDATA, add(CFA_XSP16, literal(-11)))
        CFI (cfiCond31) V10 load(1, XDATA, add(CFA_XSP16, literal(-10)))
        CFI (cfiCond31) V11 load(1, XDATA, add(CFA_XSP16, literal(-9)))
        CFI (cfiCond31) V12 load(1, XDATA, add(CFA_XSP16, literal(-8)))
        CFI (cfiCond31) V13 load(1, XDATA, add(CFA_XSP16, literal(-7)))
        CFI (cfiCond31) R7 load(1, XDATA, add(CFA_XSP16, literal(-6)))
        CFI (cfiCond31) ?RET_LOW load(1, XDATA, add(CFA_XSP16, literal(-5)))
        CFI (cfiCond31) ?RET_HIGH load(1, XDATA, add(CFA_XSP16, literal(-4)))
        CFI (cfiCond31) ?BRET_EXT load(1, XDATA, add(CFA_XSP16, literal(-3)))
        CFI (cfiCond31) DPL0 load(1, XDATA, add(CFA_XSP16, literal(-2)))
        CFI (cfiCond31) DPH0 load(1, XDATA, add(CFA_XSP16, literal(-1)))
        CFI (cfiCond31) CFA_SP SP+0
        CFI (cfiCond31) CFA_XSP16 add(XSP16, 36)
        CFI Block cfiPicker32 Using cfiCommon1
        CFI (cfiPicker32) NoFunction
        CFI (cfiPicker32) Picker
        MOVX    @DPTR,A
        MOV     DPL,?V0 + 2
        MOV     DPH,?V0 + 3
        INC     DPTR
        RET
        CFI EndBlock cfiCond29
        CFI EndBlock cfiCond30
        CFI EndBlock cfiCond31
        CFI EndBlock cfiPicker32

        RSEG BANKED_CODE:CODE:NOROOT(0)
?Subroutine19:
        CFI Block cfiCond33 Using cfiCommon0
        CFI NoFunction
        CFI Conditional ??CrossCallReturnLabel_59
        CFI R6 load(1, XDATA, add(CFA_XSP16, literal(-22)))
        CFI VB load(1, XDATA, add(CFA_XSP16, literal(-21)))
        CFI V0 load(1, XDATA, add(CFA_XSP16, literal(-20)))
        CFI V1 load(1, XDATA, add(CFA_XSP16, literal(-19)))
        CFI V2 load(1, XDATA, add(CFA_XSP16, literal(-18)))
        CFI V3 load(1, XDATA, add(CFA_XSP16, literal(-17)))
        CFI V4 load(1, XDATA, add(CFA_XSP16, literal(-16)))
        CFI V5 load(1, XDATA, add(CFA_XSP16, literal(-15)))
        CFI V6 load(1, XDATA, add(CFA_XSP16, literal(-14)))
        CFI V7 load(1, XDATA, add(CFA_XSP16, literal(-13)))
        CFI V8 load(1, XDATA, add(CFA_XSP16, literal(-12)))
        CFI V9 load(1, XDATA, add(CFA_XSP16, literal(-11)))
        CFI V10 load(1, XDATA, add(CFA_XSP16, literal(-10)))
        CFI V11 load(1, XDATA, add(CFA_XSP16, literal(-9)))
        CFI V12 load(1, XDATA, add(CFA_XSP16, literal(-8)))
        CFI V13 load(1, XDATA, add(CFA_XSP16, literal(-7)))
        CFI R7 load(1, XDATA, add(CFA_XSP16, literal(-6)))
        CFI ?RET_LOW load(1, XDATA, add(CFA_XSP16, literal(-5)))
        CFI ?RET_HIGH load(1, XDATA, add(CFA_XSP16, literal(-4)))
        CFI ?BRET_EXT load(1, XDATA, add(CFA_XSP16, literal(-3)))
        CFI DPL0 load(1, XDATA, add(CFA_XSP16, literal(-2)))
        CFI DPH0 load(1, XDATA, add(CFA_XSP16, literal(-1)))
        CFI CFA_SP SP+0
        CFI CFA_XSP16 add(XSP16, 36)
        CFI Block cfiCond34 Using cfiCommon0
        CFI (cfiCond34) NoFunction
        CFI (cfiCond34) Conditional ??CrossCallReturnLabel_60
        CFI (cfiCond34) R6 load(1, XDATA, add(CFA_XSP16, literal(-24)))
        CFI (cfiCond34) VB load(1, XDATA, add(CFA_XSP16, literal(-23)))
        CFI (cfiCond34) V0 load(1, XDATA, add(CFA_XSP16, literal(-22)))
        CFI (cfiCond34) V1 load(1, XDATA, add(CFA_XSP16, literal(-21)))
        CFI (cfiCond34) V2 load(1, XDATA, add(CFA_XSP16, literal(-20)))
        CFI (cfiCond34) V3 load(1, XDATA, add(CFA_XSP16, literal(-19)))
        CFI (cfiCond34) V4 load(1, XDATA, add(CFA_XSP16, literal(-18)))
        CFI (cfiCond34) V5 load(1, XDATA, add(CFA_XSP16, literal(-17)))
        CFI (cfiCond34) V6 load(1, XDATA, add(CFA_XSP16, literal(-16)))
        CFI (cfiCond34) V7 load(1, XDATA, add(CFA_XSP16, literal(-15)))
        CFI (cfiCond34) V8 load(1, XDATA, add(CFA_XSP16, literal(-14)))
        CFI (cfiCond34) V9 load(1, XDATA, add(CFA_XSP16, literal(-13)))
        CFI (cfiCond34) V10 load(1, XDATA, add(CFA_XSP16, literal(-12)))
        CFI (cfiCond34) V11 load(1, XDATA, add(CFA_XSP16, literal(-11)))
        CFI (cfiCond34) V12 load(1, XDATA, add(CFA_XSP16, literal(-10)))
        CFI (cfiCond34) V13 load(1, XDATA, add(CFA_XSP16, literal(-9)))
        CFI (cfiCond34) V14 load(1, XDATA, add(CFA_XSP16, literal(-8)))
        CFI (cfiCond34) V15 load(1, XDATA, add(CFA_XSP16, literal(-7)))
        CFI (cfiCond34) R7 load(1, XDATA, add(CFA_XSP16, literal(-6)))
        CFI (cfiCond34) ?RET_LOW load(1, XDATA, add(CFA_XSP16, literal(-5)))
        CFI (cfiCond34) ?RET_HIGH load(1, XDATA, add(CFA_XSP16, literal(-4)))
        CFI (cfiCond34) ?BRET_EXT load(1, XDATA, add(CFA_XSP16, literal(-3)))
        CFI (cfiCond34) DPL0 load(1, XDATA, add(CFA_XSP16, literal(-2)))
        CFI (cfiCond34) DPH0 load(1, XDATA, add(CFA_XSP16, literal(-1)))
        CFI (cfiCond34) CFA_SP SP+0
        CFI (cfiCond34) CFA_XSP16 add(XSP16, 25)
        CFI Block cfiPicker35 Using cfiCommon1
        CFI (cfiPicker35) NoFunction
        CFI (cfiPicker35) Picker
        MOV     R2,A
        MOV     A,R7
        CFI EndBlock cfiCond33
        CFI EndBlock cfiCond34
        CFI EndBlock cfiPicker35
        REQUIRE ??Subroutine45_0
        ; // Fall through to label ??Subroutine45_0

        RSEG BANKED_CODE:CODE:NOROOT(0)
??Subroutine45_0:
        CFI Block cfiCond36 Using cfiCommon0
        CFI NoFunction
        CFI Conditional ??CrossCallReturnLabel_61
        CFI R6 load(1, XDATA, add(CFA_XSP16, literal(-20)))
        CFI VB load(1, XDATA, add(CFA_XSP16, literal(-19)))
        CFI V0 load(1, XDATA, add(CFA_XSP16, literal(-18)))
        CFI V1 load(1, XDATA, add(CFA_XSP16, literal(-17)))
        CFI V2 load(1, XDATA, add(CFA_XSP16, literal(-16)))
        CFI V3 load(1, XDATA, add(CFA_XSP16, literal(-15)))
        CFI V4 load(1, XDATA, add(CFA_XSP16, literal(-14)))
        CFI V5 load(1, XDATA, add(CFA_XSP16, literal(-13)))
        CFI V6 load(1, XDATA, add(CFA_XSP16, literal(-12)))
        CFI V7 load(1, XDATA, add(CFA_XSP16, literal(-11)))
        CFI V8 load(1, XDATA, add(CFA_XSP16, literal(-10)))
        CFI V9 load(1, XDATA, add(CFA_XSP16, literal(-9)))
        CFI V10 load(1, XDATA, add(CFA_XSP16, literal(-8)))
        CFI V11 load(1, XDATA, add(CFA_XSP16, literal(-7)))
        CFI R7 load(1, XDATA, add(CFA_XSP16, literal(-6)))
        CFI ?RET_LOW load(1, XDATA, add(CFA_XSP16, literal(-5)))
        CFI ?RET_HIGH load(1, XDATA, add(CFA_XSP16, literal(-4)))
        CFI ?BRET_EXT load(1, XDATA, add(CFA_XSP16, literal(-3)))
        CFI DPL0 load(1, XDATA, add(CFA_XSP16, literal(-2)))
        CFI DPH0 load(1, XDATA, add(CFA_XSP16, literal(-1)))
        CFI CFA_SP SP+0
        CFI CFA_XSP16 add(XSP16, 20)
        CFI Block cfiCond37 Using cfiCommon0
        CFI (cfiCond37) NoFunction
        CFI (cfiCond37) Conditional ??CrossCallReturnLabel_59
        CFI (cfiCond37) R6 load(1, XDATA, add(CFA_XSP16, literal(-22)))
        CFI (cfiCond37) VB load(1, XDATA, add(CFA_XSP16, literal(-21)))
        CFI (cfiCond37) V0 load(1, XDATA, add(CFA_XSP16, literal(-20)))
        CFI (cfiCond37) V1 load(1, XDATA, add(CFA_XSP16, literal(-19)))
        CFI (cfiCond37) V2 load(1, XDATA, add(CFA_XSP16, literal(-18)))
        CFI (cfiCond37) V3 load(1, XDATA, add(CFA_XSP16, literal(-17)))
        CFI (cfiCond37) V4 load(1, XDATA, add(CFA_XSP16, literal(-16)))
        CFI (cfiCond37) V5 load(1, XDATA, add(CFA_XSP16, literal(-15)))
        CFI (cfiCond37) V6 load(1, XDATA, add(CFA_XSP16, literal(-14)))
        CFI (cfiCond37) V7 load(1, XDATA, add(CFA_XSP16, literal(-13)))
        CFI (cfiCond37) V8 load(1, XDATA, add(CFA_XSP16, literal(-12)))
        CFI (cfiCond37) V9 load(1, XDATA, add(CFA_XSP16, literal(-11)))
        CFI (cfiCond37) V10 load(1, XDATA, add(CFA_XSP16, literal(-10)))
        CFI (cfiCond37) V11 load(1, XDATA, add(CFA_XSP16, literal(-9)))
        CFI (cfiCond37) V12 load(1, XDATA, add(CFA_XSP16, literal(-8)))
        CFI (cfiCond37) V13 load(1, XDATA, add(CFA_XSP16, literal(-7)))
        CFI (cfiCond37) R7 load(1, XDATA, add(CFA_XSP16, literal(-6)))
        CFI (cfiCond37) ?RET_LOW load(1, XDATA, add(CFA_XSP16, literal(-5)))
        CFI (cfiCond37) ?RET_HIGH load(1, XDATA, add(CFA_XSP16, literal(-4)))
        CFI (cfiCond37) ?BRET_EXT load(1, XDATA, add(CFA_XSP16, literal(-3)))
        CFI (cfiCond37) DPL0 load(1, XDATA, add(CFA_XSP16, literal(-2)))
        CFI (cfiCond37) DPH0 load(1, XDATA, add(CFA_XSP16, literal(-1)))
        CFI (cfiCond37) CFA_SP SP+0
        CFI (cfiCond37) CFA_XSP16 add(XSP16, 36)
        CFI Block cfiCond38 Using cfiCommon0
        CFI (cfiCond38) NoFunction
        CFI (cfiCond38) Conditional ??CrossCallReturnLabel_60
        CFI (cfiCond38) R6 load(1, XDATA, add(CFA_XSP16, literal(-24)))
        CFI (cfiCond38) VB load(1, XDATA, add(CFA_XSP16, literal(-23)))
        CFI (cfiCond38) V0 load(1, XDATA, add(CFA_XSP16, literal(-22)))
        CFI (cfiCond38) V1 load(1, XDATA, add(CFA_XSP16, literal(-21)))
        CFI (cfiCond38) V2 load(1, XDATA, add(CFA_XSP16, literal(-20)))
        CFI (cfiCond38) V3 load(1, XDATA, add(CFA_XSP16, literal(-19)))
        CFI (cfiCond38) V4 load(1, XDATA, add(CFA_XSP16, literal(-18)))
        CFI (cfiCond38) V5 load(1, XDATA, add(CFA_XSP16, literal(-17)))
        CFI (cfiCond38) V6 load(1, XDATA, add(CFA_XSP16, literal(-16)))
        CFI (cfiCond38) V7 load(1, XDATA, add(CFA_XSP16, literal(-15)))
        CFI (cfiCond38) V8 load(1, XDATA, add(CFA_XSP16, literal(-14)))
        CFI (cfiCond38) V9 load(1, XDATA, add(CFA_XSP16, literal(-13)))
        CFI (cfiCond38) V10 load(1, XDATA, add(CFA_XSP16, literal(-12)))
        CFI (cfiCond38) V11 load(1, XDATA, add(CFA_XSP16, literal(-11)))
        CFI (cfiCond38) V12 load(1, XDATA, add(CFA_XSP16, literal(-10)))
        CFI (cfiCond38) V13 load(1, XDATA, add(CFA_XSP16, literal(-9)))
        CFI (cfiCond38) V14 load(1, XDATA, add(CFA_XSP16, literal(-8)))
        CFI (cfiCond38) V15 load(1, XDATA, add(CFA_XSP16, literal(-7)))
        CFI (cfiCond38) R7 load(1, XDATA, add(CFA_XSP16, literal(-6)))
        CFI (cfiCond38) ?RET_LOW load(1, XDATA, add(CFA_XSP16, literal(-5)))
        CFI (cfiCond38) ?RET_HIGH load(1, XDATA, add(CFA_XSP16, literal(-4)))
        CFI (cfiCond38) ?BRET_EXT load(1, XDATA, add(CFA_XSP16, literal(-3)))
        CFI (cfiCond38) DPL0 load(1, XDATA, add(CFA_XSP16, literal(-2)))
        CFI (cfiCond38) DPH0 load(1, XDATA, add(CFA_XSP16, literal(-1)))
        CFI (cfiCond38) CFA_SP SP+0
        CFI (cfiCond38) CFA_XSP16 add(XSP16, 25)
        CFI Block cfiPicker39 Using cfiCommon1
        CFI (cfiPicker39) NoFunction
        CFI (cfiPicker39) Picker
        ADDC    A,#0x0
        MOV     R3,A
        LCALL   ??osal_mem_alloc?relay
        RET
        CFI EndBlock cfiCond36
        CFI EndBlock cfiCond37
        CFI EndBlock cfiCond38
        CFI EndBlock cfiPicker39

        RSEG BANKED_CODE:CODE:NOROOT(0)
?Subroutine16:
        CFI Block cfiCond40 Using cfiCommon0
        CFI NoFunction
        CFI Conditional ??CrossCallReturnLabel_62
        CFI R6 load(1, XDATA, add(CFA_XSP16, literal(-22)))
        CFI VB load(1, XDATA, add(CFA_XSP16, literal(-21)))
        CFI V0 load(1, XDATA, add(CFA_XSP16, literal(-20)))
        CFI V1 load(1, XDATA, add(CFA_XSP16, literal(-19)))
        CFI V2 load(1, XDATA, add(CFA_XSP16, literal(-18)))
        CFI V3 load(1, XDATA, add(CFA_XSP16, literal(-17)))
        CFI V4 load(1, XDATA, add(CFA_XSP16, literal(-16)))
        CFI V5 load(1, XDATA, add(CFA_XSP16, literal(-15)))
        CFI V6 load(1, XDATA, add(CFA_XSP16, literal(-14)))
        CFI V7 load(1, XDATA, add(CFA_XSP16, literal(-13)))
        CFI V8 load(1, XDATA, add(CFA_XSP16, literal(-12)))
        CFI V9 load(1, XDATA, add(CFA_XSP16, literal(-11)))
        CFI V10 load(1, XDATA, add(CFA_XSP16, literal(-10)))
        CFI V11 load(1, XDATA, add(CFA_XSP16, literal(-9)))
        CFI V12 load(1, XDATA, add(CFA_XSP16, literal(-8)))
        CFI V13 load(1, XDATA, add(CFA_XSP16, literal(-7)))
        CFI R7 load(1, XDATA, add(CFA_XSP16, literal(-6)))
        CFI ?RET_LOW load(1, XDATA, add(CFA_XSP16, literal(-5)))
        CFI ?RET_HIGH load(1, XDATA, add(CFA_XSP16, literal(-4)))
        CFI ?BRET_EXT load(1, XDATA, add(CFA_XSP16, literal(-3)))
        CFI DPL0 load(1, XDATA, add(CFA_XSP16, literal(-2)))
        CFI DPH0 load(1, XDATA, add(CFA_XSP16, literal(-1)))
        CFI CFA_SP SP+0
        CFI CFA_XSP16 add(XSP16, 36)
        CFI Block cfiCond41 Using cfiCommon0
        CFI (cfiCond41) NoFunction
        CFI (cfiCond41) Conditional ??CrossCallReturnLabel_63
        CFI (cfiCond41) R6 load(1, XDATA, add(CFA_XSP16, literal(-22)))
        CFI (cfiCond41) VB load(1, XDATA, add(CFA_XSP16, literal(-21)))
        CFI (cfiCond41) V0 load(1, XDATA, add(CFA_XSP16, literal(-20)))
        CFI (cfiCond41) V1 load(1, XDATA, add(CFA_XSP16, literal(-19)))
        CFI (cfiCond41) V2 load(1, XDATA, add(CFA_XSP16, literal(-18)))
        CFI (cfiCond41) V3 load(1, XDATA, add(CFA_XSP16, literal(-17)))
        CFI (cfiCond41) V4 load(1, XDATA, add(CFA_XSP16, literal(-16)))
        CFI (cfiCond41) V5 load(1, XDATA, add(CFA_XSP16, literal(-15)))
        CFI (cfiCond41) V6 load(1, XDATA, add(CFA_XSP16, literal(-14)))
        CFI (cfiCond41) V7 load(1, XDATA, add(CFA_XSP16, literal(-13)))
        CFI (cfiCond41) V8 load(1, XDATA, add(CFA_XSP16, literal(-12)))
        CFI (cfiCond41) V9 load(1, XDATA, add(CFA_XSP16, literal(-11)))
        CFI (cfiCond41) V10 load(1, XDATA, add(CFA_XSP16, literal(-10)))
        CFI (cfiCond41) V11 load(1, XDATA, add(CFA_XSP16, literal(-9)))
        CFI (cfiCond41) V12 load(1, XDATA, add(CFA_XSP16, literal(-8)))
        CFI (cfiCond41) V13 load(1, XDATA, add(CFA_XSP16, literal(-7)))
        CFI (cfiCond41) R7 load(1, XDATA, add(CFA_XSP16, literal(-6)))
        CFI (cfiCond41) ?RET_LOW load(1, XDATA, add(CFA_XSP16, literal(-5)))
        CFI (cfiCond41) ?RET_HIGH load(1, XDATA, add(CFA_XSP16, literal(-4)))
        CFI (cfiCond41) ?BRET_EXT load(1, XDATA, add(CFA_XSP16, literal(-3)))
        CFI (cfiCond41) DPL0 load(1, XDATA, add(CFA_XSP16, literal(-2)))
        CFI (cfiCond41) DPH0 load(1, XDATA, add(CFA_XSP16, literal(-1)))
        CFI (cfiCond41) CFA_SP SP+0
        CFI (cfiCond41) CFA_XSP16 add(XSP16, 36)
        CFI Block cfiPicker42 Using cfiCommon1
        CFI (cfiPicker42) NoFunction
        CFI (cfiPicker42) Picker
        MOV     A,?V0 + 2
        ADD     A,#0x2
        CFI EndBlock cfiCond40
        CFI EndBlock cfiCond41
        CFI EndBlock cfiPicker42
        REQUIRE ??Subroutine46_0
        ; // Fall through to label ??Subroutine46_0

        RSEG BANKED_CODE:CODE:NOROOT(0)
??Subroutine46_0:
        CFI Block cfiCond43 Using cfiCommon0
        CFI NoFunction
        CFI Conditional ??CrossCallReturnLabel_64
        CFI R6 load(1, XDATA, add(CFA_XSP16, literal(-22)))
        CFI VB load(1, XDATA, add(CFA_XSP16, literal(-21)))
        CFI V0 load(1, XDATA, add(CFA_XSP16, literal(-20)))
        CFI V1 load(1, XDATA, add(CFA_XSP16, literal(-19)))
        CFI V2 load(1, XDATA, add(CFA_XSP16, literal(-18)))
        CFI V3 load(1, XDATA, add(CFA_XSP16, literal(-17)))
        CFI V4 load(1, XDATA, add(CFA_XSP16, literal(-16)))
        CFI V5 load(1, XDATA, add(CFA_XSP16, literal(-15)))
        CFI V6 load(1, XDATA, add(CFA_XSP16, literal(-14)))
        CFI V7 load(1, XDATA, add(CFA_XSP16, literal(-13)))
        CFI V8 load(1, XDATA, add(CFA_XSP16, literal(-12)))
        CFI V9 load(1, XDATA, add(CFA_XSP16, literal(-11)))
        CFI V10 load(1, XDATA, add(CFA_XSP16, literal(-10)))
        CFI V11 load(1, XDATA, add(CFA_XSP16, literal(-9)))
        CFI V12 load(1, XDATA, add(CFA_XSP16, literal(-8)))
        CFI V13 load(1, XDATA, add(CFA_XSP16, literal(-7)))
        CFI R7 load(1, XDATA, add(CFA_XSP16, literal(-6)))
        CFI ?RET_LOW load(1, XDATA, add(CFA_XSP16, literal(-5)))
        CFI ?RET_HIGH load(1, XDATA, add(CFA_XSP16, literal(-4)))
        CFI ?BRET_EXT load(1, XDATA, add(CFA_XSP16, literal(-3)))
        CFI DPL0 load(1, XDATA, add(CFA_XSP16, literal(-2)))
        CFI DPH0 load(1, XDATA, add(CFA_XSP16, literal(-1)))
        CFI CFA_SP SP+0
        CFI CFA_XSP16 add(XSP16, 36)
        CFI Block cfiCond44 Using cfiCommon0
        CFI (cfiCond44) NoFunction
        CFI (cfiCond44) Conditional ??CrossCallReturnLabel_62
        CFI (cfiCond44) R6 load(1, XDATA, add(CFA_XSP16, literal(-22)))
        CFI (cfiCond44) VB load(1, XDATA, add(CFA_XSP16, literal(-21)))
        CFI (cfiCond44) V0 load(1, XDATA, add(CFA_XSP16, literal(-20)))
        CFI (cfiCond44) V1 load(1, XDATA, add(CFA_XSP16, literal(-19)))
        CFI (cfiCond44) V2 load(1, XDATA, add(CFA_XSP16, literal(-18)))
        CFI (cfiCond44) V3 load(1, XDATA, add(CFA_XSP16, literal(-17)))
        CFI (cfiCond44) V4 load(1, XDATA, add(CFA_XSP16, literal(-16)))
        CFI (cfiCond44) V5 load(1, XDATA, add(CFA_XSP16, literal(-15)))
        CFI (cfiCond44) V6 load(1, XDATA, add(CFA_XSP16, literal(-14)))
        CFI (cfiCond44) V7 load(1, XDATA, add(CFA_XSP16, literal(-13)))
        CFI (cfiCond44) V8 load(1, XDATA, add(CFA_XSP16, literal(-12)))
        CFI (cfiCond44) V9 load(1, XDATA, add(CFA_XSP16, literal(-11)))
        CFI (cfiCond44) V10 load(1, XDATA, add(CFA_XSP16, literal(-10)))
        CFI (cfiCond44) V11 load(1, XDATA, add(CFA_XSP16, literal(-9)))
        CFI (cfiCond44) V12 load(1, XDATA, add(CFA_XSP16, literal(-8)))
        CFI (cfiCond44) V13 load(1, XDATA, add(CFA_XSP16, literal(-7)))
        CFI (cfiCond44) R7 load(1, XDATA, add(CFA_XSP16, literal(-6)))
        CFI (cfiCond44) ?RET_LOW load(1, XDATA, add(CFA_XSP16, literal(-5)))
        CFI (cfiCond44) ?RET_HIGH load(1, XDATA, add(CFA_XSP16, literal(-4)))
        CFI (cfiCond44) ?BRET_EXT load(1, XDATA, add(CFA_XSP16, literal(-3)))
        CFI (cfiCond44) DPL0 load(1, XDATA, add(CFA_XSP16, literal(-2)))
        CFI (cfiCond44) DPH0 load(1, XDATA, add(CFA_XSP16, literal(-1)))
        CFI (cfiCond44) CFA_SP SP+0
        CFI (cfiCond44) CFA_XSP16 add(XSP16, 36)
        CFI Block cfiCond45 Using cfiCommon0
        CFI (cfiCond45) NoFunction
        CFI (cfiCond45) Conditional ??CrossCallReturnLabel_63
        CFI (cfiCond45) R6 load(1, XDATA, add(CFA_XSP16, literal(-22)))
        CFI (cfiCond45) VB load(1, XDATA, add(CFA_XSP16, literal(-21)))
        CFI (cfiCond45) V0 load(1, XDATA, add(CFA_XSP16, literal(-20)))
        CFI (cfiCond45) V1 load(1, XDATA, add(CFA_XSP16, literal(-19)))
        CFI (cfiCond45) V2 load(1, XDATA, add(CFA_XSP16, literal(-18)))
        CFI (cfiCond45) V3 load(1, XDATA, add(CFA_XSP16, literal(-17)))
        CFI (cfiCond45) V4 load(1, XDATA, add(CFA_XSP16, literal(-16)))
        CFI (cfiCond45) V5 load(1, XDATA, add(CFA_XSP16, literal(-15)))
        CFI (cfiCond45) V6 load(1, XDATA, add(CFA_XSP16, literal(-14)))
        CFI (cfiCond45) V7 load(1, XDATA, add(CFA_XSP16, literal(-13)))
        CFI (cfiCond45) V8 load(1, XDATA, add(CFA_XSP16, literal(-12)))
        CFI (cfiCond45) V9 load(1, XDATA, add(CFA_XSP16, literal(-11)))
        CFI (cfiCond45) V10 load(1, XDATA, add(CFA_XSP16, literal(-10)))
        CFI (cfiCond45) V11 load(1, XDATA, add(CFA_XSP16, literal(-9)))
        CFI (cfiCond45) V12 load(1, XDATA, add(CFA_XSP16, literal(-8)))
        CFI (cfiCond45) V13 load(1, XDATA, add(CFA_XSP16, literal(-7)))
        CFI (cfiCond45) R7 load(1, XDATA, add(CFA_XSP16, literal(-6)))
        CFI (cfiCond45) ?RET_LOW load(1, XDATA, add(CFA_XSP16, literal(-5)))
        CFI (cfiCond45) ?RET_HIGH load(1, XDATA, add(CFA_XSP16, literal(-4)))
        CFI (cfiCond45) ?BRET_EXT load(1, XDATA, add(CFA_XSP16, literal(-3)))
        CFI (cfiCond45) DPL0 load(1, XDATA, add(CFA_XSP16, literal(-2)))
        CFI (cfiCond45) DPH0 load(1, XDATA, add(CFA_XSP16, literal(-1)))
        CFI (cfiCond45) CFA_SP SP+0
        CFI (cfiCond45) CFA_XSP16 add(XSP16, 36)
        CFI Block cfiPicker46 Using cfiCommon1
        CFI (cfiPicker46) NoFunction
        CFI (cfiPicker46) Picker
        MOV     ?V0 + 2,A
        MOV     A,?V0 + 3
        LCALL   ?Subroutine39 & 0xFFFF
??CrossCallReturnLabel_66:
        MOVX    A,@DPTR
        RET
        CFI EndBlock cfiCond43
        CFI EndBlock cfiCond44
        CFI EndBlock cfiCond45
        CFI EndBlock cfiPicker46

        RSEG BANKED_CODE:CODE:NOROOT(0)
?Subroutine39:
        CFI Block cfiCond47 Using cfiCommon0
        CFI NoFunction
        CFI Conditional ??CrossCallReturnLabel_65
        CFI R6 load(1, XDATA, add(CFA_XSP16, literal(-22)))
        CFI VB load(1, XDATA, add(CFA_XSP16, literal(-21)))
        CFI V0 load(1, XDATA, add(CFA_XSP16, literal(-20)))
        CFI V1 load(1, XDATA, add(CFA_XSP16, literal(-19)))
        CFI V2 load(1, XDATA, add(CFA_XSP16, literal(-18)))
        CFI V3 load(1, XDATA, add(CFA_XSP16, literal(-17)))
        CFI V4 load(1, XDATA, add(CFA_XSP16, literal(-16)))
        CFI V5 load(1, XDATA, add(CFA_XSP16, literal(-15)))
        CFI V6 load(1, XDATA, add(CFA_XSP16, literal(-14)))
        CFI V7 load(1, XDATA, add(CFA_XSP16, literal(-13)))
        CFI V8 load(1, XDATA, add(CFA_XSP16, literal(-12)))
        CFI V9 load(1, XDATA, add(CFA_XSP16, literal(-11)))
        CFI V10 load(1, XDATA, add(CFA_XSP16, literal(-10)))
        CFI V11 load(1, XDATA, add(CFA_XSP16, literal(-9)))
        CFI V12 load(1, XDATA, add(CFA_XSP16, literal(-8)))
        CFI V13 load(1, XDATA, add(CFA_XSP16, literal(-7)))
        CFI R7 load(1, XDATA, add(CFA_XSP16, literal(-6)))
        CFI ?RET_LOW load(1, XDATA, add(CFA_XSP16, literal(-5)))
        CFI ?RET_HIGH load(1, XDATA, add(CFA_XSP16, literal(-4)))
        CFI ?BRET_EXT load(1, XDATA, add(CFA_XSP16, literal(-3)))
        CFI DPL0 load(1, XDATA, add(CFA_XSP16, literal(-2)))
        CFI DPH0 load(1, XDATA, add(CFA_XSP16, literal(-1)))
        CFI CFA_SP SP+0
        CFI CFA_XSP16 add(XSP16, 36)
        CFI Block cfiCond48 Using cfiCommon0
        CFI (cfiCond48) NoFunction
        CFI (cfiCond48) Conditional ??CrossCallReturnLabel_66, ??CrossCallReturnLabel_62
        CFI (cfiCond48) R6 load(1, XDATA, add(CFA_XSP16, literal(-22)))
        CFI (cfiCond48) VB load(1, XDATA, add(CFA_XSP16, literal(-21)))
        CFI (cfiCond48) V0 load(1, XDATA, add(CFA_XSP16, literal(-20)))
        CFI (cfiCond48) V1 load(1, XDATA, add(CFA_XSP16, literal(-19)))
        CFI (cfiCond48) V2 load(1, XDATA, add(CFA_XSP16, literal(-18)))
        CFI (cfiCond48) V3 load(1, XDATA, add(CFA_XSP16, literal(-17)))
        CFI (cfiCond48) V4 load(1, XDATA, add(CFA_XSP16, literal(-16)))
        CFI (cfiCond48) V5 load(1, XDATA, add(CFA_XSP16, literal(-15)))
        CFI (cfiCond48) V6 load(1, XDATA, add(CFA_XSP16, literal(-14)))
        CFI (cfiCond48) V7 load(1, XDATA, add(CFA_XSP16, literal(-13)))
        CFI (cfiCond48) V8 load(1, XDATA, add(CFA_XSP16, literal(-12)))
        CFI (cfiCond48) V9 load(1, XDATA, add(CFA_XSP16, literal(-11)))
        CFI (cfiCond48) V10 load(1, XDATA, add(CFA_XSP16, literal(-10)))
        CFI (cfiCond48) V11 load(1, XDATA, add(CFA_XSP16, literal(-9)))
        CFI (cfiCond48) V12 load(1, XDATA, add(CFA_XSP16, literal(-8)))
        CFI (cfiCond48) V13 load(1, XDATA, add(CFA_XSP16, literal(-7)))
        CFI (cfiCond48) R7 load(1, XDATA, add(CFA_XSP16, literal(-6)))
        CFI (cfiCond48) ?RET_LOW load(1, XDATA, add(CFA_XSP16, literal(-5)))
        CFI (cfiCond48) ?RET_HIGH load(1, XDATA, add(CFA_XSP16, literal(-4)))
        CFI (cfiCond48) ?BRET_EXT load(1, XDATA, add(CFA_XSP16, literal(-3)))
        CFI (cfiCond48) DPL0 load(1, XDATA, add(CFA_XSP16, literal(-2)))
        CFI (cfiCond48) DPH0 load(1, XDATA, add(CFA_XSP16, literal(-1)))
        CFI (cfiCond48) CFA_SP SP+0
        CFI (cfiCond48) CFA_XSP16 add(XSP16, 36)
        CFI Block cfiCond49 Using cfiCommon0
        CFI (cfiCond49) NoFunction
        CFI (cfiCond49) Conditional ??CrossCallReturnLabel_66, ??CrossCallReturnLabel_63
        CFI (cfiCond49) R6 load(1, XDATA, add(CFA_XSP16, literal(-22)))
        CFI (cfiCond49) VB load(1, XDATA, add(CFA_XSP16, literal(-21)))
        CFI (cfiCond49) V0 load(1, XDATA, add(CFA_XSP16, literal(-20)))
        CFI (cfiCond49) V1 load(1, XDATA, add(CFA_XSP16, literal(-19)))
        CFI (cfiCond49) V2 load(1, XDATA, add(CFA_XSP16, literal(-18)))
        CFI (cfiCond49) V3 load(1, XDATA, add(CFA_XSP16, literal(-17)))
        CFI (cfiCond49) V4 load(1, XDATA, add(CFA_XSP16, literal(-16)))
        CFI (cfiCond49) V5 load(1, XDATA, add(CFA_XSP16, literal(-15)))
        CFI (cfiCond49) V6 load(1, XDATA, add(CFA_XSP16, literal(-14)))
        CFI (cfiCond49) V7 load(1, XDATA, add(CFA_XSP16, literal(-13)))
        CFI (cfiCond49) V8 load(1, XDATA, add(CFA_XSP16, literal(-12)))
        CFI (cfiCond49) V9 load(1, XDATA, add(CFA_XSP16, literal(-11)))
        CFI (cfiCond49) V10 load(1, XDATA, add(CFA_XSP16, literal(-10)))
        CFI (cfiCond49) V11 load(1, XDATA, add(CFA_XSP16, literal(-9)))
        CFI (cfiCond49) V12 load(1, XDATA, add(CFA_XSP16, literal(-8)))
        CFI (cfiCond49) V13 load(1, XDATA, add(CFA_XSP16, literal(-7)))
        CFI (cfiCond49) R7 load(1, XDATA, add(CFA_XSP16, literal(-6)))
        CFI (cfiCond49) ?RET_LOW load(1, XDATA, add(CFA_XSP16, literal(-5)))
        CFI (cfiCond49) ?RET_HIGH load(1, XDATA, add(CFA_XSP16, literal(-4)))
        CFI (cfiCond49) ?BRET_EXT load(1, XDATA, add(CFA_XSP16, literal(-3)))
        CFI (cfiCond49) DPL0 load(1, XDATA, add(CFA_XSP16, literal(-2)))
        CFI (cfiCond49) DPH0 load(1, XDATA, add(CFA_XSP16, literal(-1)))
        CFI (cfiCond49) CFA_SP SP+0
        CFI (cfiCond49) CFA_XSP16 add(XSP16, 36)
        CFI Block cfiCond50 Using cfiCommon0
        CFI (cfiCond50) NoFunction
        CFI (cfiCond50) Conditional ??CrossCallReturnLabel_66, ??CrossCallReturnLabel_64
        CFI (cfiCond50) R6 load(1, XDATA, add(CFA_XSP16, literal(-22)))
        CFI (cfiCond50) VB load(1, XDATA, add(CFA_XSP16, literal(-21)))
        CFI (cfiCond50) V0 load(1, XDATA, add(CFA_XSP16, literal(-20)))
        CFI (cfiCond50) V1 load(1, XDATA, add(CFA_XSP16, literal(-19)))
        CFI (cfiCond50) V2 load(1, XDATA, add(CFA_XSP16, literal(-18)))
        CFI (cfiCond50) V3 load(1, XDATA, add(CFA_XSP16, literal(-17)))
        CFI (cfiCond50) V4 load(1, XDATA, add(CFA_XSP16, literal(-16)))
        CFI (cfiCond50) V5 load(1, XDATA, add(CFA_XSP16, literal(-15)))
        CFI (cfiCond50) V6 load(1, XDATA, add(CFA_XSP16, literal(-14)))
        CFI (cfiCond50) V7 load(1, XDATA, add(CFA_XSP16, literal(-13)))
        CFI (cfiCond50) V8 load(1, XDATA, add(CFA_XSP16, literal(-12)))
        CFI (cfiCond50) V9 load(1, XDATA, add(CFA_XSP16, literal(-11)))
        CFI (cfiCond50) V10 load(1, XDATA, add(CFA_XSP16, literal(-10)))
        CFI (cfiCond50) V11 load(1, XDATA, add(CFA_XSP16, literal(-9)))
        CFI (cfiCond50) V12 load(1, XDATA, add(CFA_XSP16, literal(-8)))
        CFI (cfiCond50) V13 load(1, XDATA, add(CFA_XSP16, literal(-7)))
        CFI (cfiCond50) R7 load(1, XDATA, add(CFA_XSP16, literal(-6)))
        CFI (cfiCond50) ?RET_LOW load(1, XDATA, add(CFA_XSP16, literal(-5)))
        CFI (cfiCond50) ?RET_HIGH load(1, XDATA, add(CFA_XSP16, literal(-4)))
        CFI (cfiCond50) ?BRET_EXT load(1, XDATA, add(CFA_XSP16, literal(-3)))
        CFI (cfiCond50) DPL0 load(1, XDATA, add(CFA_XSP16, literal(-2)))
        CFI (cfiCond50) DPH0 load(1, XDATA, add(CFA_XSP16, literal(-1)))
        CFI (cfiCond50) CFA_SP SP+0
        CFI (cfiCond50) CFA_XSP16 add(XSP16, 36)
        CFI Block cfiPicker51 Using cfiCommon1
        CFI (cfiPicker51) NoFunction
        CFI (cfiPicker51) Picker
        ADDC    A,#0x0
        MOV     ?V0 + 3,A
        MOV     DPL,?V0 + 2
        MOV     DPH,A
        RET
        CFI EndBlock cfiCond47
        CFI EndBlock cfiCond48
        CFI EndBlock cfiCond49
        CFI EndBlock cfiCond50
        CFI EndBlock cfiPicker51

        RSEG BANKED_CODE:CODE:NOROOT(0)
?Subroutine15:
        CFI Block cfiCond52 Using cfiCommon0
        CFI NoFunction
        CFI Conditional ??CrossCallReturnLabel_12
        CFI R6 load(1, XDATA, add(CFA_XSP16, literal(-9)))
        CFI VB load(1, XDATA, add(CFA_XSP16, literal(-8)))
        CFI V0 load(1, XDATA, add(CFA_XSP16, literal(-7)))
        CFI R7 load(1, XDATA, add(CFA_XSP16, literal(-6)))
        CFI ?RET_LOW load(1, XDATA, add(CFA_XSP16, literal(-5)))
        CFI ?RET_HIGH load(1, XDATA, add(CFA_XSP16, literal(-4)))
        CFI ?BRET_EXT load(1, XDATA, add(CFA_XSP16, literal(-3)))
        CFI DPL0 load(1, XDATA, add(CFA_XSP16, literal(-2)))
        CFI DPH0 load(1, XDATA, add(CFA_XSP16, literal(-1)))
        CFI CFA_SP SP+0
        CFI CFA_XSP16 add(XSP16, 9)
        CFI Block cfiCond53 Using cfiCommon0
        CFI (cfiCond53) NoFunction
        CFI (cfiCond53) Conditional ??CrossCallReturnLabel_13
        CFI (cfiCond53) R6 load(1, XDATA, add(CFA_XSP16, literal(-22)))
        CFI (cfiCond53) VB load(1, XDATA, add(CFA_XSP16, literal(-21)))
        CFI (cfiCond53) V0 load(1, XDATA, add(CFA_XSP16, literal(-20)))
        CFI (cfiCond53) V1 load(1, XDATA, add(CFA_XSP16, literal(-19)))
        CFI (cfiCond53) V2 load(1, XDATA, add(CFA_XSP16, literal(-18)))
        CFI (cfiCond53) V3 load(1, XDATA, add(CFA_XSP16, literal(-17)))
        CFI (cfiCond53) V4 load(1, XDATA, add(CFA_XSP16, literal(-16)))
        CFI (cfiCond53) V5 load(1, XDATA, add(CFA_XSP16, literal(-15)))
        CFI (cfiCond53) V6 load(1, XDATA, add(CFA_XSP16, literal(-14)))
        CFI (cfiCond53) V7 load(1, XDATA, add(CFA_XSP16, literal(-13)))
        CFI (cfiCond53) V8 load(1, XDATA, add(CFA_XSP16, literal(-12)))
        CFI (cfiCond53) V9 load(1, XDATA, add(CFA_XSP16, literal(-11)))
        CFI (cfiCond53) V10 load(1, XDATA, add(CFA_XSP16, literal(-10)))
        CFI (cfiCond53) V11 load(1, XDATA, add(CFA_XSP16, literal(-9)))
        CFI (cfiCond53) V12 load(1, XDATA, add(CFA_XSP16, literal(-8)))
        CFI (cfiCond53) V13 load(1, XDATA, add(CFA_XSP16, literal(-7)))
        CFI (cfiCond53) R7 load(1, XDATA, add(CFA_XSP16, literal(-6)))
        CFI (cfiCond53) ?RET_LOW load(1, XDATA, add(CFA_XSP16, literal(-5)))
        CFI (cfiCond53) ?RET_HIGH load(1, XDATA, add(CFA_XSP16, literal(-4)))
        CFI (cfiCond53) ?BRET_EXT load(1, XDATA, add(CFA_XSP16, literal(-3)))
        CFI (cfiCond53) DPL0 load(1, XDATA, add(CFA_XSP16, literal(-2)))
        CFI (cfiCond53) DPH0 load(1, XDATA, add(CFA_XSP16, literal(-1)))
        CFI (cfiCond53) CFA_SP SP+0
        CFI (cfiCond53) CFA_XSP16 add(XSP16, 36)
        CFI Block cfiCond54 Using cfiCommon0
        CFI (cfiCond54) NoFunction
        CFI (cfiCond54) Conditional ??CrossCallReturnLabel_14
        CFI (cfiCond54) R6 load(1, XDATA, add(CFA_XSP16, literal(-24)))
        CFI (cfiCond54) VB load(1, XDATA, add(CFA_XSP16, literal(-23)))
        CFI (cfiCond54) V0 load(1, XDATA, add(CFA_XSP16, literal(-22)))
        CFI (cfiCond54) V1 load(1, XDATA, add(CFA_XSP16, literal(-21)))
        CFI (cfiCond54) V2 load(1, XDATA, add(CFA_XSP16, literal(-20)))
        CFI (cfiCond54) V3 load(1, XDATA, add(CFA_XSP16, literal(-19)))
        CFI (cfiCond54) V4 load(1, XDATA, add(CFA_XSP16, literal(-18)))
        CFI (cfiCond54) V5 load(1, XDATA, add(CFA_XSP16, literal(-17)))
        CFI (cfiCond54) V6 load(1, XDATA, add(CFA_XSP16, literal(-16)))
        CFI (cfiCond54) V7 load(1, XDATA, add(CFA_XSP16, literal(-15)))
        CFI (cfiCond54) V8 load(1, XDATA, add(CFA_XSP16, literal(-14)))
        CFI (cfiCond54) V9 load(1, XDATA, add(CFA_XSP16, literal(-13)))
        CFI (cfiCond54) V10 load(1, XDATA, add(CFA_XSP16, literal(-12)))
        CFI (cfiCond54) V11 load(1, XDATA, add(CFA_XSP16, literal(-11)))
        CFI (cfiCond54) V12 load(1, XDATA, add(CFA_XSP16, literal(-10)))
        CFI (cfiCond54) V13 load(1, XDATA, add(CFA_XSP16, literal(-9)))
        CFI (cfiCond54) V14 load(1, XDATA, add(CFA_XSP16, literal(-8)))
        CFI (cfiCond54) V15 load(1, XDATA, add(CFA_XSP16, literal(-7)))
        CFI (cfiCond54) R7 load(1, XDATA, add(CFA_XSP16, literal(-6)))
        CFI (cfiCond54) ?RET_LOW load(1, XDATA, add(CFA_XSP16, literal(-5)))
        CFI (cfiCond54) ?RET_HIGH load(1, XDATA, add(CFA_XSP16, literal(-4)))
        CFI (cfiCond54) ?BRET_EXT load(1, XDATA, add(CFA_XSP16, literal(-3)))
        CFI (cfiCond54) DPL0 load(1, XDATA, add(CFA_XSP16, literal(-2)))
        CFI (cfiCond54) DPH0 load(1, XDATA, add(CFA_XSP16, literal(-1)))
        CFI (cfiCond54) CFA_SP SP+0
        CFI (cfiCond54) CFA_XSP16 add(XSP16, 25)
        CFI Block cfiPicker55 Using cfiCommon1
        CFI (cfiPicker55) NoFunction
        CFI (cfiPicker55) Picker
        MOV     R2,#0x8
        MOV     R3,#0x0
        MOV     DPTR,#MT_TaskID
        MOVX    A,@DPTR
        MOV     R1,A
        LCALL   ??osal_set_event?relay
        RET
        CFI EndBlock cfiCond52
        CFI EndBlock cfiCond53
        CFI EndBlock cfiCond54
        CFI EndBlock cfiPicker55

        RSEG BANKED_CODE:CODE:NOROOT(0)
?Subroutine11:
        CFI Block cfiCond56 Using cfiCommon0
        CFI NoFunction
        CFI Conditional ??CrossCallReturnLabel_67
        CFI R6 load(1, XDATA, add(CFA_XSP16, literal(-22)))
        CFI VB load(1, XDATA, add(CFA_XSP16, literal(-21)))
        CFI V0 load(1, XDATA, add(CFA_XSP16, literal(-20)))
        CFI V1 load(1, XDATA, add(CFA_XSP16, literal(-19)))
        CFI V2 load(1, XDATA, add(CFA_XSP16, literal(-18)))
        CFI V3 load(1, XDATA, add(CFA_XSP16, literal(-17)))
        CFI V4 load(1, XDATA, add(CFA_XSP16, literal(-16)))
        CFI V5 load(1, XDATA, add(CFA_XSP16, literal(-15)))
        CFI V6 load(1, XDATA, add(CFA_XSP16, literal(-14)))
        CFI V7 load(1, XDATA, add(CFA_XSP16, literal(-13)))
        CFI V8 load(1, XDATA, add(CFA_XSP16, literal(-12)))
        CFI V9 load(1, XDATA, add(CFA_XSP16, literal(-11)))
        CFI V10 load(1, XDATA, add(CFA_XSP16, literal(-10)))
        CFI V11 load(1, XDATA, add(CFA_XSP16, literal(-9)))
        CFI V12 load(1, XDATA, add(CFA_XSP16, literal(-8)))
        CFI V13 load(1, XDATA, add(CFA_XSP16, literal(-7)))
        CFI R7 load(1, XDATA, add(CFA_XSP16, literal(-6)))
        CFI ?RET_LOW load(1, XDATA, add(CFA_XSP16, literal(-5)))
        CFI ?RET_HIGH load(1, XDATA, add(CFA_XSP16, literal(-4)))
        CFI ?BRET_EXT load(1, XDATA, add(CFA_XSP16, literal(-3)))
        CFI DPL0 load(1, XDATA, add(CFA_XSP16, literal(-2)))
        CFI DPH0 load(1, XDATA, add(CFA_XSP16, literal(-1)))
        CFI CFA_SP SP+0
        CFI CFA_XSP16 add(XSP16, 36)
        CFI Block cfiCond57 Using cfiCommon0
        CFI (cfiCond57) NoFunction
        CFI (cfiCond57) Conditional ??CrossCallReturnLabel_68
        CFI (cfiCond57) R6 load(1, XDATA, add(CFA_XSP16, literal(-24)))
        CFI (cfiCond57) VB load(1, XDATA, add(CFA_XSP16, literal(-23)))
        CFI (cfiCond57) V0 load(1, XDATA, add(CFA_XSP16, literal(-22)))
        CFI (cfiCond57) V1 load(1, XDATA, add(CFA_XSP16, literal(-21)))
        CFI (cfiCond57) V2 load(1, XDATA, add(CFA_XSP16, literal(-20)))
        CFI (cfiCond57) V3 load(1, XDATA, add(CFA_XSP16, literal(-19)))
        CFI (cfiCond57) V4 load(1, XDATA, add(CFA_XSP16, literal(-18)))
        CFI (cfiCond57) V5 load(1, XDATA, add(CFA_XSP16, literal(-17)))
        CFI (cfiCond57) V6 load(1, XDATA, add(CFA_XSP16, literal(-16)))
        CFI (cfiCond57) V7 load(1, XDATA, add(CFA_XSP16, literal(-15)))
        CFI (cfiCond57) V8 load(1, XDATA, add(CFA_XSP16, literal(-14)))
        CFI (cfiCond57) V9 load(1, XDATA, add(CFA_XSP16, literal(-13)))
        CFI (cfiCond57) V10 load(1, XDATA, add(CFA_XSP16, literal(-12)))
        CFI (cfiCond57) V11 load(1, XDATA, add(CFA_XSP16, literal(-11)))
        CFI (cfiCond57) V12 load(1, XDATA, add(CFA_XSP16, literal(-10)))
        CFI (cfiCond57) V13 load(1, XDATA, add(CFA_XSP16, literal(-9)))
        CFI (cfiCond57) V14 load(1, XDATA, add(CFA_XSP16, literal(-8)))
        CFI (cfiCond57) V15 load(1, XDATA, add(CFA_XSP16, literal(-7)))
        CFI (cfiCond57) R7 load(1, XDATA, add(CFA_XSP16, literal(-6)))
        CFI (cfiCond57) ?RET_LOW load(1, XDATA, add(CFA_XSP16, literal(-5)))
        CFI (cfiCond57) ?RET_HIGH load(1, XDATA, add(CFA_XSP16, literal(-4)))
        CFI (cfiCond57) ?BRET_EXT load(1, XDATA, add(CFA_XSP16, literal(-3)))
        CFI (cfiCond57) DPL0 load(1, XDATA, add(CFA_XSP16, literal(-2)))
        CFI (cfiCond57) DPH0 load(1, XDATA, add(CFA_XSP16, literal(-1)))
        CFI (cfiCond57) CFA_SP SP+0
        CFI (cfiCond57) CFA_XSP16 add(XSP16, 25)
        CFI Block cfiPicker58 Using cfiCommon1
        CFI (cfiPicker58) NoFunction
        CFI (cfiPicker58) Picker
        MOV     A,#0xf
        MOVX    @DPTR,A
        CFI EndBlock cfiCond56
        CFI EndBlock cfiCond57
        CFI EndBlock cfiPicker58
        ; Setup parameters for call to function osal_start_timerEx
        ; Setup parameters for call to function osal_start_timerEx
        REQUIRE ??Subroutine47_0
        ; // Fall through to label ??Subroutine47_0

        RSEG BANKED_CODE:CODE:NOROOT(0)
??Subroutine47_0:
        CFI Block cfiCond59 Using cfiCommon0
        CFI NoFunction
        CFI Conditional ??CrossCallReturnLabel_69
        CFI R6 load(1, XDATA, add(CFA_XSP16, literal(-9)))
        CFI VB load(1, XDATA, add(CFA_XSP16, literal(-8)))
        CFI V0 load(1, XDATA, add(CFA_XSP16, literal(-7)))
        CFI R7 load(1, XDATA, add(CFA_XSP16, literal(-6)))
        CFI ?RET_LOW load(1, XDATA, add(CFA_XSP16, literal(-5)))
        CFI ?RET_HIGH load(1, XDATA, add(CFA_XSP16, literal(-4)))
        CFI ?BRET_EXT load(1, XDATA, add(CFA_XSP16, literal(-3)))
        CFI DPL0 load(1, XDATA, add(CFA_XSP16, literal(-2)))
        CFI DPH0 load(1, XDATA, add(CFA_XSP16, literal(-1)))
        CFI CFA_SP SP+0
        CFI CFA_XSP16 add(XSP16, 9)
        CFI Block cfiCond60 Using cfiCommon0
        CFI (cfiCond60) NoFunction
        CFI (cfiCond60) Conditional ??CrossCallReturnLabel_67
        CFI (cfiCond60) R6 load(1, XDATA, add(CFA_XSP16, literal(-22)))
        CFI (cfiCond60) VB load(1, XDATA, add(CFA_XSP16, literal(-21)))
        CFI (cfiCond60) V0 load(1, XDATA, add(CFA_XSP16, literal(-20)))
        CFI (cfiCond60) V1 load(1, XDATA, add(CFA_XSP16, literal(-19)))
        CFI (cfiCond60) V2 load(1, XDATA, add(CFA_XSP16, literal(-18)))
        CFI (cfiCond60) V3 load(1, XDATA, add(CFA_XSP16, literal(-17)))
        CFI (cfiCond60) V4 load(1, XDATA, add(CFA_XSP16, literal(-16)))
        CFI (cfiCond60) V5 load(1, XDATA, add(CFA_XSP16, literal(-15)))
        CFI (cfiCond60) V6 load(1, XDATA, add(CFA_XSP16, literal(-14)))
        CFI (cfiCond60) V7 load(1, XDATA, add(CFA_XSP16, literal(-13)))
        CFI (cfiCond60) V8 load(1, XDATA, add(CFA_XSP16, literal(-12)))
        CFI (cfiCond60) V9 load(1, XDATA, add(CFA_XSP16, literal(-11)))
        CFI (cfiCond60) V10 load(1, XDATA, add(CFA_XSP16, literal(-10)))
        CFI (cfiCond60) V11 load(1, XDATA, add(CFA_XSP16, literal(-9)))
        CFI (cfiCond60) V12 load(1, XDATA, add(CFA_XSP16, literal(-8)))
        CFI (cfiCond60) V13 load(1, XDATA, add(CFA_XSP16, literal(-7)))
        CFI (cfiCond60) R7 load(1, XDATA, add(CFA_XSP16, literal(-6)))
        CFI (cfiCond60) ?RET_LOW load(1, XDATA, add(CFA_XSP16, literal(-5)))
        CFI (cfiCond60) ?RET_HIGH load(1, XDATA, add(CFA_XSP16, literal(-4)))
        CFI (cfiCond60) ?BRET_EXT load(1, XDATA, add(CFA_XSP16, literal(-3)))
        CFI (cfiCond60) DPL0 load(1, XDATA, add(CFA_XSP16, literal(-2)))
        CFI (cfiCond60) DPH0 load(1, XDATA, add(CFA_XSP16, literal(-1)))
        CFI (cfiCond60) CFA_SP SP+0
        CFI (cfiCond60) CFA_XSP16 add(XSP16, 36)
        CFI Block cfiCond61 Using cfiCommon0
        CFI (cfiCond61) NoFunction
        CFI (cfiCond61) Conditional ??CrossCallReturnLabel_68
        CFI (cfiCond61) R6 load(1, XDATA, add(CFA_XSP16, literal(-24)))
        CFI (cfiCond61) VB load(1, XDATA, add(CFA_XSP16, literal(-23)))
        CFI (cfiCond61) V0 load(1, XDATA, add(CFA_XSP16, literal(-22)))
        CFI (cfiCond61) V1 load(1, XDATA, add(CFA_XSP16, literal(-21)))
        CFI (cfiCond61) V2 load(1, XDATA, add(CFA_XSP16, literal(-20)))
        CFI (cfiCond61) V3 load(1, XDATA, add(CFA_XSP16, literal(-19)))
        CFI (cfiCond61) V4 load(1, XDATA, add(CFA_XSP16, literal(-18)))
        CFI (cfiCond61) V5 load(1, XDATA, add(CFA_XSP16, literal(-17)))
        CFI (cfiCond61) V6 load(1, XDATA, add(CFA_XSP16, literal(-16)))
        CFI (cfiCond61) V7 load(1, XDATA, add(CFA_XSP16, literal(-15)))
        CFI (cfiCond61) V8 load(1, XDATA, add(CFA_XSP16, literal(-14)))
        CFI (cfiCond61) V9 load(1, XDATA, add(CFA_XSP16, literal(-13)))
        CFI (cfiCond61) V10 load(1, XDATA, add(CFA_XSP16, literal(-12)))
        CFI (cfiCond61) V11 load(1, XDATA, add(CFA_XSP16, literal(-11)))
        CFI (cfiCond61) V12 load(1, XDATA, add(CFA_XSP16, literal(-10)))
        CFI (cfiCond61) V13 load(1, XDATA, add(CFA_XSP16, literal(-9)))
        CFI (cfiCond61) V14 load(1, XDATA, add(CFA_XSP16, literal(-8)))
        CFI (cfiCond61) V15 load(1, XDATA, add(CFA_XSP16, literal(-7)))
        CFI (cfiCond61) R7 load(1, XDATA, add(CFA_XSP16, literal(-6)))
        CFI (cfiCond61) ?RET_LOW load(1, XDATA, add(CFA_XSP16, literal(-5)))
        CFI (cfiCond61) ?RET_HIGH load(1, XDATA, add(CFA_XSP16, literal(-4)))
        CFI (cfiCond61) ?BRET_EXT load(1, XDATA, add(CFA_XSP16, literal(-3)))
        CFI (cfiCond61) DPL0 load(1, XDATA, add(CFA_XSP16, literal(-2)))
        CFI (cfiCond61) DPH0 load(1, XDATA, add(CFA_XSP16, literal(-1)))
        CFI (cfiCond61) CFA_SP SP+0
        CFI (cfiCond61) CFA_XSP16 add(XSP16, 25)
        CFI Block cfiPicker62 Using cfiCommon1
        CFI (cfiPicker62) NoFunction
        CFI (cfiPicker62) Picker
        MOV     R4,#-0x18
        MOV     R5,#0x3
        MOV     R2,#0x8
        MOV     R3,#0x0
        MOV     DPTR,#MT_TaskID
        MOVX    A,@DPTR
        MOV     R1,A
        LCALL   ??osal_start_timerEx?relay
        MOV     A,R1
        RET
        CFI EndBlock cfiCond59
        CFI EndBlock cfiCond60
        CFI EndBlock cfiCond61
        CFI EndBlock cfiPicker62

        RSEG BANKED_CODE:CODE:NOROOT(0)
?Subroutine3:
        CFI Block cfiCond63 Using cfiCommon0
        CFI NoFunction
        CFI Conditional ??CrossCallReturnLabel_71
        CFI R6 load(1, XDATA, add(CFA_XSP16, literal(-9)))
        CFI VB load(1, XDATA, add(CFA_XSP16, literal(-8)))
        CFI V0 load(1, XDATA, add(CFA_XSP16, literal(-7)))
        CFI R7 load(1, XDATA, add(CFA_XSP16, literal(-6)))
        CFI ?RET_LOW load(1, XDATA, add(CFA_XSP16, literal(-5)))
        CFI ?RET_HIGH load(1, XDATA, add(CFA_XSP16, literal(-4)))
        CFI ?BRET_EXT load(1, XDATA, add(CFA_XSP16, literal(-3)))
        CFI DPL0 load(1, XDATA, add(CFA_XSP16, literal(-2)))
        CFI DPH0 load(1, XDATA, add(CFA_XSP16, literal(-1)))
        CFI CFA_SP SP+0
        CFI CFA_XSP16 add(XSP16, 9)
        CFI Block cfiCond64 Using cfiCommon0
        CFI (cfiCond64) NoFunction
        CFI (cfiCond64) Conditional ??CrossCallReturnLabel_72
        CFI (cfiCond64) R6 load(1, XDATA, add(CFA_XSP16, literal(-9)))
        CFI (cfiCond64) VB load(1, XDATA, add(CFA_XSP16, literal(-8)))
        CFI (cfiCond64) V0 load(1, XDATA, add(CFA_XSP16, literal(-7)))
        CFI (cfiCond64) R7 load(1, XDATA, add(CFA_XSP16, literal(-6)))
        CFI (cfiCond64) ?RET_LOW load(1, XDATA, add(CFA_XSP16, literal(-5)))
        CFI (cfiCond64) ?RET_HIGH load(1, XDATA, add(CFA_XSP16, literal(-4)))
        CFI (cfiCond64) ?BRET_EXT load(1, XDATA, add(CFA_XSP16, literal(-3)))
        CFI (cfiCond64) DPL0 load(1, XDATA, add(CFA_XSP16, literal(-2)))
        CFI (cfiCond64) DPH0 load(1, XDATA, add(CFA_XSP16, literal(-1)))
        CFI (cfiCond64) CFA_SP SP+0
        CFI (cfiCond64) CFA_XSP16 add(XSP16, 9)
        CFI Block cfiCond65 Using cfiCommon0
        CFI (cfiCond65) NoFunction
        CFI (cfiCond65) Conditional ??CrossCallReturnLabel_73
        CFI (cfiCond65) R6 load(1, XDATA, add(CFA_XSP16, literal(-22)))
        CFI (cfiCond65) VB load(1, XDATA, add(CFA_XSP16, literal(-21)))
        CFI (cfiCond65) V0 load(1, XDATA, add(CFA_XSP16, literal(-20)))
        CFI (cfiCond65) V1 load(1, XDATA, add(CFA_XSP16, literal(-19)))
        CFI (cfiCond65) V2 load(1, XDATA, add(CFA_XSP16, literal(-18)))
        CFI (cfiCond65) V3 load(1, XDATA, add(CFA_XSP16, literal(-17)))
        CFI (cfiCond65) V4 load(1, XDATA, add(CFA_XSP16, literal(-16)))
        CFI (cfiCond65) V5 load(1, XDATA, add(CFA_XSP16, literal(-15)))
        CFI (cfiCond65) V6 load(1, XDATA, add(CFA_XSP16, literal(-14)))
        CFI (cfiCond65) V7 load(1, XDATA, add(CFA_XSP16, literal(-13)))
        CFI (cfiCond65) V8 load(1, XDATA, add(CFA_XSP16, literal(-12)))
        CFI (cfiCond65) V9 load(1, XDATA, add(CFA_XSP16, literal(-11)))
        CFI (cfiCond65) V10 load(1, XDATA, add(CFA_XSP16, literal(-10)))
        CFI (cfiCond65) V11 load(1, XDATA, add(CFA_XSP16, literal(-9)))
        CFI (cfiCond65) V12 load(1, XDATA, add(CFA_XSP16, literal(-8)))
        CFI (cfiCond65) V13 load(1, XDATA, add(CFA_XSP16, literal(-7)))
        CFI (cfiCond65) R7 load(1, XDATA, add(CFA_XSP16, literal(-6)))
        CFI (cfiCond65) ?RET_LOW load(1, XDATA, add(CFA_XSP16, literal(-5)))
        CFI (cfiCond65) ?RET_HIGH load(1, XDATA, add(CFA_XSP16, literal(-4)))
        CFI (cfiCond65) ?BRET_EXT load(1, XDATA, add(CFA_XSP16, literal(-3)))
        CFI (cfiCond65) DPL0 load(1, XDATA, add(CFA_XSP16, literal(-2)))
        CFI (cfiCond65) DPH0 load(1, XDATA, add(CFA_XSP16, literal(-1)))
        CFI (cfiCond65) CFA_SP SP+0
        CFI (cfiCond65) CFA_XSP16 add(XSP16, 36)
        CFI Block cfiCond66 Using cfiCommon0
        CFI (cfiCond66) NoFunction
        CFI (cfiCond66) Conditional ??CrossCallReturnLabel_74
        CFI (cfiCond66) R6 load(1, XDATA, add(CFA_XSP16, literal(-22)))
        CFI (cfiCond66) VB load(1, XDATA, add(CFA_XSP16, literal(-21)))
        CFI (cfiCond66) V0 load(1, XDATA, add(CFA_XSP16, literal(-20)))
        CFI (cfiCond66) V1 load(1, XDATA, add(CFA_XSP16, literal(-19)))
        CFI (cfiCond66) V2 load(1, XDATA, add(CFA_XSP16, literal(-18)))
        CFI (cfiCond66) V3 load(1, XDATA, add(CFA_XSP16, literal(-17)))
        CFI (cfiCond66) V4 load(1, XDATA, add(CFA_XSP16, literal(-16)))
        CFI (cfiCond66) V5 load(1, XDATA, add(CFA_XSP16, literal(-15)))
        CFI (cfiCond66) V6 load(1, XDATA, add(CFA_XSP16, literal(-14)))
        CFI (cfiCond66) V7 load(1, XDATA, add(CFA_XSP16, literal(-13)))
        CFI (cfiCond66) V8 load(1, XDATA, add(CFA_XSP16, literal(-12)))
        CFI (cfiCond66) V9 load(1, XDATA, add(CFA_XSP16, literal(-11)))
        CFI (cfiCond66) V10 load(1, XDATA, add(CFA_XSP16, literal(-10)))
        CFI (cfiCond66) V11 load(1, XDATA, add(CFA_XSP16, literal(-9)))
        CFI (cfiCond66) V12 load(1, XDATA, add(CFA_XSP16, literal(-8)))
        CFI (cfiCond66) V13 load(1, XDATA, add(CFA_XSP16, literal(-7)))
        CFI (cfiCond66) R7 load(1, XDATA, add(CFA_XSP16, literal(-6)))
        CFI (cfiCond66) ?RET_LOW load(1, XDATA, add(CFA_XSP16, literal(-5)))
        CFI (cfiCond66) ?RET_HIGH load(1, XDATA, add(CFA_XSP16, literal(-4)))
        CFI (cfiCond66) ?BRET_EXT load(1, XDATA, add(CFA_XSP16, literal(-3)))
        CFI (cfiCond66) DPL0 load(1, XDATA, add(CFA_XSP16, literal(-2)))
        CFI (cfiCond66) DPH0 load(1, XDATA, add(CFA_XSP16, literal(-1)))
        CFI (cfiCond66) CFA_SP SP+0
        CFI (cfiCond66) CFA_XSP16 add(XSP16, 36)
        CFI Block cfiCond67 Using cfiCommon0
        CFI (cfiCond67) NoFunction
        CFI (cfiCond67) Conditional ??CrossCallReturnLabel_75
        CFI (cfiCond67) R6 load(1, XDATA, add(CFA_XSP16, literal(-14)))
        CFI (cfiCond67) VB load(1, XDATA, add(CFA_XSP16, literal(-13)))
        CFI (cfiCond67) V0 load(1, XDATA, add(CFA_XSP16, literal(-12)))
        CFI (cfiCond67) V1 load(1, XDATA, add(CFA_XSP16, literal(-11)))
        CFI (cfiCond67) V2 load(1, XDATA, add(CFA_XSP16, literal(-10)))
        CFI (cfiCond67) V3 load(1, XDATA, add(CFA_XSP16, literal(-9)))
        CFI (cfiCond67) V4 load(1, XDATA, add(CFA_XSP16, literal(-8)))
        CFI (cfiCond67) V5 load(1, XDATA, add(CFA_XSP16, literal(-7)))
        CFI (cfiCond67) R7 load(1, XDATA, add(CFA_XSP16, literal(-6)))
        CFI (cfiCond67) ?RET_LOW load(1, XDATA, add(CFA_XSP16, literal(-5)))
        CFI (cfiCond67) ?RET_HIGH load(1, XDATA, add(CFA_XSP16, literal(-4)))
        CFI (cfiCond67) ?BRET_EXT load(1, XDATA, add(CFA_XSP16, literal(-3)))
        CFI (cfiCond67) DPL0 load(1, XDATA, add(CFA_XSP16, literal(-2)))
        CFI (cfiCond67) DPH0 load(1, XDATA, add(CFA_XSP16, literal(-1)))
        CFI (cfiCond67) CFA_SP SP+0
        CFI (cfiCond67) CFA_XSP16 add(XSP16, 15)
        CFI Block cfiPicker68 Using cfiCommon1
        CFI (cfiPicker68) NoFunction
        CFI (cfiPicker68) Picker
        MOV     DPTR,#pMtAfDataReq
        CFI EndBlock cfiCond63
        CFI EndBlock cfiCond64
        CFI EndBlock cfiCond65
        CFI EndBlock cfiCond66
        CFI EndBlock cfiCond67
        CFI EndBlock cfiPicker68
        REQUIRE ??Subroutine48_0
        ; // Fall through to label ??Subroutine48_0

        RSEG BANKED_CODE:CODE:NOROOT(0)
??Subroutine48_0:
        CFI Block cfiCond69 Using cfiCommon0
        CFI NoFunction
        CFI Conditional ??CrossCallReturnLabel_70
        CFI R6 load(1, XDATA, add(CFA_XSP16, literal(-9)))
        CFI VB load(1, XDATA, add(CFA_XSP16, literal(-8)))
        CFI V0 load(1, XDATA, add(CFA_XSP16, literal(-7)))
        CFI R7 load(1, XDATA, add(CFA_XSP16, literal(-6)))
        CFI ?RET_LOW load(1, XDATA, add(CFA_XSP16, literal(-5)))
        CFI ?RET_HIGH load(1, XDATA, add(CFA_XSP16, literal(-4)))
        CFI ?BRET_EXT load(1, XDATA, add(CFA_XSP16, literal(-3)))
        CFI DPL0 load(1, XDATA, add(CFA_XSP16, literal(-2)))
        CFI DPH0 load(1, XDATA, add(CFA_XSP16, literal(-1)))
        CFI CFA_SP SP+0
        CFI CFA_XSP16 add(XSP16, 9)
        CFI Block cfiCond70 Using cfiCommon0
        CFI (cfiCond70) NoFunction
        CFI (cfiCond70) Conditional ??CrossCallReturnLabel_71
        CFI (cfiCond70) R6 load(1, XDATA, add(CFA_XSP16, literal(-9)))
        CFI (cfiCond70) VB load(1, XDATA, add(CFA_XSP16, literal(-8)))
        CFI (cfiCond70) V0 load(1, XDATA, add(CFA_XSP16, literal(-7)))
        CFI (cfiCond70) R7 load(1, XDATA, add(CFA_XSP16, literal(-6)))
        CFI (cfiCond70) ?RET_LOW load(1, XDATA, add(CFA_XSP16, literal(-5)))
        CFI (cfiCond70) ?RET_HIGH load(1, XDATA, add(CFA_XSP16, literal(-4)))
        CFI (cfiCond70) ?BRET_EXT load(1, XDATA, add(CFA_XSP16, literal(-3)))
        CFI (cfiCond70) DPL0 load(1, XDATA, add(CFA_XSP16, literal(-2)))
        CFI (cfiCond70) DPH0 load(1, XDATA, add(CFA_XSP16, literal(-1)))
        CFI (cfiCond70) CFA_SP SP+0
        CFI (cfiCond70) CFA_XSP16 add(XSP16, 9)
        CFI Block cfiCond71 Using cfiCommon0
        CFI (cfiCond71) NoFunction
        CFI (cfiCond71) Conditional ??CrossCallReturnLabel_72
        CFI (cfiCond71) R6 load(1, XDATA, add(CFA_XSP16, literal(-9)))
        CFI (cfiCond71) VB load(1, XDATA, add(CFA_XSP16, literal(-8)))
        CFI (cfiCond71) V0 load(1, XDATA, add(CFA_XSP16, literal(-7)))
        CFI (cfiCond71) R7 load(1, XDATA, add(CFA_XSP16, literal(-6)))
        CFI (cfiCond71) ?RET_LOW load(1, XDATA, add(CFA_XSP16, literal(-5)))
        CFI (cfiCond71) ?RET_HIGH load(1, XDATA, add(CFA_XSP16, literal(-4)))
        CFI (cfiCond71) ?BRET_EXT load(1, XDATA, add(CFA_XSP16, literal(-3)))
        CFI (cfiCond71) DPL0 load(1, XDATA, add(CFA_XSP16, literal(-2)))
        CFI (cfiCond71) DPH0 load(1, XDATA, add(CFA_XSP16, literal(-1)))
        CFI (cfiCond71) CFA_SP SP+0
        CFI (cfiCond71) CFA_XSP16 add(XSP16, 9)
        CFI Block cfiCond72 Using cfiCommon0
        CFI (cfiCond72) NoFunction
        CFI (cfiCond72) Conditional ??CrossCallReturnLabel_73
        CFI (cfiCond72) R6 load(1, XDATA, add(CFA_XSP16, literal(-22)))
        CFI (cfiCond72) VB load(1, XDATA, add(CFA_XSP16, literal(-21)))
        CFI (cfiCond72) V0 load(1, XDATA, add(CFA_XSP16, literal(-20)))
        CFI (cfiCond72) V1 load(1, XDATA, add(CFA_XSP16, literal(-19)))
        CFI (cfiCond72) V2 load(1, XDATA, add(CFA_XSP16, literal(-18)))
        CFI (cfiCond72) V3 load(1, XDATA, add(CFA_XSP16, literal(-17)))
        CFI (cfiCond72) V4 load(1, XDATA, add(CFA_XSP16, literal(-16)))
        CFI (cfiCond72) V5 load(1, XDATA, add(CFA_XSP16, literal(-15)))
        CFI (cfiCond72) V6 load(1, XDATA, add(CFA_XSP16, literal(-14)))
        CFI (cfiCond72) V7 load(1, XDATA, add(CFA_XSP16, literal(-13)))
        CFI (cfiCond72) V8 load(1, XDATA, add(CFA_XSP16, literal(-12)))
        CFI (cfiCond72) V9 load(1, XDATA, add(CFA_XSP16, literal(-11)))
        CFI (cfiCond72) V10 load(1, XDATA, add(CFA_XSP16, literal(-10)))
        CFI (cfiCond72) V11 load(1, XDATA, add(CFA_XSP16, literal(-9)))
        CFI (cfiCond72) V12 load(1, XDATA, add(CFA_XSP16, literal(-8)))
        CFI (cfiCond72) V13 load(1, XDATA, add(CFA_XSP16, literal(-7)))
        CFI (cfiCond72) R7 load(1, XDATA, add(CFA_XSP16, literal(-6)))
        CFI (cfiCond72) ?RET_LOW load(1, XDATA, add(CFA_XSP16, literal(-5)))
        CFI (cfiCond72) ?RET_HIGH load(1, XDATA, add(CFA_XSP16, literal(-4)))
        CFI (cfiCond72) ?BRET_EXT load(1, XDATA, add(CFA_XSP16, literal(-3)))
        CFI (cfiCond72) DPL0 load(1, XDATA, add(CFA_XSP16, literal(-2)))
        CFI (cfiCond72) DPH0 load(1, XDATA, add(CFA_XSP16, literal(-1)))
        CFI (cfiCond72) CFA_SP SP+0
        CFI (cfiCond72) CFA_XSP16 add(XSP16, 36)
        CFI Block cfiCond73 Using cfiCommon0
        CFI (cfiCond73) NoFunction
        CFI (cfiCond73) Conditional ??CrossCallReturnLabel_74
        CFI (cfiCond73) R6 load(1, XDATA, add(CFA_XSP16, literal(-22)))
        CFI (cfiCond73) VB load(1, XDATA, add(CFA_XSP16, literal(-21)))
        CFI (cfiCond73) V0 load(1, XDATA, add(CFA_XSP16, literal(-20)))
        CFI (cfiCond73) V1 load(1, XDATA, add(CFA_XSP16, literal(-19)))
        CFI (cfiCond73) V2 load(1, XDATA, add(CFA_XSP16, literal(-18)))
        CFI (cfiCond73) V3 load(1, XDATA, add(CFA_XSP16, literal(-17)))
        CFI (cfiCond73) V4 load(1, XDATA, add(CFA_XSP16, literal(-16)))
        CFI (cfiCond73) V5 load(1, XDATA, add(CFA_XSP16, literal(-15)))
        CFI (cfiCond73) V6 load(1, XDATA, add(CFA_XSP16, literal(-14)))
        CFI (cfiCond73) V7 load(1, XDATA, add(CFA_XSP16, literal(-13)))
        CFI (cfiCond73) V8 load(1, XDATA, add(CFA_XSP16, literal(-12)))
        CFI (cfiCond73) V9 load(1, XDATA, add(CFA_XSP16, literal(-11)))
        CFI (cfiCond73) V10 load(1, XDATA, add(CFA_XSP16, literal(-10)))
        CFI (cfiCond73) V11 load(1, XDATA, add(CFA_XSP16, literal(-9)))
        CFI (cfiCond73) V12 load(1, XDATA, add(CFA_XSP16, literal(-8)))
        CFI (cfiCond73) V13 load(1, XDATA, add(CFA_XSP16, literal(-7)))
        CFI (cfiCond73) R7 load(1, XDATA, add(CFA_XSP16, literal(-6)))
        CFI (cfiCond73) ?RET_LOW load(1, XDATA, add(CFA_XSP16, literal(-5)))
        CFI (cfiCond73) ?RET_HIGH load(1, XDATA, add(CFA_XSP16, literal(-4)))
        CFI (cfiCond73) ?BRET_EXT load(1, XDATA, add(CFA_XSP16, literal(-3)))
        CFI (cfiCond73) DPL0 load(1, XDATA, add(CFA_XSP16, literal(-2)))
        CFI (cfiCond73) DPH0 load(1, XDATA, add(CFA_XSP16, literal(-1)))
        CFI (cfiCond73) CFA_SP SP+0
        CFI (cfiCond73) CFA_XSP16 add(XSP16, 36)
        CFI Block cfiCond74 Using cfiCommon0
        CFI (cfiCond74) NoFunction
        CFI (cfiCond74) Conditional ??CrossCallReturnLabel_75
        CFI (cfiCond74) R6 load(1, XDATA, add(CFA_XSP16, literal(-14)))
        CFI (cfiCond74) VB load(1, XDATA, add(CFA_XSP16, literal(-13)))
        CFI (cfiCond74) V0 load(1, XDATA, add(CFA_XSP16, literal(-12)))
        CFI (cfiCond74) V1 load(1, XDATA, add(CFA_XSP16, literal(-11)))
        CFI (cfiCond74) V2 load(1, XDATA, add(CFA_XSP16, literal(-10)))
        CFI (cfiCond74) V3 load(1, XDATA, add(CFA_XSP16, literal(-9)))
        CFI (cfiCond74) V4 load(1, XDATA, add(CFA_XSP16, literal(-8)))
        CFI (cfiCond74) V5 load(1, XDATA, add(CFA_XSP16, literal(-7)))
        CFI (cfiCond74) R7 load(1, XDATA, add(CFA_XSP16, literal(-6)))
        CFI (cfiCond74) ?RET_LOW load(1, XDATA, add(CFA_XSP16, literal(-5)))
        CFI (cfiCond74) ?RET_HIGH load(1, XDATA, add(CFA_XSP16, literal(-4)))
        CFI (cfiCond74) ?BRET_EXT load(1, XDATA, add(CFA_XSP16, literal(-3)))
        CFI (cfiCond74) DPL0 load(1, XDATA, add(CFA_XSP16, literal(-2)))
        CFI (cfiCond74) DPH0 load(1, XDATA, add(CFA_XSP16, literal(-1)))
        CFI (cfiCond74) CFA_SP SP+0
        CFI (cfiCond74) CFA_XSP16 add(XSP16, 15)
        CFI Block cfiPicker75 Using cfiCommon1
        CFI (cfiPicker75) NoFunction
        CFI (cfiPicker75) Picker
        LCALL   ?Subroutine36 & 0xFFFF
??CrossCallReturnLabel_79:
        MOV     A,R0
        ORL     A,R1
        RET
        CFI EndBlock cfiCond69
        CFI EndBlock cfiCond70
        CFI EndBlock cfiCond71
        CFI EndBlock cfiCond72
        CFI EndBlock cfiCond73
        CFI EndBlock cfiCond74
        CFI EndBlock cfiPicker75
//  423 
//  424 #if defined ( ZIGBEE_SOURCE_ROUTING )
//  425 
//  426 /***************************************************************************************************
//  427  * @fn      MT_AfDataRequestSrcRtg
//  428  *
//  429  * @brief   Process AF Register command
//  430  *
//  431  * @param   pBuf - pointer to the received buffer
//  432  *
//  433  * @return  none
//  434  ***************************************************************************************************/

        RSEG BANKED_CODE:CODE:NOROOT(0)
//  435 void MT_AfDataRequestSrcRtg(uint8 *pBuf)
MT_AfDataRequestSrcRtg:
        CFI Block cfiBlock76 Using cfiCommon0
        CFI Function MT_AfDataRequestSrcRtg
        CODE
//  436 {
        FUNCALL MT_AfDataRequestSrcRtg, osal_memset
        LOCFRAME ISTACK, 0, STACK
        LOCFRAME PSTACK, 0, STACK
        LOCFRAME XSTACK, 35, STACK
        LOCFRAME IOVERLAY, 0, STATIC
        LOCFRAME DOVERLAY, 0, STATIC
        ARGFRAME ISTACK, 0, STACK
        ARGFRAME PSTACK, 0, STACK
        ARGFRAME XSTACK, 35, STACK
        ARGFRAME IOVERLAY, 0, STATIC
        ARGFRAME DOVERLAY, 0, STATIC
        FUNCALL MT_AfDataRequestSrcRtg, afFindEndPointDesc
        LOCFRAME ISTACK, 0, STACK
        LOCFRAME PSTACK, 0, STACK
        LOCFRAME XSTACK, 35, STACK
        LOCFRAME IOVERLAY, 0, STATIC
        LOCFRAME DOVERLAY, 0, STATIC
        ARGFRAME ISTACK, 0, STACK
        ARGFRAME PSTACK, 0, STACK
        ARGFRAME XSTACK, 35, STACK
        ARGFRAME IOVERLAY, 0, STATIC
        ARGFRAME DOVERLAY, 0, STATIC
        FUNCALL MT_AfDataRequestSrcRtg, osal_mem_alloc
        LOCFRAME ISTACK, 0, STACK
        LOCFRAME PSTACK, 0, STACK
        LOCFRAME XSTACK, 35, STACK
        LOCFRAME IOVERLAY, 0, STATIC
        LOCFRAME DOVERLAY, 0, STATIC
        ARGFRAME ISTACK, 0, STACK
        ARGFRAME PSTACK, 0, STACK
        ARGFRAME XSTACK, 35, STACK
        ARGFRAME IOVERLAY, 0, STATIC
        ARGFRAME DOVERLAY, 0, STATIC
        FUNCALL MT_AfDataRequestSrcRtg, AF_DataRequestSrcRtg
        LOCFRAME ISTACK, 0, STACK
        LOCFRAME PSTACK, 0, STACK
        LOCFRAME XSTACK, 47, STACK
        LOCFRAME IOVERLAY, 0, STATIC
        LOCFRAME DOVERLAY, 0, STATIC
        ARGFRAME ISTACK, 0, STACK
        ARGFRAME PSTACK, 0, STACK
        ARGFRAME XSTACK, 47, STACK
        ARGFRAME IOVERLAY, 0, STATIC
        ARGFRAME DOVERLAY, 0, STATIC
        FUNCALL MT_AfDataRequestSrcRtg, osal_mem_free
        LOCFRAME ISTACK, 0, STACK
        LOCFRAME PSTACK, 0, STACK
        LOCFRAME XSTACK, 35, STACK
        LOCFRAME IOVERLAY, 0, STATIC
        LOCFRAME DOVERLAY, 0, STATIC
        ARGFRAME ISTACK, 0, STACK
        ARGFRAME PSTACK, 0, STACK
        ARGFRAME XSTACK, 35, STACK
        ARGFRAME IOVERLAY, 0, STATIC
        ARGFRAME DOVERLAY, 0, STATIC
        FUNCALL MT_AfDataRequestSrcRtg, MT_BuildAndSendZToolResponse
        LOCFRAME ISTACK, 0, STACK
        LOCFRAME PSTACK, 0, STACK
        LOCFRAME XSTACK, 35, STACK
        LOCFRAME IOVERLAY, 0, STATIC
        LOCFRAME DOVERLAY, 0, STATIC
        ARGFRAME ISTACK, 0, STACK
        ARGFRAME PSTACK, 0, STACK
        ARGFRAME XSTACK, 35, STACK
        ARGFRAME IOVERLAY, 0, STATIC
        ARGFRAME DOVERLAY, 0, STATIC
        MOV     A,#-0x15
        LCALL   ?BANKED_ENTER_XDATA
        CFI DPH0 load(1, XDATA, add(CFA_XSP16, literal(-1)))
        CFI DPL0 load(1, XDATA, add(CFA_XSP16, literal(-2)))
        CFI ?BRET_EXT load(1, XDATA, add(CFA_XSP16, literal(-3)))
        CFI ?RET_HIGH load(1, XDATA, add(CFA_XSP16, literal(-4)))
        CFI ?RET_LOW load(1, XDATA, add(CFA_XSP16, literal(-5)))
        CFI R7 load(1, XDATA, add(CFA_XSP16, literal(-6)))
        CFI V12 load(1, XDATA, add(CFA_XSP16, literal(-7)))
        CFI V11 load(1, XDATA, add(CFA_XSP16, literal(-8)))
        CFI V10 load(1, XDATA, add(CFA_XSP16, literal(-9)))
        CFI V9 load(1, XDATA, add(CFA_XSP16, literal(-10)))
        CFI V8 load(1, XDATA, add(CFA_XSP16, literal(-11)))
        CFI V7 load(1, XDATA, add(CFA_XSP16, literal(-12)))
        CFI V6 load(1, XDATA, add(CFA_XSP16, literal(-13)))
        CFI V5 load(1, XDATA, add(CFA_XSP16, literal(-14)))
        CFI V4 load(1, XDATA, add(CFA_XSP16, literal(-15)))
        CFI V3 load(1, XDATA, add(CFA_XSP16, literal(-16)))
        CFI V2 load(1, XDATA, add(CFA_XSP16, literal(-17)))
        CFI V1 load(1, XDATA, add(CFA_XSP16, literal(-18)))
        CFI V0 load(1, XDATA, add(CFA_XSP16, literal(-19)))
        CFI VB load(1, XDATA, add(CFA_XSP16, literal(-20)))
        CFI R6 load(1, XDATA, add(CFA_XSP16, literal(-21)))
        CFI CFA_SP SP+0
        CFI CFA_XSP16 add(XSP16, 21)
        ; Saved register size: 21
        ; Auto size: 14
        MOV     A,#-0xe
        LCALL   ?ALLOC_XSTACK8
        CFI CFA_XSP16 add(XSP16, 35)
        MOV     A,R2
        MOV     R6,A
        MOV     A,R3
        MOV     R7,A
//  437   uint8 cmdId, dataLen = 0;
//  438   uint8 retValue = ZFailure;
        MOV     DPL,?XSP + 0
        MOV     DPH,?XSP + 1
        MOV     A,#0x1
        LCALL   ?Subroutine26 & 0xFFFF
//  439   endPointDesc_t *epDesc;
//  440   byte transId;
//  441   afAddrType_t dstAddr;
//  442   cId_t cId;
//  443   byte txOpts, radius, srcEP, relayCnt;
//  444   uint16 *pRelayList;
//  445   uint8 i;
//  446 
//  447   /* parse header */
//  448   cmdId = pBuf[MT_RPC_POS_CMD1];
??CrossCallReturnLabel_31:
        INC     DPTR
        MOVX    A,@DPTR
        MOV     ?V0 + 12,A
//  449   pBuf += MT_RPC_FRAME_HDR_SZ;
        MOV     A,R6
        ADD     A,#0x3
        INC     R6
        INC     R6
        INC     R6
        MOV     A,R7
        ADDC    A,#0x0
        MOV     R7,A
//  450 
//  451   /* Destination address */
//  452   /* Initialize the panID field to zero to avoid inter-pan */
//  453   osal_memset( &dstAddr, 0, sizeof(afAddrType_t) );
        ; Setup parameters for call to function osal_memset
        MOV     R4,#0xc
        MOV     R5,#0x0
        MOV     R1,#0x0
        MOV     A,#0x2
        LCALL   ?XSTACK_DISP0_8
        MOV     R2,DPL
        MOV     R3,DPH
        LCALL   ??osal_memset?relay
//  454   dstAddr.addrMode = afAddr16Bit;
        MOV     A,#0xa
        LCALL   ?XSTACK_DISP0_8
        MOV     A,#0x2
        MOVX    @DPTR,A
//  455   dstAddr.addr.shortAddr = BUILD_UINT16(pBuf[0], pBuf[1]);
        MOV     DPL,R6
        MOV     DPH,R7
        LCALL   ?Subroutine10 & 0xFFFF
??CrossCallReturnLabel_5:
        LCALL   ?XSTACK_DISP0_8
        LCALL   ?Subroutine30 & 0xFFFF
//  456   pBuf += 2;
??CrossCallReturnLabel_44:
        LCALL   ?Subroutine17 & 0xFFFF
//  457 
//  458   /* Destination endpoint */
//  459   dstAddr.endPoint = *pBuf++;
??CrossCallReturnLabel_80:
        PUSH    A
        CFI CFA_SP SP+-1
        MOV     A,#0xb
        LCALL   ?XSTACK_DISP0_8
        POP     A
        CFI CFA_SP SP+0
        LCALL   ?Subroutine26 & 0xFFFF
//  460 
//  461   /* Source endpoint */
//  462   srcEP = *pBuf++;
??CrossCallReturnLabel_32:
        MOVX    A,@DPTR
        MOV     R1,A
        INC     DPTR
        MOV     R6,DPL
        MOV     R7,DPH
//  463   epDesc = afFindEndPointDesc( srcEP );
        ; Setup parameters for call to function afFindEndPointDesc
        LCALL   ??afFindEndPointDesc?relay
        MOV     ?V0 + 2,R2
        MOV     ?V0 + 3,R3
//  464 
//  465   /* ClusterId */
//  466   cId = BUILD_UINT16(pBuf[0], pBuf[1]);
        LCALL   ?Subroutine9 & 0xFFFF
??CrossCallReturnLabel_84:
        MOV     ?V0 + 6,A
        CLR     A
        ADDC    A,R1
        MOV     ?V0 + 7,A
//  467   pBuf +=2;
        LCALL   ?Subroutine17 & 0xFFFF
//  468 
//  469   /* TransId */
//  470   transId = *pBuf++;
??CrossCallReturnLabel_81:
        PUSH    A
        CFI CFA_SP SP+-1
        MOV     A,#0x1
        LCALL   ?XSTACK_DISP0_8
        POP     A
        CFI CFA_SP SP+0
        LCALL   ?Subroutine26 & 0xFFFF
//  471 
//  472   /* TxOption */
//  473   txOpts = *pBuf++;
??CrossCallReturnLabel_33:
        MOVX    A,@DPTR
        MOV     ?V0 + 5,A
        INC     DPTR
//  474 
//  475   /* Radius */
//  476   radius = *pBuf++;
        MOVX    A,@DPTR
        MOV     ?V0 + 8,A
        INC     DPTR
//  477 
//  478   /* Source route relay count */
//  479   relayCnt = *pBuf++;
        MOVX    A,@DPTR
        MOV     ?V0 + 9,A
        INC     DPTR
        MOV     R6,DPL
        MOV     R7,DPH
//  480 
//  481   /* Convert the source route relay list */
//  482   if( (pRelayList = osal_mem_alloc( relayCnt * sizeof( uint16 ))) != NULL )
        ; Setup parameters for call to function osal_mem_alloc
        CLR     C
        RLC     A
        MOV     R2,A
        CLR     A
        RLC     A
        MOV     R3,A
        LCALL   ??osal_mem_alloc?relay
        MOV     ?V0 + 0,R2
        MOV     ?V0 + 1,R3
        MOV     A,R2
        ORL     A,?V0 + 1
        JNZ     $+5
        LJMP    ??MT_AfDataRequestSrcRtg_0 & 0xFFFF
//  483   {
//  484     for( i = 0; i < relayCnt; i++ )
        MOV     A,?V0 + 9
        JZ      ??MT_AfDataRequestSrcRtg_1
        MOV     R0,?V0 + 0
        MOV     R1,?V0 + 1
        MOV     ?V0 + 4,A
//  485     {
//  486       pRelayList[i]  = BUILD_UINT16( pBuf[0], pBuf[1] );
??MT_AfDataRequestSrcRtg_2:
        MOV     DPL,R6
        MOV     DPH,R7
        MOVX    A,@DPTR
        MOV     R4,A
        INC     DPTR
        MOVX    A,@DPTR
        MOV     R3,A
        MOV     A,R4
        MOV     DPL,R0
        MOV     DPH,R1
        MOVX    @DPTR,A
        INC     DPTR
        MOV     A,R3
        MOVX    @DPTR,A
//  487       pBuf += 2;
        MOV     A,R6
        ADD     A,#0x2
        INC     R6
        INC     R6
        MOV     A,R7
        ADDC    A,#0x0
        MOV     R7,A
//  488     }
        MOV     A,R0
        ADD     A,#0x2
        INC     R0
        INC     R0
        MOV     A,R1
        ADDC    A,#0x0
        MOV     R1,A
        DEC     ?V0 + 4
        MOV     A,?V0 + 4
        JNZ     ??MT_AfDataRequestSrcRtg_2
//  489 
//  490     /* Data payload Length */
//  491     dataLen = *pBuf++;
??MT_AfDataRequestSrcRtg_1:
        MOV     DPL,R6
        MOV     DPH,R7
        MOVX    A,@DPTR
        MOV     R1,A
        INC     DPTR
        MOV     R6,DPL
        MOV     R7,DPH
//  492 
//  493     if ( epDesc == NULL )
        MOV     A,?V0 + 2
        ORL     A,?V0 + 3
        JNZ     ??MT_AfDataRequestSrcRtg_3
//  494     {
//  495       retValue = afStatus_INVALID_PARAMETER;
        MOV     DPL,?XSP + 0
        MOV     DPH,?XSP + 1
        MOV     A,#0x2
        SJMP    ??MT_AfDataRequestSrcRtg_4
//  496     }
//  497     else
//  498     {
//  499       retValue = AF_DataRequestSrcRtg( &dstAddr, epDesc, cId, dataLen, pBuf,
//  500                                      &transId, txOpts, radius, relayCnt, pRelayList );
??MT_AfDataRequestSrcRtg_3:
        ; Setup parameters for call to function AF_DataRequestSrcRtg
        MOV     R0,#?V0 + 0
        LCALL   ?PUSH_XSTACK_I_TWO
        CFI CFA_XSP16 add(XSP16, 37)
        MOV     R0,#?V0 + 9
        LCALL   ?PUSH_XSTACK_I_ONE
        CFI CFA_XSP16 add(XSP16, 38)
        MOV     R0,#?V0 + 8
        LCALL   ?PUSH_XSTACK_I_ONE
        CFI CFA_XSP16 add(XSP16, 39)
        MOV     A,#0x5
        LCALL   ?XSTACK_DISP0_8
        MOV     ?V0 + 8,DPL
        MOV     ?V0 + 9,DPH
        MOV     R0,#?V0 + 8
        LCALL   ?PUSH_XSTACK_I_TWO
        CFI CFA_XSP16 add(XSP16, 41)
        MOV     ?V0 + 8,R6
        MOV     ?V0 + 9,R7
        MOV     R0,#?V0 + 8
        LCALL   ?PUSH_XSTACK_I_TWO
        CFI CFA_XSP16 add(XSP16, 43)
        MOV     ?V0 + 8,R1
        MOV     ?V0 + 9,#0x0
        MOV     R0,#?V0 + 8
        LCALL   ?PUSH_XSTACK_I_TWO
        CFI CFA_XSP16 add(XSP16, 45)
        MOV     R0,#?V0 + 6
        LCALL   ?PUSH_XSTACK_I_TWO
        CFI CFA_XSP16 add(XSP16, 47)
        MOV     R1,?V0 + 5
        MOV     R4,?V0 + 2
        MOV     R5,?V0 + 3
        MOV     A,#0xe
        LCALL   ?XSTACK_DISP0_8
        MOV     R2,DPL
        MOV     R3,DPH
        LCALL   ??AF_DataRequestSrcRtg?relay
        MOV     A,#0xc
        LCALL   ?DEALLOC_XSTACK8
        CFI CFA_XSP16 add(XSP16, 35)
        MOV     A,R1
        MOV     DPL,?XSP + 0
        MOV     DPH,?XSP + 1
??MT_AfDataRequestSrcRtg_4:
        MOVX    @DPTR,A
//  501     }
//  502 
//  503     /* Free the memory allocated */
//  504     osal_mem_free( pRelayList );
        ; Setup parameters for call to function osal_mem_free
        MOV     R2,?V0 + 0
        MOV     R3,?V0 + 1
        LCALL   ??osal_mem_free?relay
        SJMP    ??MT_AfDataRequestSrcRtg_5
//  505   }
//  506   else
//  507   {
//  508     retValue = afStatus_MEM_FAIL;
??MT_AfDataRequestSrcRtg_0:
        MOV     DPL,?XSP + 0
        MOV     DPH,?XSP + 1
        MOV     A,#0x10
        MOVX    @DPTR,A
//  509   }
//  510 
//  511 
//  512   /* Build and send back the response */
//  513   MT_BuildAndSendZToolResponse(((uint8)MT_RPC_CMD_SRSP | (uint8)MT_RPC_SYS_AF), cmdId, 1, &retValue);
??MT_AfDataRequestSrcRtg_5:
        ; Setup parameters for call to function MT_BuildAndSendZToolResponse
        MOV     DPL,?XSP + 0
        MOV     DPH,?XSP + 1
        MOV     R4,DPL
        MOV     R5,DPH
        MOV     R3,#0x1
        MOV     R2,?V0 + 12
        MOV     R1,#0x64
        LCALL   ??MT_BuildAndSendZToolResponse?relay
//  514 }
        MOV     A,#0xe
        LCALL   ?DEALLOC_XSTACK8
        CFI CFA_XSP16 add(XSP16, 21)
        MOV     R7,#0xd
        LJMP    ?BANKED_LEAVE_XDATA
        CFI EndBlock cfiBlock76

        RSEG BANKED_CODE:CODE:NOROOT(0)
?Subroutine26:
        CFI Block cfiCond77 Using cfiCommon0
        CFI NoFunction
        CFI Conditional ??CrossCallReturnLabel_31
        CFI R6 load(1, XDATA, add(CFA_XSP16, literal(-21)))
        CFI VB load(1, XDATA, add(CFA_XSP16, literal(-20)))
        CFI V0 load(1, XDATA, add(CFA_XSP16, literal(-19)))
        CFI V1 load(1, XDATA, add(CFA_XSP16, literal(-18)))
        CFI V2 load(1, XDATA, add(CFA_XSP16, literal(-17)))
        CFI V3 load(1, XDATA, add(CFA_XSP16, literal(-16)))
        CFI V4 load(1, XDATA, add(CFA_XSP16, literal(-15)))
        CFI V5 load(1, XDATA, add(CFA_XSP16, literal(-14)))
        CFI V6 load(1, XDATA, add(CFA_XSP16, literal(-13)))
        CFI V7 load(1, XDATA, add(CFA_XSP16, literal(-12)))
        CFI V8 load(1, XDATA, add(CFA_XSP16, literal(-11)))
        CFI V9 load(1, XDATA, add(CFA_XSP16, literal(-10)))
        CFI V10 load(1, XDATA, add(CFA_XSP16, literal(-9)))
        CFI V11 load(1, XDATA, add(CFA_XSP16, literal(-8)))
        CFI V12 load(1, XDATA, add(CFA_XSP16, literal(-7)))
        CFI R7 load(1, XDATA, add(CFA_XSP16, literal(-6)))
        CFI ?RET_LOW load(1, XDATA, add(CFA_XSP16, literal(-5)))
        CFI ?RET_HIGH load(1, XDATA, add(CFA_XSP16, literal(-4)))
        CFI ?BRET_EXT load(1, XDATA, add(CFA_XSP16, literal(-3)))
        CFI DPL0 load(1, XDATA, add(CFA_XSP16, literal(-2)))
        CFI DPH0 load(1, XDATA, add(CFA_XSP16, literal(-1)))
        CFI CFA_SP SP+0
        CFI CFA_XSP16 add(XSP16, 35)
        CFI Block cfiCond78 Using cfiCommon0
        CFI (cfiCond78) NoFunction
        CFI (cfiCond78) Conditional ??CrossCallReturnLabel_32
        CFI (cfiCond78) R6 load(1, XDATA, add(CFA_XSP16, literal(-21)))
        CFI (cfiCond78) VB load(1, XDATA, add(CFA_XSP16, literal(-20)))
        CFI (cfiCond78) V0 load(1, XDATA, add(CFA_XSP16, literal(-19)))
        CFI (cfiCond78) V1 load(1, XDATA, add(CFA_XSP16, literal(-18)))
        CFI (cfiCond78) V2 load(1, XDATA, add(CFA_XSP16, literal(-17)))
        CFI (cfiCond78) V3 load(1, XDATA, add(CFA_XSP16, literal(-16)))
        CFI (cfiCond78) V4 load(1, XDATA, add(CFA_XSP16, literal(-15)))
        CFI (cfiCond78) V5 load(1, XDATA, add(CFA_XSP16, literal(-14)))
        CFI (cfiCond78) V6 load(1, XDATA, add(CFA_XSP16, literal(-13)))
        CFI (cfiCond78) V7 load(1, XDATA, add(CFA_XSP16, literal(-12)))
        CFI (cfiCond78) V8 load(1, XDATA, add(CFA_XSP16, literal(-11)))
        CFI (cfiCond78) V9 load(1, XDATA, add(CFA_XSP16, literal(-10)))
        CFI (cfiCond78) V10 load(1, XDATA, add(CFA_XSP16, literal(-9)))
        CFI (cfiCond78) V11 load(1, XDATA, add(CFA_XSP16, literal(-8)))
        CFI (cfiCond78) V12 load(1, XDATA, add(CFA_XSP16, literal(-7)))
        CFI (cfiCond78) R7 load(1, XDATA, add(CFA_XSP16, literal(-6)))
        CFI (cfiCond78) ?RET_LOW load(1, XDATA, add(CFA_XSP16, literal(-5)))
        CFI (cfiCond78) ?RET_HIGH load(1, XDATA, add(CFA_XSP16, literal(-4)))
        CFI (cfiCond78) ?BRET_EXT load(1, XDATA, add(CFA_XSP16, literal(-3)))
        CFI (cfiCond78) DPL0 load(1, XDATA, add(CFA_XSP16, literal(-2)))
        CFI (cfiCond78) DPH0 load(1, XDATA, add(CFA_XSP16, literal(-1)))
        CFI (cfiCond78) CFA_SP SP+0
        CFI (cfiCond78) CFA_XSP16 add(XSP16, 35)
        CFI Block cfiCond79 Using cfiCommon0
        CFI (cfiCond79) NoFunction
        CFI (cfiCond79) Conditional ??CrossCallReturnLabel_33
        CFI (cfiCond79) R6 load(1, XDATA, add(CFA_XSP16, literal(-21)))
        CFI (cfiCond79) VB load(1, XDATA, add(CFA_XSP16, literal(-20)))
        CFI (cfiCond79) V0 load(1, XDATA, add(CFA_XSP16, literal(-19)))
        CFI (cfiCond79) V1 load(1, XDATA, add(CFA_XSP16, literal(-18)))
        CFI (cfiCond79) V2 load(1, XDATA, add(CFA_XSP16, literal(-17)))
        CFI (cfiCond79) V3 load(1, XDATA, add(CFA_XSP16, literal(-16)))
        CFI (cfiCond79) V4 load(1, XDATA, add(CFA_XSP16, literal(-15)))
        CFI (cfiCond79) V5 load(1, XDATA, add(CFA_XSP16, literal(-14)))
        CFI (cfiCond79) V6 load(1, XDATA, add(CFA_XSP16, literal(-13)))
        CFI (cfiCond79) V7 load(1, XDATA, add(CFA_XSP16, literal(-12)))
        CFI (cfiCond79) V8 load(1, XDATA, add(CFA_XSP16, literal(-11)))
        CFI (cfiCond79) V9 load(1, XDATA, add(CFA_XSP16, literal(-10)))
        CFI (cfiCond79) V10 load(1, XDATA, add(CFA_XSP16, literal(-9)))
        CFI (cfiCond79) V11 load(1, XDATA, add(CFA_XSP16, literal(-8)))
        CFI (cfiCond79) V12 load(1, XDATA, add(CFA_XSP16, literal(-7)))
        CFI (cfiCond79) R7 load(1, XDATA, add(CFA_XSP16, literal(-6)))
        CFI (cfiCond79) ?RET_LOW load(1, XDATA, add(CFA_XSP16, literal(-5)))
        CFI (cfiCond79) ?RET_HIGH load(1, XDATA, add(CFA_XSP16, literal(-4)))
        CFI (cfiCond79) ?BRET_EXT load(1, XDATA, add(CFA_XSP16, literal(-3)))
        CFI (cfiCond79) DPL0 load(1, XDATA, add(CFA_XSP16, literal(-2)))
        CFI (cfiCond79) DPH0 load(1, XDATA, add(CFA_XSP16, literal(-1)))
        CFI (cfiCond79) CFA_SP SP+0
        CFI (cfiCond79) CFA_XSP16 add(XSP16, 35)
        CFI Block cfiPicker80 Using cfiCommon1
        CFI (cfiPicker80) NoFunction
        CFI (cfiPicker80) Picker
        MOVX    @DPTR,A
        MOV     DPL,R6
        MOV     DPH,R7
        INC     DPTR
        RET
        CFI EndBlock cfiCond77
        CFI EndBlock cfiCond78
        CFI EndBlock cfiCond79
        CFI EndBlock cfiPicker80

        RSEG BANKED_CODE:CODE:NOROOT(0)
?Subroutine17:
        CFI Block cfiCond81 Using cfiCommon0
        CFI NoFunction
        CFI Conditional ??CrossCallReturnLabel_80
        CFI R6 load(1, XDATA, add(CFA_XSP16, literal(-21)))
        CFI VB load(1, XDATA, add(CFA_XSP16, literal(-20)))
        CFI V0 load(1, XDATA, add(CFA_XSP16, literal(-19)))
        CFI V1 load(1, XDATA, add(CFA_XSP16, literal(-18)))
        CFI V2 load(1, XDATA, add(CFA_XSP16, literal(-17)))
        CFI V3 load(1, XDATA, add(CFA_XSP16, literal(-16)))
        CFI V4 load(1, XDATA, add(CFA_XSP16, literal(-15)))
        CFI V5 load(1, XDATA, add(CFA_XSP16, literal(-14)))
        CFI V6 load(1, XDATA, add(CFA_XSP16, literal(-13)))
        CFI V7 load(1, XDATA, add(CFA_XSP16, literal(-12)))
        CFI V8 load(1, XDATA, add(CFA_XSP16, literal(-11)))
        CFI V9 load(1, XDATA, add(CFA_XSP16, literal(-10)))
        CFI V10 load(1, XDATA, add(CFA_XSP16, literal(-9)))
        CFI V11 load(1, XDATA, add(CFA_XSP16, literal(-8)))
        CFI V12 load(1, XDATA, add(CFA_XSP16, literal(-7)))
        CFI R7 load(1, XDATA, add(CFA_XSP16, literal(-6)))
        CFI ?RET_LOW load(1, XDATA, add(CFA_XSP16, literal(-5)))
        CFI ?RET_HIGH load(1, XDATA, add(CFA_XSP16, literal(-4)))
        CFI ?BRET_EXT load(1, XDATA, add(CFA_XSP16, literal(-3)))
        CFI DPL0 load(1, XDATA, add(CFA_XSP16, literal(-2)))
        CFI DPH0 load(1, XDATA, add(CFA_XSP16, literal(-1)))
        CFI CFA_SP SP+0
        CFI CFA_XSP16 add(XSP16, 35)
        CFI Block cfiCond82 Using cfiCommon0
        CFI (cfiCond82) NoFunction
        CFI (cfiCond82) Conditional ??CrossCallReturnLabel_81
        CFI (cfiCond82) R6 load(1, XDATA, add(CFA_XSP16, literal(-21)))
        CFI (cfiCond82) VB load(1, XDATA, add(CFA_XSP16, literal(-20)))
        CFI (cfiCond82) V0 load(1, XDATA, add(CFA_XSP16, literal(-19)))
        CFI (cfiCond82) V1 load(1, XDATA, add(CFA_XSP16, literal(-18)))
        CFI (cfiCond82) V2 load(1, XDATA, add(CFA_XSP16, literal(-17)))
        CFI (cfiCond82) V3 load(1, XDATA, add(CFA_XSP16, literal(-16)))
        CFI (cfiCond82) V4 load(1, XDATA, add(CFA_XSP16, literal(-15)))
        CFI (cfiCond82) V5 load(1, XDATA, add(CFA_XSP16, literal(-14)))
        CFI (cfiCond82) V6 load(1, XDATA, add(CFA_XSP16, literal(-13)))
        CFI (cfiCond82) V7 load(1, XDATA, add(CFA_XSP16, literal(-12)))
        CFI (cfiCond82) V8 load(1, XDATA, add(CFA_XSP16, literal(-11)))
        CFI (cfiCond82) V9 load(1, XDATA, add(CFA_XSP16, literal(-10)))
        CFI (cfiCond82) V10 load(1, XDATA, add(CFA_XSP16, literal(-9)))
        CFI (cfiCond82) V11 load(1, XDATA, add(CFA_XSP16, literal(-8)))
        CFI (cfiCond82) V12 load(1, XDATA, add(CFA_XSP16, literal(-7)))
        CFI (cfiCond82) R7 load(1, XDATA, add(CFA_XSP16, literal(-6)))
        CFI (cfiCond82) ?RET_LOW load(1, XDATA, add(CFA_XSP16, literal(-5)))
        CFI (cfiCond82) ?RET_HIGH load(1, XDATA, add(CFA_XSP16, literal(-4)))
        CFI (cfiCond82) ?BRET_EXT load(1, XDATA, add(CFA_XSP16, literal(-3)))
        CFI (cfiCond82) DPL0 load(1, XDATA, add(CFA_XSP16, literal(-2)))
        CFI (cfiCond82) DPH0 load(1, XDATA, add(CFA_XSP16, literal(-1)))
        CFI (cfiCond82) CFA_SP SP+0
        CFI (cfiCond82) CFA_XSP16 add(XSP16, 35)
        CFI Block cfiPicker83 Using cfiCommon1
        CFI (cfiPicker83) NoFunction
        CFI (cfiPicker83) Picker
        MOV     A,R6
        ADD     A,#0x2
        CFI EndBlock cfiCond81
        CFI EndBlock cfiCond82
        CFI EndBlock cfiPicker83
        REQUIRE ??Subroutine49_0
        ; // Fall through to label ??Subroutine49_0

        RSEG BANKED_CODE:CODE:NOROOT(0)
??Subroutine49_0:
        CFI Block cfiCond84 Using cfiCommon0
        CFI NoFunction
        CFI Conditional ??CrossCallReturnLabel_82
        CFI R6 load(1, XDATA, add(CFA_XSP16, literal(-20)))
        CFI VB load(1, XDATA, add(CFA_XSP16, literal(-19)))
        CFI V0 load(1, XDATA, add(CFA_XSP16, literal(-18)))
        CFI V1 load(1, XDATA, add(CFA_XSP16, literal(-17)))
        CFI V2 load(1, XDATA, add(CFA_XSP16, literal(-16)))
        CFI V3 load(1, XDATA, add(CFA_XSP16, literal(-15)))
        CFI V4 load(1, XDATA, add(CFA_XSP16, literal(-14)))
        CFI V5 load(1, XDATA, add(CFA_XSP16, literal(-13)))
        CFI V6 load(1, XDATA, add(CFA_XSP16, literal(-12)))
        CFI V7 load(1, XDATA, add(CFA_XSP16, literal(-11)))
        CFI V8 load(1, XDATA, add(CFA_XSP16, literal(-10)))
        CFI V9 load(1, XDATA, add(CFA_XSP16, literal(-9)))
        CFI V10 load(1, XDATA, add(CFA_XSP16, literal(-8)))
        CFI V11 load(1, XDATA, add(CFA_XSP16, literal(-7)))
        CFI R7 load(1, XDATA, add(CFA_XSP16, literal(-6)))
        CFI ?RET_LOW load(1, XDATA, add(CFA_XSP16, literal(-5)))
        CFI ?RET_HIGH load(1, XDATA, add(CFA_XSP16, literal(-4)))
        CFI ?BRET_EXT load(1, XDATA, add(CFA_XSP16, literal(-3)))
        CFI DPL0 load(1, XDATA, add(CFA_XSP16, literal(-2)))
        CFI DPH0 load(1, XDATA, add(CFA_XSP16, literal(-1)))
        CFI CFA_SP SP+0
        CFI CFA_XSP16 add(XSP16, 20)
        CFI Block cfiCond85 Using cfiCommon0
        CFI (cfiCond85) NoFunction
        CFI (cfiCond85) Conditional ??CrossCallReturnLabel_80
        CFI (cfiCond85) R6 load(1, XDATA, add(CFA_XSP16, literal(-21)))
        CFI (cfiCond85) VB load(1, XDATA, add(CFA_XSP16, literal(-20)))
        CFI (cfiCond85) V0 load(1, XDATA, add(CFA_XSP16, literal(-19)))
        CFI (cfiCond85) V1 load(1, XDATA, add(CFA_XSP16, literal(-18)))
        CFI (cfiCond85) V2 load(1, XDATA, add(CFA_XSP16, literal(-17)))
        CFI (cfiCond85) V3 load(1, XDATA, add(CFA_XSP16, literal(-16)))
        CFI (cfiCond85) V4 load(1, XDATA, add(CFA_XSP16, literal(-15)))
        CFI (cfiCond85) V5 load(1, XDATA, add(CFA_XSP16, literal(-14)))
        CFI (cfiCond85) V6 load(1, XDATA, add(CFA_XSP16, literal(-13)))
        CFI (cfiCond85) V7 load(1, XDATA, add(CFA_XSP16, literal(-12)))
        CFI (cfiCond85) V8 load(1, XDATA, add(CFA_XSP16, literal(-11)))
        CFI (cfiCond85) V9 load(1, XDATA, add(CFA_XSP16, literal(-10)))
        CFI (cfiCond85) V10 load(1, XDATA, add(CFA_XSP16, literal(-9)))
        CFI (cfiCond85) V11 load(1, XDATA, add(CFA_XSP16, literal(-8)))
        CFI (cfiCond85) V12 load(1, XDATA, add(CFA_XSP16, literal(-7)))
        CFI (cfiCond85) R7 load(1, XDATA, add(CFA_XSP16, literal(-6)))
        CFI (cfiCond85) ?RET_LOW load(1, XDATA, add(CFA_XSP16, literal(-5)))
        CFI (cfiCond85) ?RET_HIGH load(1, XDATA, add(CFA_XSP16, literal(-4)))
        CFI (cfiCond85) ?BRET_EXT load(1, XDATA, add(CFA_XSP16, literal(-3)))
        CFI (cfiCond85) DPL0 load(1, XDATA, add(CFA_XSP16, literal(-2)))
        CFI (cfiCond85) DPH0 load(1, XDATA, add(CFA_XSP16, literal(-1)))
        CFI (cfiCond85) CFA_SP SP+0
        CFI (cfiCond85) CFA_XSP16 add(XSP16, 35)
        CFI Block cfiCond86 Using cfiCommon0
        CFI (cfiCond86) NoFunction
        CFI (cfiCond86) Conditional ??CrossCallReturnLabel_81
        CFI (cfiCond86) R6 load(1, XDATA, add(CFA_XSP16, literal(-21)))
        CFI (cfiCond86) VB load(1, XDATA, add(CFA_XSP16, literal(-20)))
        CFI (cfiCond86) V0 load(1, XDATA, add(CFA_XSP16, literal(-19)))
        CFI (cfiCond86) V1 load(1, XDATA, add(CFA_XSP16, literal(-18)))
        CFI (cfiCond86) V2 load(1, XDATA, add(CFA_XSP16, literal(-17)))
        CFI (cfiCond86) V3 load(1, XDATA, add(CFA_XSP16, literal(-16)))
        CFI (cfiCond86) V4 load(1, XDATA, add(CFA_XSP16, literal(-15)))
        CFI (cfiCond86) V5 load(1, XDATA, add(CFA_XSP16, literal(-14)))
        CFI (cfiCond86) V6 load(1, XDATA, add(CFA_XSP16, literal(-13)))
        CFI (cfiCond86) V7 load(1, XDATA, add(CFA_XSP16, literal(-12)))
        CFI (cfiCond86) V8 load(1, XDATA, add(CFA_XSP16, literal(-11)))
        CFI (cfiCond86) V9 load(1, XDATA, add(CFA_XSP16, literal(-10)))
        CFI (cfiCond86) V10 load(1, XDATA, add(CFA_XSP16, literal(-9)))
        CFI (cfiCond86) V11 load(1, XDATA, add(CFA_XSP16, literal(-8)))
        CFI (cfiCond86) V12 load(1, XDATA, add(CFA_XSP16, literal(-7)))
        CFI (cfiCond86) R7 load(1, XDATA, add(CFA_XSP16, literal(-6)))
        CFI (cfiCond86) ?RET_LOW load(1, XDATA, add(CFA_XSP16, literal(-5)))
        CFI (cfiCond86) ?RET_HIGH load(1, XDATA, add(CFA_XSP16, literal(-4)))
        CFI (cfiCond86) ?BRET_EXT load(1, XDATA, add(CFA_XSP16, literal(-3)))
        CFI (cfiCond86) DPL0 load(1, XDATA, add(CFA_XSP16, literal(-2)))
        CFI (cfiCond86) DPH0 load(1, XDATA, add(CFA_XSP16, literal(-1)))
        CFI (cfiCond86) CFA_SP SP+0
        CFI (cfiCond86) CFA_XSP16 add(XSP16, 35)
        CFI Block cfiPicker87 Using cfiCommon1
        CFI (cfiPicker87) NoFunction
        CFI (cfiPicker87) Picker
        INC     R6
        INC     R6
        MOV     A,R7
        ADDC    A,#0x0
        MOV     R7,A
        MOV     DPL,R6
        MOV     DPH,R7
        MOVX    A,@DPTR
        RET
        CFI EndBlock cfiCond84
        CFI EndBlock cfiCond85
        CFI EndBlock cfiCond86
        CFI EndBlock cfiPicker87

        RSEG BANKED_CODE:CODE:NOROOT(0)
?Subroutine10:
        CFI Block cfiCond88 Using cfiCommon0
        CFI NoFunction
        CFI Conditional ??CrossCallReturnLabel_4
        CFI R6 load(1, XDATA, add(CFA_XSP16, literal(-22)))
        CFI VB load(1, XDATA, add(CFA_XSP16, literal(-21)))
        CFI V0 load(1, XDATA, add(CFA_XSP16, literal(-20)))
        CFI V1 load(1, XDATA, add(CFA_XSP16, literal(-19)))
        CFI V2 load(1, XDATA, add(CFA_XSP16, literal(-18)))
        CFI V3 load(1, XDATA, add(CFA_XSP16, literal(-17)))
        CFI V4 load(1, XDATA, add(CFA_XSP16, literal(-16)))
        CFI V5 load(1, XDATA, add(CFA_XSP16, literal(-15)))
        CFI V6 load(1, XDATA, add(CFA_XSP16, literal(-14)))
        CFI V7 load(1, XDATA, add(CFA_XSP16, literal(-13)))
        CFI V8 load(1, XDATA, add(CFA_XSP16, literal(-12)))
        CFI V9 load(1, XDATA, add(CFA_XSP16, literal(-11)))
        CFI V10 load(1, XDATA, add(CFA_XSP16, literal(-10)))
        CFI V11 load(1, XDATA, add(CFA_XSP16, literal(-9)))
        CFI V12 load(1, XDATA, add(CFA_XSP16, literal(-8)))
        CFI V13 load(1, XDATA, add(CFA_XSP16, literal(-7)))
        CFI R7 load(1, XDATA, add(CFA_XSP16, literal(-6)))
        CFI ?RET_LOW load(1, XDATA, add(CFA_XSP16, literal(-5)))
        CFI ?RET_HIGH load(1, XDATA, add(CFA_XSP16, literal(-4)))
        CFI ?BRET_EXT load(1, XDATA, add(CFA_XSP16, literal(-3)))
        CFI DPL0 load(1, XDATA, add(CFA_XSP16, literal(-2)))
        CFI DPH0 load(1, XDATA, add(CFA_XSP16, literal(-1)))
        CFI CFA_SP SP+0
        CFI CFA_XSP16 add(XSP16, 36)
        CFI Block cfiCond89 Using cfiCommon0
        CFI (cfiCond89) NoFunction
        CFI (cfiCond89) Conditional ??CrossCallReturnLabel_5
        CFI (cfiCond89) R6 load(1, XDATA, add(CFA_XSP16, literal(-21)))
        CFI (cfiCond89) VB load(1, XDATA, add(CFA_XSP16, literal(-20)))
        CFI (cfiCond89) V0 load(1, XDATA, add(CFA_XSP16, literal(-19)))
        CFI (cfiCond89) V1 load(1, XDATA, add(CFA_XSP16, literal(-18)))
        CFI (cfiCond89) V2 load(1, XDATA, add(CFA_XSP16, literal(-17)))
        CFI (cfiCond89) V3 load(1, XDATA, add(CFA_XSP16, literal(-16)))
        CFI (cfiCond89) V4 load(1, XDATA, add(CFA_XSP16, literal(-15)))
        CFI (cfiCond89) V5 load(1, XDATA, add(CFA_XSP16, literal(-14)))
        CFI (cfiCond89) V6 load(1, XDATA, add(CFA_XSP16, literal(-13)))
        CFI (cfiCond89) V7 load(1, XDATA, add(CFA_XSP16, literal(-12)))
        CFI (cfiCond89) V8 load(1, XDATA, add(CFA_XSP16, literal(-11)))
        CFI (cfiCond89) V9 load(1, XDATA, add(CFA_XSP16, literal(-10)))
        CFI (cfiCond89) V10 load(1, XDATA, add(CFA_XSP16, literal(-9)))
        CFI (cfiCond89) V11 load(1, XDATA, add(CFA_XSP16, literal(-8)))
        CFI (cfiCond89) V12 load(1, XDATA, add(CFA_XSP16, literal(-7)))
        CFI (cfiCond89) R7 load(1, XDATA, add(CFA_XSP16, literal(-6)))
        CFI (cfiCond89) ?RET_LOW load(1, XDATA, add(CFA_XSP16, literal(-5)))
        CFI (cfiCond89) ?RET_HIGH load(1, XDATA, add(CFA_XSP16, literal(-4)))
        CFI (cfiCond89) ?BRET_EXT load(1, XDATA, add(CFA_XSP16, literal(-3)))
        CFI (cfiCond89) DPL0 load(1, XDATA, add(CFA_XSP16, literal(-2)))
        CFI (cfiCond89) DPH0 load(1, XDATA, add(CFA_XSP16, literal(-1)))
        CFI (cfiCond89) CFA_SP SP+0
        CFI (cfiCond89) CFA_XSP16 add(XSP16, 35)
        CFI Block cfiPicker90 Using cfiCommon1
        CFI (cfiPicker90) NoFunction
        CFI (cfiPicker90) Picker
        LCALL   ?Subroutine35 & 0xFFFF
??CrossCallReturnLabel_87:
        MOV     R0,A
        MOV     A,#0x2
        RET
        CFI EndBlock cfiCond88
        CFI EndBlock cfiCond89
        CFI EndBlock cfiPicker90

        RSEG BANKED_CODE:CODE:NOROOT(0)
?Subroutine35:
        CFI Block cfiCond91 Using cfiCommon0
        CFI NoFunction
        CFI Conditional ??CrossCallReturnLabel_86
        CFI R6 load(1, XDATA, add(CFA_XSP16, literal(-22)))
        CFI VB load(1, XDATA, add(CFA_XSP16, literal(-21)))
        CFI V0 load(1, XDATA, add(CFA_XSP16, literal(-20)))
        CFI V1 load(1, XDATA, add(CFA_XSP16, literal(-19)))
        CFI V2 load(1, XDATA, add(CFA_XSP16, literal(-18)))
        CFI V3 load(1, XDATA, add(CFA_XSP16, literal(-17)))
        CFI V4 load(1, XDATA, add(CFA_XSP16, literal(-16)))
        CFI V5 load(1, XDATA, add(CFA_XSP16, literal(-15)))
        CFI V6 load(1, XDATA, add(CFA_XSP16, literal(-14)))
        CFI V7 load(1, XDATA, add(CFA_XSP16, literal(-13)))
        CFI V8 load(1, XDATA, add(CFA_XSP16, literal(-12)))
        CFI V9 load(1, XDATA, add(CFA_XSP16, literal(-11)))
        CFI V10 load(1, XDATA, add(CFA_XSP16, literal(-10)))
        CFI V11 load(1, XDATA, add(CFA_XSP16, literal(-9)))
        CFI V12 load(1, XDATA, add(CFA_XSP16, literal(-8)))
        CFI V13 load(1, XDATA, add(CFA_XSP16, literal(-7)))
        CFI R7 load(1, XDATA, add(CFA_XSP16, literal(-6)))
        CFI ?RET_LOW load(1, XDATA, add(CFA_XSP16, literal(-5)))
        CFI ?RET_HIGH load(1, XDATA, add(CFA_XSP16, literal(-4)))
        CFI ?BRET_EXT load(1, XDATA, add(CFA_XSP16, literal(-3)))
        CFI DPL0 load(1, XDATA, add(CFA_XSP16, literal(-2)))
        CFI DPH0 load(1, XDATA, add(CFA_XSP16, literal(-1)))
        CFI CFA_SP SP+0
        CFI CFA_XSP16 add(XSP16, 36)
        CFI Block cfiCond92 Using cfiCommon0
        CFI (cfiCond92) NoFunction
        CFI (cfiCond92) Conditional ??CrossCallReturnLabel_87, ??CrossCallReturnLabel_4
        CFI (cfiCond92) R6 load(1, XDATA, add(CFA_XSP16, literal(-22)))
        CFI (cfiCond92) VB load(1, XDATA, add(CFA_XSP16, literal(-21)))
        CFI (cfiCond92) V0 load(1, XDATA, add(CFA_XSP16, literal(-20)))
        CFI (cfiCond92) V1 load(1, XDATA, add(CFA_XSP16, literal(-19)))
        CFI (cfiCond92) V2 load(1, XDATA, add(CFA_XSP16, literal(-18)))
        CFI (cfiCond92) V3 load(1, XDATA, add(CFA_XSP16, literal(-17)))
        CFI (cfiCond92) V4 load(1, XDATA, add(CFA_XSP16, literal(-16)))
        CFI (cfiCond92) V5 load(1, XDATA, add(CFA_XSP16, literal(-15)))
        CFI (cfiCond92) V6 load(1, XDATA, add(CFA_XSP16, literal(-14)))
        CFI (cfiCond92) V7 load(1, XDATA, add(CFA_XSP16, literal(-13)))
        CFI (cfiCond92) V8 load(1, XDATA, add(CFA_XSP16, literal(-12)))
        CFI (cfiCond92) V9 load(1, XDATA, add(CFA_XSP16, literal(-11)))
        CFI (cfiCond92) V10 load(1, XDATA, add(CFA_XSP16, literal(-10)))
        CFI (cfiCond92) V11 load(1, XDATA, add(CFA_XSP16, literal(-9)))
        CFI (cfiCond92) V12 load(1, XDATA, add(CFA_XSP16, literal(-8)))
        CFI (cfiCond92) V13 load(1, XDATA, add(CFA_XSP16, literal(-7)))
        CFI (cfiCond92) R7 load(1, XDATA, add(CFA_XSP16, literal(-6)))
        CFI (cfiCond92) ?RET_LOW load(1, XDATA, add(CFA_XSP16, literal(-5)))
        CFI (cfiCond92) ?RET_HIGH load(1, XDATA, add(CFA_XSP16, literal(-4)))
        CFI (cfiCond92) ?BRET_EXT load(1, XDATA, add(CFA_XSP16, literal(-3)))
        CFI (cfiCond92) DPL0 load(1, XDATA, add(CFA_XSP16, literal(-2)))
        CFI (cfiCond92) DPH0 load(1, XDATA, add(CFA_XSP16, literal(-1)))
        CFI (cfiCond92) CFA_SP SP+0
        CFI (cfiCond92) CFA_XSP16 add(XSP16, 36)
        CFI Block cfiCond93 Using cfiCommon0
        CFI (cfiCond93) NoFunction
        CFI (cfiCond93) Conditional ??CrossCallReturnLabel_87, ??CrossCallReturnLabel_5
        CFI (cfiCond93) R6 load(1, XDATA, add(CFA_XSP16, literal(-21)))
        CFI (cfiCond93) VB load(1, XDATA, add(CFA_XSP16, literal(-20)))
        CFI (cfiCond93) V0 load(1, XDATA, add(CFA_XSP16, literal(-19)))
        CFI (cfiCond93) V1 load(1, XDATA, add(CFA_XSP16, literal(-18)))
        CFI (cfiCond93) V2 load(1, XDATA, add(CFA_XSP16, literal(-17)))
        CFI (cfiCond93) V3 load(1, XDATA, add(CFA_XSP16, literal(-16)))
        CFI (cfiCond93) V4 load(1, XDATA, add(CFA_XSP16, literal(-15)))
        CFI (cfiCond93) V5 load(1, XDATA, add(CFA_XSP16, literal(-14)))
        CFI (cfiCond93) V6 load(1, XDATA, add(CFA_XSP16, literal(-13)))
        CFI (cfiCond93) V7 load(1, XDATA, add(CFA_XSP16, literal(-12)))
        CFI (cfiCond93) V8 load(1, XDATA, add(CFA_XSP16, literal(-11)))
        CFI (cfiCond93) V9 load(1, XDATA, add(CFA_XSP16, literal(-10)))
        CFI (cfiCond93) V10 load(1, XDATA, add(CFA_XSP16, literal(-9)))
        CFI (cfiCond93) V11 load(1, XDATA, add(CFA_XSP16, literal(-8)))
        CFI (cfiCond93) V12 load(1, XDATA, add(CFA_XSP16, literal(-7)))
        CFI (cfiCond93) R7 load(1, XDATA, add(CFA_XSP16, literal(-6)))
        CFI (cfiCond93) ?RET_LOW load(1, XDATA, add(CFA_XSP16, literal(-5)))
        CFI (cfiCond93) ?RET_HIGH load(1, XDATA, add(CFA_XSP16, literal(-4)))
        CFI (cfiCond93) ?BRET_EXT load(1, XDATA, add(CFA_XSP16, literal(-3)))
        CFI (cfiCond93) DPL0 load(1, XDATA, add(CFA_XSP16, literal(-2)))
        CFI (cfiCond93) DPH0 load(1, XDATA, add(CFA_XSP16, literal(-1)))
        CFI (cfiCond93) CFA_SP SP+0
        CFI (cfiCond93) CFA_XSP16 add(XSP16, 35)
        CFI Block cfiCond94 Using cfiCommon0
        CFI (cfiCond94) NoFunction
        CFI (cfiCond94) Conditional ??CrossCallReturnLabel_88, ??CrossCallReturnLabel_84
        CFI (cfiCond94) R6 load(1, XDATA, add(CFA_XSP16, literal(-21)))
        CFI (cfiCond94) VB load(1, XDATA, add(CFA_XSP16, literal(-20)))
        CFI (cfiCond94) V0 load(1, XDATA, add(CFA_XSP16, literal(-19)))
        CFI (cfiCond94) V1 load(1, XDATA, add(CFA_XSP16, literal(-18)))
        CFI (cfiCond94) V2 load(1, XDATA, add(CFA_XSP16, literal(-17)))
        CFI (cfiCond94) V3 load(1, XDATA, add(CFA_XSP16, literal(-16)))
        CFI (cfiCond94) V4 load(1, XDATA, add(CFA_XSP16, literal(-15)))
        CFI (cfiCond94) V5 load(1, XDATA, add(CFA_XSP16, literal(-14)))
        CFI (cfiCond94) V6 load(1, XDATA, add(CFA_XSP16, literal(-13)))
        CFI (cfiCond94) V7 load(1, XDATA, add(CFA_XSP16, literal(-12)))
        CFI (cfiCond94) V8 load(1, XDATA, add(CFA_XSP16, literal(-11)))
        CFI (cfiCond94) V9 load(1, XDATA, add(CFA_XSP16, literal(-10)))
        CFI (cfiCond94) V10 load(1, XDATA, add(CFA_XSP16, literal(-9)))
        CFI (cfiCond94) V11 load(1, XDATA, add(CFA_XSP16, literal(-8)))
        CFI (cfiCond94) V12 load(1, XDATA, add(CFA_XSP16, literal(-7)))
        CFI (cfiCond94) R7 load(1, XDATA, add(CFA_XSP16, literal(-6)))
        CFI (cfiCond94) ?RET_LOW load(1, XDATA, add(CFA_XSP16, literal(-5)))
        CFI (cfiCond94) ?RET_HIGH load(1, XDATA, add(CFA_XSP16, literal(-4)))
        CFI (cfiCond94) ?BRET_EXT load(1, XDATA, add(CFA_XSP16, literal(-3)))
        CFI (cfiCond94) DPL0 load(1, XDATA, add(CFA_XSP16, literal(-2)))
        CFI (cfiCond94) DPH0 load(1, XDATA, add(CFA_XSP16, literal(-1)))
        CFI (cfiCond94) CFA_SP SP+0
        CFI (cfiCond94) CFA_XSP16 add(XSP16, 35)
        CFI Block cfiCond95 Using cfiCommon0
        CFI (cfiCond95) NoFunction
        CFI (cfiCond95) Conditional ??CrossCallReturnLabel_88, ??CrossCallReturnLabel_85
        CFI (cfiCond95) R6 load(1, XDATA, add(CFA_XSP16, literal(-20)))
        CFI (cfiCond95) VB load(1, XDATA, add(CFA_XSP16, literal(-19)))
        CFI (cfiCond95) V0 load(1, XDATA, add(CFA_XSP16, literal(-18)))
        CFI (cfiCond95) V1 load(1, XDATA, add(CFA_XSP16, literal(-17)))
        CFI (cfiCond95) V2 load(1, XDATA, add(CFA_XSP16, literal(-16)))
        CFI (cfiCond95) V3 load(1, XDATA, add(CFA_XSP16, literal(-15)))
        CFI (cfiCond95) V4 load(1, XDATA, add(CFA_XSP16, literal(-14)))
        CFI (cfiCond95) V5 load(1, XDATA, add(CFA_XSP16, literal(-13)))
        CFI (cfiCond95) V6 load(1, XDATA, add(CFA_XSP16, literal(-12)))
        CFI (cfiCond95) V7 load(1, XDATA, add(CFA_XSP16, literal(-11)))
        CFI (cfiCond95) V8 load(1, XDATA, add(CFA_XSP16, literal(-10)))
        CFI (cfiCond95) V9 load(1, XDATA, add(CFA_XSP16, literal(-9)))
        CFI (cfiCond95) V10 load(1, XDATA, add(CFA_XSP16, literal(-8)))
        CFI (cfiCond95) V11 load(1, XDATA, add(CFA_XSP16, literal(-7)))
        CFI (cfiCond95) R7 load(1, XDATA, add(CFA_XSP16, literal(-6)))
        CFI (cfiCond95) ?RET_LOW load(1, XDATA, add(CFA_XSP16, literal(-5)))
        CFI (cfiCond95) ?RET_HIGH load(1, XDATA, add(CFA_XSP16, literal(-4)))
        CFI (cfiCond95) ?BRET_EXT load(1, XDATA, add(CFA_XSP16, literal(-3)))
        CFI (cfiCond95) DPL0 load(1, XDATA, add(CFA_XSP16, literal(-2)))
        CFI (cfiCond95) DPH0 load(1, XDATA, add(CFA_XSP16, literal(-1)))
        CFI (cfiCond95) CFA_SP SP+0
        CFI (cfiCond95) CFA_XSP16 add(XSP16, 20)
        CFI Block cfiCond96 Using cfiCommon0
        CFI (cfiCond96) NoFunction
        CFI (cfiCond96) Conditional ??CrossCallReturnLabel_88, ??CrossCallReturnLabel_83
        CFI (cfiCond96) R6 load(1, XDATA, add(CFA_XSP16, literal(-22)))
        CFI (cfiCond96) VB load(1, XDATA, add(CFA_XSP16, literal(-21)))
        CFI (cfiCond96) V0 load(1, XDATA, add(CFA_XSP16, literal(-20)))
        CFI (cfiCond96) V1 load(1, XDATA, add(CFA_XSP16, literal(-19)))
        CFI (cfiCond96) V2 load(1, XDATA, add(CFA_XSP16, literal(-18)))
        CFI (cfiCond96) V3 load(1, XDATA, add(CFA_XSP16, literal(-17)))
        CFI (cfiCond96) V4 load(1, XDATA, add(CFA_XSP16, literal(-16)))
        CFI (cfiCond96) V5 load(1, XDATA, add(CFA_XSP16, literal(-15)))
        CFI (cfiCond96) V6 load(1, XDATA, add(CFA_XSP16, literal(-14)))
        CFI (cfiCond96) V7 load(1, XDATA, add(CFA_XSP16, literal(-13)))
        CFI (cfiCond96) V8 load(1, XDATA, add(CFA_XSP16, literal(-12)))
        CFI (cfiCond96) V9 load(1, XDATA, add(CFA_XSP16, literal(-11)))
        CFI (cfiCond96) V10 load(1, XDATA, add(CFA_XSP16, literal(-10)))
        CFI (cfiCond96) V11 load(1, XDATA, add(CFA_XSP16, literal(-9)))
        CFI (cfiCond96) V12 load(1, XDATA, add(CFA_XSP16, literal(-8)))
        CFI (cfiCond96) V13 load(1, XDATA, add(CFA_XSP16, literal(-7)))
        CFI (cfiCond96) R7 load(1, XDATA, add(CFA_XSP16, literal(-6)))
        CFI (cfiCond96) ?RET_LOW load(1, XDATA, add(CFA_XSP16, literal(-5)))
        CFI (cfiCond96) ?RET_HIGH load(1, XDATA, add(CFA_XSP16, literal(-4)))
        CFI (cfiCond96) ?BRET_EXT load(1, XDATA, add(CFA_XSP16, literal(-3)))
        CFI (cfiCond96) DPL0 load(1, XDATA, add(CFA_XSP16, literal(-2)))
        CFI (cfiCond96) DPH0 load(1, XDATA, add(CFA_XSP16, literal(-1)))
        CFI (cfiCond96) CFA_SP SP+0
        CFI (cfiCond96) CFA_XSP16 add(XSP16, 36)
        CFI Block cfiPicker97 Using cfiCommon1
        CFI (cfiPicker97) NoFunction
        CFI (cfiPicker97) Picker
        LCALL   ??Subroutine52_0 & 0xFFFF
??CrossCallReturnLabel_94:
        MOV     R1,A
        MOV     A,R2
        RET
        CFI EndBlock cfiCond91
        CFI EndBlock cfiCond92
        CFI EndBlock cfiCond93
        CFI EndBlock cfiCond94
        CFI EndBlock cfiCond95
        CFI EndBlock cfiCond96
        CFI EndBlock cfiPicker97

        RSEG BANKED_CODE:CODE:NOROOT(0)
?Subroutine9:
        CFI Block cfiCond98 Using cfiCommon0
        CFI NoFunction
        CFI Conditional ??CrossCallReturnLabel_84
        CFI R6 load(1, XDATA, add(CFA_XSP16, literal(-21)))
        CFI VB load(1, XDATA, add(CFA_XSP16, literal(-20)))
        CFI V0 load(1, XDATA, add(CFA_XSP16, literal(-19)))
        CFI V1 load(1, XDATA, add(CFA_XSP16, literal(-18)))
        CFI V2 load(1, XDATA, add(CFA_XSP16, literal(-17)))
        CFI V3 load(1, XDATA, add(CFA_XSP16, literal(-16)))
        CFI V4 load(1, XDATA, add(CFA_XSP16, literal(-15)))
        CFI V5 load(1, XDATA, add(CFA_XSP16, literal(-14)))
        CFI V6 load(1, XDATA, add(CFA_XSP16, literal(-13)))
        CFI V7 load(1, XDATA, add(CFA_XSP16, literal(-12)))
        CFI V8 load(1, XDATA, add(CFA_XSP16, literal(-11)))
        CFI V9 load(1, XDATA, add(CFA_XSP16, literal(-10)))
        CFI V10 load(1, XDATA, add(CFA_XSP16, literal(-9)))
        CFI V11 load(1, XDATA, add(CFA_XSP16, literal(-8)))
        CFI V12 load(1, XDATA, add(CFA_XSP16, literal(-7)))
        CFI R7 load(1, XDATA, add(CFA_XSP16, literal(-6)))
        CFI ?RET_LOW load(1, XDATA, add(CFA_XSP16, literal(-5)))
        CFI ?RET_HIGH load(1, XDATA, add(CFA_XSP16, literal(-4)))
        CFI ?BRET_EXT load(1, XDATA, add(CFA_XSP16, literal(-3)))
        CFI DPL0 load(1, XDATA, add(CFA_XSP16, literal(-2)))
        CFI DPH0 load(1, XDATA, add(CFA_XSP16, literal(-1)))
        CFI CFA_SP SP+0
        CFI CFA_XSP16 add(XSP16, 35)
        CFI Block cfiCond99 Using cfiCommon0
        CFI (cfiCond99) NoFunction
        CFI (cfiCond99) Conditional ??CrossCallReturnLabel_85
        CFI (cfiCond99) R6 load(1, XDATA, add(CFA_XSP16, literal(-20)))
        CFI (cfiCond99) VB load(1, XDATA, add(CFA_XSP16, literal(-19)))
        CFI (cfiCond99) V0 load(1, XDATA, add(CFA_XSP16, literal(-18)))
        CFI (cfiCond99) V1 load(1, XDATA, add(CFA_XSP16, literal(-17)))
        CFI (cfiCond99) V2 load(1, XDATA, add(CFA_XSP16, literal(-16)))
        CFI (cfiCond99) V3 load(1, XDATA, add(CFA_XSP16, literal(-15)))
        CFI (cfiCond99) V4 load(1, XDATA, add(CFA_XSP16, literal(-14)))
        CFI (cfiCond99) V5 load(1, XDATA, add(CFA_XSP16, literal(-13)))
        CFI (cfiCond99) V6 load(1, XDATA, add(CFA_XSP16, literal(-12)))
        CFI (cfiCond99) V7 load(1, XDATA, add(CFA_XSP16, literal(-11)))
        CFI (cfiCond99) V8 load(1, XDATA, add(CFA_XSP16, literal(-10)))
        CFI (cfiCond99) V9 load(1, XDATA, add(CFA_XSP16, literal(-9)))
        CFI (cfiCond99) V10 load(1, XDATA, add(CFA_XSP16, literal(-8)))
        CFI (cfiCond99) V11 load(1, XDATA, add(CFA_XSP16, literal(-7)))
        CFI (cfiCond99) R7 load(1, XDATA, add(CFA_XSP16, literal(-6)))
        CFI (cfiCond99) ?RET_LOW load(1, XDATA, add(CFA_XSP16, literal(-5)))
        CFI (cfiCond99) ?RET_HIGH load(1, XDATA, add(CFA_XSP16, literal(-4)))
        CFI (cfiCond99) ?BRET_EXT load(1, XDATA, add(CFA_XSP16, literal(-3)))
        CFI (cfiCond99) DPL0 load(1, XDATA, add(CFA_XSP16, literal(-2)))
        CFI (cfiCond99) DPH0 load(1, XDATA, add(CFA_XSP16, literal(-1)))
        CFI (cfiCond99) CFA_SP SP+0
        CFI (cfiCond99) CFA_XSP16 add(XSP16, 20)
        CFI Block cfiPicker100 Using cfiCommon1
        CFI (cfiPicker100) NoFunction
        CFI (cfiPicker100) Picker
        MOV     DPL,R6
        MOV     DPH,R7
        CFI EndBlock cfiCond98
        CFI EndBlock cfiCond99
        CFI EndBlock cfiPicker100
        REQUIRE ??Subroutine50_0
        ; // Fall through to label ??Subroutine50_0

        RSEG BANKED_CODE:CODE:NOROOT(0)
??Subroutine50_0:
        CFI Block cfiCond101 Using cfiCommon0
        CFI NoFunction
        CFI Conditional ??CrossCallReturnLabel_83
        CFI R6 load(1, XDATA, add(CFA_XSP16, literal(-22)))
        CFI VB load(1, XDATA, add(CFA_XSP16, literal(-21)))
        CFI V0 load(1, XDATA, add(CFA_XSP16, literal(-20)))
        CFI V1 load(1, XDATA, add(CFA_XSP16, literal(-19)))
        CFI V2 load(1, XDATA, add(CFA_XSP16, literal(-18)))
        CFI V3 load(1, XDATA, add(CFA_XSP16, literal(-17)))
        CFI V4 load(1, XDATA, add(CFA_XSP16, literal(-16)))
        CFI V5 load(1, XDATA, add(CFA_XSP16, literal(-15)))
        CFI V6 load(1, XDATA, add(CFA_XSP16, literal(-14)))
        CFI V7 load(1, XDATA, add(CFA_XSP16, literal(-13)))
        CFI V8 load(1, XDATA, add(CFA_XSP16, literal(-12)))
        CFI V9 load(1, XDATA, add(CFA_XSP16, literal(-11)))
        CFI V10 load(1, XDATA, add(CFA_XSP16, literal(-10)))
        CFI V11 load(1, XDATA, add(CFA_XSP16, literal(-9)))
        CFI V12 load(1, XDATA, add(CFA_XSP16, literal(-8)))
        CFI V13 load(1, XDATA, add(CFA_XSP16, literal(-7)))
        CFI R7 load(1, XDATA, add(CFA_XSP16, literal(-6)))
        CFI ?RET_LOW load(1, XDATA, add(CFA_XSP16, literal(-5)))
        CFI ?RET_HIGH load(1, XDATA, add(CFA_XSP16, literal(-4)))
        CFI ?BRET_EXT load(1, XDATA, add(CFA_XSP16, literal(-3)))
        CFI DPL0 load(1, XDATA, add(CFA_XSP16, literal(-2)))
        CFI DPH0 load(1, XDATA, add(CFA_XSP16, literal(-1)))
        CFI CFA_SP SP+0
        CFI CFA_XSP16 add(XSP16, 36)
        CFI Block cfiCond102 Using cfiCommon0
        CFI (cfiCond102) NoFunction
        CFI (cfiCond102) Conditional ??CrossCallReturnLabel_84
        CFI (cfiCond102) R6 load(1, XDATA, add(CFA_XSP16, literal(-21)))
        CFI (cfiCond102) VB load(1, XDATA, add(CFA_XSP16, literal(-20)))
        CFI (cfiCond102) V0 load(1, XDATA, add(CFA_XSP16, literal(-19)))
        CFI (cfiCond102) V1 load(1, XDATA, add(CFA_XSP16, literal(-18)))
        CFI (cfiCond102) V2 load(1, XDATA, add(CFA_XSP16, literal(-17)))
        CFI (cfiCond102) V3 load(1, XDATA, add(CFA_XSP16, literal(-16)))
        CFI (cfiCond102) V4 load(1, XDATA, add(CFA_XSP16, literal(-15)))
        CFI (cfiCond102) V5 load(1, XDATA, add(CFA_XSP16, literal(-14)))
        CFI (cfiCond102) V6 load(1, XDATA, add(CFA_XSP16, literal(-13)))
        CFI (cfiCond102) V7 load(1, XDATA, add(CFA_XSP16, literal(-12)))
        CFI (cfiCond102) V8 load(1, XDATA, add(CFA_XSP16, literal(-11)))
        CFI (cfiCond102) V9 load(1, XDATA, add(CFA_XSP16, literal(-10)))
        CFI (cfiCond102) V10 load(1, XDATA, add(CFA_XSP16, literal(-9)))
        CFI (cfiCond102) V11 load(1, XDATA, add(CFA_XSP16, literal(-8)))
        CFI (cfiCond102) V12 load(1, XDATA, add(CFA_XSP16, literal(-7)))
        CFI (cfiCond102) R7 load(1, XDATA, add(CFA_XSP16, literal(-6)))
        CFI (cfiCond102) ?RET_LOW load(1, XDATA, add(CFA_XSP16, literal(-5)))
        CFI (cfiCond102) ?RET_HIGH load(1, XDATA, add(CFA_XSP16, literal(-4)))
        CFI (cfiCond102) ?BRET_EXT load(1, XDATA, add(CFA_XSP16, literal(-3)))
        CFI (cfiCond102) DPL0 load(1, XDATA, add(CFA_XSP16, literal(-2)))
        CFI (cfiCond102) DPH0 load(1, XDATA, add(CFA_XSP16, literal(-1)))
        CFI (cfiCond102) CFA_SP SP+0
        CFI (cfiCond102) CFA_XSP16 add(XSP16, 35)
        CFI Block cfiCond103 Using cfiCommon0
        CFI (cfiCond103) NoFunction
        CFI (cfiCond103) Conditional ??CrossCallReturnLabel_85
        CFI (cfiCond103) R6 load(1, XDATA, add(CFA_XSP16, literal(-20)))
        CFI (cfiCond103) VB load(1, XDATA, add(CFA_XSP16, literal(-19)))
        CFI (cfiCond103) V0 load(1, XDATA, add(CFA_XSP16, literal(-18)))
        CFI (cfiCond103) V1 load(1, XDATA, add(CFA_XSP16, literal(-17)))
        CFI (cfiCond103) V2 load(1, XDATA, add(CFA_XSP16, literal(-16)))
        CFI (cfiCond103) V3 load(1, XDATA, add(CFA_XSP16, literal(-15)))
        CFI (cfiCond103) V4 load(1, XDATA, add(CFA_XSP16, literal(-14)))
        CFI (cfiCond103) V5 load(1, XDATA, add(CFA_XSP16, literal(-13)))
        CFI (cfiCond103) V6 load(1, XDATA, add(CFA_XSP16, literal(-12)))
        CFI (cfiCond103) V7 load(1, XDATA, add(CFA_XSP16, literal(-11)))
        CFI (cfiCond103) V8 load(1, XDATA, add(CFA_XSP16, literal(-10)))
        CFI (cfiCond103) V9 load(1, XDATA, add(CFA_XSP16, literal(-9)))
        CFI (cfiCond103) V10 load(1, XDATA, add(CFA_XSP16, literal(-8)))
        CFI (cfiCond103) V11 load(1, XDATA, add(CFA_XSP16, literal(-7)))
        CFI (cfiCond103) R7 load(1, XDATA, add(CFA_XSP16, literal(-6)))
        CFI (cfiCond103) ?RET_LOW load(1, XDATA, add(CFA_XSP16, literal(-5)))
        CFI (cfiCond103) ?RET_HIGH load(1, XDATA, add(CFA_XSP16, literal(-4)))
        CFI (cfiCond103) ?BRET_EXT load(1, XDATA, add(CFA_XSP16, literal(-3)))
        CFI (cfiCond103) DPL0 load(1, XDATA, add(CFA_XSP16, literal(-2)))
        CFI (cfiCond103) DPH0 load(1, XDATA, add(CFA_XSP16, literal(-1)))
        CFI (cfiCond103) CFA_SP SP+0
        CFI (cfiCond103) CFA_XSP16 add(XSP16, 20)
        CFI Block cfiPicker104 Using cfiCommon1
        CFI (cfiPicker104) NoFunction
        CFI (cfiPicker104) Picker
        LCALL   ?Subroutine35 & 0xFFFF
??CrossCallReturnLabel_88:
        ADD     A,#0x0
        RET
        CFI EndBlock cfiCond101
        CFI EndBlock cfiCond102
        CFI EndBlock cfiCond103
        CFI EndBlock cfiPicker104
//  515 #endif
//  516 
//  517 #if defined INTER_PAN
//  518 /***************************************************************************************************
//  519  * @fn      MT_AfInterPanCtl
//  520  *
//  521  * @brief   Process the AF Inter Pan control command.
//  522  *
//  523  * @param   pBuf - pointer to the received buffer
//  524  *
//  525  * @return  none
//  526  ***************************************************************************************************/
//  527 static void MT_AfInterPanCtl(uint8 *pBuf)
//  528 {
//  529   uint8 cmd, rtrn;
//  530   uint16 panId;
//  531   endPointDesc_t *pEP;
//  532 
//  533   cmd = pBuf[MT_RPC_POS_CMD1];
//  534   pBuf += MT_RPC_FRAME_HDR_SZ;
//  535 
//  536   switch (*pBuf++)  // Inter-pan request parameter.
//  537   {
//  538   case InterPanClr:
//  539     rtrn = StubAPS_SetIntraPanChannel();           // Switch channel back to the NIB channel.
//  540     break;
//  541 
//  542   case InterPanSet:
//  543     rtrn = StubAPS_SetInterPanChannel(*pBuf);      // Set channel for inter-pan communication.
//  544     break;
//  545 
//  546   case InterPanReg:
//  547     if ((pEP = afFindEndPointDesc(*pBuf)))
//  548     {
//  549       StubAPS_RegisterApp(pEP);
//  550       rtrn = SUCCESS;
//  551     }
//  552     else
//  553     {
//  554       rtrn = FAILURE;
//  555     }
//  556     break;
//  557 
//  558   case InterPanChk:
//  559     panId = BUILD_UINT16(pBuf[0], pBuf[1]);
//  560     rtrn = (StubAPS_InterPan(panId, pBuf[2])) ? ZSuccess : ZFailure;
//  561     break;
//  562 
//  563   default:
//  564     rtrn = afStatus_INVALID_PARAMETER;
//  565     break;
//  566   }
//  567 
//  568   MT_BuildAndSendZToolResponse(((uint8)MT_RPC_CMD_SRSP | (uint8)MT_RPC_SYS_AF), cmd, 1, &rtrn);
//  569 }
//  570 #endif
//  571 
//  572 /***************************************************************************************************
//  573  * @fn      MT_AfDataConfirm
//  574  *
//  575  * @brief   Process
//  576  *
//  577  * @param   pBuf - pointer to the received buffer
//  578  *
//  579  * @return  none
//  580  ***************************************************************************************************/

        RSEG BANKED_CODE:CODE:NOROOT(0)
//  581 void MT_AfDataConfirm(afDataConfirm_t *pMsg)
MT_AfDataConfirm:
        CFI Block cfiBlock105 Using cfiCommon0
        CFI Function MT_AfDataConfirm
        CODE
//  582 {
        FUNCALL MT_AfDataConfirm, MT_BuildAndSendZToolResponse
        LOCFRAME ISTACK, 2, STACK
        LOCFRAME PSTACK, 0, STACK
        LOCFRAME XSTACK, 3, STACK
        LOCFRAME IOVERLAY, 0, STATIC
        LOCFRAME DOVERLAY, 0, STATIC
        ARGFRAME ISTACK, 2, STACK
        ARGFRAME PSTACK, 0, STACK
        ARGFRAME XSTACK, 3, STACK
        ARGFRAME IOVERLAY, 0, STATIC
        ARGFRAME DOVERLAY, 0, STATIC
        PUSH    DPL
        CFI DPL0 Frame(CFA_SP, 4)
        CFI CFA_SP SP+-4
        PUSH    DPH
        CFI DPH0 Frame(CFA_SP, 5)
        CFI CFA_SP SP+-5
        ; Saved register size: 2
        ; Auto size: 3
        MOV     A,#-0x3
        LCALL   ?ALLOC_XSTACK8
        CFI CFA_XSP16 add(XSP16, 3)
//  583   uint8 retArray[3];
//  584 
//  585   retArray[0] = pMsg->hdr.status;
        MOV     DPL,R2
        MOV     DPH,R3
        INC     DPTR
        MOVX    A,@DPTR
        MOV     DPL,?XSP + 0
        MOV     DPH,?XSP + 1
        LCALL   ?Subroutine27 & 0xFFFF
//  586   retArray[1] = pMsg->endpoint;
??CrossCallReturnLabel_35:
        PUSH    A
        CFI CFA_SP SP+-6
        MOV     A,#0x1
        LCALL   ?XSTACK_DISP0_8
        POP     A
        CFI CFA_SP SP+-5
        LCALL   ?Subroutine28 & 0xFFFF
//  587   retArray[2] = pMsg->transID;
??CrossCallReturnLabel_37:
        INC     DPTR
        INC     DPTR
        MOVX    A,@DPTR
        PUSH    A
        CFI CFA_SP SP+-6
        MOV     A,#0x2
        LCALL   ?XSTACK_DISP0_8
        POP     A
        CFI CFA_SP SP+-5
        LCALL   ?Subroutine23 & 0xFFFF
//  588 
//  589   /* Build and send back the response */
//  590   MT_BuildAndSendZToolResponse(((uint8)MT_RPC_CMD_AREQ | (uint8)MT_RPC_SYS_AF), MT_AF_DATA_CONFIRM, 3, retArray);
??CrossCallReturnLabel_24:
        MOV     R3,#0x3
        MOV     R2,#-0x80
        MOV     R1,#0x44
        LCALL   ??MT_BuildAndSendZToolResponse?relay
//  591 }
        MOV     A,#0x3
        LCALL   ?DEALLOC_XSTACK8
        CFI CFA_XSP16 XSP16+0
        POP     DPH
        CFI DPH0 SameValue
        CFI CFA_SP SP+-4
        POP     DPL
        CFI DPL0 SameValue
        CFI CFA_SP SP+-3
        LJMP    ?BRET
        CFI EndBlock cfiBlock105

        RSEG BANKED_CODE:CODE:NOROOT(0)
?Subroutine28:
        CFI Block cfiCond106 Using cfiCommon0
        CFI NoFunction
        CFI Conditional ??CrossCallReturnLabel_36
        CFI R6 load(1, XDATA, add(CFA_XSP16, literal(-22)))
        CFI VB load(1, XDATA, add(CFA_XSP16, literal(-21)))
        CFI V0 load(1, XDATA, add(CFA_XSP16, literal(-20)))
        CFI V1 load(1, XDATA, add(CFA_XSP16, literal(-19)))
        CFI V2 load(1, XDATA, add(CFA_XSP16, literal(-18)))
        CFI V3 load(1, XDATA, add(CFA_XSP16, literal(-17)))
        CFI V4 load(1, XDATA, add(CFA_XSP16, literal(-16)))
        CFI V5 load(1, XDATA, add(CFA_XSP16, literal(-15)))
        CFI V6 load(1, XDATA, add(CFA_XSP16, literal(-14)))
        CFI V7 load(1, XDATA, add(CFA_XSP16, literal(-13)))
        CFI V8 load(1, XDATA, add(CFA_XSP16, literal(-12)))
        CFI V9 load(1, XDATA, add(CFA_XSP16, literal(-11)))
        CFI V10 load(1, XDATA, add(CFA_XSP16, literal(-10)))
        CFI V11 load(1, XDATA, add(CFA_XSP16, literal(-9)))
        CFI V12 load(1, XDATA, add(CFA_XSP16, literal(-8)))
        CFI V13 load(1, XDATA, add(CFA_XSP16, literal(-7)))
        CFI R7 load(1, XDATA, add(CFA_XSP16, literal(-6)))
        CFI ?RET_LOW load(1, XDATA, add(CFA_XSP16, literal(-5)))
        CFI ?RET_HIGH load(1, XDATA, add(CFA_XSP16, literal(-4)))
        CFI ?BRET_EXT load(1, XDATA, add(CFA_XSP16, literal(-3)))
        CFI DPL0 load(1, XDATA, add(CFA_XSP16, literal(-2)))
        CFI DPH0 load(1, XDATA, add(CFA_XSP16, literal(-1)))
        CFI CFA_SP SP+0
        CFI CFA_XSP16 add(XSP16, 36)
        CFI Block cfiCond107 Using cfiCommon0
        CFI (cfiCond107) NoFunction
        CFI (cfiCond107) Conditional ??CrossCallReturnLabel_37
        CFI (cfiCond107) DPL0 Frame(CFA_SP, 4)
        CFI (cfiCond107) DPH0 Frame(CFA_SP, 5)
        CFI (cfiCond107) CFA_SP SP+-5
        CFI (cfiCond107) CFA_XSP16 add(XSP16, 3)
        CFI Block cfiCond108 Using cfiCommon0
        CFI (cfiCond108) NoFunction
        CFI (cfiCond108) Conditional ??CrossCallReturnLabel_38
        CFI (cfiCond108) R6 load(1, XDATA, add(CFA_XSP16, literal(-24)))
        CFI (cfiCond108) VB load(1, XDATA, add(CFA_XSP16, literal(-23)))
        CFI (cfiCond108) V0 load(1, XDATA, add(CFA_XSP16, literal(-22)))
        CFI (cfiCond108) V1 load(1, XDATA, add(CFA_XSP16, literal(-21)))
        CFI (cfiCond108) V2 load(1, XDATA, add(CFA_XSP16, literal(-20)))
        CFI (cfiCond108) V3 load(1, XDATA, add(CFA_XSP16, literal(-19)))
        CFI (cfiCond108) V4 load(1, XDATA, add(CFA_XSP16, literal(-18)))
        CFI (cfiCond108) V5 load(1, XDATA, add(CFA_XSP16, literal(-17)))
        CFI (cfiCond108) V6 load(1, XDATA, add(CFA_XSP16, literal(-16)))
        CFI (cfiCond108) V7 load(1, XDATA, add(CFA_XSP16, literal(-15)))
        CFI (cfiCond108) V8 load(1, XDATA, add(CFA_XSP16, literal(-14)))
        CFI (cfiCond108) V9 load(1, XDATA, add(CFA_XSP16, literal(-13)))
        CFI (cfiCond108) V10 load(1, XDATA, add(CFA_XSP16, literal(-12)))
        CFI (cfiCond108) V11 load(1, XDATA, add(CFA_XSP16, literal(-11)))
        CFI (cfiCond108) V12 load(1, XDATA, add(CFA_XSP16, literal(-10)))
        CFI (cfiCond108) V13 load(1, XDATA, add(CFA_XSP16, literal(-9)))
        CFI (cfiCond108) V14 load(1, XDATA, add(CFA_XSP16, literal(-8)))
        CFI (cfiCond108) V15 load(1, XDATA, add(CFA_XSP16, literal(-7)))
        CFI (cfiCond108) R7 load(1, XDATA, add(CFA_XSP16, literal(-6)))
        CFI (cfiCond108) ?RET_LOW load(1, XDATA, add(CFA_XSP16, literal(-5)))
        CFI (cfiCond108) ?RET_HIGH load(1, XDATA, add(CFA_XSP16, literal(-4)))
        CFI (cfiCond108) ?BRET_EXT load(1, XDATA, add(CFA_XSP16, literal(-3)))
        CFI (cfiCond108) DPL0 load(1, XDATA, add(CFA_XSP16, literal(-2)))
        CFI (cfiCond108) DPH0 load(1, XDATA, add(CFA_XSP16, literal(-1)))
        CFI (cfiCond108) CFA_SP SP+0
        CFI (cfiCond108) CFA_XSP16 add(XSP16, 25)
        CFI Block cfiPicker109 Using cfiCommon1
        CFI (cfiPicker109) NoFunction
        CFI (cfiPicker109) Picker
        MOVX    @DPTR,A
        MOV     DPL,R2
        MOV     DPH,R3
        INC     DPTR
        RET
        CFI EndBlock cfiCond106
        CFI EndBlock cfiCond107
        CFI EndBlock cfiCond108
        CFI EndBlock cfiPicker109

        RSEG BANKED_CODE:CODE:NOROOT(0)
?Subroutine27:
        CFI Block cfiCond110 Using cfiCommon0
        CFI NoFunction
        CFI Conditional ??CrossCallReturnLabel_34
        CFI R6 load(1, XDATA, add(CFA_XSP16, literal(-14)))
        CFI VB load(1, XDATA, add(CFA_XSP16, literal(-13)))
        CFI V0 load(1, XDATA, add(CFA_XSP16, literal(-12)))
        CFI V1 load(1, XDATA, add(CFA_XSP16, literal(-11)))
        CFI V2 load(1, XDATA, add(CFA_XSP16, literal(-10)))
        CFI V3 load(1, XDATA, add(CFA_XSP16, literal(-9)))
        CFI V4 load(1, XDATA, add(CFA_XSP16, literal(-8)))
        CFI V5 load(1, XDATA, add(CFA_XSP16, literal(-7)))
        CFI R7 load(1, XDATA, add(CFA_XSP16, literal(-6)))
        CFI ?RET_LOW load(1, XDATA, add(CFA_XSP16, literal(-5)))
        CFI ?RET_HIGH load(1, XDATA, add(CFA_XSP16, literal(-4)))
        CFI ?BRET_EXT load(1, XDATA, add(CFA_XSP16, literal(-3)))
        CFI DPL0 load(1, XDATA, add(CFA_XSP16, literal(-2)))
        CFI DPH0 load(1, XDATA, add(CFA_XSP16, literal(-1)))
        CFI CFA_SP SP+0
        CFI CFA_XSP16 add(XSP16, 15)
        CFI Block cfiCond111 Using cfiCommon0
        CFI (cfiCond111) NoFunction
        CFI (cfiCond111) Conditional ??CrossCallReturnLabel_35
        CFI (cfiCond111) DPL0 Frame(CFA_SP, 4)
        CFI (cfiCond111) DPH0 Frame(CFA_SP, 5)
        CFI (cfiCond111) CFA_SP SP+-5
        CFI (cfiCond111) CFA_XSP16 add(XSP16, 3)
        CFI Block cfiPicker112 Using cfiCommon1
        CFI (cfiPicker112) NoFunction
        CFI (cfiPicker112) Picker
        MOVX    @DPTR,A
        MOV     DPL,R2
        MOV     DPH,R3
        INC     DPTR
        INC     DPTR
        MOVX    A,@DPTR
        RET
        CFI EndBlock cfiCond110
        CFI EndBlock cfiCond111
        CFI EndBlock cfiPicker112
//  592 
//  593 /***************************************************************************************************
//  594  * @fn          MT_AfIncomingMsg
//  595  *
//  596  * @brief       Process the callback subscription for AF Incoming data.
//  597  *
//  598  * @param       pkt - Incoming AF data.
//  599  *
//  600  * @return      none
//  601  ***************************************************************************************************/

        RSEG BANKED_CODE:CODE:NOROOT(0)
//  602 void MT_AfIncomingMsg(afIncomingMSGPacket_t *pMsg)
MT_AfIncomingMsg:
        CFI Block cfiBlock113 Using cfiCommon0
        CFI Function MT_AfIncomingMsg
        CODE
//  603 {
        FUNCALL MT_AfIncomingMsg, osal_mem_alloc
        LOCFRAME ISTACK, 0, STACK
        LOCFRAME PSTACK, 0, STACK
        LOCFRAME XSTACK, 25, STACK
        LOCFRAME IOVERLAY, 0, STATIC
        LOCFRAME DOVERLAY, 0, STATIC
        ARGFRAME ISTACK, 0, STACK
        ARGFRAME PSTACK, 0, STACK
        ARGFRAME XSTACK, 25, STACK
        ARGFRAME IOVERLAY, 0, STATIC
        ARGFRAME DOVERLAY, 0, STATIC
        FUNCALL MT_AfIncomingMsg, osal_mem_alloc
        LOCFRAME ISTACK, 0, STACK
        LOCFRAME PSTACK, 0, STACK
        LOCFRAME XSTACK, 25, STACK
        LOCFRAME IOVERLAY, 0, STATIC
        LOCFRAME DOVERLAY, 0, STATIC
        ARGFRAME ISTACK, 0, STACK
        ARGFRAME PSTACK, 0, STACK
        ARGFRAME XSTACK, 25, STACK
        ARGFRAME IOVERLAY, 0, STATIC
        ARGFRAME DOVERLAY, 0, STATIC
        FUNCALL MT_AfIncomingMsg, osal_mem_free
        LOCFRAME ISTACK, 0, STACK
        LOCFRAME PSTACK, 0, STACK
        LOCFRAME XSTACK, 25, STACK
        LOCFRAME IOVERLAY, 0, STATIC
        LOCFRAME DOVERLAY, 0, STATIC
        ARGFRAME ISTACK, 0, STACK
        ARGFRAME PSTACK, 0, STACK
        ARGFRAME XSTACK, 25, STACK
        ARGFRAME IOVERLAY, 0, STATIC
        ARGFRAME DOVERLAY, 0, STATIC
        FUNCALL MT_AfIncomingMsg, osal_memcpy
        LOCFRAME ISTACK, 0, STACK
        LOCFRAME PSTACK, 0, STACK
        LOCFRAME XSTACK, 28, STACK
        LOCFRAME IOVERLAY, 0, STATIC
        LOCFRAME DOVERLAY, 0, STATIC
        ARGFRAME ISTACK, 0, STACK
        ARGFRAME PSTACK, 0, STACK
        ARGFRAME XSTACK, 28, STACK
        ARGFRAME IOVERLAY, 0, STATIC
        ARGFRAME DOVERLAY, 0, STATIC
        FUNCALL MT_AfIncomingMsg, osal_start_timerEx
        LOCFRAME ISTACK, 0, STACK
        LOCFRAME PSTACK, 0, STACK
        LOCFRAME XSTACK, 25, STACK
        LOCFRAME IOVERLAY, 0, STATIC
        LOCFRAME DOVERLAY, 0, STATIC
        ARGFRAME ISTACK, 0, STACK
        ARGFRAME PSTACK, 0, STACK
        ARGFRAME XSTACK, 25, STACK
        ARGFRAME IOVERLAY, 0, STATIC
        ARGFRAME DOVERLAY, 0, STATIC
        FUNCALL MT_AfIncomingMsg, osal_set_event
        LOCFRAME ISTACK, 0, STACK
        LOCFRAME PSTACK, 0, STACK
        LOCFRAME XSTACK, 25, STACK
        LOCFRAME IOVERLAY, 0, STATIC
        LOCFRAME DOVERLAY, 0, STATIC
        ARGFRAME ISTACK, 0, STACK
        ARGFRAME PSTACK, 0, STACK
        ARGFRAME XSTACK, 25, STACK
        ARGFRAME IOVERLAY, 0, STATIC
        ARGFRAME DOVERLAY, 0, STATIC
        FUNCALL MT_AfIncomingMsg, osal_memcpy
        LOCFRAME ISTACK, 0, STACK
        LOCFRAME PSTACK, 0, STACK
        LOCFRAME XSTACK, 28, STACK
        LOCFRAME IOVERLAY, 0, STATIC
        LOCFRAME DOVERLAY, 0, STATIC
        ARGFRAME ISTACK, 0, STACK
        ARGFRAME PSTACK, 0, STACK
        ARGFRAME XSTACK, 28, STACK
        ARGFRAME IOVERLAY, 0, STATIC
        ARGFRAME DOVERLAY, 0, STATIC
        FUNCALL MT_AfIncomingMsg, osal_memcpy
        LOCFRAME ISTACK, 0, STACK
        LOCFRAME PSTACK, 0, STACK
        LOCFRAME XSTACK, 28, STACK
        LOCFRAME IOVERLAY, 0, STATIC
        LOCFRAME DOVERLAY, 0, STATIC
        ARGFRAME ISTACK, 0, STACK
        ARGFRAME PSTACK, 0, STACK
        ARGFRAME XSTACK, 28, STACK
        ARGFRAME IOVERLAY, 0, STATIC
        ARGFRAME DOVERLAY, 0, STATIC
        FUNCALL MT_AfIncomingMsg, MT_BuildAndSendZToolResponse
        LOCFRAME ISTACK, 0, STACK
        LOCFRAME PSTACK, 0, STACK
        LOCFRAME XSTACK, 25, STACK
        LOCFRAME IOVERLAY, 0, STATIC
        LOCFRAME DOVERLAY, 0, STATIC
        ARGFRAME ISTACK, 0, STACK
        ARGFRAME PSTACK, 0, STACK
        ARGFRAME XSTACK, 25, STACK
        ARGFRAME IOVERLAY, 0, STATIC
        ARGFRAME DOVERLAY, 0, STATIC
        FUNCALL MT_AfIncomingMsg, osal_mem_free
        LOCFRAME ISTACK, 0, STACK
        LOCFRAME PSTACK, 0, STACK
        LOCFRAME XSTACK, 25, STACK
        LOCFRAME IOVERLAY, 0, STATIC
        LOCFRAME DOVERLAY, 0, STATIC
        ARGFRAME ISTACK, 0, STACK
        ARGFRAME PSTACK, 0, STACK
        ARGFRAME XSTACK, 25, STACK
        ARGFRAME IOVERLAY, 0, STATIC
        ARGFRAME DOVERLAY, 0, STATIC
        MOV     A,#-0x18
        LCALL   ?BANKED_ENTER_XDATA
        CFI DPH0 load(1, XDATA, add(CFA_XSP16, literal(-1)))
        CFI DPL0 load(1, XDATA, add(CFA_XSP16, literal(-2)))
        CFI ?BRET_EXT load(1, XDATA, add(CFA_XSP16, literal(-3)))
        CFI ?RET_HIGH load(1, XDATA, add(CFA_XSP16, literal(-4)))
        CFI ?RET_LOW load(1, XDATA, add(CFA_XSP16, literal(-5)))
        CFI R7 load(1, XDATA, add(CFA_XSP16, literal(-6)))
        CFI V15 load(1, XDATA, add(CFA_XSP16, literal(-7)))
        CFI V14 load(1, XDATA, add(CFA_XSP16, literal(-8)))
        CFI V13 load(1, XDATA, add(CFA_XSP16, literal(-9)))
        CFI V12 load(1, XDATA, add(CFA_XSP16, literal(-10)))
        CFI V11 load(1, XDATA, add(CFA_XSP16, literal(-11)))
        CFI V10 load(1, XDATA, add(CFA_XSP16, literal(-12)))
        CFI V9 load(1, XDATA, add(CFA_XSP16, literal(-13)))
        CFI V8 load(1, XDATA, add(CFA_XSP16, literal(-14)))
        CFI V7 load(1, XDATA, add(CFA_XSP16, literal(-15)))
        CFI V6 load(1, XDATA, add(CFA_XSP16, literal(-16)))
        CFI V5 load(1, XDATA, add(CFA_XSP16, literal(-17)))
        CFI V4 load(1, XDATA, add(CFA_XSP16, literal(-18)))
        CFI V3 load(1, XDATA, add(CFA_XSP16, literal(-19)))
        CFI V2 load(1, XDATA, add(CFA_XSP16, literal(-20)))
        CFI V1 load(1, XDATA, add(CFA_XSP16, literal(-21)))
        CFI V0 load(1, XDATA, add(CFA_XSP16, literal(-22)))
        CFI VB load(1, XDATA, add(CFA_XSP16, literal(-23)))
        CFI R6 load(1, XDATA, add(CFA_XSP16, literal(-24)))
        CFI CFA_SP SP+0
        CFI CFA_XSP16 add(XSP16, 24)
        ; Saved register size: 24
        ; Auto size: 1
        MOV     A,#-0x1
        LCALL   ?ALLOC_XSTACK8
        CFI CFA_XSP16 add(XSP16, 25)
        MOV     ?V0 + 8,R2
        MOV     ?V0 + 9,R3
//  604   #define MT_AF_INC_MSG_LEN  17
//  605   #define MT_AF_INC_MSG_EXT  10
//  606 
//  607   uint16 dataLen = pMsg->cmd.DataLength;  // Length of the data section in the response packet.
        MOV     A,R2
        ADD     A,#0x20
        MOV     DPL,A
        MOV     A,R3
        ADDC    A,#0x0
        MOV     DPH,A
        MOVX    A,@DPTR
        MOV     R6,A
        INC     DPTR
        MOVX    A,@DPTR
        MOV     R7,A
//  608   uint16 respLen = MT_AF_INC_MSG_LEN + dataLen;
        MOV     A,R6
        ADD     A,#0x11
        MOV     ?V0 + 0,A
        MOV     A,R7
        ADDC    A,#0x0
        MOV     ?V0 + 1,A
//  609   uint8 cmd = MT_AF_INCOMING_MSG;
        MOV     DPL,?XSP + 0
        MOV     DPH,?XSP + 1
        MOV     A,#-0x7f
        MOVX    @DPTR,A
//  610   uint8 *pRsp, *pTmp;
//  611   mtAfInMsgList_t *pItem = NULL;
        MOV     ?V0 + 10,#0x0
        MOV     ?V0 + 11,#0x0
//  612 
//  613 #if defined INTER_PAN
//  614   if (StubAPS_InterPan(pMsg->srcAddr.panId, pMsg->srcAddr.endPoint))
//  615   {
//  616     cmd = MT_AF_INCOMING_MSG_EXT;
//  617   }
//  618   else
//  619 #endif
//  620   if ((pMsg->srcAddr.addrMode == afAddr64Bit) ||
//  621       (respLen > (uint16)(MT_RPC_DATA_MAX - MT_AF_INC_MSG_EXT)))
        MOV     A,R2
        ADD     A,#0xe
        MOV     ?V0 + 4,A
        MOV     A,R3
        ADDC    A,#0x0
        MOV     ?V0 + 5,A
        MOV     DPL,?V0 + 4
        MOV     DPH,A
        MOVX    A,@DPTR
        XRL     A,#0x3
        JZ      ??MT_AfIncomingMsg_0
        CLR     C
        MOV     A,?V0 + 0
        SUBB    A,#-0xf
        MOV     A,?V0 + 1
        SUBB    A,#0x0
        JC      ??MT_AfIncomingMsg_1
//  622   {
//  623     cmd = MT_AF_INCOMING_MSG_EXT;
??MT_AfIncomingMsg_0:
        MOV     DPL,?XSP + 0
        MOV     DPH,?XSP + 1
        MOV     A,#-0x7e
        MOVX    @DPTR,A
//  624   }
//  625 
//  626   if (cmd == MT_AF_INCOMING_MSG_EXT)
//  627   {
//  628     respLen += MT_AF_INC_MSG_EXT;
        MOV     A,?V0 + 0
        ADD     A,#0xa
        MOV     ?V0 + 0,A
        MOV     A,?V0 + 1
        ADDC    A,#0x0
        MOV     ?V0 + 1,A
//  629   }
//  630 
//  631   if (respLen > (uint16)MT_RPC_DATA_MAX)
??MT_AfIncomingMsg_1:
        CLR     C
        MOV     A,?V0 + 0
        SUBB    A,#-0x5
        MOV     A,?V0 + 1
        SUBB    A,#0x0
        JC      ??MT_AfIncomingMsg_2
//  632   {
//  633     if ((pItem = (mtAfInMsgList_t *)osal_mem_alloc(sizeof(mtAfInMsgList_t) + dataLen)) == NULL)
        ; Setup parameters for call to function osal_mem_alloc
        MOV     A,R6
        ADD     A,#0x9
        LCALL   ?Subroutine19 & 0xFFFF
??CrossCallReturnLabel_60:
        MOV     ?V0 + 10,R2
        MOV     ?V0 + 11,R3
        MOV     A,R2
        ORL     A,?V0 + 11
        JNZ     $+5
        LJMP    ??MT_AfIncomingMsg_3 & 0xFFFF
//  634     {
//  635       return;  // If cannot hold a huge message, cannot give indication at all.
//  636     }
//  637 
//  638     pItem->data = (uint8 *)(pItem+1);
        MOV     A,R2
        ADD     A,#0x9
        MOV     R0,A
        MOV     A,R3
        ADDC    A,#0x0
        MOV     R1,A
        MOV     DPL,R2
        MOV     DPH,R3
        INC     DPTR
        INC     DPTR
        LCALL   ?Subroutine30 & 0xFFFF
//  639     respLen -= dataLen;  // Zero data bytes are sent with an over-sized incoming indication.
??CrossCallReturnLabel_45:
        CLR     C
        MOV     A,?V0 + 0
        SUBB    A,R6
        MOV     ?V0 + 0,A
        MOV     A,?V0 + 1
        SUBB    A,R7
        MOV     ?V0 + 1,A
//  640   }
//  641 
//  642   // Attempt to allocate memory for the response packet.
//  643   if ((pRsp = osal_mem_alloc(respLen)) == NULL)
??MT_AfIncomingMsg_2:
        ; Setup parameters for call to function osal_mem_alloc
        MOV     R2,?V0 + 0
        MOV     R3,?V0 + 1
        LCALL   ??osal_mem_alloc?relay
        MOV     ?V0 + 14,R2
        MOV     ?V0 + 15,R3
        MOV     A,R2
        ORL     A,?V0 + 15
        JNZ     ??MT_AfIncomingMsg_4
//  644   {
//  645     if (pItem != NULL)
        MOV     A,?V0 + 10
        ORL     A,?V0 + 11
        JNZ     $+5
        LJMP    ??MT_AfIncomingMsg_3 & 0xFFFF
//  646     {
//  647       (void)osal_mem_free(pItem);
        ; Setup parameters for call to function osal_mem_free
        MOV     R2,?V0 + 10
        MOV     R3,?V0 + 11
        LJMP    ??MT_AfIncomingMsg_5 & 0xFFFF
//  648     }
//  649     return;
//  650   }
//  651   pTmp = pRsp;
//  652 
//  653   /* Group ID */
//  654   *pTmp++ = LO_UINT16(pMsg->groupId);
??MT_AfIncomingMsg_4:
        MOV     A,?V0 + 8
        ADD     A,#0x2
        MOV     R0,A
        LCALL   ?Subroutine43 & 0xFFFF
??CrossCallReturnLabel_131:
        MOVX    A,@DPTR
        MOV     DPL,R2
        MOV     DPH,R3
        LCALL   ?Subroutine25 & 0xFFFF
//  655   *pTmp++ = HI_UINT16(pMsg->groupId);
??CrossCallReturnLabel_28:
        MOV     DPL,R0
        MOV     DPH,R1
        INC     DPTR
        LCALL   ??Subroutine55_0 & 0xFFFF
//  656 
//  657   /* Cluster ID */
//  658   *pTmp++ = LO_UINT16(pMsg->clusterId);
??CrossCallReturnLabel_109:
        ADD     A,#0x4
        INC     R0
        INC     R0
        LCALL   ?Subroutine43 & 0xFFFF
??CrossCallReturnLabel_132:
        LCALL   ?Subroutine6 & 0xFFFF
//  659   *pTmp++ = HI_UINT16(pMsg->clusterId);
??CrossCallReturnLabel_0:
        MOV     DPL,R0
        MOV     DPH,R1
        INC     DPTR
        LCALL   ?Subroutine6 & 0xFFFF
//  660 
//  661   if (cmd == MT_AF_INCOMING_MSG_EXT)
??CrossCallReturnLabel_1:
        INC     DPTR
        MOV     R0,DPL
        MOV     R1,DPH
        MOV     A,?V0 + 8
        ADD     A,#0x6
        MOV     R2,A
        MOV     A,?V0 + 9
        ADDC    A,#0x0
        MOV     R3,A
        MOV     DPL,?XSP + 0
        MOV     DPH,?XSP + 1
        MOVX    A,@DPTR
        XRL     A,#0x82
        JNZ     ??MT_AfIncomingMsg_6
//  662   {
//  663     *pTmp++ = pMsg->srcAddr.addrMode;
        MOV     DPL,?V0 + 4
        MOV     DPH,?V0 + 5
        LCALL   ??Subroutine54_0 & 0xFFFF
??CrossCallReturnLabel_101:
        MOV     ?V0 + 2,R0
        MOV     ?V0 + 3,R1
//  664 
//  665     if (pMsg->srcAddr.addrMode == afAddr64Bit)
        MOV     DPL,?V0 + 4
        MOV     DPH,?V0 + 5
        MOVX    A,@DPTR
        XRL     A,#0x3
        JNZ     ??MT_AfIncomingMsg_7
//  666     {
//  667       (void)osal_memcpy(pTmp, pMsg->srcAddr.addr.extAddr, Z_EXTADDR_LEN);
        ; Setup parameters for call to function osal_memcpy
        MOV     ?V0 + 4,R2
        MOV     ?V0 + 5,R3
        MOV     ?V0 + 6,#0x0
        MOV     R0,#?V0 + 4
        LCALL   ?PUSH_XSTACK_I_THREE
        CFI CFA_XSP16 add(XSP16, 28)
        MOV     R4,#0x8
        MOV     R5,#0x0
        MOV     R2,?V0 + 2
        MOV     R3,?V0 + 3
        LCALL   ??Subroutine56_0 & 0xFFFF
//  668     }
??CrossCallReturnLabel_118:
        LCALL   ?DEALLOC_XSTACK8
        CFI CFA_XSP16 add(XSP16, 25)
        SJMP    ??MT_AfIncomingMsg_8
//  669     else
//  670     {
//  671       pTmp[0] = LO_UINT16(pMsg->srcAddr.addr.shortAddr);
??MT_AfIncomingMsg_7:
        MOV     DPL,R2
        MOV     DPH,R3
        MOVX    A,@DPTR
        MOV     DPL,R0
        MOV     DPH,R1
        LCALL   ?Subroutine28 & 0xFFFF
//  672       pTmp[1] = HI_UINT16(pMsg->srcAddr.addr.shortAddr);
//  673     }
??CrossCallReturnLabel_38:
        MOVX    A,@DPTR
        MOV     DPL,R0
        MOV     DPH,R1
        INC     DPTR
        MOVX    @DPTR,A
//  674     pTmp += Z_EXTADDR_LEN;
??MT_AfIncomingMsg_8:
        MOV     A,?V0 + 2
        ADD     A,#0x8
        MOV     ?V0 + 2,A
        MOV     A,?V0 + 3
        ADDC    A,#0x0
        MOV     ?V0 + 3,A
//  675 
//  676     *pTmp++ = pMsg->srcAddr.endPoint;
        MOV     A,?V0 + 8
        ADD     A,#0xf
        LCALL   ?Subroutine7 & 0xFFFF
??CrossCallReturnLabel_103:
        INC     DPTR
//  677 #if defined INTER_PAN
//  678     *pTmp++ = LO_UINT16(pMsg->srcAddr.panId);
//  679     *pTmp++ = HI_UINT16(pMsg->srcAddr.panId);
//  680 #else
//  681     *pTmp++ = 0;
        CLR     A
        MOVX    @DPTR,A
        INC     DPTR
//  682     *pTmp++ = 0;
        SJMP    ??MT_AfIncomingMsg_9
//  683 #endif
//  684   }
//  685   else
//  686   {
//  687     /* Source Address */
//  688     *pTmp++ = LO_UINT16(pMsg->srcAddr.addr.shortAddr);
??MT_AfIncomingMsg_6:
        MOV     DPL,R2
        MOV     DPH,R3
        LCALL   ??Subroutine54_0 & 0xFFFF
//  689     *pTmp++ = HI_UINT16(pMsg->srcAddr.addr.shortAddr);
??CrossCallReturnLabel_102:
        MOV     DPL,R2
        MOV     DPH,R3
        INC     DPTR
        MOVX    A,@DPTR
        MOV     DPL,R0
        MOV     DPH,R1
        LCALL   ?Subroutine24 & 0xFFFF
//  690 
//  691     /* Source EP */
//  692     *pTmp++ = pMsg->srcAddr.endPoint;
//  693   }
??CrossCallReturnLabel_26:
        ADD     A,#0xf
        MOV     DPL,A
        MOV     A,?V0 + 9
        ADDC    A,#0x0
        MOV     DPH,A
        MOVX    A,@DPTR
        MOV     DPL,?V0 + 2
        MOV     DPH,?V0 + 3
??MT_AfIncomingMsg_9:
        LCALL   ?Subroutine24 & 0xFFFF
//  694 
//  695   /* Destination EP */
//  696   *pTmp++ = pMsg->endPoint;
??CrossCallReturnLabel_27:
        ADD     A,#0x14
        LCALL   ?Subroutine2 & 0xFFFF
//  697 
//  698   /* WasBroadCast */
//  699   *pTmp++ = pMsg->wasBroadcast;
??CrossCallReturnLabel_105:
        ADD     A,#0x15
        LCALL   ?Subroutine2 & 0xFFFF
//  700 
//  701   /* LinkQuality */
//  702   *pTmp++ = pMsg->LinkQuality;
??CrossCallReturnLabel_106:
        ADD     A,#0x16
        LCALL   ?Subroutine2 & 0xFFFF
//  703 
//  704   /* SecurityUse */
//  705   *pTmp++ = pMsg->SecurityUse;
??CrossCallReturnLabel_107:
        ADD     A,#0x19
        LCALL   ?Subroutine2 & 0xFFFF
//  706 
//  707   /* Timestamp */
//  708   *pTmp++ = BREAK_UINT32(pMsg->timestamp, 0);
??CrossCallReturnLabel_108:
        ADD     A,#0x1a
        MOV     ?V0 + 12,A
        MOV     A,?V0 + 9
        ADDC    A,#0x0
        MOV     ?V0 + 13,A
        MOV     DPL,?V0 + 12
        MOV     DPH,A
        MOV     R0,#?V0 + 4
        LCALL   ?L_MOV_X
        LCALL   ?Subroutine20 & 0xFFFF
//  709   *pTmp++ = BREAK_UINT32(pMsg->timestamp, 1);
??CrossCallReturnLabel_95:
        LCALL   ?L_MOV_X
        MOV     A,?V0 + 5
        MOV     DPL,?V0 + 2
        MOV     DPH,?V0 + 3
        LCALL   ??Subroutine53_0 & 0xFFFF
//  710   *pTmp++ = BREAK_UINT32(pMsg->timestamp, 2);
??CrossCallReturnLabel_97:
        LCALL   ?L_MOV_X
        MOV     A,#0x10
        MOV     R0,#?V0 + 4
        LCALL   ?UL_SHR
        LCALL   ?Subroutine20 & 0xFFFF
//  711   *pTmp++ = BREAK_UINT32(pMsg->timestamp, 3);
??CrossCallReturnLabel_96:
        LCALL   ?L_MOV_X
        MOV     A,#0x18
        MOV     R0,#?V0 + 4
        LCALL   ?UL_SHR
        MOV     DPL,?V0 + 2
        MOV     DPH,?V0 + 3
        MOV     A,?V0 + 4
        LCALL   ?Subroutine25 & 0xFFFF
//  712 
//  713 
//  714   /* Data Length */
//  715   if (cmd == MT_AF_INCOMING_MSG_EXT)
??CrossCallReturnLabel_29:
        INC     DPTR
        MOV     R0,DPL
        MOV     R1,DPH
        MOV     DPL,?XSP + 0
        MOV     DPH,?XSP + 1
        MOVX    A,@DPTR
        XRL     A,#0x82
        JNZ     ??MT_AfIncomingMsg_10
//  716   {
//  717     /* Z-Tool apparently takes the last Byte before the data buffer as the dynamic length and
//  718      * ignores the bigger UInt16 length of an EXT incoming message. But no data bytes will be sent
//  719      * with a huge message, so it's necessary to work-around and fake-out Z-Tool with a zero here.
//  720      */
//  721     *pTmp++ = 0;  // TODO - workaround Z-Tool shortcoming; should be: = pMsg->cmd.TransSeqNumber;
        MOV     DPL,?V0 + 2
        MOV     DPH,?V0 + 3
        CLR     A
        MOVX    @DPTR,A
//  722     *pTmp++ = LO_UINT16(dataLen);
        MOV     A,R6
        MOV     DPL,R0
        MOV     DPH,R1
        MOVX    @DPTR,A
        INC     DPTR
//  723     *pTmp++ = HI_UINT16(dataLen);
        MOV     A,R7
        SJMP    ??MT_AfIncomingMsg_11
//  724   }
//  725   else
//  726   {
//  727     *pTmp++ = pMsg->cmd.TransSeqNumber;
??MT_AfIncomingMsg_10:
        MOV     A,?V0 + 8
        ADD     A,#0x1f
        LCALL   ?Subroutine7 & 0xFFFF
//  728     *pTmp++ = dataLen;
??CrossCallReturnLabel_104:
        MOV     A,R6
        MOV     DPL,R0
        MOV     DPH,R1
//  729   }
??MT_AfIncomingMsg_11:
        LCALL   ?Subroutine25 & 0xFFFF
//  730 
//  731   /* Data */
//  732   if (pItem != NULL)
??CrossCallReturnLabel_30:
        MOV     A,?V0 + 10
        ORL     A,?V0 + 11
        JZ      ??MT_AfIncomingMsg_12
//  733   {
//  734     // Enqueue the new huge incoming item.
//  735     pItem->next = pMtAfInMsgList;
        MOV     DPTR,#pMtAfInMsgList
        LCALL   ?Subroutine36 & 0xFFFF
??CrossCallReturnLabel_77:
        MOV     DPL,?V0 + 10
        MOV     DPH,?V0 + 11
        LCALL   ?Subroutine30 & 0xFFFF
//  736     pMtAfInMsgList = pItem;
??CrossCallReturnLabel_46:
        MOV     DPTR,#pMtAfInMsgList
        MOV     A,?V0 + 10
        MOVX    @DPTR,A
        INC     DPTR
        MOV     A,?V0 + 11
        MOVX    @DPTR,A
//  737 
//  738     // Setup to time-out the huge incoming item if host does not MT_AF_DATA_RETRIEVE it.
//  739     pItem->tick = MT_AF_EXEC_CNT;
        MOV     DPL,?V0 + 10
        MOV     DPH,A
        INC     DPTR
        INC     DPTR
        INC     DPTR
        INC     DPTR
        INC     DPTR
        INC     DPTR
        INC     DPTR
        INC     DPTR
        LCALL   ?Subroutine11 & 0xFFFF
//  740     if (ZSuccess != osal_start_timerEx(MT_TaskID, MT_AF_EXEC_EVT, MT_AF_EXEC_DLY))
??CrossCallReturnLabel_68:
        JZ      ??CrossCallReturnLabel_14
//  741     {
//  742       (void)osal_set_event(MT_TaskID, MT_AF_EXEC_EVT);
        ; Setup parameters for call to function osal_set_event
        LCALL   ?Subroutine15 & 0xFFFF
//  743     }
//  744 
//  745     pItem->timestamp = pMsg->timestamp;
??CrossCallReturnLabel_14:
        MOV     DPL,?V0 + 12
        MOV     DPH,?V0 + 13
        LCALL   ?XLOAD_R2345
        MOV     DPL,?V0 + 10
        MOV     DPH,?V0 + 11
        INC     DPTR
        INC     DPTR
        INC     DPTR
        INC     DPTR
        LCALL   ?XSTORE_R2345
//  746     (void)osal_memcpy(pItem->data, pMsg->cmd.Data, dataLen);
        ; Setup parameters for call to function osal_memcpy
        LCALL   ?Subroutine12 & 0xFFFF
//  747   }
??CrossCallReturnLabel_6:
        LCALL   ?PUSH_XSTACK_I_THREE
        CFI CFA_XSP16 add(XSP16, 28)
        MOV     A,R6
        MOV     R4,A
        MOV     A,R7
        MOV     R5,A
        MOV     DPL,?V0 + 10
        MOV     DPH,?V0 + 11
        INC     DPTR
        INC     DPTR
        LCALL   ??Subroutine52_0 & 0xFFFF
??CrossCallReturnLabel_90:
        MOV     R3,A
        SJMP    ??MT_AfIncomingMsg_13
        CFI CFA_XSP16 add(XSP16, 25)
//  748   else
//  749   {
//  750     (void)osal_memcpy(pTmp, pMsg->cmd.Data, dataLen);
??MT_AfIncomingMsg_12:
        ; Setup parameters for call to function osal_memcpy
        LCALL   ?Subroutine12 & 0xFFFF
//  751   }
??CrossCallReturnLabel_7:
        LCALL   ?PUSH_XSTACK_I_THREE
        CFI CFA_XSP16 add(XSP16, 28)
        MOV     A,R6
        MOV     R4,A
        MOV     A,R7
        MOV     R5,A
        MOV     R2,?V0 + 2
        MOV     R3,?V0 + 3
??MT_AfIncomingMsg_13:
        LCALL   ??Subroutine56_0 & 0xFFFF
??CrossCallReturnLabel_119:
        LCALL   ?DEALLOC_XSTACK8
        CFI CFA_XSP16 add(XSP16, 25)
//  752 
//  753   /* Build and send back the response */
//  754   MT_BuildAndSendZToolResponse(((uint8)MT_RPC_CMD_AREQ|(uint8)MT_RPC_SYS_AF), cmd, respLen, pRsp);
        ; Setup parameters for call to function MT_BuildAndSendZToolResponse
        MOV     R4,?V0 + 14
        MOV     R5,?V0 + 15
        MOV     R3,?V0 + 0
        MOV     DPL,?XSP + 0
        MOV     DPH,?XSP + 1
        MOVX    A,@DPTR
        MOV     R2,A
        MOV     R1,#0x44
        LCALL   ??MT_BuildAndSendZToolResponse?relay
//  755 
//  756   (void)osal_mem_free(pRsp);
        ; Setup parameters for call to function osal_mem_free
        MOV     R2,?V0 + 14
        MOV     R3,?V0 + 15
??MT_AfIncomingMsg_5:
        LCALL   ??osal_mem_free?relay
//  757 }
??MT_AfIncomingMsg_3:
        MOV     A,#0x1
        LCALL   ?DEALLOC_XSTACK8
        CFI CFA_XSP16 add(XSP16, 24)
        MOV     R7,#0x10
        LJMP    ?BANKED_LEAVE_XDATA
        CFI EndBlock cfiBlock113

        RSEG BANKED_CODE:CODE:NOROOT(0)
?Subroutine43:
        CFI Block cfiCond114 Using cfiCommon0
        CFI NoFunction
        CFI Conditional ??CrossCallReturnLabel_131
        CFI R6 load(1, XDATA, add(CFA_XSP16, literal(-24)))
        CFI VB load(1, XDATA, add(CFA_XSP16, literal(-23)))
        CFI V0 load(1, XDATA, add(CFA_XSP16, literal(-22)))
        CFI V1 load(1, XDATA, add(CFA_XSP16, literal(-21)))
        CFI V2 load(1, XDATA, add(CFA_XSP16, literal(-20)))
        CFI V3 load(1, XDATA, add(CFA_XSP16, literal(-19)))
        CFI V4 load(1, XDATA, add(CFA_XSP16, literal(-18)))
        CFI V5 load(1, XDATA, add(CFA_XSP16, literal(-17)))
        CFI V6 load(1, XDATA, add(CFA_XSP16, literal(-16)))
        CFI V7 load(1, XDATA, add(CFA_XSP16, literal(-15)))
        CFI V8 load(1, XDATA, add(CFA_XSP16, literal(-14)))
        CFI V9 load(1, XDATA, add(CFA_XSP16, literal(-13)))
        CFI V10 load(1, XDATA, add(CFA_XSP16, literal(-12)))
        CFI V11 load(1, XDATA, add(CFA_XSP16, literal(-11)))
        CFI V12 load(1, XDATA, add(CFA_XSP16, literal(-10)))
        CFI V13 load(1, XDATA, add(CFA_XSP16, literal(-9)))
        CFI V14 load(1, XDATA, add(CFA_XSP16, literal(-8)))
        CFI V15 load(1, XDATA, add(CFA_XSP16, literal(-7)))
        CFI R7 load(1, XDATA, add(CFA_XSP16, literal(-6)))
        CFI ?RET_LOW load(1, XDATA, add(CFA_XSP16, literal(-5)))
        CFI ?RET_HIGH load(1, XDATA, add(CFA_XSP16, literal(-4)))
        CFI ?BRET_EXT load(1, XDATA, add(CFA_XSP16, literal(-3)))
        CFI DPL0 load(1, XDATA, add(CFA_XSP16, literal(-2)))
        CFI DPH0 load(1, XDATA, add(CFA_XSP16, literal(-1)))
        CFI CFA_SP SP+0
        CFI CFA_XSP16 add(XSP16, 25)
        CFI Block cfiCond115 Using cfiCommon0
        CFI (cfiCond115) NoFunction
        CFI (cfiCond115) Conditional ??CrossCallReturnLabel_132
        CFI (cfiCond115) R6 load(1, XDATA, add(CFA_XSP16, literal(-24)))
        CFI (cfiCond115) VB load(1, XDATA, add(CFA_XSP16, literal(-23)))
        CFI (cfiCond115) V0 load(1, XDATA, add(CFA_XSP16, literal(-22)))
        CFI (cfiCond115) V1 load(1, XDATA, add(CFA_XSP16, literal(-21)))
        CFI (cfiCond115) V2 load(1, XDATA, add(CFA_XSP16, literal(-20)))
        CFI (cfiCond115) V3 load(1, XDATA, add(CFA_XSP16, literal(-19)))
        CFI (cfiCond115) V4 load(1, XDATA, add(CFA_XSP16, literal(-18)))
        CFI (cfiCond115) V5 load(1, XDATA, add(CFA_XSP16, literal(-17)))
        CFI (cfiCond115) V6 load(1, XDATA, add(CFA_XSP16, literal(-16)))
        CFI (cfiCond115) V7 load(1, XDATA, add(CFA_XSP16, literal(-15)))
        CFI (cfiCond115) V8 load(1, XDATA, add(CFA_XSP16, literal(-14)))
        CFI (cfiCond115) V9 load(1, XDATA, add(CFA_XSP16, literal(-13)))
        CFI (cfiCond115) V10 load(1, XDATA, add(CFA_XSP16, literal(-12)))
        CFI (cfiCond115) V11 load(1, XDATA, add(CFA_XSP16, literal(-11)))
        CFI (cfiCond115) V12 load(1, XDATA, add(CFA_XSP16, literal(-10)))
        CFI (cfiCond115) V13 load(1, XDATA, add(CFA_XSP16, literal(-9)))
        CFI (cfiCond115) V14 load(1, XDATA, add(CFA_XSP16, literal(-8)))
        CFI (cfiCond115) V15 load(1, XDATA, add(CFA_XSP16, literal(-7)))
        CFI (cfiCond115) R7 load(1, XDATA, add(CFA_XSP16, literal(-6)))
        CFI (cfiCond115) ?RET_LOW load(1, XDATA, add(CFA_XSP16, literal(-5)))
        CFI (cfiCond115) ?RET_HIGH load(1, XDATA, add(CFA_XSP16, literal(-4)))
        CFI (cfiCond115) ?BRET_EXT load(1, XDATA, add(CFA_XSP16, literal(-3)))
        CFI (cfiCond115) DPL0 load(1, XDATA, add(CFA_XSP16, literal(-2)))
        CFI (cfiCond115) DPH0 load(1, XDATA, add(CFA_XSP16, literal(-1)))
        CFI (cfiCond115) CFA_SP SP+0
        CFI (cfiCond115) CFA_XSP16 add(XSP16, 25)
        CFI Block cfiPicker116 Using cfiCommon1
        CFI (cfiPicker116) NoFunction
        CFI (cfiPicker116) Picker
        MOV     A,?V0 + 9
        CFI EndBlock cfiCond114
        CFI EndBlock cfiCond115
        CFI EndBlock cfiPicker116
        REQUIRE ??Subroutine51_0
        ; // Fall through to label ??Subroutine51_0

        RSEG BANKED_CODE:CODE:NOROOT(0)
??Subroutine51_0:
        CFI Block cfiCond117 Using cfiCommon0
        CFI NoFunction
        CFI Conditional ??CrossCallReturnLabel_133, ??CrossCallReturnLabel_129, ??CrossCallReturnLabel_57
        CFI R6 load(1, XDATA, add(CFA_XSP16, literal(-9)))
        CFI VB load(1, XDATA, add(CFA_XSP16, literal(-8)))
        CFI V0 load(1, XDATA, add(CFA_XSP16, literal(-7)))
        CFI R7 load(1, XDATA, add(CFA_XSP16, literal(-6)))
        CFI ?RET_LOW load(1, XDATA, add(CFA_XSP16, literal(-5)))
        CFI ?RET_HIGH load(1, XDATA, add(CFA_XSP16, literal(-4)))
        CFI ?BRET_EXT load(1, XDATA, add(CFA_XSP16, literal(-3)))
        CFI DPL0 load(1, XDATA, add(CFA_XSP16, literal(-2)))
        CFI DPH0 load(1, XDATA, add(CFA_XSP16, literal(-1)))
        CFI CFA_SP SP+0
        CFI CFA_XSP16 add(XSP16, 9)
        CFI Block cfiCond118 Using cfiCommon0
        CFI (cfiCond118) NoFunction
        CFI (cfiCond118) Conditional ??CrossCallReturnLabel_133, ??CrossCallReturnLabel_129, ??CrossCallReturnLabel_58
        CFI (cfiCond118) R6 load(1, XDATA, add(CFA_XSP16, literal(-9)))
        CFI (cfiCond118) VB load(1, XDATA, add(CFA_XSP16, literal(-8)))
        CFI (cfiCond118) V0 load(1, XDATA, add(CFA_XSP16, literal(-7)))
        CFI (cfiCond118) R7 load(1, XDATA, add(CFA_XSP16, literal(-6)))
        CFI (cfiCond118) ?RET_LOW load(1, XDATA, add(CFA_XSP16, literal(-5)))
        CFI (cfiCond118) ?RET_HIGH load(1, XDATA, add(CFA_XSP16, literal(-4)))
        CFI (cfiCond118) ?BRET_EXT load(1, XDATA, add(CFA_XSP16, literal(-3)))
        CFI (cfiCond118) DPL0 load(1, XDATA, add(CFA_XSP16, literal(-2)))
        CFI (cfiCond118) DPH0 load(1, XDATA, add(CFA_XSP16, literal(-1)))
        CFI (cfiCond118) CFA_SP SP+0
        CFI (cfiCond118) CFA_XSP16 add(XSP16, 9)
        CFI Block cfiCond119 Using cfiCommon0
        CFI (cfiCond119) NoFunction
        CFI (cfiCond119) Conditional ??CrossCallReturnLabel_133, ??CrossCallReturnLabel_129, ??CrossCallReturnLabel_55
        CFI (cfiCond119) R6 load(1, XDATA, add(CFA_XSP16, literal(-14)))
        CFI (cfiCond119) VB load(1, XDATA, add(CFA_XSP16, literal(-13)))
        CFI (cfiCond119) V0 load(1, XDATA, add(CFA_XSP16, literal(-12)))
        CFI (cfiCond119) V1 load(1, XDATA, add(CFA_XSP16, literal(-11)))
        CFI (cfiCond119) V2 load(1, XDATA, add(CFA_XSP16, literal(-10)))
        CFI (cfiCond119) V3 load(1, XDATA, add(CFA_XSP16, literal(-9)))
        CFI (cfiCond119) V4 load(1, XDATA, add(CFA_XSP16, literal(-8)))
        CFI (cfiCond119) V5 load(1, XDATA, add(CFA_XSP16, literal(-7)))
        CFI (cfiCond119) R7 load(1, XDATA, add(CFA_XSP16, literal(-6)))
        CFI (cfiCond119) ?RET_LOW load(1, XDATA, add(CFA_XSP16, literal(-5)))
        CFI (cfiCond119) ?RET_HIGH load(1, XDATA, add(CFA_XSP16, literal(-4)))
        CFI (cfiCond119) ?BRET_EXT load(1, XDATA, add(CFA_XSP16, literal(-3)))
        CFI (cfiCond119) DPL0 load(1, XDATA, add(CFA_XSP16, literal(-2)))
        CFI (cfiCond119) DPH0 load(1, XDATA, add(CFA_XSP16, literal(-1)))
        CFI (cfiCond119) CFA_SP SP+0
        CFI (cfiCond119) CFA_XSP16 add(XSP16, 15)
        CFI Block cfiCond120 Using cfiCommon0
        CFI (cfiCond120) NoFunction
        CFI (cfiCond120) Conditional ??CrossCallReturnLabel_133, ??CrossCallReturnLabel_129, ??CrossCallReturnLabel_56
        CFI (cfiCond120) R6 load(1, XDATA, add(CFA_XSP16, literal(-14)))
        CFI (cfiCond120) VB load(1, XDATA, add(CFA_XSP16, literal(-13)))
        CFI (cfiCond120) V0 load(1, XDATA, add(CFA_XSP16, literal(-12)))
        CFI (cfiCond120) V1 load(1, XDATA, add(CFA_XSP16, literal(-11)))
        CFI (cfiCond120) V2 load(1, XDATA, add(CFA_XSP16, literal(-10)))
        CFI (cfiCond120) V3 load(1, XDATA, add(CFA_XSP16, literal(-9)))
        CFI (cfiCond120) V4 load(1, XDATA, add(CFA_XSP16, literal(-8)))
        CFI (cfiCond120) V5 load(1, XDATA, add(CFA_XSP16, literal(-7)))
        CFI (cfiCond120) R7 load(1, XDATA, add(CFA_XSP16, literal(-6)))
        CFI (cfiCond120) ?RET_LOW load(1, XDATA, add(CFA_XSP16, literal(-5)))
        CFI (cfiCond120) ?RET_HIGH load(1, XDATA, add(CFA_XSP16, literal(-4)))
        CFI (cfiCond120) ?BRET_EXT load(1, XDATA, add(CFA_XSP16, literal(-3)))
        CFI (cfiCond120) DPL0 load(1, XDATA, add(CFA_XSP16, literal(-2)))
        CFI (cfiCond120) DPH0 load(1, XDATA, add(CFA_XSP16, literal(-1)))
        CFI (cfiCond120) CFA_SP SP+0
        CFI (cfiCond120) CFA_XSP16 add(XSP16, 24)
        CFI Block cfiCond121 Using cfiCommon0
        CFI (cfiCond121) NoFunction
        CFI (cfiCond121) Conditional ??CrossCallReturnLabel_133, ??CrossCallReturnLabel_130, ??CrossCallReturnLabel_127
        CFI (cfiCond121) R6 load(1, XDATA, add(CFA_XSP16, literal(-22)))
        CFI (cfiCond121) VB load(1, XDATA, add(CFA_XSP16, literal(-21)))
        CFI (cfiCond121) V0 load(1, XDATA, add(CFA_XSP16, literal(-20)))
        CFI (cfiCond121) V1 load(1, XDATA, add(CFA_XSP16, literal(-19)))
        CFI (cfiCond121) V2 load(1, XDATA, add(CFA_XSP16, literal(-18)))
        CFI (cfiCond121) V3 load(1, XDATA, add(CFA_XSP16, literal(-17)))
        CFI (cfiCond121) V4 load(1, XDATA, add(CFA_XSP16, literal(-16)))
        CFI (cfiCond121) V5 load(1, XDATA, add(CFA_XSP16, literal(-15)))
        CFI (cfiCond121) V6 load(1, XDATA, add(CFA_XSP16, literal(-14)))
        CFI (cfiCond121) V7 load(1, XDATA, add(CFA_XSP16, literal(-13)))
        CFI (cfiCond121) V8 load(1, XDATA, add(CFA_XSP16, literal(-12)))
        CFI (cfiCond121) V9 load(1, XDATA, add(CFA_XSP16, literal(-11)))
        CFI (cfiCond121) V10 load(1, XDATA, add(CFA_XSP16, literal(-10)))
        CFI (cfiCond121) V11 load(1, XDATA, add(CFA_XSP16, literal(-9)))
        CFI (cfiCond121) V12 load(1, XDATA, add(CFA_XSP16, literal(-8)))
        CFI (cfiCond121) V13 load(1, XDATA, add(CFA_XSP16, literal(-7)))
        CFI (cfiCond121) R7 load(1, XDATA, add(CFA_XSP16, literal(-6)))
        CFI (cfiCond121) ?RET_LOW load(1, XDATA, add(CFA_XSP16, literal(-5)))
        CFI (cfiCond121) ?RET_HIGH load(1, XDATA, add(CFA_XSP16, literal(-4)))
        CFI (cfiCond121) ?BRET_EXT load(1, XDATA, add(CFA_XSP16, literal(-3)))
        CFI (cfiCond121) DPL0 load(1, XDATA, add(CFA_XSP16, literal(-2)))
        CFI (cfiCond121) DPH0 load(1, XDATA, add(CFA_XSP16, literal(-1)))
        CFI (cfiCond121) CFA_SP SP+0
        CFI (cfiCond121) CFA_XSP16 add(XSP16, 36)
        CFI Block cfiCond122 Using cfiCommon0
        CFI (cfiCond122) NoFunction
        CFI (cfiCond122) Conditional ??CrossCallReturnLabel_133, ??CrossCallReturnLabel_130, ??CrossCallReturnLabel_128
        CFI (cfiCond122) R6 load(1, XDATA, add(CFA_XSP16, literal(-14)))
        CFI (cfiCond122) VB load(1, XDATA, add(CFA_XSP16, literal(-13)))
        CFI (cfiCond122) V0 load(1, XDATA, add(CFA_XSP16, literal(-12)))
        CFI (cfiCond122) V1 load(1, XDATA, add(CFA_XSP16, literal(-11)))
        CFI (cfiCond122) V2 load(1, XDATA, add(CFA_XSP16, literal(-10)))
        CFI (cfiCond122) V3 load(1, XDATA, add(CFA_XSP16, literal(-9)))
        CFI (cfiCond122) V4 load(1, XDATA, add(CFA_XSP16, literal(-8)))
        CFI (cfiCond122) V5 load(1, XDATA, add(CFA_XSP16, literal(-7)))
        CFI (cfiCond122) R7 load(1, XDATA, add(CFA_XSP16, literal(-6)))
        CFI (cfiCond122) ?RET_LOW load(1, XDATA, add(CFA_XSP16, literal(-5)))
        CFI (cfiCond122) ?RET_HIGH load(1, XDATA, add(CFA_XSP16, literal(-4)))
        CFI (cfiCond122) ?BRET_EXT load(1, XDATA, add(CFA_XSP16, literal(-3)))
        CFI (cfiCond122) DPL0 load(1, XDATA, add(CFA_XSP16, literal(-2)))
        CFI (cfiCond122) DPH0 load(1, XDATA, add(CFA_XSP16, literal(-1)))
        CFI (cfiCond122) CFA_SP SP+0
        CFI (cfiCond122) CFA_XSP16 add(XSP16, 22)
        CFI Block cfiCond123 Using cfiCommon0
        CFI (cfiCond123) NoFunction
        CFI (cfiCond123) Conditional ??CrossCallReturnLabel_133, ??CrossCallReturnLabel_130, ??CrossCallReturnLabel_120
        CFI (cfiCond123) R6 load(1, XDATA, add(CFA_XSP16, literal(-22)))
        CFI (cfiCond123) VB load(1, XDATA, add(CFA_XSP16, literal(-21)))
        CFI (cfiCond123) V0 load(1, XDATA, add(CFA_XSP16, literal(-20)))
        CFI (cfiCond123) V1 load(1, XDATA, add(CFA_XSP16, literal(-19)))
        CFI (cfiCond123) V2 load(1, XDATA, add(CFA_XSP16, literal(-18)))
        CFI (cfiCond123) V3 load(1, XDATA, add(CFA_XSP16, literal(-17)))
        CFI (cfiCond123) V4 load(1, XDATA, add(CFA_XSP16, literal(-16)))
        CFI (cfiCond123) V5 load(1, XDATA, add(CFA_XSP16, literal(-15)))
        CFI (cfiCond123) V6 load(1, XDATA, add(CFA_XSP16, literal(-14)))
        CFI (cfiCond123) V7 load(1, XDATA, add(CFA_XSP16, literal(-13)))
        CFI (cfiCond123) V8 load(1, XDATA, add(CFA_XSP16, literal(-12)))
        CFI (cfiCond123) V9 load(1, XDATA, add(CFA_XSP16, literal(-11)))
        CFI (cfiCond123) V10 load(1, XDATA, add(CFA_XSP16, literal(-10)))
        CFI (cfiCond123) V11 load(1, XDATA, add(CFA_XSP16, literal(-9)))
        CFI (cfiCond123) V12 load(1, XDATA, add(CFA_XSP16, literal(-8)))
        CFI (cfiCond123) V13 load(1, XDATA, add(CFA_XSP16, literal(-7)))
        CFI (cfiCond123) R7 load(1, XDATA, add(CFA_XSP16, literal(-6)))
        CFI (cfiCond123) ?RET_LOW load(1, XDATA, add(CFA_XSP16, literal(-5)))
        CFI (cfiCond123) ?RET_HIGH load(1, XDATA, add(CFA_XSP16, literal(-4)))
        CFI (cfiCond123) ?BRET_EXT load(1, XDATA, add(CFA_XSP16, literal(-3)))
        CFI (cfiCond123) DPL0 load(1, XDATA, add(CFA_XSP16, literal(-2)))
        CFI (cfiCond123) DPH0 load(1, XDATA, add(CFA_XSP16, literal(-1)))
        CFI (cfiCond123) CFA_SP SP+0
        CFI (cfiCond123) CFA_XSP16 add(XSP16, 36)
        CFI Block cfiCond124 Using cfiCommon0
        CFI (cfiCond124) NoFunction
        CFI (cfiCond124) Conditional ??CrossCallReturnLabel_133, ??CrossCallReturnLabel_130, ??CrossCallReturnLabel_121
        CFI (cfiCond124) R6 load(1, XDATA, add(CFA_XSP16, literal(-22)))
        CFI (cfiCond124) VB load(1, XDATA, add(CFA_XSP16, literal(-21)))
        CFI (cfiCond124) V0 load(1, XDATA, add(CFA_XSP16, literal(-20)))
        CFI (cfiCond124) V1 load(1, XDATA, add(CFA_XSP16, literal(-19)))
        CFI (cfiCond124) V2 load(1, XDATA, add(CFA_XSP16, literal(-18)))
        CFI (cfiCond124) V3 load(1, XDATA, add(CFA_XSP16, literal(-17)))
        CFI (cfiCond124) V4 load(1, XDATA, add(CFA_XSP16, literal(-16)))
        CFI (cfiCond124) V5 load(1, XDATA, add(CFA_XSP16, literal(-15)))
        CFI (cfiCond124) V6 load(1, XDATA, add(CFA_XSP16, literal(-14)))
        CFI (cfiCond124) V7 load(1, XDATA, add(CFA_XSP16, literal(-13)))
        CFI (cfiCond124) V8 load(1, XDATA, add(CFA_XSP16, literal(-12)))
        CFI (cfiCond124) V9 load(1, XDATA, add(CFA_XSP16, literal(-11)))
        CFI (cfiCond124) V10 load(1, XDATA, add(CFA_XSP16, literal(-10)))
        CFI (cfiCond124) V11 load(1, XDATA, add(CFA_XSP16, literal(-9)))
        CFI (cfiCond124) V12 load(1, XDATA, add(CFA_XSP16, literal(-8)))
        CFI (cfiCond124) V13 load(1, XDATA, add(CFA_XSP16, literal(-7)))
        CFI (cfiCond124) R7 load(1, XDATA, add(CFA_XSP16, literal(-6)))
        CFI (cfiCond124) ?RET_LOW load(1, XDATA, add(CFA_XSP16, literal(-5)))
        CFI (cfiCond124) ?RET_HIGH load(1, XDATA, add(CFA_XSP16, literal(-4)))
        CFI (cfiCond124) ?BRET_EXT load(1, XDATA, add(CFA_XSP16, literal(-3)))
        CFI (cfiCond124) DPL0 load(1, XDATA, add(CFA_XSP16, literal(-2)))
        CFI (cfiCond124) DPH0 load(1, XDATA, add(CFA_XSP16, literal(-1)))
        CFI (cfiCond124) CFA_SP SP+0
        CFI (cfiCond124) CFA_XSP16 add(XSP16, 36)
        CFI Block cfiCond125 Using cfiCommon0
        CFI (cfiCond125) NoFunction
        CFI (cfiCond125) Conditional ??CrossCallReturnLabel_133, ??CrossCallReturnLabel_130, ??CrossCallReturnLabel_122
        CFI (cfiCond125) R6 load(1, XDATA, add(CFA_XSP16, literal(-22)))
        CFI (cfiCond125) VB load(1, XDATA, add(CFA_XSP16, literal(-21)))
        CFI (cfiCond125) V0 load(1, XDATA, add(CFA_XSP16, literal(-20)))
        CFI (cfiCond125) V1 load(1, XDATA, add(CFA_XSP16, literal(-19)))
        CFI (cfiCond125) V2 load(1, XDATA, add(CFA_XSP16, literal(-18)))
        CFI (cfiCond125) V3 load(1, XDATA, add(CFA_XSP16, literal(-17)))
        CFI (cfiCond125) V4 load(1, XDATA, add(CFA_XSP16, literal(-16)))
        CFI (cfiCond125) V5 load(1, XDATA, add(CFA_XSP16, literal(-15)))
        CFI (cfiCond125) V6 load(1, XDATA, add(CFA_XSP16, literal(-14)))
        CFI (cfiCond125) V7 load(1, XDATA, add(CFA_XSP16, literal(-13)))
        CFI (cfiCond125) V8 load(1, XDATA, add(CFA_XSP16, literal(-12)))
        CFI (cfiCond125) V9 load(1, XDATA, add(CFA_XSP16, literal(-11)))
        CFI (cfiCond125) V10 load(1, XDATA, add(CFA_XSP16, literal(-10)))
        CFI (cfiCond125) V11 load(1, XDATA, add(CFA_XSP16, literal(-9)))
        CFI (cfiCond125) V12 load(1, XDATA, add(CFA_XSP16, literal(-8)))
        CFI (cfiCond125) V13 load(1, XDATA, add(CFA_XSP16, literal(-7)))
        CFI (cfiCond125) R7 load(1, XDATA, add(CFA_XSP16, literal(-6)))
        CFI (cfiCond125) ?RET_LOW load(1, XDATA, add(CFA_XSP16, literal(-5)))
        CFI (cfiCond125) ?RET_HIGH load(1, XDATA, add(CFA_XSP16, literal(-4)))
        CFI (cfiCond125) ?BRET_EXT load(1, XDATA, add(CFA_XSP16, literal(-3)))
        CFI (cfiCond125) DPL0 load(1, XDATA, add(CFA_XSP16, literal(-2)))
        CFI (cfiCond125) DPH0 load(1, XDATA, add(CFA_XSP16, literal(-1)))
        CFI (cfiCond125) CFA_SP SP+-1
        CFI (cfiCond125) CFA_XSP16 add(XSP16, 36)
        CFI Block cfiCond126 Using cfiCommon0
        CFI (cfiCond126) NoFunction
        CFI (cfiCond126) Conditional ??CrossCallReturnLabel_133, ??CrossCallReturnLabel_130, ??CrossCallReturnLabel_123
        CFI (cfiCond126) R6 load(1, XDATA, add(CFA_XSP16, literal(-22)))
        CFI (cfiCond126) VB load(1, XDATA, add(CFA_XSP16, literal(-21)))
        CFI (cfiCond126) V0 load(1, XDATA, add(CFA_XSP16, literal(-20)))
        CFI (cfiCond126) V1 load(1, XDATA, add(CFA_XSP16, literal(-19)))
        CFI (cfiCond126) V2 load(1, XDATA, add(CFA_XSP16, literal(-18)))
        CFI (cfiCond126) V3 load(1, XDATA, add(CFA_XSP16, literal(-17)))
        CFI (cfiCond126) V4 load(1, XDATA, add(CFA_XSP16, literal(-16)))
        CFI (cfiCond126) V5 load(1, XDATA, add(CFA_XSP16, literal(-15)))
        CFI (cfiCond126) V6 load(1, XDATA, add(CFA_XSP16, literal(-14)))
        CFI (cfiCond126) V7 load(1, XDATA, add(CFA_XSP16, literal(-13)))
        CFI (cfiCond126) V8 load(1, XDATA, add(CFA_XSP16, literal(-12)))
        CFI (cfiCond126) V9 load(1, XDATA, add(CFA_XSP16, literal(-11)))
        CFI (cfiCond126) V10 load(1, XDATA, add(CFA_XSP16, literal(-10)))
        CFI (cfiCond126) V11 load(1, XDATA, add(CFA_XSP16, literal(-9)))
        CFI (cfiCond126) V12 load(1, XDATA, add(CFA_XSP16, literal(-8)))
        CFI (cfiCond126) V13 load(1, XDATA, add(CFA_XSP16, literal(-7)))
        CFI (cfiCond126) R7 load(1, XDATA, add(CFA_XSP16, literal(-6)))
        CFI (cfiCond126) ?RET_LOW load(1, XDATA, add(CFA_XSP16, literal(-5)))
        CFI (cfiCond126) ?RET_HIGH load(1, XDATA, add(CFA_XSP16, literal(-4)))
        CFI (cfiCond126) ?BRET_EXT load(1, XDATA, add(CFA_XSP16, literal(-3)))
        CFI (cfiCond126) DPL0 load(1, XDATA, add(CFA_XSP16, literal(-2)))
        CFI (cfiCond126) DPH0 load(1, XDATA, add(CFA_XSP16, literal(-1)))
        CFI (cfiCond126) CFA_SP SP+0
        CFI (cfiCond126) CFA_XSP16 add(XSP16, 36)
        CFI Block cfiCond127 Using cfiCommon0
        CFI (cfiCond127) NoFunction
        CFI (cfiCond127) Conditional ??CrossCallReturnLabel_133, ??CrossCallReturnLabel_130, ??CrossCallReturnLabel_124
        CFI (cfiCond127) R6 load(1, XDATA, add(CFA_XSP16, literal(-22)))
        CFI (cfiCond127) VB load(1, XDATA, add(CFA_XSP16, literal(-21)))
        CFI (cfiCond127) V0 load(1, XDATA, add(CFA_XSP16, literal(-20)))
        CFI (cfiCond127) V1 load(1, XDATA, add(CFA_XSP16, literal(-19)))
        CFI (cfiCond127) V2 load(1, XDATA, add(CFA_XSP16, literal(-18)))
        CFI (cfiCond127) V3 load(1, XDATA, add(CFA_XSP16, literal(-17)))
        CFI (cfiCond127) V4 load(1, XDATA, add(CFA_XSP16, literal(-16)))
        CFI (cfiCond127) V5 load(1, XDATA, add(CFA_XSP16, literal(-15)))
        CFI (cfiCond127) V6 load(1, XDATA, add(CFA_XSP16, literal(-14)))
        CFI (cfiCond127) V7 load(1, XDATA, add(CFA_XSP16, literal(-13)))
        CFI (cfiCond127) V8 load(1, XDATA, add(CFA_XSP16, literal(-12)))
        CFI (cfiCond127) V9 load(1, XDATA, add(CFA_XSP16, literal(-11)))
        CFI (cfiCond127) V10 load(1, XDATA, add(CFA_XSP16, literal(-10)))
        CFI (cfiCond127) V11 load(1, XDATA, add(CFA_XSP16, literal(-9)))
        CFI (cfiCond127) V12 load(1, XDATA, add(CFA_XSP16, literal(-8)))
        CFI (cfiCond127) V13 load(1, XDATA, add(CFA_XSP16, literal(-7)))
        CFI (cfiCond127) R7 load(1, XDATA, add(CFA_XSP16, literal(-6)))
        CFI (cfiCond127) ?RET_LOW load(1, XDATA, add(CFA_XSP16, literal(-5)))
        CFI (cfiCond127) ?RET_HIGH load(1, XDATA, add(CFA_XSP16, literal(-4)))
        CFI (cfiCond127) ?BRET_EXT load(1, XDATA, add(CFA_XSP16, literal(-3)))
        CFI (cfiCond127) DPL0 load(1, XDATA, add(CFA_XSP16, literal(-2)))
        CFI (cfiCond127) DPH0 load(1, XDATA, add(CFA_XSP16, literal(-1)))
        CFI (cfiCond127) CFA_SP SP+0
        CFI (cfiCond127) CFA_XSP16 add(XSP16, 36)
        CFI Block cfiCond128 Using cfiCommon0
        CFI (cfiCond128) NoFunction
        CFI (cfiCond128) Conditional ??CrossCallReturnLabel_133, ??CrossCallReturnLabel_130, ??CrossCallReturnLabel_125
        CFI (cfiCond128) R6 load(1, XDATA, add(CFA_XSP16, literal(-22)))
        CFI (cfiCond128) VB load(1, XDATA, add(CFA_XSP16, literal(-21)))
        CFI (cfiCond128) V0 load(1, XDATA, add(CFA_XSP16, literal(-20)))
        CFI (cfiCond128) V1 load(1, XDATA, add(CFA_XSP16, literal(-19)))
        CFI (cfiCond128) V2 load(1, XDATA, add(CFA_XSP16, literal(-18)))
        CFI (cfiCond128) V3 load(1, XDATA, add(CFA_XSP16, literal(-17)))
        CFI (cfiCond128) V4 load(1, XDATA, add(CFA_XSP16, literal(-16)))
        CFI (cfiCond128) V5 load(1, XDATA, add(CFA_XSP16, literal(-15)))
        CFI (cfiCond128) V6 load(1, XDATA, add(CFA_XSP16, literal(-14)))
        CFI (cfiCond128) V7 load(1, XDATA, add(CFA_XSP16, literal(-13)))
        CFI (cfiCond128) V8 load(1, XDATA, add(CFA_XSP16, literal(-12)))
        CFI (cfiCond128) V9 load(1, XDATA, add(CFA_XSP16, literal(-11)))
        CFI (cfiCond128) V10 load(1, XDATA, add(CFA_XSP16, literal(-10)))
        CFI (cfiCond128) V11 load(1, XDATA, add(CFA_XSP16, literal(-9)))
        CFI (cfiCond128) V12 load(1, XDATA, add(CFA_XSP16, literal(-8)))
        CFI (cfiCond128) V13 load(1, XDATA, add(CFA_XSP16, literal(-7)))
        CFI (cfiCond128) R7 load(1, XDATA, add(CFA_XSP16, literal(-6)))
        CFI (cfiCond128) ?RET_LOW load(1, XDATA, add(CFA_XSP16, literal(-5)))
        CFI (cfiCond128) ?RET_HIGH load(1, XDATA, add(CFA_XSP16, literal(-4)))
        CFI (cfiCond128) ?BRET_EXT load(1, XDATA, add(CFA_XSP16, literal(-3)))
        CFI (cfiCond128) DPL0 load(1, XDATA, add(CFA_XSP16, literal(-2)))
        CFI (cfiCond128) DPH0 load(1, XDATA, add(CFA_XSP16, literal(-1)))
        CFI (cfiCond128) CFA_SP SP+0
        CFI (cfiCond128) CFA_XSP16 add(XSP16, 36)
        CFI Block cfiCond129 Using cfiCommon0
        CFI (cfiCond129) NoFunction
        CFI (cfiCond129) Conditional ??CrossCallReturnLabel_133, ??CrossCallReturnLabel_130, ??CrossCallReturnLabel_126
        CFI (cfiCond129) R6 load(1, XDATA, add(CFA_XSP16, literal(-14)))
        CFI (cfiCond129) VB load(1, XDATA, add(CFA_XSP16, literal(-13)))
        CFI (cfiCond129) V0 load(1, XDATA, add(CFA_XSP16, literal(-12)))
        CFI (cfiCond129) V1 load(1, XDATA, add(CFA_XSP16, literal(-11)))
        CFI (cfiCond129) V2 load(1, XDATA, add(CFA_XSP16, literal(-10)))
        CFI (cfiCond129) V3 load(1, XDATA, add(CFA_XSP16, literal(-9)))
        CFI (cfiCond129) V4 load(1, XDATA, add(CFA_XSP16, literal(-8)))
        CFI (cfiCond129) V5 load(1, XDATA, add(CFA_XSP16, literal(-7)))
        CFI (cfiCond129) R7 load(1, XDATA, add(CFA_XSP16, literal(-6)))
        CFI (cfiCond129) ?RET_LOW load(1, XDATA, add(CFA_XSP16, literal(-5)))
        CFI (cfiCond129) ?RET_HIGH load(1, XDATA, add(CFA_XSP16, literal(-4)))
        CFI (cfiCond129) ?BRET_EXT load(1, XDATA, add(CFA_XSP16, literal(-3)))
        CFI (cfiCond129) DPL0 load(1, XDATA, add(CFA_XSP16, literal(-2)))
        CFI (cfiCond129) DPH0 load(1, XDATA, add(CFA_XSP16, literal(-1)))
        CFI (cfiCond129) CFA_SP SP+0
        CFI (cfiCond129) CFA_XSP16 add(XSP16, 20)
        CFI Block cfiCond130 Using cfiCommon0
        CFI (cfiCond130) NoFunction
        CFI (cfiCond130) Conditional ??CrossCallReturnLabel_131
        CFI (cfiCond130) R6 load(1, XDATA, add(CFA_XSP16, literal(-24)))
        CFI (cfiCond130) VB load(1, XDATA, add(CFA_XSP16, literal(-23)))
        CFI (cfiCond130) V0 load(1, XDATA, add(CFA_XSP16, literal(-22)))
        CFI (cfiCond130) V1 load(1, XDATA, add(CFA_XSP16, literal(-21)))
        CFI (cfiCond130) V2 load(1, XDATA, add(CFA_XSP16, literal(-20)))
        CFI (cfiCond130) V3 load(1, XDATA, add(CFA_XSP16, literal(-19)))
        CFI (cfiCond130) V4 load(1, XDATA, add(CFA_XSP16, literal(-18)))
        CFI (cfiCond130) V5 load(1, XDATA, add(CFA_XSP16, literal(-17)))
        CFI (cfiCond130) V6 load(1, XDATA, add(CFA_XSP16, literal(-16)))
        CFI (cfiCond130) V7 load(1, XDATA, add(CFA_XSP16, literal(-15)))
        CFI (cfiCond130) V8 load(1, XDATA, add(CFA_XSP16, literal(-14)))
        CFI (cfiCond130) V9 load(1, XDATA, add(CFA_XSP16, literal(-13)))
        CFI (cfiCond130) V10 load(1, XDATA, add(CFA_XSP16, literal(-12)))
        CFI (cfiCond130) V11 load(1, XDATA, add(CFA_XSP16, literal(-11)))
        CFI (cfiCond130) V12 load(1, XDATA, add(CFA_XSP16, literal(-10)))
        CFI (cfiCond130) V13 load(1, XDATA, add(CFA_XSP16, literal(-9)))
        CFI (cfiCond130) V14 load(1, XDATA, add(CFA_XSP16, literal(-8)))
        CFI (cfiCond130) V15 load(1, XDATA, add(CFA_XSP16, literal(-7)))
        CFI (cfiCond130) R7 load(1, XDATA, add(CFA_XSP16, literal(-6)))
        CFI (cfiCond130) ?RET_LOW load(1, XDATA, add(CFA_XSP16, literal(-5)))
        CFI (cfiCond130) ?RET_HIGH load(1, XDATA, add(CFA_XSP16, literal(-4)))
        CFI (cfiCond130) ?BRET_EXT load(1, XDATA, add(CFA_XSP16, literal(-3)))
        CFI (cfiCond130) DPL0 load(1, XDATA, add(CFA_XSP16, literal(-2)))
        CFI (cfiCond130) DPH0 load(1, XDATA, add(CFA_XSP16, literal(-1)))
        CFI (cfiCond130) CFA_SP SP+0
        CFI (cfiCond130) CFA_XSP16 add(XSP16, 25)
        CFI Block cfiCond131 Using cfiCommon0
        CFI (cfiCond131) NoFunction
        CFI (cfiCond131) Conditional ??CrossCallReturnLabel_132
        CFI (cfiCond131) R6 load(1, XDATA, add(CFA_XSP16, literal(-24)))
        CFI (cfiCond131) VB load(1, XDATA, add(CFA_XSP16, literal(-23)))
        CFI (cfiCond131) V0 load(1, XDATA, add(CFA_XSP16, literal(-22)))
        CFI (cfiCond131) V1 load(1, XDATA, add(CFA_XSP16, literal(-21)))
        CFI (cfiCond131) V2 load(1, XDATA, add(CFA_XSP16, literal(-20)))
        CFI (cfiCond131) V3 load(1, XDATA, add(CFA_XSP16, literal(-19)))
        CFI (cfiCond131) V4 load(1, XDATA, add(CFA_XSP16, literal(-18)))
        CFI (cfiCond131) V5 load(1, XDATA, add(CFA_XSP16, literal(-17)))
        CFI (cfiCond131) V6 load(1, XDATA, add(CFA_XSP16, literal(-16)))
        CFI (cfiCond131) V7 load(1, XDATA, add(CFA_XSP16, literal(-15)))
        CFI (cfiCond131) V8 load(1, XDATA, add(CFA_XSP16, literal(-14)))
        CFI (cfiCond131) V9 load(1, XDATA, add(CFA_XSP16, literal(-13)))
        CFI (cfiCond131) V10 load(1, XDATA, add(CFA_XSP16, literal(-12)))
        CFI (cfiCond131) V11 load(1, XDATA, add(CFA_XSP16, literal(-11)))
        CFI (cfiCond131) V12 load(1, XDATA, add(CFA_XSP16, literal(-10)))
        CFI (cfiCond131) V13 load(1, XDATA, add(CFA_XSP16, literal(-9)))
        CFI (cfiCond131) V14 load(1, XDATA, add(CFA_XSP16, literal(-8)))
        CFI (cfiCond131) V15 load(1, XDATA, add(CFA_XSP16, literal(-7)))
        CFI (cfiCond131) R7 load(1, XDATA, add(CFA_XSP16, literal(-6)))
        CFI (cfiCond131) ?RET_LOW load(1, XDATA, add(CFA_XSP16, literal(-5)))
        CFI (cfiCond131) ?RET_HIGH load(1, XDATA, add(CFA_XSP16, literal(-4)))
        CFI (cfiCond131) ?BRET_EXT load(1, XDATA, add(CFA_XSP16, literal(-3)))
        CFI (cfiCond131) DPL0 load(1, XDATA, add(CFA_XSP16, literal(-2)))
        CFI (cfiCond131) DPH0 load(1, XDATA, add(CFA_XSP16, literal(-1)))
        CFI (cfiCond131) CFA_SP SP+0
        CFI (cfiCond131) CFA_XSP16 add(XSP16, 25)
        CFI Block cfiPicker132 Using cfiCommon1
        CFI (cfiPicker132) NoFunction
        CFI (cfiPicker132) Picker
        ADDC    A,#0x0
        MOV     R1,A
        MOV     DPL,R0
        MOV     DPH,R1
        RET
        CFI EndBlock cfiCond117
        CFI EndBlock cfiCond118
        CFI EndBlock cfiCond119
        CFI EndBlock cfiCond120
        CFI EndBlock cfiCond121
        CFI EndBlock cfiCond122
        CFI EndBlock cfiCond123
        CFI EndBlock cfiCond124
        CFI EndBlock cfiCond125
        CFI EndBlock cfiCond126
        CFI EndBlock cfiCond127
        CFI EndBlock cfiCond128
        CFI EndBlock cfiCond129
        CFI EndBlock cfiCond130
        CFI EndBlock cfiCond131
        CFI EndBlock cfiPicker132

        RSEG BANKED_CODE:CODE:NOROOT(0)
?Subroutine41:
        CFI Block cfiCond133 Using cfiCommon0
        CFI NoFunction
        CFI Conditional ??CrossCallReturnLabel_92
        CFI R6 load(1, XDATA, add(CFA_XSP16, literal(-9)))
        CFI VB load(1, XDATA, add(CFA_XSP16, literal(-8)))
        CFI V0 load(1, XDATA, add(CFA_XSP16, literal(-7)))
        CFI R7 load(1, XDATA, add(CFA_XSP16, literal(-6)))
        CFI ?RET_LOW load(1, XDATA, add(CFA_XSP16, literal(-5)))
        CFI ?RET_HIGH load(1, XDATA, add(CFA_XSP16, literal(-4)))
        CFI ?BRET_EXT load(1, XDATA, add(CFA_XSP16, literal(-3)))
        CFI DPL0 load(1, XDATA, add(CFA_XSP16, literal(-2)))
        CFI DPH0 load(1, XDATA, add(CFA_XSP16, literal(-1)))
        CFI CFA_SP SP+0
        CFI CFA_XSP16 add(XSP16, 9)
        CFI Block cfiCond134 Using cfiCommon0
        CFI (cfiCond134) NoFunction
        CFI (cfiCond134) Conditional ??CrossCallReturnLabel_93
        CFI (cfiCond134) R6 load(1, XDATA, add(CFA_XSP16, literal(-20)))
        CFI (cfiCond134) VB load(1, XDATA, add(CFA_XSP16, literal(-19)))
        CFI (cfiCond134) V0 load(1, XDATA, add(CFA_XSP16, literal(-18)))
        CFI (cfiCond134) V1 load(1, XDATA, add(CFA_XSP16, literal(-17)))
        CFI (cfiCond134) V2 load(1, XDATA, add(CFA_XSP16, literal(-16)))
        CFI (cfiCond134) V3 load(1, XDATA, add(CFA_XSP16, literal(-15)))
        CFI (cfiCond134) V4 load(1, XDATA, add(CFA_XSP16, literal(-14)))
        CFI (cfiCond134) V5 load(1, XDATA, add(CFA_XSP16, literal(-13)))
        CFI (cfiCond134) V6 load(1, XDATA, add(CFA_XSP16, literal(-12)))
        CFI (cfiCond134) V7 load(1, XDATA, add(CFA_XSP16, literal(-11)))
        CFI (cfiCond134) V8 load(1, XDATA, add(CFA_XSP16, literal(-10)))
        CFI (cfiCond134) V9 load(1, XDATA, add(CFA_XSP16, literal(-9)))
        CFI (cfiCond134) V10 load(1, XDATA, add(CFA_XSP16, literal(-8)))
        CFI (cfiCond134) V11 load(1, XDATA, add(CFA_XSP16, literal(-7)))
        CFI (cfiCond134) R7 load(1, XDATA, add(CFA_XSP16, literal(-6)))
        CFI (cfiCond134) ?RET_LOW load(1, XDATA, add(CFA_XSP16, literal(-5)))
        CFI (cfiCond134) ?RET_HIGH load(1, XDATA, add(CFA_XSP16, literal(-4)))
        CFI (cfiCond134) ?BRET_EXT load(1, XDATA, add(CFA_XSP16, literal(-3)))
        CFI (cfiCond134) DPL0 load(1, XDATA, add(CFA_XSP16, literal(-2)))
        CFI (cfiCond134) DPH0 load(1, XDATA, add(CFA_XSP16, literal(-1)))
        CFI (cfiCond134) CFA_SP SP+0
        CFI (cfiCond134) CFA_XSP16 add(XSP16, 20)
        CFI Block cfiPicker135 Using cfiCommon1
        CFI (cfiPicker135) NoFunction
        CFI (cfiPicker135) Picker
        MOV     DPTR,#pMtAfInMsgList
        CFI EndBlock cfiCond133
        CFI EndBlock cfiCond134
        CFI EndBlock cfiPicker135
        REQUIRE ??Subroutine52_0
        ; // Fall through to label ??Subroutine52_0

        RSEG BANKED_CODE:CODE:NOROOT(0)
??Subroutine52_0:
        CFI Block cfiCond136 Using cfiCommon0
        CFI NoFunction
        CFI Conditional ??CrossCallReturnLabel_89
        CFI R6 load(1, XDATA, add(CFA_XSP16, literal(-9)))
        CFI VB load(1, XDATA, add(CFA_XSP16, literal(-8)))
        CFI V0 load(1, XDATA, add(CFA_XSP16, literal(-7)))
        CFI R7 load(1, XDATA, add(CFA_XSP16, literal(-6)))
        CFI ?RET_LOW load(1, XDATA, add(CFA_XSP16, literal(-5)))
        CFI ?RET_HIGH load(1, XDATA, add(CFA_XSP16, literal(-4)))
        CFI ?BRET_EXT load(1, XDATA, add(CFA_XSP16, literal(-3)))
        CFI DPL0 load(1, XDATA, add(CFA_XSP16, literal(-2)))
        CFI DPH0 load(1, XDATA, add(CFA_XSP16, literal(-1)))
        CFI CFA_SP SP+0
        CFI CFA_XSP16 add(XSP16, 9)
        CFI Block cfiCond137 Using cfiCommon0
        CFI (cfiCond137) NoFunction
        CFI (cfiCond137) Conditional ??CrossCallReturnLabel_94, ??CrossCallReturnLabel_86
        CFI (cfiCond137) R6 load(1, XDATA, add(CFA_XSP16, literal(-22)))
        CFI (cfiCond137) VB load(1, XDATA, add(CFA_XSP16, literal(-21)))
        CFI (cfiCond137) V0 load(1, XDATA, add(CFA_XSP16, literal(-20)))
        CFI (cfiCond137) V1 load(1, XDATA, add(CFA_XSP16, literal(-19)))
        CFI (cfiCond137) V2 load(1, XDATA, add(CFA_XSP16, literal(-18)))
        CFI (cfiCond137) V3 load(1, XDATA, add(CFA_XSP16, literal(-17)))
        CFI (cfiCond137) V4 load(1, XDATA, add(CFA_XSP16, literal(-16)))
        CFI (cfiCond137) V5 load(1, XDATA, add(CFA_XSP16, literal(-15)))
        CFI (cfiCond137) V6 load(1, XDATA, add(CFA_XSP16, literal(-14)))
        CFI (cfiCond137) V7 load(1, XDATA, add(CFA_XSP16, literal(-13)))
        CFI (cfiCond137) V8 load(1, XDATA, add(CFA_XSP16, literal(-12)))
        CFI (cfiCond137) V9 load(1, XDATA, add(CFA_XSP16, literal(-11)))
        CFI (cfiCond137) V10 load(1, XDATA, add(CFA_XSP16, literal(-10)))
        CFI (cfiCond137) V11 load(1, XDATA, add(CFA_XSP16, literal(-9)))
        CFI (cfiCond137) V12 load(1, XDATA, add(CFA_XSP16, literal(-8)))
        CFI (cfiCond137) V13 load(1, XDATA, add(CFA_XSP16, literal(-7)))
        CFI (cfiCond137) R7 load(1, XDATA, add(CFA_XSP16, literal(-6)))
        CFI (cfiCond137) ?RET_LOW load(1, XDATA, add(CFA_XSP16, literal(-5)))
        CFI (cfiCond137) ?RET_HIGH load(1, XDATA, add(CFA_XSP16, literal(-4)))
        CFI (cfiCond137) ?BRET_EXT load(1, XDATA, add(CFA_XSP16, literal(-3)))
        CFI (cfiCond137) DPL0 load(1, XDATA, add(CFA_XSP16, literal(-2)))
        CFI (cfiCond137) DPH0 load(1, XDATA, add(CFA_XSP16, literal(-1)))
        CFI (cfiCond137) CFA_SP SP+0
        CFI (cfiCond137) CFA_XSP16 add(XSP16, 36)
        CFI Block cfiCond138 Using cfiCommon0
        CFI (cfiCond138) NoFunction
        CFI (cfiCond138) Conditional ??CrossCallReturnLabel_94, ??CrossCallReturnLabel_87, ??CrossCallReturnLabel_4
        CFI (cfiCond138) R6 load(1, XDATA, add(CFA_XSP16, literal(-22)))
        CFI (cfiCond138) VB load(1, XDATA, add(CFA_XSP16, literal(-21)))
        CFI (cfiCond138) V0 load(1, XDATA, add(CFA_XSP16, literal(-20)))
        CFI (cfiCond138) V1 load(1, XDATA, add(CFA_XSP16, literal(-19)))
        CFI (cfiCond138) V2 load(1, XDATA, add(CFA_XSP16, literal(-18)))
        CFI (cfiCond138) V3 load(1, XDATA, add(CFA_XSP16, literal(-17)))
        CFI (cfiCond138) V4 load(1, XDATA, add(CFA_XSP16, literal(-16)))
        CFI (cfiCond138) V5 load(1, XDATA, add(CFA_XSP16, literal(-15)))
        CFI (cfiCond138) V6 load(1, XDATA, add(CFA_XSP16, literal(-14)))
        CFI (cfiCond138) V7 load(1, XDATA, add(CFA_XSP16, literal(-13)))
        CFI (cfiCond138) V8 load(1, XDATA, add(CFA_XSP16, literal(-12)))
        CFI (cfiCond138) V9 load(1, XDATA, add(CFA_XSP16, literal(-11)))
        CFI (cfiCond138) V10 load(1, XDATA, add(CFA_XSP16, literal(-10)))
        CFI (cfiCond138) V11 load(1, XDATA, add(CFA_XSP16, literal(-9)))
        CFI (cfiCond138) V12 load(1, XDATA, add(CFA_XSP16, literal(-8)))
        CFI (cfiCond138) V13 load(1, XDATA, add(CFA_XSP16, literal(-7)))
        CFI (cfiCond138) R7 load(1, XDATA, add(CFA_XSP16, literal(-6)))
        CFI (cfiCond138) ?RET_LOW load(1, XDATA, add(CFA_XSP16, literal(-5)))
        CFI (cfiCond138) ?RET_HIGH load(1, XDATA, add(CFA_XSP16, literal(-4)))
        CFI (cfiCond138) ?BRET_EXT load(1, XDATA, add(CFA_XSP16, literal(-3)))
        CFI (cfiCond138) DPL0 load(1, XDATA, add(CFA_XSP16, literal(-2)))
        CFI (cfiCond138) DPH0 load(1, XDATA, add(CFA_XSP16, literal(-1)))
        CFI (cfiCond138) CFA_SP SP+0
        CFI (cfiCond138) CFA_XSP16 add(XSP16, 36)
        CFI Block cfiCond139 Using cfiCommon0
        CFI (cfiCond139) NoFunction
        CFI (cfiCond139) Conditional ??CrossCallReturnLabel_94, ??CrossCallReturnLabel_87, ??CrossCallReturnLabel_5
        CFI (cfiCond139) R6 load(1, XDATA, add(CFA_XSP16, literal(-21)))
        CFI (cfiCond139) VB load(1, XDATA, add(CFA_XSP16, literal(-20)))
        CFI (cfiCond139) V0 load(1, XDATA, add(CFA_XSP16, literal(-19)))
        CFI (cfiCond139) V1 load(1, XDATA, add(CFA_XSP16, literal(-18)))
        CFI (cfiCond139) V2 load(1, XDATA, add(CFA_XSP16, literal(-17)))
        CFI (cfiCond139) V3 load(1, XDATA, add(CFA_XSP16, literal(-16)))
        CFI (cfiCond139) V4 load(1, XDATA, add(CFA_XSP16, literal(-15)))
        CFI (cfiCond139) V5 load(1, XDATA, add(CFA_XSP16, literal(-14)))
        CFI (cfiCond139) V6 load(1, XDATA, add(CFA_XSP16, literal(-13)))
        CFI (cfiCond139) V7 load(1, XDATA, add(CFA_XSP16, literal(-12)))
        CFI (cfiCond139) V8 load(1, XDATA, add(CFA_XSP16, literal(-11)))
        CFI (cfiCond139) V9 load(1, XDATA, add(CFA_XSP16, literal(-10)))
        CFI (cfiCond139) V10 load(1, XDATA, add(CFA_XSP16, literal(-9)))
        CFI (cfiCond139) V11 load(1, XDATA, add(CFA_XSP16, literal(-8)))
        CFI (cfiCond139) V12 load(1, XDATA, add(CFA_XSP16, literal(-7)))
        CFI (cfiCond139) R7 load(1, XDATA, add(CFA_XSP16, literal(-6)))
        CFI (cfiCond139) ?RET_LOW load(1, XDATA, add(CFA_XSP16, literal(-5)))
        CFI (cfiCond139) ?RET_HIGH load(1, XDATA, add(CFA_XSP16, literal(-4)))
        CFI (cfiCond139) ?BRET_EXT load(1, XDATA, add(CFA_XSP16, literal(-3)))
        CFI (cfiCond139) DPL0 load(1, XDATA, add(CFA_XSP16, literal(-2)))
        CFI (cfiCond139) DPH0 load(1, XDATA, add(CFA_XSP16, literal(-1)))
        CFI (cfiCond139) CFA_SP SP+0
        CFI (cfiCond139) CFA_XSP16 add(XSP16, 35)
        CFI Block cfiCond140 Using cfiCommon0
        CFI (cfiCond140) NoFunction
        CFI (cfiCond140) Conditional ??CrossCallReturnLabel_94, ??CrossCallReturnLabel_88, ??CrossCallReturnLabel_84
        CFI (cfiCond140) R6 load(1, XDATA, add(CFA_XSP16, literal(-21)))
        CFI (cfiCond140) VB load(1, XDATA, add(CFA_XSP16, literal(-20)))
        CFI (cfiCond140) V0 load(1, XDATA, add(CFA_XSP16, literal(-19)))
        CFI (cfiCond140) V1 load(1, XDATA, add(CFA_XSP16, literal(-18)))
        CFI (cfiCond140) V2 load(1, XDATA, add(CFA_XSP16, literal(-17)))
        CFI (cfiCond140) V3 load(1, XDATA, add(CFA_XSP16, literal(-16)))
        CFI (cfiCond140) V4 load(1, XDATA, add(CFA_XSP16, literal(-15)))
        CFI (cfiCond140) V5 load(1, XDATA, add(CFA_XSP16, literal(-14)))
        CFI (cfiCond140) V6 load(1, XDATA, add(CFA_XSP16, literal(-13)))
        CFI (cfiCond140) V7 load(1, XDATA, add(CFA_XSP16, literal(-12)))
        CFI (cfiCond140) V8 load(1, XDATA, add(CFA_XSP16, literal(-11)))
        CFI (cfiCond140) V9 load(1, XDATA, add(CFA_XSP16, literal(-10)))
        CFI (cfiCond140) V10 load(1, XDATA, add(CFA_XSP16, literal(-9)))
        CFI (cfiCond140) V11 load(1, XDATA, add(CFA_XSP16, literal(-8)))
        CFI (cfiCond140) V12 load(1, XDATA, add(CFA_XSP16, literal(-7)))
        CFI (cfiCond140) R7 load(1, XDATA, add(CFA_XSP16, literal(-6)))
        CFI (cfiCond140) ?RET_LOW load(1, XDATA, add(CFA_XSP16, literal(-5)))
        CFI (cfiCond140) ?RET_HIGH load(1, XDATA, add(CFA_XSP16, literal(-4)))
        CFI (cfiCond140) ?BRET_EXT load(1, XDATA, add(CFA_XSP16, literal(-3)))
        CFI (cfiCond140) DPL0 load(1, XDATA, add(CFA_XSP16, literal(-2)))
        CFI (cfiCond140) DPH0 load(1, XDATA, add(CFA_XSP16, literal(-1)))
        CFI (cfiCond140) CFA_SP SP+0
        CFI (cfiCond140) CFA_XSP16 add(XSP16, 35)
        CFI Block cfiCond141 Using cfiCommon0
        CFI (cfiCond141) NoFunction
        CFI (cfiCond141) Conditional ??CrossCallReturnLabel_94, ??CrossCallReturnLabel_88, ??CrossCallReturnLabel_85
        CFI (cfiCond141) R6 load(1, XDATA, add(CFA_XSP16, literal(-20)))
        CFI (cfiCond141) VB load(1, XDATA, add(CFA_XSP16, literal(-19)))
        CFI (cfiCond141) V0 load(1, XDATA, add(CFA_XSP16, literal(-18)))
        CFI (cfiCond141) V1 load(1, XDATA, add(CFA_XSP16, literal(-17)))
        CFI (cfiCond141) V2 load(1, XDATA, add(CFA_XSP16, literal(-16)))
        CFI (cfiCond141) V3 load(1, XDATA, add(CFA_XSP16, literal(-15)))
        CFI (cfiCond141) V4 load(1, XDATA, add(CFA_XSP16, literal(-14)))
        CFI (cfiCond141) V5 load(1, XDATA, add(CFA_XSP16, literal(-13)))
        CFI (cfiCond141) V6 load(1, XDATA, add(CFA_XSP16, literal(-12)))
        CFI (cfiCond141) V7 load(1, XDATA, add(CFA_XSP16, literal(-11)))
        CFI (cfiCond141) V8 load(1, XDATA, add(CFA_XSP16, literal(-10)))
        CFI (cfiCond141) V9 load(1, XDATA, add(CFA_XSP16, literal(-9)))
        CFI (cfiCond141) V10 load(1, XDATA, add(CFA_XSP16, literal(-8)))
        CFI (cfiCond141) V11 load(1, XDATA, add(CFA_XSP16, literal(-7)))
        CFI (cfiCond141) R7 load(1, XDATA, add(CFA_XSP16, literal(-6)))
        CFI (cfiCond141) ?RET_LOW load(1, XDATA, add(CFA_XSP16, literal(-5)))
        CFI (cfiCond141) ?RET_HIGH load(1, XDATA, add(CFA_XSP16, literal(-4)))
        CFI (cfiCond141) ?BRET_EXT load(1, XDATA, add(CFA_XSP16, literal(-3)))
        CFI (cfiCond141) DPL0 load(1, XDATA, add(CFA_XSP16, literal(-2)))
        CFI (cfiCond141) DPH0 load(1, XDATA, add(CFA_XSP16, literal(-1)))
        CFI (cfiCond141) CFA_SP SP+0
        CFI (cfiCond141) CFA_XSP16 add(XSP16, 20)
        CFI Block cfiCond142 Using cfiCommon0
        CFI (cfiCond142) NoFunction
        CFI (cfiCond142) Conditional ??CrossCallReturnLabel_94, ??CrossCallReturnLabel_88, ??CrossCallReturnLabel_83
        CFI (cfiCond142) R6 load(1, XDATA, add(CFA_XSP16, literal(-22)))
        CFI (cfiCond142) VB load(1, XDATA, add(CFA_XSP16, literal(-21)))
        CFI (cfiCond142) V0 load(1, XDATA, add(CFA_XSP16, literal(-20)))
        CFI (cfiCond142) V1 load(1, XDATA, add(CFA_XSP16, literal(-19)))
        CFI (cfiCond142) V2 load(1, XDATA, add(CFA_XSP16, literal(-18)))
        CFI (cfiCond142) V3 load(1, XDATA, add(CFA_XSP16, literal(-17)))
        CFI (cfiCond142) V4 load(1, XDATA, add(CFA_XSP16, literal(-16)))
        CFI (cfiCond142) V5 load(1, XDATA, add(CFA_XSP16, literal(-15)))
        CFI (cfiCond142) V6 load(1, XDATA, add(CFA_XSP16, literal(-14)))
        CFI (cfiCond142) V7 load(1, XDATA, add(CFA_XSP16, literal(-13)))
        CFI (cfiCond142) V8 load(1, XDATA, add(CFA_XSP16, literal(-12)))
        CFI (cfiCond142) V9 load(1, XDATA, add(CFA_XSP16, literal(-11)))
        CFI (cfiCond142) V10 load(1, XDATA, add(CFA_XSP16, literal(-10)))
        CFI (cfiCond142) V11 load(1, XDATA, add(CFA_XSP16, literal(-9)))
        CFI (cfiCond142) V12 load(1, XDATA, add(CFA_XSP16, literal(-8)))
        CFI (cfiCond142) V13 load(1, XDATA, add(CFA_XSP16, literal(-7)))
        CFI (cfiCond142) R7 load(1, XDATA, add(CFA_XSP16, literal(-6)))
        CFI (cfiCond142) ?RET_LOW load(1, XDATA, add(CFA_XSP16, literal(-5)))
        CFI (cfiCond142) ?RET_HIGH load(1, XDATA, add(CFA_XSP16, literal(-4)))
        CFI (cfiCond142) ?BRET_EXT load(1, XDATA, add(CFA_XSP16, literal(-3)))
        CFI (cfiCond142) DPL0 load(1, XDATA, add(CFA_XSP16, literal(-2)))
        CFI (cfiCond142) DPH0 load(1, XDATA, add(CFA_XSP16, literal(-1)))
        CFI (cfiCond142) CFA_SP SP+0
        CFI (cfiCond142) CFA_XSP16 add(XSP16, 36)
        CFI Block cfiCond143 Using cfiCommon0
        CFI (cfiCond143) NoFunction
        CFI (cfiCond143) Conditional ??CrossCallReturnLabel_90
        CFI (cfiCond143) R6 load(1, XDATA, add(CFA_XSP16, literal(-24)))
        CFI (cfiCond143) VB load(1, XDATA, add(CFA_XSP16, literal(-23)))
        CFI (cfiCond143) V0 load(1, XDATA, add(CFA_XSP16, literal(-22)))
        CFI (cfiCond143) V1 load(1, XDATA, add(CFA_XSP16, literal(-21)))
        CFI (cfiCond143) V2 load(1, XDATA, add(CFA_XSP16, literal(-20)))
        CFI (cfiCond143) V3 load(1, XDATA, add(CFA_XSP16, literal(-19)))
        CFI (cfiCond143) V4 load(1, XDATA, add(CFA_XSP16, literal(-18)))
        CFI (cfiCond143) V5 load(1, XDATA, add(CFA_XSP16, literal(-17)))
        CFI (cfiCond143) V6 load(1, XDATA, add(CFA_XSP16, literal(-16)))
        CFI (cfiCond143) V7 load(1, XDATA, add(CFA_XSP16, literal(-15)))
        CFI (cfiCond143) V8 load(1, XDATA, add(CFA_XSP16, literal(-14)))
        CFI (cfiCond143) V9 load(1, XDATA, add(CFA_XSP16, literal(-13)))
        CFI (cfiCond143) V10 load(1, XDATA, add(CFA_XSP16, literal(-12)))
        CFI (cfiCond143) V11 load(1, XDATA, add(CFA_XSP16, literal(-11)))
        CFI (cfiCond143) V12 load(1, XDATA, add(CFA_XSP16, literal(-10)))
        CFI (cfiCond143) V13 load(1, XDATA, add(CFA_XSP16, literal(-9)))
        CFI (cfiCond143) V14 load(1, XDATA, add(CFA_XSP16, literal(-8)))
        CFI (cfiCond143) V15 load(1, XDATA, add(CFA_XSP16, literal(-7)))
        CFI (cfiCond143) R7 load(1, XDATA, add(CFA_XSP16, literal(-6)))
        CFI (cfiCond143) ?RET_LOW load(1, XDATA, add(CFA_XSP16, literal(-5)))
        CFI (cfiCond143) ?RET_HIGH load(1, XDATA, add(CFA_XSP16, literal(-4)))
        CFI (cfiCond143) ?BRET_EXT load(1, XDATA, add(CFA_XSP16, literal(-3)))
        CFI (cfiCond143) DPL0 load(1, XDATA, add(CFA_XSP16, literal(-2)))
        CFI (cfiCond143) DPH0 load(1, XDATA, add(CFA_XSP16, literal(-1)))
        CFI (cfiCond143) CFA_SP SP+0
        CFI (cfiCond143) CFA_XSP16 add(XSP16, 28)
        CFI Block cfiCond144 Using cfiCommon0
        CFI (cfiCond144) NoFunction
        CFI (cfiCond144) Conditional ??CrossCallReturnLabel_91, ??CrossCallReturnLabel_2
        CFI (cfiCond144) R6 load(1, XDATA, add(CFA_XSP16, literal(-9)))
        CFI (cfiCond144) VB load(1, XDATA, add(CFA_XSP16, literal(-8)))
        CFI (cfiCond144) V0 load(1, XDATA, add(CFA_XSP16, literal(-7)))
        CFI (cfiCond144) R7 load(1, XDATA, add(CFA_XSP16, literal(-6)))
        CFI (cfiCond144) ?RET_LOW load(1, XDATA, add(CFA_XSP16, literal(-5)))
        CFI (cfiCond144) ?RET_HIGH load(1, XDATA, add(CFA_XSP16, literal(-4)))
        CFI (cfiCond144) ?BRET_EXT load(1, XDATA, add(CFA_XSP16, literal(-3)))
        CFI (cfiCond144) DPL0 load(1, XDATA, add(CFA_XSP16, literal(-2)))
        CFI (cfiCond144) DPH0 load(1, XDATA, add(CFA_XSP16, literal(-1)))
        CFI (cfiCond144) CFA_SP SP+0
        CFI (cfiCond144) CFA_XSP16 add(XSP16, 9)
        CFI Block cfiCond145 Using cfiCommon0
        CFI (cfiCond145) NoFunction
        CFI (cfiCond145) Conditional ??CrossCallReturnLabel_91, ??CrossCallReturnLabel_3
        CFI (cfiCond145) R6 load(1, XDATA, add(CFA_XSP16, literal(-14)))
        CFI (cfiCond145) VB load(1, XDATA, add(CFA_XSP16, literal(-13)))
        CFI (cfiCond145) V0 load(1, XDATA, add(CFA_XSP16, literal(-12)))
        CFI (cfiCond145) V1 load(1, XDATA, add(CFA_XSP16, literal(-11)))
        CFI (cfiCond145) V2 load(1, XDATA, add(CFA_XSP16, literal(-10)))
        CFI (cfiCond145) V3 load(1, XDATA, add(CFA_XSP16, literal(-9)))
        CFI (cfiCond145) V4 load(1, XDATA, add(CFA_XSP16, literal(-8)))
        CFI (cfiCond145) V5 load(1, XDATA, add(CFA_XSP16, literal(-7)))
        CFI (cfiCond145) R7 load(1, XDATA, add(CFA_XSP16, literal(-6)))
        CFI (cfiCond145) ?RET_LOW load(1, XDATA, add(CFA_XSP16, literal(-5)))
        CFI (cfiCond145) ?RET_HIGH load(1, XDATA, add(CFA_XSP16, literal(-4)))
        CFI (cfiCond145) ?BRET_EXT load(1, XDATA, add(CFA_XSP16, literal(-3)))
        CFI (cfiCond145) DPL0 load(1, XDATA, add(CFA_XSP16, literal(-2)))
        CFI (cfiCond145) DPH0 load(1, XDATA, add(CFA_XSP16, literal(-1)))
        CFI (cfiCond145) CFA_SP SP+0
        CFI (cfiCond145) CFA_XSP16 add(XSP16, 15)
        CFI Block cfiCond146 Using cfiCommon0
        CFI (cfiCond146) NoFunction
        CFI (cfiCond146) Conditional ??CrossCallReturnLabel_92
        CFI (cfiCond146) R6 load(1, XDATA, add(CFA_XSP16, literal(-9)))
        CFI (cfiCond146) VB load(1, XDATA, add(CFA_XSP16, literal(-8)))
        CFI (cfiCond146) V0 load(1, XDATA, add(CFA_XSP16, literal(-7)))
        CFI (cfiCond146) R7 load(1, XDATA, add(CFA_XSP16, literal(-6)))
        CFI (cfiCond146) ?RET_LOW load(1, XDATA, add(CFA_XSP16, literal(-5)))
        CFI (cfiCond146) ?RET_HIGH load(1, XDATA, add(CFA_XSP16, literal(-4)))
        CFI (cfiCond146) ?BRET_EXT load(1, XDATA, add(CFA_XSP16, literal(-3)))
        CFI (cfiCond146) DPL0 load(1, XDATA, add(CFA_XSP16, literal(-2)))
        CFI (cfiCond146) DPH0 load(1, XDATA, add(CFA_XSP16, literal(-1)))
        CFI (cfiCond146) CFA_SP SP+0
        CFI (cfiCond146) CFA_XSP16 add(XSP16, 9)
        CFI Block cfiCond147 Using cfiCommon0
        CFI (cfiCond147) NoFunction
        CFI (cfiCond147) Conditional ??CrossCallReturnLabel_93
        CFI (cfiCond147) R6 load(1, XDATA, add(CFA_XSP16, literal(-20)))
        CFI (cfiCond147) VB load(1, XDATA, add(CFA_XSP16, literal(-19)))
        CFI (cfiCond147) V0 load(1, XDATA, add(CFA_XSP16, literal(-18)))
        CFI (cfiCond147) V1 load(1, XDATA, add(CFA_XSP16, literal(-17)))
        CFI (cfiCond147) V2 load(1, XDATA, add(CFA_XSP16, literal(-16)))
        CFI (cfiCond147) V3 load(1, XDATA, add(CFA_XSP16, literal(-15)))
        CFI (cfiCond147) V4 load(1, XDATA, add(CFA_XSP16, literal(-14)))
        CFI (cfiCond147) V5 load(1, XDATA, add(CFA_XSP16, literal(-13)))
        CFI (cfiCond147) V6 load(1, XDATA, add(CFA_XSP16, literal(-12)))
        CFI (cfiCond147) V7 load(1, XDATA, add(CFA_XSP16, literal(-11)))
        CFI (cfiCond147) V8 load(1, XDATA, add(CFA_XSP16, literal(-10)))
        CFI (cfiCond147) V9 load(1, XDATA, add(CFA_XSP16, literal(-9)))
        CFI (cfiCond147) V10 load(1, XDATA, add(CFA_XSP16, literal(-8)))
        CFI (cfiCond147) V11 load(1, XDATA, add(CFA_XSP16, literal(-7)))
        CFI (cfiCond147) R7 load(1, XDATA, add(CFA_XSP16, literal(-6)))
        CFI (cfiCond147) ?RET_LOW load(1, XDATA, add(CFA_XSP16, literal(-5)))
        CFI (cfiCond147) ?RET_HIGH load(1, XDATA, add(CFA_XSP16, literal(-4)))
        CFI (cfiCond147) ?BRET_EXT load(1, XDATA, add(CFA_XSP16, literal(-3)))
        CFI (cfiCond147) DPL0 load(1, XDATA, add(CFA_XSP16, literal(-2)))
        CFI (cfiCond147) DPH0 load(1, XDATA, add(CFA_XSP16, literal(-1)))
        CFI (cfiCond147) CFA_SP SP+0
        CFI (cfiCond147) CFA_XSP16 add(XSP16, 20)
        CFI Block cfiPicker148 Using cfiCommon1
        CFI (cfiPicker148) NoFunction
        CFI (cfiPicker148) Picker
        MOVX    A,@DPTR
        MOV     R2,A
        INC     DPTR
        MOVX    A,@DPTR
        RET
        CFI EndBlock cfiCond136
        CFI EndBlock cfiCond137
        CFI EndBlock cfiCond138
        CFI EndBlock cfiCond139
        CFI EndBlock cfiCond140
        CFI EndBlock cfiCond141
        CFI EndBlock cfiCond142
        CFI EndBlock cfiCond143
        CFI EndBlock cfiCond144
        CFI EndBlock cfiCond145
        CFI EndBlock cfiCond146
        CFI EndBlock cfiCond147
        CFI EndBlock cfiPicker148

        RSEG BANKED_CODE:CODE:NOROOT(0)
?Subroutine36:
        CFI Block cfiCond149 Using cfiCommon0
        CFI NoFunction
        CFI Conditional ??CrossCallReturnLabel_76
        CFI R6 load(1, XDATA, add(CFA_XSP16, literal(-9)))
        CFI VB load(1, XDATA, add(CFA_XSP16, literal(-8)))
        CFI V0 load(1, XDATA, add(CFA_XSP16, literal(-7)))
        CFI R7 load(1, XDATA, add(CFA_XSP16, literal(-6)))
        CFI ?RET_LOW load(1, XDATA, add(CFA_XSP16, literal(-5)))
        CFI ?RET_HIGH load(1, XDATA, add(CFA_XSP16, literal(-4)))
        CFI ?BRET_EXT load(1, XDATA, add(CFA_XSP16, literal(-3)))
        CFI DPL0 load(1, XDATA, add(CFA_XSP16, literal(-2)))
        CFI DPH0 load(1, XDATA, add(CFA_XSP16, literal(-1)))
        CFI CFA_SP SP+0
        CFI CFA_XSP16 add(XSP16, 9)
        CFI Block cfiCond150 Using cfiCommon0
        CFI (cfiCond150) NoFunction
        CFI (cfiCond150) Conditional ??CrossCallReturnLabel_79, ??CrossCallReturnLabel_71
        CFI (cfiCond150) R6 load(1, XDATA, add(CFA_XSP16, literal(-9)))
        CFI (cfiCond150) VB load(1, XDATA, add(CFA_XSP16, literal(-8)))
        CFI (cfiCond150) V0 load(1, XDATA, add(CFA_XSP16, literal(-7)))
        CFI (cfiCond150) R7 load(1, XDATA, add(CFA_XSP16, literal(-6)))
        CFI (cfiCond150) ?RET_LOW load(1, XDATA, add(CFA_XSP16, literal(-5)))
        CFI (cfiCond150) ?RET_HIGH load(1, XDATA, add(CFA_XSP16, literal(-4)))
        CFI (cfiCond150) ?BRET_EXT load(1, XDATA, add(CFA_XSP16, literal(-3)))
        CFI (cfiCond150) DPL0 load(1, XDATA, add(CFA_XSP16, literal(-2)))
        CFI (cfiCond150) DPH0 load(1, XDATA, add(CFA_XSP16, literal(-1)))
        CFI (cfiCond150) CFA_SP SP+0
        CFI (cfiCond150) CFA_XSP16 add(XSP16, 9)
        CFI Block cfiCond151 Using cfiCommon0
        CFI (cfiCond151) NoFunction
        CFI (cfiCond151) Conditional ??CrossCallReturnLabel_79, ??CrossCallReturnLabel_72
        CFI (cfiCond151) R6 load(1, XDATA, add(CFA_XSP16, literal(-9)))
        CFI (cfiCond151) VB load(1, XDATA, add(CFA_XSP16, literal(-8)))
        CFI (cfiCond151) V0 load(1, XDATA, add(CFA_XSP16, literal(-7)))
        CFI (cfiCond151) R7 load(1, XDATA, add(CFA_XSP16, literal(-6)))
        CFI (cfiCond151) ?RET_LOW load(1, XDATA, add(CFA_XSP16, literal(-5)))
        CFI (cfiCond151) ?RET_HIGH load(1, XDATA, add(CFA_XSP16, literal(-4)))
        CFI (cfiCond151) ?BRET_EXT load(1, XDATA, add(CFA_XSP16, literal(-3)))
        CFI (cfiCond151) DPL0 load(1, XDATA, add(CFA_XSP16, literal(-2)))
        CFI (cfiCond151) DPH0 load(1, XDATA, add(CFA_XSP16, literal(-1)))
        CFI (cfiCond151) CFA_SP SP+0
        CFI (cfiCond151) CFA_XSP16 add(XSP16, 9)
        CFI Block cfiCond152 Using cfiCommon0
        CFI (cfiCond152) NoFunction
        CFI (cfiCond152) Conditional ??CrossCallReturnLabel_79, ??CrossCallReturnLabel_73
        CFI (cfiCond152) R6 load(1, XDATA, add(CFA_XSP16, literal(-22)))
        CFI (cfiCond152) VB load(1, XDATA, add(CFA_XSP16, literal(-21)))
        CFI (cfiCond152) V0 load(1, XDATA, add(CFA_XSP16, literal(-20)))
        CFI (cfiCond152) V1 load(1, XDATA, add(CFA_XSP16, literal(-19)))
        CFI (cfiCond152) V2 load(1, XDATA, add(CFA_XSP16, literal(-18)))
        CFI (cfiCond152) V3 load(1, XDATA, add(CFA_XSP16, literal(-17)))
        CFI (cfiCond152) V4 load(1, XDATA, add(CFA_XSP16, literal(-16)))
        CFI (cfiCond152) V5 load(1, XDATA, add(CFA_XSP16, literal(-15)))
        CFI (cfiCond152) V6 load(1, XDATA, add(CFA_XSP16, literal(-14)))
        CFI (cfiCond152) V7 load(1, XDATA, add(CFA_XSP16, literal(-13)))
        CFI (cfiCond152) V8 load(1, XDATA, add(CFA_XSP16, literal(-12)))
        CFI (cfiCond152) V9 load(1, XDATA, add(CFA_XSP16, literal(-11)))
        CFI (cfiCond152) V10 load(1, XDATA, add(CFA_XSP16, literal(-10)))
        CFI (cfiCond152) V11 load(1, XDATA, add(CFA_XSP16, literal(-9)))
        CFI (cfiCond152) V12 load(1, XDATA, add(CFA_XSP16, literal(-8)))
        CFI (cfiCond152) V13 load(1, XDATA, add(CFA_XSP16, literal(-7)))
        CFI (cfiCond152) R7 load(1, XDATA, add(CFA_XSP16, literal(-6)))
        CFI (cfiCond152) ?RET_LOW load(1, XDATA, add(CFA_XSP16, literal(-5)))
        CFI (cfiCond152) ?RET_HIGH load(1, XDATA, add(CFA_XSP16, literal(-4)))
        CFI (cfiCond152) ?BRET_EXT load(1, XDATA, add(CFA_XSP16, literal(-3)))
        CFI (cfiCond152) DPL0 load(1, XDATA, add(CFA_XSP16, literal(-2)))
        CFI (cfiCond152) DPH0 load(1, XDATA, add(CFA_XSP16, literal(-1)))
        CFI (cfiCond152) CFA_SP SP+0
        CFI (cfiCond152) CFA_XSP16 add(XSP16, 36)
        CFI Block cfiCond153 Using cfiCommon0
        CFI (cfiCond153) NoFunction
        CFI (cfiCond153) Conditional ??CrossCallReturnLabel_79, ??CrossCallReturnLabel_74
        CFI (cfiCond153) R6 load(1, XDATA, add(CFA_XSP16, literal(-22)))
        CFI (cfiCond153) VB load(1, XDATA, add(CFA_XSP16, literal(-21)))
        CFI (cfiCond153) V0 load(1, XDATA, add(CFA_XSP16, literal(-20)))
        CFI (cfiCond153) V1 load(1, XDATA, add(CFA_XSP16, literal(-19)))
        CFI (cfiCond153) V2 load(1, XDATA, add(CFA_XSP16, literal(-18)))
        CFI (cfiCond153) V3 load(1, XDATA, add(CFA_XSP16, literal(-17)))
        CFI (cfiCond153) V4 load(1, XDATA, add(CFA_XSP16, literal(-16)))
        CFI (cfiCond153) V5 load(1, XDATA, add(CFA_XSP16, literal(-15)))
        CFI (cfiCond153) V6 load(1, XDATA, add(CFA_XSP16, literal(-14)))
        CFI (cfiCond153) V7 load(1, XDATA, add(CFA_XSP16, literal(-13)))
        CFI (cfiCond153) V8 load(1, XDATA, add(CFA_XSP16, literal(-12)))
        CFI (cfiCond153) V9 load(1, XDATA, add(CFA_XSP16, literal(-11)))
        CFI (cfiCond153) V10 load(1, XDATA, add(CFA_XSP16, literal(-10)))
        CFI (cfiCond153) V11 load(1, XDATA, add(CFA_XSP16, literal(-9)))
        CFI (cfiCond153) V12 load(1, XDATA, add(CFA_XSP16, literal(-8)))
        CFI (cfiCond153) V13 load(1, XDATA, add(CFA_XSP16, literal(-7)))
        CFI (cfiCond153) R7 load(1, XDATA, add(CFA_XSP16, literal(-6)))
        CFI (cfiCond153) ?RET_LOW load(1, XDATA, add(CFA_XSP16, literal(-5)))
        CFI (cfiCond153) ?RET_HIGH load(1, XDATA, add(CFA_XSP16, literal(-4)))
        CFI (cfiCond153) ?BRET_EXT load(1, XDATA, add(CFA_XSP16, literal(-3)))
        CFI (cfiCond153) DPL0 load(1, XDATA, add(CFA_XSP16, literal(-2)))
        CFI (cfiCond153) DPH0 load(1, XDATA, add(CFA_XSP16, literal(-1)))
        CFI (cfiCond153) CFA_SP SP+0
        CFI (cfiCond153) CFA_XSP16 add(XSP16, 36)
        CFI Block cfiCond154 Using cfiCommon0
        CFI (cfiCond154) NoFunction
        CFI (cfiCond154) Conditional ??CrossCallReturnLabel_79, ??CrossCallReturnLabel_75
        CFI (cfiCond154) R6 load(1, XDATA, add(CFA_XSP16, literal(-14)))
        CFI (cfiCond154) VB load(1, XDATA, add(CFA_XSP16, literal(-13)))
        CFI (cfiCond154) V0 load(1, XDATA, add(CFA_XSP16, literal(-12)))
        CFI (cfiCond154) V1 load(1, XDATA, add(CFA_XSP16, literal(-11)))
        CFI (cfiCond154) V2 load(1, XDATA, add(CFA_XSP16, literal(-10)))
        CFI (cfiCond154) V3 load(1, XDATA, add(CFA_XSP16, literal(-9)))
        CFI (cfiCond154) V4 load(1, XDATA, add(CFA_XSP16, literal(-8)))
        CFI (cfiCond154) V5 load(1, XDATA, add(CFA_XSP16, literal(-7)))
        CFI (cfiCond154) R7 load(1, XDATA, add(CFA_XSP16, literal(-6)))
        CFI (cfiCond154) ?RET_LOW load(1, XDATA, add(CFA_XSP16, literal(-5)))
        CFI (cfiCond154) ?RET_HIGH load(1, XDATA, add(CFA_XSP16, literal(-4)))
        CFI (cfiCond154) ?BRET_EXT load(1, XDATA, add(CFA_XSP16, literal(-3)))
        CFI (cfiCond154) DPL0 load(1, XDATA, add(CFA_XSP16, literal(-2)))
        CFI (cfiCond154) DPH0 load(1, XDATA, add(CFA_XSP16, literal(-1)))
        CFI (cfiCond154) CFA_SP SP+0
        CFI (cfiCond154) CFA_XSP16 add(XSP16, 15)
        CFI Block cfiCond155 Using cfiCommon0
        CFI (cfiCond155) NoFunction
        CFI (cfiCond155) Conditional ??CrossCallReturnLabel_79, ??CrossCallReturnLabel_70
        CFI (cfiCond155) R6 load(1, XDATA, add(CFA_XSP16, literal(-9)))
        CFI (cfiCond155) VB load(1, XDATA, add(CFA_XSP16, literal(-8)))
        CFI (cfiCond155) V0 load(1, XDATA, add(CFA_XSP16, literal(-7)))
        CFI (cfiCond155) R7 load(1, XDATA, add(CFA_XSP16, literal(-6)))
        CFI (cfiCond155) ?RET_LOW load(1, XDATA, add(CFA_XSP16, literal(-5)))
        CFI (cfiCond155) ?RET_HIGH load(1, XDATA, add(CFA_XSP16, literal(-4)))
        CFI (cfiCond155) ?BRET_EXT load(1, XDATA, add(CFA_XSP16, literal(-3)))
        CFI (cfiCond155) DPL0 load(1, XDATA, add(CFA_XSP16, literal(-2)))
        CFI (cfiCond155) DPH0 load(1, XDATA, add(CFA_XSP16, literal(-1)))
        CFI (cfiCond155) CFA_SP SP+0
        CFI (cfiCond155) CFA_XSP16 add(XSP16, 9)
        CFI Block cfiCond156 Using cfiCommon0
        CFI (cfiCond156) NoFunction
        CFI (cfiCond156) Conditional ??CrossCallReturnLabel_77
        CFI (cfiCond156) R6 load(1, XDATA, add(CFA_XSP16, literal(-24)))
        CFI (cfiCond156) VB load(1, XDATA, add(CFA_XSP16, literal(-23)))
        CFI (cfiCond156) V0 load(1, XDATA, add(CFA_XSP16, literal(-22)))
        CFI (cfiCond156) V1 load(1, XDATA, add(CFA_XSP16, literal(-21)))
        CFI (cfiCond156) V2 load(1, XDATA, add(CFA_XSP16, literal(-20)))
        CFI (cfiCond156) V3 load(1, XDATA, add(CFA_XSP16, literal(-19)))
        CFI (cfiCond156) V4 load(1, XDATA, add(CFA_XSP16, literal(-18)))
        CFI (cfiCond156) V5 load(1, XDATA, add(CFA_XSP16, literal(-17)))
        CFI (cfiCond156) V6 load(1, XDATA, add(CFA_XSP16, literal(-16)))
        CFI (cfiCond156) V7 load(1, XDATA, add(CFA_XSP16, literal(-15)))
        CFI (cfiCond156) V8 load(1, XDATA, add(CFA_XSP16, literal(-14)))
        CFI (cfiCond156) V9 load(1, XDATA, add(CFA_XSP16, literal(-13)))
        CFI (cfiCond156) V10 load(1, XDATA, add(CFA_XSP16, literal(-12)))
        CFI (cfiCond156) V11 load(1, XDATA, add(CFA_XSP16, literal(-11)))
        CFI (cfiCond156) V12 load(1, XDATA, add(CFA_XSP16, literal(-10)))
        CFI (cfiCond156) V13 load(1, XDATA, add(CFA_XSP16, literal(-9)))
        CFI (cfiCond156) V14 load(1, XDATA, add(CFA_XSP16, literal(-8)))
        CFI (cfiCond156) V15 load(1, XDATA, add(CFA_XSP16, literal(-7)))
        CFI (cfiCond156) R7 load(1, XDATA, add(CFA_XSP16, literal(-6)))
        CFI (cfiCond156) ?RET_LOW load(1, XDATA, add(CFA_XSP16, literal(-5)))
        CFI (cfiCond156) ?RET_HIGH load(1, XDATA, add(CFA_XSP16, literal(-4)))
        CFI (cfiCond156) ?BRET_EXT load(1, XDATA, add(CFA_XSP16, literal(-3)))
        CFI (cfiCond156) DPL0 load(1, XDATA, add(CFA_XSP16, literal(-2)))
        CFI (cfiCond156) DPH0 load(1, XDATA, add(CFA_XSP16, literal(-1)))
        CFI (cfiCond156) CFA_SP SP+0
        CFI (cfiCond156) CFA_XSP16 add(XSP16, 25)
        CFI Block cfiCond157 Using cfiCommon0
        CFI (cfiCond157) NoFunction
        CFI (cfiCond157) Conditional ??CrossCallReturnLabel_78
        CFI (cfiCond157) R6 load(1, XDATA, add(CFA_XSP16, literal(-20)))
        CFI (cfiCond157) VB load(1, XDATA, add(CFA_XSP16, literal(-19)))
        CFI (cfiCond157) V0 load(1, XDATA, add(CFA_XSP16, literal(-18)))
        CFI (cfiCond157) V1 load(1, XDATA, add(CFA_XSP16, literal(-17)))
        CFI (cfiCond157) V2 load(1, XDATA, add(CFA_XSP16, literal(-16)))
        CFI (cfiCond157) V3 load(1, XDATA, add(CFA_XSP16, literal(-15)))
        CFI (cfiCond157) V4 load(1, XDATA, add(CFA_XSP16, literal(-14)))
        CFI (cfiCond157) V5 load(1, XDATA, add(CFA_XSP16, literal(-13)))
        CFI (cfiCond157) V6 load(1, XDATA, add(CFA_XSP16, literal(-12)))
        CFI (cfiCond157) V7 load(1, XDATA, add(CFA_XSP16, literal(-11)))
        CFI (cfiCond157) V8 load(1, XDATA, add(CFA_XSP16, literal(-10)))
        CFI (cfiCond157) V9 load(1, XDATA, add(CFA_XSP16, literal(-9)))
        CFI (cfiCond157) V10 load(1, XDATA, add(CFA_XSP16, literal(-8)))
        CFI (cfiCond157) V11 load(1, XDATA, add(CFA_XSP16, literal(-7)))
        CFI (cfiCond157) R7 load(1, XDATA, add(CFA_XSP16, literal(-6)))
        CFI (cfiCond157) ?RET_LOW load(1, XDATA, add(CFA_XSP16, literal(-5)))
        CFI (cfiCond157) ?RET_HIGH load(1, XDATA, add(CFA_XSP16, literal(-4)))
        CFI (cfiCond157) ?BRET_EXT load(1, XDATA, add(CFA_XSP16, literal(-3)))
        CFI (cfiCond157) DPL0 load(1, XDATA, add(CFA_XSP16, literal(-2)))
        CFI (cfiCond157) DPH0 load(1, XDATA, add(CFA_XSP16, literal(-1)))
        CFI (cfiCond157) CFA_SP SP+0
        CFI (cfiCond157) CFA_XSP16 add(XSP16, 20)
        CFI Block cfiPicker158 Using cfiCommon1
        CFI (cfiPicker158) NoFunction
        CFI (cfiPicker158) Picker
        MOVX    A,@DPTR
        MOV     R0,A
        INC     DPTR
        MOVX    A,@DPTR
        MOV     R1,A
        RET
        CFI EndBlock cfiCond149
        CFI EndBlock cfiCond150
        CFI EndBlock cfiCond151
        CFI EndBlock cfiCond152
        CFI EndBlock cfiCond153
        CFI EndBlock cfiCond154
        CFI EndBlock cfiCond155
        CFI EndBlock cfiCond156
        CFI EndBlock cfiCond157
        CFI EndBlock cfiPicker158

        RSEG BANKED_CODE:CODE:NOROOT(0)
?Subroutine30:
        CFI Block cfiCond159 Using cfiCommon0
        CFI NoFunction
        CFI Conditional ??CrossCallReturnLabel_41
        CFI R6 load(1, XDATA, add(CFA_XSP16, literal(-22)))
        CFI VB load(1, XDATA, add(CFA_XSP16, literal(-21)))
        CFI V0 load(1, XDATA, add(CFA_XSP16, literal(-20)))
        CFI V1 load(1, XDATA, add(CFA_XSP16, literal(-19)))
        CFI V2 load(1, XDATA, add(CFA_XSP16, literal(-18)))
        CFI V3 load(1, XDATA, add(CFA_XSP16, literal(-17)))
        CFI V4 load(1, XDATA, add(CFA_XSP16, literal(-16)))
        CFI V5 load(1, XDATA, add(CFA_XSP16, literal(-15)))
        CFI V6 load(1, XDATA, add(CFA_XSP16, literal(-14)))
        CFI V7 load(1, XDATA, add(CFA_XSP16, literal(-13)))
        CFI V8 load(1, XDATA, add(CFA_XSP16, literal(-12)))
        CFI V9 load(1, XDATA, add(CFA_XSP16, literal(-11)))
        CFI V10 load(1, XDATA, add(CFA_XSP16, literal(-10)))
        CFI V11 load(1, XDATA, add(CFA_XSP16, literal(-9)))
        CFI V12 load(1, XDATA, add(CFA_XSP16, literal(-8)))
        CFI V13 load(1, XDATA, add(CFA_XSP16, literal(-7)))
        CFI R7 load(1, XDATA, add(CFA_XSP16, literal(-6)))
        CFI ?RET_LOW load(1, XDATA, add(CFA_XSP16, literal(-5)))
        CFI ?RET_HIGH load(1, XDATA, add(CFA_XSP16, literal(-4)))
        CFI ?BRET_EXT load(1, XDATA, add(CFA_XSP16, literal(-3)))
        CFI DPL0 load(1, XDATA, add(CFA_XSP16, literal(-2)))
        CFI DPH0 load(1, XDATA, add(CFA_XSP16, literal(-1)))
        CFI CFA_SP SP+0
        CFI CFA_XSP16 add(XSP16, 36)
        CFI Block cfiCond160 Using cfiCommon0
        CFI (cfiCond160) NoFunction
        CFI (cfiCond160) Conditional ??CrossCallReturnLabel_42
        CFI (cfiCond160) R6 load(1, XDATA, add(CFA_XSP16, literal(-22)))
        CFI (cfiCond160) VB load(1, XDATA, add(CFA_XSP16, literal(-21)))
        CFI (cfiCond160) V0 load(1, XDATA, add(CFA_XSP16, literal(-20)))
        CFI (cfiCond160) V1 load(1, XDATA, add(CFA_XSP16, literal(-19)))
        CFI (cfiCond160) V2 load(1, XDATA, add(CFA_XSP16, literal(-18)))
        CFI (cfiCond160) V3 load(1, XDATA, add(CFA_XSP16, literal(-17)))
        CFI (cfiCond160) V4 load(1, XDATA, add(CFA_XSP16, literal(-16)))
        CFI (cfiCond160) V5 load(1, XDATA, add(CFA_XSP16, literal(-15)))
        CFI (cfiCond160) V6 load(1, XDATA, add(CFA_XSP16, literal(-14)))
        CFI (cfiCond160) V7 load(1, XDATA, add(CFA_XSP16, literal(-13)))
        CFI (cfiCond160) V8 load(1, XDATA, add(CFA_XSP16, literal(-12)))
        CFI (cfiCond160) V9 load(1, XDATA, add(CFA_XSP16, literal(-11)))
        CFI (cfiCond160) V10 load(1, XDATA, add(CFA_XSP16, literal(-10)))
        CFI (cfiCond160) V11 load(1, XDATA, add(CFA_XSP16, literal(-9)))
        CFI (cfiCond160) V12 load(1, XDATA, add(CFA_XSP16, literal(-8)))
        CFI (cfiCond160) V13 load(1, XDATA, add(CFA_XSP16, literal(-7)))
        CFI (cfiCond160) R7 load(1, XDATA, add(CFA_XSP16, literal(-6)))
        CFI (cfiCond160) ?RET_LOW load(1, XDATA, add(CFA_XSP16, literal(-5)))
        CFI (cfiCond160) ?RET_HIGH load(1, XDATA, add(CFA_XSP16, literal(-4)))
        CFI (cfiCond160) ?BRET_EXT load(1, XDATA, add(CFA_XSP16, literal(-3)))
        CFI (cfiCond160) DPL0 load(1, XDATA, add(CFA_XSP16, literal(-2)))
        CFI (cfiCond160) DPH0 load(1, XDATA, add(CFA_XSP16, literal(-1)))
        CFI (cfiCond160) CFA_SP SP+0
        CFI (cfiCond160) CFA_XSP16 add(XSP16, 36)
        CFI Block cfiCond161 Using cfiCommon0
        CFI (cfiCond161) NoFunction
        CFI (cfiCond161) Conditional ??CrossCallReturnLabel_43
        CFI (cfiCond161) R6 load(1, XDATA, add(CFA_XSP16, literal(-22)))
        CFI (cfiCond161) VB load(1, XDATA, add(CFA_XSP16, literal(-21)))
        CFI (cfiCond161) V0 load(1, XDATA, add(CFA_XSP16, literal(-20)))
        CFI (cfiCond161) V1 load(1, XDATA, add(CFA_XSP16, literal(-19)))
        CFI (cfiCond161) V2 load(1, XDATA, add(CFA_XSP16, literal(-18)))
        CFI (cfiCond161) V3 load(1, XDATA, add(CFA_XSP16, literal(-17)))
        CFI (cfiCond161) V4 load(1, XDATA, add(CFA_XSP16, literal(-16)))
        CFI (cfiCond161) V5 load(1, XDATA, add(CFA_XSP16, literal(-15)))
        CFI (cfiCond161) V6 load(1, XDATA, add(CFA_XSP16, literal(-14)))
        CFI (cfiCond161) V7 load(1, XDATA, add(CFA_XSP16, literal(-13)))
        CFI (cfiCond161) V8 load(1, XDATA, add(CFA_XSP16, literal(-12)))
        CFI (cfiCond161) V9 load(1, XDATA, add(CFA_XSP16, literal(-11)))
        CFI (cfiCond161) V10 load(1, XDATA, add(CFA_XSP16, literal(-10)))
        CFI (cfiCond161) V11 load(1, XDATA, add(CFA_XSP16, literal(-9)))
        CFI (cfiCond161) V12 load(1, XDATA, add(CFA_XSP16, literal(-8)))
        CFI (cfiCond161) V13 load(1, XDATA, add(CFA_XSP16, literal(-7)))
        CFI (cfiCond161) R7 load(1, XDATA, add(CFA_XSP16, literal(-6)))
        CFI (cfiCond161) ?RET_LOW load(1, XDATA, add(CFA_XSP16, literal(-5)))
        CFI (cfiCond161) ?RET_HIGH load(1, XDATA, add(CFA_XSP16, literal(-4)))
        CFI (cfiCond161) ?BRET_EXT load(1, XDATA, add(CFA_XSP16, literal(-3)))
        CFI (cfiCond161) DPL0 load(1, XDATA, add(CFA_XSP16, literal(-2)))
        CFI (cfiCond161) DPH0 load(1, XDATA, add(CFA_XSP16, literal(-1)))
        CFI (cfiCond161) CFA_SP SP+0
        CFI (cfiCond161) CFA_XSP16 add(XSP16, 36)
        CFI Block cfiCond162 Using cfiCommon0
        CFI (cfiCond162) NoFunction
        CFI (cfiCond162) Conditional ??CrossCallReturnLabel_44
        CFI (cfiCond162) R6 load(1, XDATA, add(CFA_XSP16, literal(-21)))
        CFI (cfiCond162) VB load(1, XDATA, add(CFA_XSP16, literal(-20)))
        CFI (cfiCond162) V0 load(1, XDATA, add(CFA_XSP16, literal(-19)))
        CFI (cfiCond162) V1 load(1, XDATA, add(CFA_XSP16, literal(-18)))
        CFI (cfiCond162) V2 load(1, XDATA, add(CFA_XSP16, literal(-17)))
        CFI (cfiCond162) V3 load(1, XDATA, add(CFA_XSP16, literal(-16)))
        CFI (cfiCond162) V4 load(1, XDATA, add(CFA_XSP16, literal(-15)))
        CFI (cfiCond162) V5 load(1, XDATA, add(CFA_XSP16, literal(-14)))
        CFI (cfiCond162) V6 load(1, XDATA, add(CFA_XSP16, literal(-13)))
        CFI (cfiCond162) V7 load(1, XDATA, add(CFA_XSP16, literal(-12)))
        CFI (cfiCond162) V8 load(1, XDATA, add(CFA_XSP16, literal(-11)))
        CFI (cfiCond162) V9 load(1, XDATA, add(CFA_XSP16, literal(-10)))
        CFI (cfiCond162) V10 load(1, XDATA, add(CFA_XSP16, literal(-9)))
        CFI (cfiCond162) V11 load(1, XDATA, add(CFA_XSP16, literal(-8)))
        CFI (cfiCond162) V12 load(1, XDATA, add(CFA_XSP16, literal(-7)))
        CFI (cfiCond162) R7 load(1, XDATA, add(CFA_XSP16, literal(-6)))
        CFI (cfiCond162) ?RET_LOW load(1, XDATA, add(CFA_XSP16, literal(-5)))
        CFI (cfiCond162) ?RET_HIGH load(1, XDATA, add(CFA_XSP16, literal(-4)))
        CFI (cfiCond162) ?BRET_EXT load(1, XDATA, add(CFA_XSP16, literal(-3)))
        CFI (cfiCond162) DPL0 load(1, XDATA, add(CFA_XSP16, literal(-2)))
        CFI (cfiCond162) DPH0 load(1, XDATA, add(CFA_XSP16, literal(-1)))
        CFI (cfiCond162) CFA_SP SP+0
        CFI (cfiCond162) CFA_XSP16 add(XSP16, 35)
        CFI Block cfiCond163 Using cfiCommon0
        CFI (cfiCond163) NoFunction
        CFI (cfiCond163) Conditional ??CrossCallReturnLabel_45
        CFI (cfiCond163) R6 load(1, XDATA, add(CFA_XSP16, literal(-24)))
        CFI (cfiCond163) VB load(1, XDATA, add(CFA_XSP16, literal(-23)))
        CFI (cfiCond163) V0 load(1, XDATA, add(CFA_XSP16, literal(-22)))
        CFI (cfiCond163) V1 load(1, XDATA, add(CFA_XSP16, literal(-21)))
        CFI (cfiCond163) V2 load(1, XDATA, add(CFA_XSP16, literal(-20)))
        CFI (cfiCond163) V3 load(1, XDATA, add(CFA_XSP16, literal(-19)))
        CFI (cfiCond163) V4 load(1, XDATA, add(CFA_XSP16, literal(-18)))
        CFI (cfiCond163) V5 load(1, XDATA, add(CFA_XSP16, literal(-17)))
        CFI (cfiCond163) V6 load(1, XDATA, add(CFA_XSP16, literal(-16)))
        CFI (cfiCond163) V7 load(1, XDATA, add(CFA_XSP16, literal(-15)))
        CFI (cfiCond163) V8 load(1, XDATA, add(CFA_XSP16, literal(-14)))
        CFI (cfiCond163) V9 load(1, XDATA, add(CFA_XSP16, literal(-13)))
        CFI (cfiCond163) V10 load(1, XDATA, add(CFA_XSP16, literal(-12)))
        CFI (cfiCond163) V11 load(1, XDATA, add(CFA_XSP16, literal(-11)))
        CFI (cfiCond163) V12 load(1, XDATA, add(CFA_XSP16, literal(-10)))
        CFI (cfiCond163) V13 load(1, XDATA, add(CFA_XSP16, literal(-9)))
        CFI (cfiCond163) V14 load(1, XDATA, add(CFA_XSP16, literal(-8)))
        CFI (cfiCond163) V15 load(1, XDATA, add(CFA_XSP16, literal(-7)))
        CFI (cfiCond163) R7 load(1, XDATA, add(CFA_XSP16, literal(-6)))
        CFI (cfiCond163) ?RET_LOW load(1, XDATA, add(CFA_XSP16, literal(-5)))
        CFI (cfiCond163) ?RET_HIGH load(1, XDATA, add(CFA_XSP16, literal(-4)))
        CFI (cfiCond163) ?BRET_EXT load(1, XDATA, add(CFA_XSP16, literal(-3)))
        CFI (cfiCond163) DPL0 load(1, XDATA, add(CFA_XSP16, literal(-2)))
        CFI (cfiCond163) DPH0 load(1, XDATA, add(CFA_XSP16, literal(-1)))
        CFI (cfiCond163) CFA_SP SP+0
        CFI (cfiCond163) CFA_XSP16 add(XSP16, 25)
        CFI Block cfiCond164 Using cfiCommon0
        CFI (cfiCond164) NoFunction
        CFI (cfiCond164) Conditional ??CrossCallReturnLabel_46
        CFI (cfiCond164) R6 load(1, XDATA, add(CFA_XSP16, literal(-24)))
        CFI (cfiCond164) VB load(1, XDATA, add(CFA_XSP16, literal(-23)))
        CFI (cfiCond164) V0 load(1, XDATA, add(CFA_XSP16, literal(-22)))
        CFI (cfiCond164) V1 load(1, XDATA, add(CFA_XSP16, literal(-21)))
        CFI (cfiCond164) V2 load(1, XDATA, add(CFA_XSP16, literal(-20)))
        CFI (cfiCond164) V3 load(1, XDATA, add(CFA_XSP16, literal(-19)))
        CFI (cfiCond164) V4 load(1, XDATA, add(CFA_XSP16, literal(-18)))
        CFI (cfiCond164) V5 load(1, XDATA, add(CFA_XSP16, literal(-17)))
        CFI (cfiCond164) V6 load(1, XDATA, add(CFA_XSP16, literal(-16)))
        CFI (cfiCond164) V7 load(1, XDATA, add(CFA_XSP16, literal(-15)))
        CFI (cfiCond164) V8 load(1, XDATA, add(CFA_XSP16, literal(-14)))
        CFI (cfiCond164) V9 load(1, XDATA, add(CFA_XSP16, literal(-13)))
        CFI (cfiCond164) V10 load(1, XDATA, add(CFA_XSP16, literal(-12)))
        CFI (cfiCond164) V11 load(1, XDATA, add(CFA_XSP16, literal(-11)))
        CFI (cfiCond164) V12 load(1, XDATA, add(CFA_XSP16, literal(-10)))
        CFI (cfiCond164) V13 load(1, XDATA, add(CFA_XSP16, literal(-9)))
        CFI (cfiCond164) V14 load(1, XDATA, add(CFA_XSP16, literal(-8)))
        CFI (cfiCond164) V15 load(1, XDATA, add(CFA_XSP16, literal(-7)))
        CFI (cfiCond164) R7 load(1, XDATA, add(CFA_XSP16, literal(-6)))
        CFI (cfiCond164) ?RET_LOW load(1, XDATA, add(CFA_XSP16, literal(-5)))
        CFI (cfiCond164) ?RET_HIGH load(1, XDATA, add(CFA_XSP16, literal(-4)))
        CFI (cfiCond164) ?BRET_EXT load(1, XDATA, add(CFA_XSP16, literal(-3)))
        CFI (cfiCond164) DPL0 load(1, XDATA, add(CFA_XSP16, literal(-2)))
        CFI (cfiCond164) DPH0 load(1, XDATA, add(CFA_XSP16, literal(-1)))
        CFI (cfiCond164) CFA_SP SP+0
        CFI (cfiCond164) CFA_XSP16 add(XSP16, 25)
        CFI Block cfiCond165 Using cfiCommon0
        CFI (cfiCond165) NoFunction
        CFI (cfiCond165) Conditional ??CrossCallReturnLabel_47
        CFI (cfiCond165) R6 load(1, XDATA, add(CFA_XSP16, literal(-20)))
        CFI (cfiCond165) VB load(1, XDATA, add(CFA_XSP16, literal(-19)))
        CFI (cfiCond165) V0 load(1, XDATA, add(CFA_XSP16, literal(-18)))
        CFI (cfiCond165) V1 load(1, XDATA, add(CFA_XSP16, literal(-17)))
        CFI (cfiCond165) V2 load(1, XDATA, add(CFA_XSP16, literal(-16)))
        CFI (cfiCond165) V3 load(1, XDATA, add(CFA_XSP16, literal(-15)))
        CFI (cfiCond165) V4 load(1, XDATA, add(CFA_XSP16, literal(-14)))
        CFI (cfiCond165) V5 load(1, XDATA, add(CFA_XSP16, literal(-13)))
        CFI (cfiCond165) V6 load(1, XDATA, add(CFA_XSP16, literal(-12)))
        CFI (cfiCond165) V7 load(1, XDATA, add(CFA_XSP16, literal(-11)))
        CFI (cfiCond165) V8 load(1, XDATA, add(CFA_XSP16, literal(-10)))
        CFI (cfiCond165) V9 load(1, XDATA, add(CFA_XSP16, literal(-9)))
        CFI (cfiCond165) V10 load(1, XDATA, add(CFA_XSP16, literal(-8)))
        CFI (cfiCond165) V11 load(1, XDATA, add(CFA_XSP16, literal(-7)))
        CFI (cfiCond165) R7 load(1, XDATA, add(CFA_XSP16, literal(-6)))
        CFI (cfiCond165) ?RET_LOW load(1, XDATA, add(CFA_XSP16, literal(-5)))
        CFI (cfiCond165) ?RET_HIGH load(1, XDATA, add(CFA_XSP16, literal(-4)))
        CFI (cfiCond165) ?BRET_EXT load(1, XDATA, add(CFA_XSP16, literal(-3)))
        CFI (cfiCond165) DPL0 load(1, XDATA, add(CFA_XSP16, literal(-2)))
        CFI (cfiCond165) DPH0 load(1, XDATA, add(CFA_XSP16, literal(-1)))
        CFI (cfiCond165) CFA_SP SP+0
        CFI (cfiCond165) CFA_XSP16 add(XSP16, 20)
        CFI Block cfiPicker166 Using cfiCommon1
        CFI (cfiPicker166) NoFunction
        CFI (cfiPicker166) Picker
        MOV     A,R0
        MOVX    @DPTR,A
        INC     DPTR
        MOV     A,R1
        MOVX    @DPTR,A
        RET
        CFI EndBlock cfiCond159
        CFI EndBlock cfiCond160
        CFI EndBlock cfiCond161
        CFI EndBlock cfiCond162
        CFI EndBlock cfiCond163
        CFI EndBlock cfiCond164
        CFI EndBlock cfiCond165
        CFI EndBlock cfiPicker166

        RSEG BANKED_CODE:CODE:NOROOT(0)
?Subroutine25:
        CFI Block cfiCond167 Using cfiCommon0
        CFI NoFunction
        CFI Conditional ??CrossCallReturnLabel_28
        CFI R6 load(1, XDATA, add(CFA_XSP16, literal(-24)))
        CFI VB load(1, XDATA, add(CFA_XSP16, literal(-23)))
        CFI V0 load(1, XDATA, add(CFA_XSP16, literal(-22)))
        CFI V1 load(1, XDATA, add(CFA_XSP16, literal(-21)))
        CFI V2 load(1, XDATA, add(CFA_XSP16, literal(-20)))
        CFI V3 load(1, XDATA, add(CFA_XSP16, literal(-19)))
        CFI V4 load(1, XDATA, add(CFA_XSP16, literal(-18)))
        CFI V5 load(1, XDATA, add(CFA_XSP16, literal(-17)))
        CFI V6 load(1, XDATA, add(CFA_XSP16, literal(-16)))
        CFI V7 load(1, XDATA, add(CFA_XSP16, literal(-15)))
        CFI V8 load(1, XDATA, add(CFA_XSP16, literal(-14)))
        CFI V9 load(1, XDATA, add(CFA_XSP16, literal(-13)))
        CFI V10 load(1, XDATA, add(CFA_XSP16, literal(-12)))
        CFI V11 load(1, XDATA, add(CFA_XSP16, literal(-11)))
        CFI V12 load(1, XDATA, add(CFA_XSP16, literal(-10)))
        CFI V13 load(1, XDATA, add(CFA_XSP16, literal(-9)))
        CFI V14 load(1, XDATA, add(CFA_XSP16, literal(-8)))
        CFI V15 load(1, XDATA, add(CFA_XSP16, literal(-7)))
        CFI R7 load(1, XDATA, add(CFA_XSP16, literal(-6)))
        CFI ?RET_LOW load(1, XDATA, add(CFA_XSP16, literal(-5)))
        CFI ?RET_HIGH load(1, XDATA, add(CFA_XSP16, literal(-4)))
        CFI ?BRET_EXT load(1, XDATA, add(CFA_XSP16, literal(-3)))
        CFI DPL0 load(1, XDATA, add(CFA_XSP16, literal(-2)))
        CFI DPH0 load(1, XDATA, add(CFA_XSP16, literal(-1)))
        CFI CFA_SP SP+0
        CFI CFA_XSP16 add(XSP16, 25)
        CFI Block cfiCond168 Using cfiCommon0
        CFI (cfiCond168) NoFunction
        CFI (cfiCond168) Conditional ??CrossCallReturnLabel_29
        CFI (cfiCond168) R6 load(1, XDATA, add(CFA_XSP16, literal(-24)))
        CFI (cfiCond168) VB load(1, XDATA, add(CFA_XSP16, literal(-23)))
        CFI (cfiCond168) V0 load(1, XDATA, add(CFA_XSP16, literal(-22)))
        CFI (cfiCond168) V1 load(1, XDATA, add(CFA_XSP16, literal(-21)))
        CFI (cfiCond168) V2 load(1, XDATA, add(CFA_XSP16, literal(-20)))
        CFI (cfiCond168) V3 load(1, XDATA, add(CFA_XSP16, literal(-19)))
        CFI (cfiCond168) V4 load(1, XDATA, add(CFA_XSP16, literal(-18)))
        CFI (cfiCond168) V5 load(1, XDATA, add(CFA_XSP16, literal(-17)))
        CFI (cfiCond168) V6 load(1, XDATA, add(CFA_XSP16, literal(-16)))
        CFI (cfiCond168) V7 load(1, XDATA, add(CFA_XSP16, literal(-15)))
        CFI (cfiCond168) V8 load(1, XDATA, add(CFA_XSP16, literal(-14)))
        CFI (cfiCond168) V9 load(1, XDATA, add(CFA_XSP16, literal(-13)))
        CFI (cfiCond168) V10 load(1, XDATA, add(CFA_XSP16, literal(-12)))
        CFI (cfiCond168) V11 load(1, XDATA, add(CFA_XSP16, literal(-11)))
        CFI (cfiCond168) V12 load(1, XDATA, add(CFA_XSP16, literal(-10)))
        CFI (cfiCond168) V13 load(1, XDATA, add(CFA_XSP16, literal(-9)))
        CFI (cfiCond168) V14 load(1, XDATA, add(CFA_XSP16, literal(-8)))
        CFI (cfiCond168) V15 load(1, XDATA, add(CFA_XSP16, literal(-7)))
        CFI (cfiCond168) R7 load(1, XDATA, add(CFA_XSP16, literal(-6)))
        CFI (cfiCond168) ?RET_LOW load(1, XDATA, add(CFA_XSP16, literal(-5)))
        CFI (cfiCond168) ?RET_HIGH load(1, XDATA, add(CFA_XSP16, literal(-4)))
        CFI (cfiCond168) ?BRET_EXT load(1, XDATA, add(CFA_XSP16, literal(-3)))
        CFI (cfiCond168) DPL0 load(1, XDATA, add(CFA_XSP16, literal(-2)))
        CFI (cfiCond168) DPH0 load(1, XDATA, add(CFA_XSP16, literal(-1)))
        CFI (cfiCond168) CFA_SP SP+0
        CFI (cfiCond168) CFA_XSP16 add(XSP16, 25)
        CFI Block cfiCond169 Using cfiCommon0
        CFI (cfiCond169) NoFunction
        CFI (cfiCond169) Conditional ??CrossCallReturnLabel_30
        CFI (cfiCond169) R6 load(1, XDATA, add(CFA_XSP16, literal(-24)))
        CFI (cfiCond169) VB load(1, XDATA, add(CFA_XSP16, literal(-23)))
        CFI (cfiCond169) V0 load(1, XDATA, add(CFA_XSP16, literal(-22)))
        CFI (cfiCond169) V1 load(1, XDATA, add(CFA_XSP16, literal(-21)))
        CFI (cfiCond169) V2 load(1, XDATA, add(CFA_XSP16, literal(-20)))
        CFI (cfiCond169) V3 load(1, XDATA, add(CFA_XSP16, literal(-19)))
        CFI (cfiCond169) V4 load(1, XDATA, add(CFA_XSP16, literal(-18)))
        CFI (cfiCond169) V5 load(1, XDATA, add(CFA_XSP16, literal(-17)))
        CFI (cfiCond169) V6 load(1, XDATA, add(CFA_XSP16, literal(-16)))
        CFI (cfiCond169) V7 load(1, XDATA, add(CFA_XSP16, literal(-15)))
        CFI (cfiCond169) V8 load(1, XDATA, add(CFA_XSP16, literal(-14)))
        CFI (cfiCond169) V9 load(1, XDATA, add(CFA_XSP16, literal(-13)))
        CFI (cfiCond169) V10 load(1, XDATA, add(CFA_XSP16, literal(-12)))
        CFI (cfiCond169) V11 load(1, XDATA, add(CFA_XSP16, literal(-11)))
        CFI (cfiCond169) V12 load(1, XDATA, add(CFA_XSP16, literal(-10)))
        CFI (cfiCond169) V13 load(1, XDATA, add(CFA_XSP16, literal(-9)))
        CFI (cfiCond169) V14 load(1, XDATA, add(CFA_XSP16, literal(-8)))
        CFI (cfiCond169) V15 load(1, XDATA, add(CFA_XSP16, literal(-7)))
        CFI (cfiCond169) R7 load(1, XDATA, add(CFA_XSP16, literal(-6)))
        CFI (cfiCond169) ?RET_LOW load(1, XDATA, add(CFA_XSP16, literal(-5)))
        CFI (cfiCond169) ?RET_HIGH load(1, XDATA, add(CFA_XSP16, literal(-4)))
        CFI (cfiCond169) ?BRET_EXT load(1, XDATA, add(CFA_XSP16, literal(-3)))
        CFI (cfiCond169) DPL0 load(1, XDATA, add(CFA_XSP16, literal(-2)))
        CFI (cfiCond169) DPH0 load(1, XDATA, add(CFA_XSP16, literal(-1)))
        CFI (cfiCond169) CFA_SP SP+0
        CFI (cfiCond169) CFA_XSP16 add(XSP16, 25)
        CFI Block cfiPicker170 Using cfiCommon1
        CFI (cfiPicker170) NoFunction
        CFI (cfiPicker170) Picker
        LCALL   ?Subroutine38 & 0xFFFF
??CrossCallReturnLabel_99:
        RET
        CFI EndBlock cfiCond167
        CFI EndBlock cfiCond168
        CFI EndBlock cfiCond169
        CFI EndBlock cfiPicker170

        RSEG BANKED_CODE:CODE:NOROOT(0)
?Subroutine38:
        CFI Block cfiCond171 Using cfiCommon0
        CFI NoFunction
        CFI Conditional ??CrossCallReturnLabel_99, ??CrossCallReturnLabel_28
        CFI R6 load(1, XDATA, add(CFA_XSP16, literal(-24)))
        CFI VB load(1, XDATA, add(CFA_XSP16, literal(-23)))
        CFI V0 load(1, XDATA, add(CFA_XSP16, literal(-22)))
        CFI V1 load(1, XDATA, add(CFA_XSP16, literal(-21)))
        CFI V2 load(1, XDATA, add(CFA_XSP16, literal(-20)))
        CFI V3 load(1, XDATA, add(CFA_XSP16, literal(-19)))
        CFI V4 load(1, XDATA, add(CFA_XSP16, literal(-18)))
        CFI V5 load(1, XDATA, add(CFA_XSP16, literal(-17)))
        CFI V6 load(1, XDATA, add(CFA_XSP16, literal(-16)))
        CFI V7 load(1, XDATA, add(CFA_XSP16, literal(-15)))
        CFI V8 load(1, XDATA, add(CFA_XSP16, literal(-14)))
        CFI V9 load(1, XDATA, add(CFA_XSP16, literal(-13)))
        CFI V10 load(1, XDATA, add(CFA_XSP16, literal(-12)))
        CFI V11 load(1, XDATA, add(CFA_XSP16, literal(-11)))
        CFI V12 load(1, XDATA, add(CFA_XSP16, literal(-10)))
        CFI V13 load(1, XDATA, add(CFA_XSP16, literal(-9)))
        CFI V14 load(1, XDATA, add(CFA_XSP16, literal(-8)))
        CFI V15 load(1, XDATA, add(CFA_XSP16, literal(-7)))
        CFI R7 load(1, XDATA, add(CFA_XSP16, literal(-6)))
        CFI ?RET_LOW load(1, XDATA, add(CFA_XSP16, literal(-5)))
        CFI ?RET_HIGH load(1, XDATA, add(CFA_XSP16, literal(-4)))
        CFI ?BRET_EXT load(1, XDATA, add(CFA_XSP16, literal(-3)))
        CFI DPL0 load(1, XDATA, add(CFA_XSP16, literal(-2)))
        CFI DPH0 load(1, XDATA, add(CFA_XSP16, literal(-1)))
        CFI CFA_SP SP+0
        CFI CFA_XSP16 add(XSP16, 25)
        CFI Block cfiCond172 Using cfiCommon0
        CFI (cfiCond172) NoFunction
        CFI (cfiCond172) Conditional ??CrossCallReturnLabel_99, ??CrossCallReturnLabel_29
        CFI (cfiCond172) R6 load(1, XDATA, add(CFA_XSP16, literal(-24)))
        CFI (cfiCond172) VB load(1, XDATA, add(CFA_XSP16, literal(-23)))
        CFI (cfiCond172) V0 load(1, XDATA, add(CFA_XSP16, literal(-22)))
        CFI (cfiCond172) V1 load(1, XDATA, add(CFA_XSP16, literal(-21)))
        CFI (cfiCond172) V2 load(1, XDATA, add(CFA_XSP16, literal(-20)))
        CFI (cfiCond172) V3 load(1, XDATA, add(CFA_XSP16, literal(-19)))
        CFI (cfiCond172) V4 load(1, XDATA, add(CFA_XSP16, literal(-18)))
        CFI (cfiCond172) V5 load(1, XDATA, add(CFA_XSP16, literal(-17)))
        CFI (cfiCond172) V6 load(1, XDATA, add(CFA_XSP16, literal(-16)))
        CFI (cfiCond172) V7 load(1, XDATA, add(CFA_XSP16, literal(-15)))
        CFI (cfiCond172) V8 load(1, XDATA, add(CFA_XSP16, literal(-14)))
        CFI (cfiCond172) V9 load(1, XDATA, add(CFA_XSP16, literal(-13)))
        CFI (cfiCond172) V10 load(1, XDATA, add(CFA_XSP16, literal(-12)))
        CFI (cfiCond172) V11 load(1, XDATA, add(CFA_XSP16, literal(-11)))
        CFI (cfiCond172) V12 load(1, XDATA, add(CFA_XSP16, literal(-10)))
        CFI (cfiCond172) V13 load(1, XDATA, add(CFA_XSP16, literal(-9)))
        CFI (cfiCond172) V14 load(1, XDATA, add(CFA_XSP16, literal(-8)))
        CFI (cfiCond172) V15 load(1, XDATA, add(CFA_XSP16, literal(-7)))
        CFI (cfiCond172) R7 load(1, XDATA, add(CFA_XSP16, literal(-6)))
        CFI (cfiCond172) ?RET_LOW load(1, XDATA, add(CFA_XSP16, literal(-5)))
        CFI (cfiCond172) ?RET_HIGH load(1, XDATA, add(CFA_XSP16, literal(-4)))
        CFI (cfiCond172) ?BRET_EXT load(1, XDATA, add(CFA_XSP16, literal(-3)))
        CFI (cfiCond172) DPL0 load(1, XDATA, add(CFA_XSP16, literal(-2)))
        CFI (cfiCond172) DPH0 load(1, XDATA, add(CFA_XSP16, literal(-1)))
        CFI (cfiCond172) CFA_SP SP+0
        CFI (cfiCond172) CFA_XSP16 add(XSP16, 25)
        CFI Block cfiCond173 Using cfiCommon0
        CFI (cfiCond173) NoFunction
        CFI (cfiCond173) Conditional ??CrossCallReturnLabel_99, ??CrossCallReturnLabel_30
        CFI (cfiCond173) R6 load(1, XDATA, add(CFA_XSP16, literal(-24)))
        CFI (cfiCond173) VB load(1, XDATA, add(CFA_XSP16, literal(-23)))
        CFI (cfiCond173) V0 load(1, XDATA, add(CFA_XSP16, literal(-22)))
        CFI (cfiCond173) V1 load(1, XDATA, add(CFA_XSP16, literal(-21)))
        CFI (cfiCond173) V2 load(1, XDATA, add(CFA_XSP16, literal(-20)))
        CFI (cfiCond173) V3 load(1, XDATA, add(CFA_XSP16, literal(-19)))
        CFI (cfiCond173) V4 load(1, XDATA, add(CFA_XSP16, literal(-18)))
        CFI (cfiCond173) V5 load(1, XDATA, add(CFA_XSP16, literal(-17)))
        CFI (cfiCond173) V6 load(1, XDATA, add(CFA_XSP16, literal(-16)))
        CFI (cfiCond173) V7 load(1, XDATA, add(CFA_XSP16, literal(-15)))
        CFI (cfiCond173) V8 load(1, XDATA, add(CFA_XSP16, literal(-14)))
        CFI (cfiCond173) V9 load(1, XDATA, add(CFA_XSP16, literal(-13)))
        CFI (cfiCond173) V10 load(1, XDATA, add(CFA_XSP16, literal(-12)))
        CFI (cfiCond173) V11 load(1, XDATA, add(CFA_XSP16, literal(-11)))
        CFI (cfiCond173) V12 load(1, XDATA, add(CFA_XSP16, literal(-10)))
        CFI (cfiCond173) V13 load(1, XDATA, add(CFA_XSP16, literal(-9)))
        CFI (cfiCond173) V14 load(1, XDATA, add(CFA_XSP16, literal(-8)))
        CFI (cfiCond173) V15 load(1, XDATA, add(CFA_XSP16, literal(-7)))
        CFI (cfiCond173) R7 load(1, XDATA, add(CFA_XSP16, literal(-6)))
        CFI (cfiCond173) ?RET_LOW load(1, XDATA, add(CFA_XSP16, literal(-5)))
        CFI (cfiCond173) ?RET_HIGH load(1, XDATA, add(CFA_XSP16, literal(-4)))
        CFI (cfiCond173) ?BRET_EXT load(1, XDATA, add(CFA_XSP16, literal(-3)))
        CFI (cfiCond173) DPL0 load(1, XDATA, add(CFA_XSP16, literal(-2)))
        CFI (cfiCond173) DPH0 load(1, XDATA, add(CFA_XSP16, literal(-1)))
        CFI (cfiCond173) CFA_SP SP+0
        CFI (cfiCond173) CFA_XSP16 add(XSP16, 25)
        CFI Block cfiCond174 Using cfiCommon0
        CFI (cfiCond174) NoFunction
        CFI (cfiCond174) Conditional ??CrossCallReturnLabel_98, ??CrossCallReturnLabel_26
        CFI (cfiCond174) R6 load(1, XDATA, add(CFA_XSP16, literal(-24)))
        CFI (cfiCond174) VB load(1, XDATA, add(CFA_XSP16, literal(-23)))
        CFI (cfiCond174) V0 load(1, XDATA, add(CFA_XSP16, literal(-22)))
        CFI (cfiCond174) V1 load(1, XDATA, add(CFA_XSP16, literal(-21)))
        CFI (cfiCond174) V2 load(1, XDATA, add(CFA_XSP16, literal(-20)))
        CFI (cfiCond174) V3 load(1, XDATA, add(CFA_XSP16, literal(-19)))
        CFI (cfiCond174) V4 load(1, XDATA, add(CFA_XSP16, literal(-18)))
        CFI (cfiCond174) V5 load(1, XDATA, add(CFA_XSP16, literal(-17)))
        CFI (cfiCond174) V6 load(1, XDATA, add(CFA_XSP16, literal(-16)))
        CFI (cfiCond174) V7 load(1, XDATA, add(CFA_XSP16, literal(-15)))
        CFI (cfiCond174) V8 load(1, XDATA, add(CFA_XSP16, literal(-14)))
        CFI (cfiCond174) V9 load(1, XDATA, add(CFA_XSP16, literal(-13)))
        CFI (cfiCond174) V10 load(1, XDATA, add(CFA_XSP16, literal(-12)))
        CFI (cfiCond174) V11 load(1, XDATA, add(CFA_XSP16, literal(-11)))
        CFI (cfiCond174) V12 load(1, XDATA, add(CFA_XSP16, literal(-10)))
        CFI (cfiCond174) V13 load(1, XDATA, add(CFA_XSP16, literal(-9)))
        CFI (cfiCond174) V14 load(1, XDATA, add(CFA_XSP16, literal(-8)))
        CFI (cfiCond174) V15 load(1, XDATA, add(CFA_XSP16, literal(-7)))
        CFI (cfiCond174) R7 load(1, XDATA, add(CFA_XSP16, literal(-6)))
        CFI (cfiCond174) ?RET_LOW load(1, XDATA, add(CFA_XSP16, literal(-5)))
        CFI (cfiCond174) ?RET_HIGH load(1, XDATA, add(CFA_XSP16, literal(-4)))
        CFI (cfiCond174) ?BRET_EXT load(1, XDATA, add(CFA_XSP16, literal(-3)))
        CFI (cfiCond174) DPL0 load(1, XDATA, add(CFA_XSP16, literal(-2)))
        CFI (cfiCond174) DPH0 load(1, XDATA, add(CFA_XSP16, literal(-1)))
        CFI (cfiCond174) CFA_SP SP+0
        CFI (cfiCond174) CFA_XSP16 add(XSP16, 25)
        CFI Block cfiCond175 Using cfiCommon0
        CFI (cfiCond175) NoFunction
        CFI (cfiCond175) Conditional ??CrossCallReturnLabel_98, ??CrossCallReturnLabel_27
        CFI (cfiCond175) R6 load(1, XDATA, add(CFA_XSP16, literal(-24)))
        CFI (cfiCond175) VB load(1, XDATA, add(CFA_XSP16, literal(-23)))
        CFI (cfiCond175) V0 load(1, XDATA, add(CFA_XSP16, literal(-22)))
        CFI (cfiCond175) V1 load(1, XDATA, add(CFA_XSP16, literal(-21)))
        CFI (cfiCond175) V2 load(1, XDATA, add(CFA_XSP16, literal(-20)))
        CFI (cfiCond175) V3 load(1, XDATA, add(CFA_XSP16, literal(-19)))
        CFI (cfiCond175) V4 load(1, XDATA, add(CFA_XSP16, literal(-18)))
        CFI (cfiCond175) V5 load(1, XDATA, add(CFA_XSP16, literal(-17)))
        CFI (cfiCond175) V6 load(1, XDATA, add(CFA_XSP16, literal(-16)))
        CFI (cfiCond175) V7 load(1, XDATA, add(CFA_XSP16, literal(-15)))
        CFI (cfiCond175) V8 load(1, XDATA, add(CFA_XSP16, literal(-14)))
        CFI (cfiCond175) V9 load(1, XDATA, add(CFA_XSP16, literal(-13)))
        CFI (cfiCond175) V10 load(1, XDATA, add(CFA_XSP16, literal(-12)))
        CFI (cfiCond175) V11 load(1, XDATA, add(CFA_XSP16, literal(-11)))
        CFI (cfiCond175) V12 load(1, XDATA, add(CFA_XSP16, literal(-10)))
        CFI (cfiCond175) V13 load(1, XDATA, add(CFA_XSP16, literal(-9)))
        CFI (cfiCond175) V14 load(1, XDATA, add(CFA_XSP16, literal(-8)))
        CFI (cfiCond175) V15 load(1, XDATA, add(CFA_XSP16, literal(-7)))
        CFI (cfiCond175) R7 load(1, XDATA, add(CFA_XSP16, literal(-6)))
        CFI (cfiCond175) ?RET_LOW load(1, XDATA, add(CFA_XSP16, literal(-5)))
        CFI (cfiCond175) ?RET_HIGH load(1, XDATA, add(CFA_XSP16, literal(-4)))
        CFI (cfiCond175) ?BRET_EXT load(1, XDATA, add(CFA_XSP16, literal(-3)))
        CFI (cfiCond175) DPL0 load(1, XDATA, add(CFA_XSP16, literal(-2)))
        CFI (cfiCond175) DPH0 load(1, XDATA, add(CFA_XSP16, literal(-1)))
        CFI (cfiCond175) CFA_SP SP+0
        CFI (cfiCond175) CFA_XSP16 add(XSP16, 25)
        CFI Block cfiCond176 Using cfiCommon0
        CFI (cfiCond176) NoFunction
        CFI (cfiCond176) Conditional ??CrossCallReturnLabel_100, ??CrossCallReturnLabel_95
        CFI (cfiCond176) R6 load(1, XDATA, add(CFA_XSP16, literal(-24)))
        CFI (cfiCond176) VB load(1, XDATA, add(CFA_XSP16, literal(-23)))
        CFI (cfiCond176) V0 load(1, XDATA, add(CFA_XSP16, literal(-22)))
        CFI (cfiCond176) V1 load(1, XDATA, add(CFA_XSP16, literal(-21)))
        CFI (cfiCond176) V2 load(1, XDATA, add(CFA_XSP16, literal(-20)))
        CFI (cfiCond176) V3 load(1, XDATA, add(CFA_XSP16, literal(-19)))
        CFI (cfiCond176) V4 load(1, XDATA, add(CFA_XSP16, literal(-18)))
        CFI (cfiCond176) V5 load(1, XDATA, add(CFA_XSP16, literal(-17)))
        CFI (cfiCond176) V6 load(1, XDATA, add(CFA_XSP16, literal(-16)))
        CFI (cfiCond176) V7 load(1, XDATA, add(CFA_XSP16, literal(-15)))
        CFI (cfiCond176) V8 load(1, XDATA, add(CFA_XSP16, literal(-14)))
        CFI (cfiCond176) V9 load(1, XDATA, add(CFA_XSP16, literal(-13)))
        CFI (cfiCond176) V10 load(1, XDATA, add(CFA_XSP16, literal(-12)))
        CFI (cfiCond176) V11 load(1, XDATA, add(CFA_XSP16, literal(-11)))
        CFI (cfiCond176) V12 load(1, XDATA, add(CFA_XSP16, literal(-10)))
        CFI (cfiCond176) V13 load(1, XDATA, add(CFA_XSP16, literal(-9)))
        CFI (cfiCond176) V14 load(1, XDATA, add(CFA_XSP16, literal(-8)))
        CFI (cfiCond176) V15 load(1, XDATA, add(CFA_XSP16, literal(-7)))
        CFI (cfiCond176) R7 load(1, XDATA, add(CFA_XSP16, literal(-6)))
        CFI (cfiCond176) ?RET_LOW load(1, XDATA, add(CFA_XSP16, literal(-5)))
        CFI (cfiCond176) ?RET_HIGH load(1, XDATA, add(CFA_XSP16, literal(-4)))
        CFI (cfiCond176) ?BRET_EXT load(1, XDATA, add(CFA_XSP16, literal(-3)))
        CFI (cfiCond176) DPL0 load(1, XDATA, add(CFA_XSP16, literal(-2)))
        CFI (cfiCond176) DPH0 load(1, XDATA, add(CFA_XSP16, literal(-1)))
        CFI (cfiCond176) CFA_SP SP+0
        CFI (cfiCond176) CFA_XSP16 add(XSP16, 25)
        CFI Block cfiCond177 Using cfiCommon0
        CFI (cfiCond177) NoFunction
        CFI (cfiCond177) Conditional ??CrossCallReturnLabel_100, ??CrossCallReturnLabel_96
        CFI (cfiCond177) R6 load(1, XDATA, add(CFA_XSP16, literal(-24)))
        CFI (cfiCond177) VB load(1, XDATA, add(CFA_XSP16, literal(-23)))
        CFI (cfiCond177) V0 load(1, XDATA, add(CFA_XSP16, literal(-22)))
        CFI (cfiCond177) V1 load(1, XDATA, add(CFA_XSP16, literal(-21)))
        CFI (cfiCond177) V2 load(1, XDATA, add(CFA_XSP16, literal(-20)))
        CFI (cfiCond177) V3 load(1, XDATA, add(CFA_XSP16, literal(-19)))
        CFI (cfiCond177) V4 load(1, XDATA, add(CFA_XSP16, literal(-18)))
        CFI (cfiCond177) V5 load(1, XDATA, add(CFA_XSP16, literal(-17)))
        CFI (cfiCond177) V6 load(1, XDATA, add(CFA_XSP16, literal(-16)))
        CFI (cfiCond177) V7 load(1, XDATA, add(CFA_XSP16, literal(-15)))
        CFI (cfiCond177) V8 load(1, XDATA, add(CFA_XSP16, literal(-14)))
        CFI (cfiCond177) V9 load(1, XDATA, add(CFA_XSP16, literal(-13)))
        CFI (cfiCond177) V10 load(1, XDATA, add(CFA_XSP16, literal(-12)))
        CFI (cfiCond177) V11 load(1, XDATA, add(CFA_XSP16, literal(-11)))
        CFI (cfiCond177) V12 load(1, XDATA, add(CFA_XSP16, literal(-10)))
        CFI (cfiCond177) V13 load(1, XDATA, add(CFA_XSP16, literal(-9)))
        CFI (cfiCond177) V14 load(1, XDATA, add(CFA_XSP16, literal(-8)))
        CFI (cfiCond177) V15 load(1, XDATA, add(CFA_XSP16, literal(-7)))
        CFI (cfiCond177) R7 load(1, XDATA, add(CFA_XSP16, literal(-6)))
        CFI (cfiCond177) ?RET_LOW load(1, XDATA, add(CFA_XSP16, literal(-5)))
        CFI (cfiCond177) ?RET_HIGH load(1, XDATA, add(CFA_XSP16, literal(-4)))
        CFI (cfiCond177) ?BRET_EXT load(1, XDATA, add(CFA_XSP16, literal(-3)))
        CFI (cfiCond177) DPL0 load(1, XDATA, add(CFA_XSP16, literal(-2)))
        CFI (cfiCond177) DPH0 load(1, XDATA, add(CFA_XSP16, literal(-1)))
        CFI (cfiCond177) CFA_SP SP+0
        CFI (cfiCond177) CFA_XSP16 add(XSP16, 25)
        CFI Block cfiCond178 Using cfiCommon0
        CFI (cfiCond178) NoFunction
        CFI (cfiCond178) Conditional ??CrossCallReturnLabel_100, ??CrossCallReturnLabel_97
        CFI (cfiCond178) R6 load(1, XDATA, add(CFA_XSP16, literal(-24)))
        CFI (cfiCond178) VB load(1, XDATA, add(CFA_XSP16, literal(-23)))
        CFI (cfiCond178) V0 load(1, XDATA, add(CFA_XSP16, literal(-22)))
        CFI (cfiCond178) V1 load(1, XDATA, add(CFA_XSP16, literal(-21)))
        CFI (cfiCond178) V2 load(1, XDATA, add(CFA_XSP16, literal(-20)))
        CFI (cfiCond178) V3 load(1, XDATA, add(CFA_XSP16, literal(-19)))
        CFI (cfiCond178) V4 load(1, XDATA, add(CFA_XSP16, literal(-18)))
        CFI (cfiCond178) V5 load(1, XDATA, add(CFA_XSP16, literal(-17)))
        CFI (cfiCond178) V6 load(1, XDATA, add(CFA_XSP16, literal(-16)))
        CFI (cfiCond178) V7 load(1, XDATA, add(CFA_XSP16, literal(-15)))
        CFI (cfiCond178) V8 load(1, XDATA, add(CFA_XSP16, literal(-14)))
        CFI (cfiCond178) V9 load(1, XDATA, add(CFA_XSP16, literal(-13)))
        CFI (cfiCond178) V10 load(1, XDATA, add(CFA_XSP16, literal(-12)))
        CFI (cfiCond178) V11 load(1, XDATA, add(CFA_XSP16, literal(-11)))
        CFI (cfiCond178) V12 load(1, XDATA, add(CFA_XSP16, literal(-10)))
        CFI (cfiCond178) V13 load(1, XDATA, add(CFA_XSP16, literal(-9)))
        CFI (cfiCond178) V14 load(1, XDATA, add(CFA_XSP16, literal(-8)))
        CFI (cfiCond178) V15 load(1, XDATA, add(CFA_XSP16, literal(-7)))
        CFI (cfiCond178) R7 load(1, XDATA, add(CFA_XSP16, literal(-6)))
        CFI (cfiCond178) ?RET_LOW load(1, XDATA, add(CFA_XSP16, literal(-5)))
        CFI (cfiCond178) ?RET_HIGH load(1, XDATA, add(CFA_XSP16, literal(-4)))
        CFI (cfiCond178) ?BRET_EXT load(1, XDATA, add(CFA_XSP16, literal(-3)))
        CFI (cfiCond178) DPL0 load(1, XDATA, add(CFA_XSP16, literal(-2)))
        CFI (cfiCond178) DPH0 load(1, XDATA, add(CFA_XSP16, literal(-1)))
        CFI (cfiCond178) CFA_SP SP+0
        CFI (cfiCond178) CFA_XSP16 add(XSP16, 25)
        CFI Block cfiPicker179 Using cfiCommon1
        CFI (cfiPicker179) NoFunction
        CFI (cfiPicker179) Picker
        MOVX    @DPTR,A
        INC     DPTR
        MOV     ?V0 + 2,DPL
        MOV     ?V0 + 3,DPH
        RET
        CFI EndBlock cfiCond171
        CFI EndBlock cfiCond172
        CFI EndBlock cfiCond173
        CFI EndBlock cfiCond174
        CFI EndBlock cfiCond175
        CFI EndBlock cfiCond176
        CFI EndBlock cfiCond177
        CFI EndBlock cfiCond178
        CFI EndBlock cfiPicker179

        RSEG BANKED_CODE:CODE:NOROOT(0)
?Subroutine24:
        CFI Block cfiCond180 Using cfiCommon0
        CFI NoFunction
        CFI Conditional ??CrossCallReturnLabel_26
        CFI R6 load(1, XDATA, add(CFA_XSP16, literal(-24)))
        CFI VB load(1, XDATA, add(CFA_XSP16, literal(-23)))
        CFI V0 load(1, XDATA, add(CFA_XSP16, literal(-22)))
        CFI V1 load(1, XDATA, add(CFA_XSP16, literal(-21)))
        CFI V2 load(1, XDATA, add(CFA_XSP16, literal(-20)))
        CFI V3 load(1, XDATA, add(CFA_XSP16, literal(-19)))
        CFI V4 load(1, XDATA, add(CFA_XSP16, literal(-18)))
        CFI V5 load(1, XDATA, add(CFA_XSP16, literal(-17)))
        CFI V6 load(1, XDATA, add(CFA_XSP16, literal(-16)))
        CFI V7 load(1, XDATA, add(CFA_XSP16, literal(-15)))
        CFI V8 load(1, XDATA, add(CFA_XSP16, literal(-14)))
        CFI V9 load(1, XDATA, add(CFA_XSP16, literal(-13)))
        CFI V10 load(1, XDATA, add(CFA_XSP16, literal(-12)))
        CFI V11 load(1, XDATA, add(CFA_XSP16, literal(-11)))
        CFI V12 load(1, XDATA, add(CFA_XSP16, literal(-10)))
        CFI V13 load(1, XDATA, add(CFA_XSP16, literal(-9)))
        CFI V14 load(1, XDATA, add(CFA_XSP16, literal(-8)))
        CFI V15 load(1, XDATA, add(CFA_XSP16, literal(-7)))
        CFI R7 load(1, XDATA, add(CFA_XSP16, literal(-6)))
        CFI ?RET_LOW load(1, XDATA, add(CFA_XSP16, literal(-5)))
        CFI ?RET_HIGH load(1, XDATA, add(CFA_XSP16, literal(-4)))
        CFI ?BRET_EXT load(1, XDATA, add(CFA_XSP16, literal(-3)))
        CFI DPL0 load(1, XDATA, add(CFA_XSP16, literal(-2)))
        CFI DPH0 load(1, XDATA, add(CFA_XSP16, literal(-1)))
        CFI CFA_SP SP+0
        CFI CFA_XSP16 add(XSP16, 25)
        CFI Block cfiCond181 Using cfiCommon0
        CFI (cfiCond181) NoFunction
        CFI (cfiCond181) Conditional ??CrossCallReturnLabel_27
        CFI (cfiCond181) R6 load(1, XDATA, add(CFA_XSP16, literal(-24)))
        CFI (cfiCond181) VB load(1, XDATA, add(CFA_XSP16, literal(-23)))
        CFI (cfiCond181) V0 load(1, XDATA, add(CFA_XSP16, literal(-22)))
        CFI (cfiCond181) V1 load(1, XDATA, add(CFA_XSP16, literal(-21)))
        CFI (cfiCond181) V2 load(1, XDATA, add(CFA_XSP16, literal(-20)))
        CFI (cfiCond181) V3 load(1, XDATA, add(CFA_XSP16, literal(-19)))
        CFI (cfiCond181) V4 load(1, XDATA, add(CFA_XSP16, literal(-18)))
        CFI (cfiCond181) V5 load(1, XDATA, add(CFA_XSP16, literal(-17)))
        CFI (cfiCond181) V6 load(1, XDATA, add(CFA_XSP16, literal(-16)))
        CFI (cfiCond181) V7 load(1, XDATA, add(CFA_XSP16, literal(-15)))
        CFI (cfiCond181) V8 load(1, XDATA, add(CFA_XSP16, literal(-14)))
        CFI (cfiCond181) V9 load(1, XDATA, add(CFA_XSP16, literal(-13)))
        CFI (cfiCond181) V10 load(1, XDATA, add(CFA_XSP16, literal(-12)))
        CFI (cfiCond181) V11 load(1, XDATA, add(CFA_XSP16, literal(-11)))
        CFI (cfiCond181) V12 load(1, XDATA, add(CFA_XSP16, literal(-10)))
        CFI (cfiCond181) V13 load(1, XDATA, add(CFA_XSP16, literal(-9)))
        CFI (cfiCond181) V14 load(1, XDATA, add(CFA_XSP16, literal(-8)))
        CFI (cfiCond181) V15 load(1, XDATA, add(CFA_XSP16, literal(-7)))
        CFI (cfiCond181) R7 load(1, XDATA, add(CFA_XSP16, literal(-6)))
        CFI (cfiCond181) ?RET_LOW load(1, XDATA, add(CFA_XSP16, literal(-5)))
        CFI (cfiCond181) ?RET_HIGH load(1, XDATA, add(CFA_XSP16, literal(-4)))
        CFI (cfiCond181) ?BRET_EXT load(1, XDATA, add(CFA_XSP16, literal(-3)))
        CFI (cfiCond181) DPL0 load(1, XDATA, add(CFA_XSP16, literal(-2)))
        CFI (cfiCond181) DPH0 load(1, XDATA, add(CFA_XSP16, literal(-1)))
        CFI (cfiCond181) CFA_SP SP+0
        CFI (cfiCond181) CFA_XSP16 add(XSP16, 25)
        CFI Block cfiPicker182 Using cfiCommon1
        CFI (cfiPicker182) NoFunction
        CFI (cfiPicker182) Picker
        LCALL   ?Subroutine38 & 0xFFFF
??CrossCallReturnLabel_98:
        MOV     A,?V0 + 8
        RET
        CFI EndBlock cfiCond180
        CFI EndBlock cfiCond181
        CFI EndBlock cfiPicker182

        RSEG BANKED_CODE:CODE:NOROOT(0)
?Subroutine20:
        CFI Block cfiCond183 Using cfiCommon0
        CFI NoFunction
        CFI Conditional ??CrossCallReturnLabel_95
        CFI R6 load(1, XDATA, add(CFA_XSP16, literal(-24)))
        CFI VB load(1, XDATA, add(CFA_XSP16, literal(-23)))
        CFI V0 load(1, XDATA, add(CFA_XSP16, literal(-22)))
        CFI V1 load(1, XDATA, add(CFA_XSP16, literal(-21)))
        CFI V2 load(1, XDATA, add(CFA_XSP16, literal(-20)))
        CFI V3 load(1, XDATA, add(CFA_XSP16, literal(-19)))
        CFI V4 load(1, XDATA, add(CFA_XSP16, literal(-18)))
        CFI V5 load(1, XDATA, add(CFA_XSP16, literal(-17)))
        CFI V6 load(1, XDATA, add(CFA_XSP16, literal(-16)))
        CFI V7 load(1, XDATA, add(CFA_XSP16, literal(-15)))
        CFI V8 load(1, XDATA, add(CFA_XSP16, literal(-14)))
        CFI V9 load(1, XDATA, add(CFA_XSP16, literal(-13)))
        CFI V10 load(1, XDATA, add(CFA_XSP16, literal(-12)))
        CFI V11 load(1, XDATA, add(CFA_XSP16, literal(-11)))
        CFI V12 load(1, XDATA, add(CFA_XSP16, literal(-10)))
        CFI V13 load(1, XDATA, add(CFA_XSP16, literal(-9)))
        CFI V14 load(1, XDATA, add(CFA_XSP16, literal(-8)))
        CFI V15 load(1, XDATA, add(CFA_XSP16, literal(-7)))
        CFI R7 load(1, XDATA, add(CFA_XSP16, literal(-6)))
        CFI ?RET_LOW load(1, XDATA, add(CFA_XSP16, literal(-5)))
        CFI ?RET_HIGH load(1, XDATA, add(CFA_XSP16, literal(-4)))
        CFI ?BRET_EXT load(1, XDATA, add(CFA_XSP16, literal(-3)))
        CFI DPL0 load(1, XDATA, add(CFA_XSP16, literal(-2)))
        CFI DPH0 load(1, XDATA, add(CFA_XSP16, literal(-1)))
        CFI CFA_SP SP+0
        CFI CFA_XSP16 add(XSP16, 25)
        CFI Block cfiCond184 Using cfiCommon0
        CFI (cfiCond184) NoFunction
        CFI (cfiCond184) Conditional ??CrossCallReturnLabel_96
        CFI (cfiCond184) R6 load(1, XDATA, add(CFA_XSP16, literal(-24)))
        CFI (cfiCond184) VB load(1, XDATA, add(CFA_XSP16, literal(-23)))
        CFI (cfiCond184) V0 load(1, XDATA, add(CFA_XSP16, literal(-22)))
        CFI (cfiCond184) V1 load(1, XDATA, add(CFA_XSP16, literal(-21)))
        CFI (cfiCond184) V2 load(1, XDATA, add(CFA_XSP16, literal(-20)))
        CFI (cfiCond184) V3 load(1, XDATA, add(CFA_XSP16, literal(-19)))
        CFI (cfiCond184) V4 load(1, XDATA, add(CFA_XSP16, literal(-18)))
        CFI (cfiCond184) V5 load(1, XDATA, add(CFA_XSP16, literal(-17)))
        CFI (cfiCond184) V6 load(1, XDATA, add(CFA_XSP16, literal(-16)))
        CFI (cfiCond184) V7 load(1, XDATA, add(CFA_XSP16, literal(-15)))
        CFI (cfiCond184) V8 load(1, XDATA, add(CFA_XSP16, literal(-14)))
        CFI (cfiCond184) V9 load(1, XDATA, add(CFA_XSP16, literal(-13)))
        CFI (cfiCond184) V10 load(1, XDATA, add(CFA_XSP16, literal(-12)))
        CFI (cfiCond184) V11 load(1, XDATA, add(CFA_XSP16, literal(-11)))
        CFI (cfiCond184) V12 load(1, XDATA, add(CFA_XSP16, literal(-10)))
        CFI (cfiCond184) V13 load(1, XDATA, add(CFA_XSP16, literal(-9)))
        CFI (cfiCond184) V14 load(1, XDATA, add(CFA_XSP16, literal(-8)))
        CFI (cfiCond184) V15 load(1, XDATA, add(CFA_XSP16, literal(-7)))
        CFI (cfiCond184) R7 load(1, XDATA, add(CFA_XSP16, literal(-6)))
        CFI (cfiCond184) ?RET_LOW load(1, XDATA, add(CFA_XSP16, literal(-5)))
        CFI (cfiCond184) ?RET_HIGH load(1, XDATA, add(CFA_XSP16, literal(-4)))
        CFI (cfiCond184) ?BRET_EXT load(1, XDATA, add(CFA_XSP16, literal(-3)))
        CFI (cfiCond184) DPL0 load(1, XDATA, add(CFA_XSP16, literal(-2)))
        CFI (cfiCond184) DPH0 load(1, XDATA, add(CFA_XSP16, literal(-1)))
        CFI (cfiCond184) CFA_SP SP+0
        CFI (cfiCond184) CFA_XSP16 add(XSP16, 25)
        CFI Block cfiPicker185 Using cfiCommon1
        CFI (cfiPicker185) NoFunction
        CFI (cfiPicker185) Picker
        MOV     DPL,?V0 + 2
        MOV     DPH,?V0 + 3
        MOV     A,?V0 + 4
        CFI EndBlock cfiCond183
        CFI EndBlock cfiCond184
        CFI EndBlock cfiPicker185
        REQUIRE ??Subroutine53_0
        ; // Fall through to label ??Subroutine53_0

        RSEG BANKED_CODE:CODE:NOROOT(0)
??Subroutine53_0:
        CFI Block cfiCond186 Using cfiCommon0
        CFI NoFunction
        CFI Conditional ??CrossCallReturnLabel_97
        CFI R6 load(1, XDATA, add(CFA_XSP16, literal(-24)))
        CFI VB load(1, XDATA, add(CFA_XSP16, literal(-23)))
        CFI V0 load(1, XDATA, add(CFA_XSP16, literal(-22)))
        CFI V1 load(1, XDATA, add(CFA_XSP16, literal(-21)))
        CFI V2 load(1, XDATA, add(CFA_XSP16, literal(-20)))
        CFI V3 load(1, XDATA, add(CFA_XSP16, literal(-19)))
        CFI V4 load(1, XDATA, add(CFA_XSP16, literal(-18)))
        CFI V5 load(1, XDATA, add(CFA_XSP16, literal(-17)))
        CFI V6 load(1, XDATA, add(CFA_XSP16, literal(-16)))
        CFI V7 load(1, XDATA, add(CFA_XSP16, literal(-15)))
        CFI V8 load(1, XDATA, add(CFA_XSP16, literal(-14)))
        CFI V9 load(1, XDATA, add(CFA_XSP16, literal(-13)))
        CFI V10 load(1, XDATA, add(CFA_XSP16, literal(-12)))
        CFI V11 load(1, XDATA, add(CFA_XSP16, literal(-11)))
        CFI V12 load(1, XDATA, add(CFA_XSP16, literal(-10)))
        CFI V13 load(1, XDATA, add(CFA_XSP16, literal(-9)))
        CFI V14 load(1, XDATA, add(CFA_XSP16, literal(-8)))
        CFI V15 load(1, XDATA, add(CFA_XSP16, literal(-7)))
        CFI R7 load(1, XDATA, add(CFA_XSP16, literal(-6)))
        CFI ?RET_LOW load(1, XDATA, add(CFA_XSP16, literal(-5)))
        CFI ?RET_HIGH load(1, XDATA, add(CFA_XSP16, literal(-4)))
        CFI ?BRET_EXT load(1, XDATA, add(CFA_XSP16, literal(-3)))
        CFI DPL0 load(1, XDATA, add(CFA_XSP16, literal(-2)))
        CFI DPH0 load(1, XDATA, add(CFA_XSP16, literal(-1)))
        CFI CFA_SP SP+0
        CFI CFA_XSP16 add(XSP16, 25)
        CFI Block cfiCond187 Using cfiCommon0
        CFI (cfiCond187) NoFunction
        CFI (cfiCond187) Conditional ??CrossCallReturnLabel_95
        CFI (cfiCond187) R6 load(1, XDATA, add(CFA_XSP16, literal(-24)))
        CFI (cfiCond187) VB load(1, XDATA, add(CFA_XSP16, literal(-23)))
        CFI (cfiCond187) V0 load(1, XDATA, add(CFA_XSP16, literal(-22)))
        CFI (cfiCond187) V1 load(1, XDATA, add(CFA_XSP16, literal(-21)))
        CFI (cfiCond187) V2 load(1, XDATA, add(CFA_XSP16, literal(-20)))
        CFI (cfiCond187) V3 load(1, XDATA, add(CFA_XSP16, literal(-19)))
        CFI (cfiCond187) V4 load(1, XDATA, add(CFA_XSP16, literal(-18)))
        CFI (cfiCond187) V5 load(1, XDATA, add(CFA_XSP16, literal(-17)))
        CFI (cfiCond187) V6 load(1, XDATA, add(CFA_XSP16, literal(-16)))
        CFI (cfiCond187) V7 load(1, XDATA, add(CFA_XSP16, literal(-15)))
        CFI (cfiCond187) V8 load(1, XDATA, add(CFA_XSP16, literal(-14)))
        CFI (cfiCond187) V9 load(1, XDATA, add(CFA_XSP16, literal(-13)))
        CFI (cfiCond187) V10 load(1, XDATA, add(CFA_XSP16, literal(-12)))
        CFI (cfiCond187) V11 load(1, XDATA, add(CFA_XSP16, literal(-11)))
        CFI (cfiCond187) V12 load(1, XDATA, add(CFA_XSP16, literal(-10)))
        CFI (cfiCond187) V13 load(1, XDATA, add(CFA_XSP16, literal(-9)))
        CFI (cfiCond187) V14 load(1, XDATA, add(CFA_XSP16, literal(-8)))
        CFI (cfiCond187) V15 load(1, XDATA, add(CFA_XSP16, literal(-7)))
        CFI (cfiCond187) R7 load(1, XDATA, add(CFA_XSP16, literal(-6)))
        CFI (cfiCond187) ?RET_LOW load(1, XDATA, add(CFA_XSP16, literal(-5)))
        CFI (cfiCond187) ?RET_HIGH load(1, XDATA, add(CFA_XSP16, literal(-4)))
        CFI (cfiCond187) ?BRET_EXT load(1, XDATA, add(CFA_XSP16, literal(-3)))
        CFI (cfiCond187) DPL0 load(1, XDATA, add(CFA_XSP16, literal(-2)))
        CFI (cfiCond187) DPH0 load(1, XDATA, add(CFA_XSP16, literal(-1)))
        CFI (cfiCond187) CFA_SP SP+0
        CFI (cfiCond187) CFA_XSP16 add(XSP16, 25)
        CFI Block cfiCond188 Using cfiCommon0
        CFI (cfiCond188) NoFunction
        CFI (cfiCond188) Conditional ??CrossCallReturnLabel_96
        CFI (cfiCond188) R6 load(1, XDATA, add(CFA_XSP16, literal(-24)))
        CFI (cfiCond188) VB load(1, XDATA, add(CFA_XSP16, literal(-23)))
        CFI (cfiCond188) V0 load(1, XDATA, add(CFA_XSP16, literal(-22)))
        CFI (cfiCond188) V1 load(1, XDATA, add(CFA_XSP16, literal(-21)))
        CFI (cfiCond188) V2 load(1, XDATA, add(CFA_XSP16, literal(-20)))
        CFI (cfiCond188) V3 load(1, XDATA, add(CFA_XSP16, literal(-19)))
        CFI (cfiCond188) V4 load(1, XDATA, add(CFA_XSP16, literal(-18)))
        CFI (cfiCond188) V5 load(1, XDATA, add(CFA_XSP16, literal(-17)))
        CFI (cfiCond188) V6 load(1, XDATA, add(CFA_XSP16, literal(-16)))
        CFI (cfiCond188) V7 load(1, XDATA, add(CFA_XSP16, literal(-15)))
        CFI (cfiCond188) V8 load(1, XDATA, add(CFA_XSP16, literal(-14)))
        CFI (cfiCond188) V9 load(1, XDATA, add(CFA_XSP16, literal(-13)))
        CFI (cfiCond188) V10 load(1, XDATA, add(CFA_XSP16, literal(-12)))
        CFI (cfiCond188) V11 load(1, XDATA, add(CFA_XSP16, literal(-11)))
        CFI (cfiCond188) V12 load(1, XDATA, add(CFA_XSP16, literal(-10)))
        CFI (cfiCond188) V13 load(1, XDATA, add(CFA_XSP16, literal(-9)))
        CFI (cfiCond188) V14 load(1, XDATA, add(CFA_XSP16, literal(-8)))
        CFI (cfiCond188) V15 load(1, XDATA, add(CFA_XSP16, literal(-7)))
        CFI (cfiCond188) R7 load(1, XDATA, add(CFA_XSP16, literal(-6)))
        CFI (cfiCond188) ?RET_LOW load(1, XDATA, add(CFA_XSP16, literal(-5)))
        CFI (cfiCond188) ?RET_HIGH load(1, XDATA, add(CFA_XSP16, literal(-4)))
        CFI (cfiCond188) ?BRET_EXT load(1, XDATA, add(CFA_XSP16, literal(-3)))
        CFI (cfiCond188) DPL0 load(1, XDATA, add(CFA_XSP16, literal(-2)))
        CFI (cfiCond188) DPH0 load(1, XDATA, add(CFA_XSP16, literal(-1)))
        CFI (cfiCond188) CFA_SP SP+0
        CFI (cfiCond188) CFA_XSP16 add(XSP16, 25)
        CFI Block cfiPicker189 Using cfiCommon1
        CFI (cfiPicker189) NoFunction
        CFI (cfiPicker189) Picker
        LCALL   ?Subroutine38 & 0xFFFF
??CrossCallReturnLabel_100:
        MOV     DPL,?V0 + 12
        MOV     DPH,?V0 + 13
        MOV     R0,#?V0 + 4
        RET
        CFI EndBlock cfiCond186
        CFI EndBlock cfiCond187
        CFI EndBlock cfiCond188
        CFI EndBlock cfiPicker189

        RSEG BANKED_CODE:CODE:NOROOT(0)
?Subroutine12:
        CFI Block cfiCond190 Using cfiCommon0
        CFI NoFunction
        CFI Conditional ??CrossCallReturnLabel_6
        CFI R6 load(1, XDATA, add(CFA_XSP16, literal(-24)))
        CFI VB load(1, XDATA, add(CFA_XSP16, literal(-23)))
        CFI V0 load(1, XDATA, add(CFA_XSP16, literal(-22)))
        CFI V1 load(1, XDATA, add(CFA_XSP16, literal(-21)))
        CFI V2 load(1, XDATA, add(CFA_XSP16, literal(-20)))
        CFI V3 load(1, XDATA, add(CFA_XSP16, literal(-19)))
        CFI V4 load(1, XDATA, add(CFA_XSP16, literal(-18)))
        CFI V5 load(1, XDATA, add(CFA_XSP16, literal(-17)))
        CFI V6 load(1, XDATA, add(CFA_XSP16, literal(-16)))
        CFI V7 load(1, XDATA, add(CFA_XSP16, literal(-15)))
        CFI V8 load(1, XDATA, add(CFA_XSP16, literal(-14)))
        CFI V9 load(1, XDATA, add(CFA_XSP16, literal(-13)))
        CFI V10 load(1, XDATA, add(CFA_XSP16, literal(-12)))
        CFI V11 load(1, XDATA, add(CFA_XSP16, literal(-11)))
        CFI V12 load(1, XDATA, add(CFA_XSP16, literal(-10)))
        CFI V13 load(1, XDATA, add(CFA_XSP16, literal(-9)))
        CFI V14 load(1, XDATA, add(CFA_XSP16, literal(-8)))
        CFI V15 load(1, XDATA, add(CFA_XSP16, literal(-7)))
        CFI R7 load(1, XDATA, add(CFA_XSP16, literal(-6)))
        CFI ?RET_LOW load(1, XDATA, add(CFA_XSP16, literal(-5)))
        CFI ?RET_HIGH load(1, XDATA, add(CFA_XSP16, literal(-4)))
        CFI ?BRET_EXT load(1, XDATA, add(CFA_XSP16, literal(-3)))
        CFI DPL0 load(1, XDATA, add(CFA_XSP16, literal(-2)))
        CFI DPH0 load(1, XDATA, add(CFA_XSP16, literal(-1)))
        CFI CFA_SP SP+0
        CFI CFA_XSP16 add(XSP16, 25)
        CFI Block cfiCond191 Using cfiCommon0
        CFI (cfiCond191) NoFunction
        CFI (cfiCond191) Conditional ??CrossCallReturnLabel_7
        CFI (cfiCond191) R6 load(1, XDATA, add(CFA_XSP16, literal(-24)))
        CFI (cfiCond191) VB load(1, XDATA, add(CFA_XSP16, literal(-23)))
        CFI (cfiCond191) V0 load(1, XDATA, add(CFA_XSP16, literal(-22)))
        CFI (cfiCond191) V1 load(1, XDATA, add(CFA_XSP16, literal(-21)))
        CFI (cfiCond191) V2 load(1, XDATA, add(CFA_XSP16, literal(-20)))
        CFI (cfiCond191) V3 load(1, XDATA, add(CFA_XSP16, literal(-19)))
        CFI (cfiCond191) V4 load(1, XDATA, add(CFA_XSP16, literal(-18)))
        CFI (cfiCond191) V5 load(1, XDATA, add(CFA_XSP16, literal(-17)))
        CFI (cfiCond191) V6 load(1, XDATA, add(CFA_XSP16, literal(-16)))
        CFI (cfiCond191) V7 load(1, XDATA, add(CFA_XSP16, literal(-15)))
        CFI (cfiCond191) V8 load(1, XDATA, add(CFA_XSP16, literal(-14)))
        CFI (cfiCond191) V9 load(1, XDATA, add(CFA_XSP16, literal(-13)))
        CFI (cfiCond191) V10 load(1, XDATA, add(CFA_XSP16, literal(-12)))
        CFI (cfiCond191) V11 load(1, XDATA, add(CFA_XSP16, literal(-11)))
        CFI (cfiCond191) V12 load(1, XDATA, add(CFA_XSP16, literal(-10)))
        CFI (cfiCond191) V13 load(1, XDATA, add(CFA_XSP16, literal(-9)))
        CFI (cfiCond191) V14 load(1, XDATA, add(CFA_XSP16, literal(-8)))
        CFI (cfiCond191) V15 load(1, XDATA, add(CFA_XSP16, literal(-7)))
        CFI (cfiCond191) R7 load(1, XDATA, add(CFA_XSP16, literal(-6)))
        CFI (cfiCond191) ?RET_LOW load(1, XDATA, add(CFA_XSP16, literal(-5)))
        CFI (cfiCond191) ?RET_HIGH load(1, XDATA, add(CFA_XSP16, literal(-4)))
        CFI (cfiCond191) ?BRET_EXT load(1, XDATA, add(CFA_XSP16, literal(-3)))
        CFI (cfiCond191) DPL0 load(1, XDATA, add(CFA_XSP16, literal(-2)))
        CFI (cfiCond191) DPH0 load(1, XDATA, add(CFA_XSP16, literal(-1)))
        CFI (cfiCond191) CFA_SP SP+0
        CFI (cfiCond191) CFA_XSP16 add(XSP16, 25)
        CFI Block cfiPicker192 Using cfiCommon1
        CFI (cfiPicker192) NoFunction
        CFI (cfiPicker192) Picker
        MOV     A,?V0 + 8
        ADD     A,#0x22
        MOV     DPL,A
        MOV     A,?V0 + 9
        ADDC    A,#0x0
        MOV     DPH,A
        LCALL   ?Subroutine34 & 0xFFFF
??CrossCallReturnLabel_52:
        MOV     R0,#?V0 + 4
        RET
        CFI EndBlock cfiCond190
        CFI EndBlock cfiCond191
        CFI EndBlock cfiPicker192

        RSEG BANKED_CODE:CODE:NOROOT(0)
?Subroutine34:
        CFI Block cfiCond193 Using cfiCommon0
        CFI NoFunction
        CFI Conditional ??CrossCallReturnLabel_50
        CFI R6 load(1, XDATA, add(CFA_XSP16, literal(-22)))
        CFI VB load(1, XDATA, add(CFA_XSP16, literal(-21)))
        CFI V0 load(1, XDATA, add(CFA_XSP16, literal(-20)))
        CFI V1 load(1, XDATA, add(CFA_XSP16, literal(-19)))
        CFI V2 load(1, XDATA, add(CFA_XSP16, literal(-18)))
        CFI V3 load(1, XDATA, add(CFA_XSP16, literal(-17)))
        CFI V4 load(1, XDATA, add(CFA_XSP16, literal(-16)))
        CFI V5 load(1, XDATA, add(CFA_XSP16, literal(-15)))
        CFI V6 load(1, XDATA, add(CFA_XSP16, literal(-14)))
        CFI V7 load(1, XDATA, add(CFA_XSP16, literal(-13)))
        CFI V8 load(1, XDATA, add(CFA_XSP16, literal(-12)))
        CFI V9 load(1, XDATA, add(CFA_XSP16, literal(-11)))
        CFI V10 load(1, XDATA, add(CFA_XSP16, literal(-10)))
        CFI V11 load(1, XDATA, add(CFA_XSP16, literal(-9)))
        CFI V12 load(1, XDATA, add(CFA_XSP16, literal(-8)))
        CFI V13 load(1, XDATA, add(CFA_XSP16, literal(-7)))
        CFI R7 load(1, XDATA, add(CFA_XSP16, literal(-6)))
        CFI ?RET_LOW load(1, XDATA, add(CFA_XSP16, literal(-5)))
        CFI ?RET_HIGH load(1, XDATA, add(CFA_XSP16, literal(-4)))
        CFI ?BRET_EXT load(1, XDATA, add(CFA_XSP16, literal(-3)))
        CFI DPL0 load(1, XDATA, add(CFA_XSP16, literal(-2)))
        CFI DPH0 load(1, XDATA, add(CFA_XSP16, literal(-1)))
        CFI CFA_SP SP+0
        CFI CFA_XSP16 add(XSP16, 36)
        CFI Block cfiCond194 Using cfiCommon0
        CFI (cfiCond194) NoFunction
        CFI (cfiCond194) Conditional ??CrossCallReturnLabel_52, ??CrossCallReturnLabel_6
        CFI (cfiCond194) R6 load(1, XDATA, add(CFA_XSP16, literal(-24)))
        CFI (cfiCond194) VB load(1, XDATA, add(CFA_XSP16, literal(-23)))
        CFI (cfiCond194) V0 load(1, XDATA, add(CFA_XSP16, literal(-22)))
        CFI (cfiCond194) V1 load(1, XDATA, add(CFA_XSP16, literal(-21)))
        CFI (cfiCond194) V2 load(1, XDATA, add(CFA_XSP16, literal(-20)))
        CFI (cfiCond194) V3 load(1, XDATA, add(CFA_XSP16, literal(-19)))
        CFI (cfiCond194) V4 load(1, XDATA, add(CFA_XSP16, literal(-18)))
        CFI (cfiCond194) V5 load(1, XDATA, add(CFA_XSP16, literal(-17)))
        CFI (cfiCond194) V6 load(1, XDATA, add(CFA_XSP16, literal(-16)))
        CFI (cfiCond194) V7 load(1, XDATA, add(CFA_XSP16, literal(-15)))
        CFI (cfiCond194) V8 load(1, XDATA, add(CFA_XSP16, literal(-14)))
        CFI (cfiCond194) V9 load(1, XDATA, add(CFA_XSP16, literal(-13)))
        CFI (cfiCond194) V10 load(1, XDATA, add(CFA_XSP16, literal(-12)))
        CFI (cfiCond194) V11 load(1, XDATA, add(CFA_XSP16, literal(-11)))
        CFI (cfiCond194) V12 load(1, XDATA, add(CFA_XSP16, literal(-10)))
        CFI (cfiCond194) V13 load(1, XDATA, add(CFA_XSP16, literal(-9)))
        CFI (cfiCond194) V14 load(1, XDATA, add(CFA_XSP16, literal(-8)))
        CFI (cfiCond194) V15 load(1, XDATA, add(CFA_XSP16, literal(-7)))
        CFI (cfiCond194) R7 load(1, XDATA, add(CFA_XSP16, literal(-6)))
        CFI (cfiCond194) ?RET_LOW load(1, XDATA, add(CFA_XSP16, literal(-5)))
        CFI (cfiCond194) ?RET_HIGH load(1, XDATA, add(CFA_XSP16, literal(-4)))
        CFI (cfiCond194) ?BRET_EXT load(1, XDATA, add(CFA_XSP16, literal(-3)))
        CFI (cfiCond194) DPL0 load(1, XDATA, add(CFA_XSP16, literal(-2)))
        CFI (cfiCond194) DPH0 load(1, XDATA, add(CFA_XSP16, literal(-1)))
        CFI (cfiCond194) CFA_SP SP+0
        CFI (cfiCond194) CFA_XSP16 add(XSP16, 25)
        CFI Block cfiCond195 Using cfiCommon0
        CFI (cfiCond195) NoFunction
        CFI (cfiCond195) Conditional ??CrossCallReturnLabel_52, ??CrossCallReturnLabel_7
        CFI (cfiCond195) R6 load(1, XDATA, add(CFA_XSP16, literal(-24)))
        CFI (cfiCond195) VB load(1, XDATA, add(CFA_XSP16, literal(-23)))
        CFI (cfiCond195) V0 load(1, XDATA, add(CFA_XSP16, literal(-22)))
        CFI (cfiCond195) V1 load(1, XDATA, add(CFA_XSP16, literal(-21)))
        CFI (cfiCond195) V2 load(1, XDATA, add(CFA_XSP16, literal(-20)))
        CFI (cfiCond195) V3 load(1, XDATA, add(CFA_XSP16, literal(-19)))
        CFI (cfiCond195) V4 load(1, XDATA, add(CFA_XSP16, literal(-18)))
        CFI (cfiCond195) V5 load(1, XDATA, add(CFA_XSP16, literal(-17)))
        CFI (cfiCond195) V6 load(1, XDATA, add(CFA_XSP16, literal(-16)))
        CFI (cfiCond195) V7 load(1, XDATA, add(CFA_XSP16, literal(-15)))
        CFI (cfiCond195) V8 load(1, XDATA, add(CFA_XSP16, literal(-14)))
        CFI (cfiCond195) V9 load(1, XDATA, add(CFA_XSP16, literal(-13)))
        CFI (cfiCond195) V10 load(1, XDATA, add(CFA_XSP16, literal(-12)))
        CFI (cfiCond195) V11 load(1, XDATA, add(CFA_XSP16, literal(-11)))
        CFI (cfiCond195) V12 load(1, XDATA, add(CFA_XSP16, literal(-10)))
        CFI (cfiCond195) V13 load(1, XDATA, add(CFA_XSP16, literal(-9)))
        CFI (cfiCond195) V14 load(1, XDATA, add(CFA_XSP16, literal(-8)))
        CFI (cfiCond195) V15 load(1, XDATA, add(CFA_XSP16, literal(-7)))
        CFI (cfiCond195) R7 load(1, XDATA, add(CFA_XSP16, literal(-6)))
        CFI (cfiCond195) ?RET_LOW load(1, XDATA, add(CFA_XSP16, literal(-5)))
        CFI (cfiCond195) ?RET_HIGH load(1, XDATA, add(CFA_XSP16, literal(-4)))
        CFI (cfiCond195) ?BRET_EXT load(1, XDATA, add(CFA_XSP16, literal(-3)))
        CFI (cfiCond195) DPL0 load(1, XDATA, add(CFA_XSP16, literal(-2)))
        CFI (cfiCond195) DPH0 load(1, XDATA, add(CFA_XSP16, literal(-1)))
        CFI (cfiCond195) CFA_SP SP+0
        CFI (cfiCond195) CFA_XSP16 add(XSP16, 25)
        CFI Block cfiCond196 Using cfiCommon0
        CFI (cfiCond196) NoFunction
        CFI (cfiCond196) Conditional ??CrossCallReturnLabel_51
        CFI (cfiCond196) R6 load(1, XDATA, add(CFA_XSP16, literal(-14)))
        CFI (cfiCond196) VB load(1, XDATA, add(CFA_XSP16, literal(-13)))
        CFI (cfiCond196) V0 load(1, XDATA, add(CFA_XSP16, literal(-12)))
        CFI (cfiCond196) V1 load(1, XDATA, add(CFA_XSP16, literal(-11)))
        CFI (cfiCond196) V2 load(1, XDATA, add(CFA_XSP16, literal(-10)))
        CFI (cfiCond196) V3 load(1, XDATA, add(CFA_XSP16, literal(-9)))
        CFI (cfiCond196) V4 load(1, XDATA, add(CFA_XSP16, literal(-8)))
        CFI (cfiCond196) V5 load(1, XDATA, add(CFA_XSP16, literal(-7)))
        CFI (cfiCond196) R7 load(1, XDATA, add(CFA_XSP16, literal(-6)))
        CFI (cfiCond196) ?RET_LOW load(1, XDATA, add(CFA_XSP16, literal(-5)))
        CFI (cfiCond196) ?RET_HIGH load(1, XDATA, add(CFA_XSP16, literal(-4)))
        CFI (cfiCond196) ?BRET_EXT load(1, XDATA, add(CFA_XSP16, literal(-3)))
        CFI (cfiCond196) DPL0 load(1, XDATA, add(CFA_XSP16, literal(-2)))
        CFI (cfiCond196) DPH0 load(1, XDATA, add(CFA_XSP16, literal(-1)))
        CFI (cfiCond196) CFA_SP SP+0
        CFI (cfiCond196) CFA_XSP16 add(XSP16, 15)
        CFI Block cfiPicker197 Using cfiCommon1
        CFI (cfiPicker197) NoFunction
        CFI (cfiPicker197) Picker
        MOVX    A,@DPTR
        MOV     ?V0 + 4,A
        INC     DPTR
        MOVX    A,@DPTR
        MOV     ?V0 + 5,A
        RET
        CFI EndBlock cfiCond193
        CFI EndBlock cfiCond194
        CFI EndBlock cfiCond195
        CFI EndBlock cfiCond196
        CFI EndBlock cfiPicker197

        RSEG BANKED_CODE:CODE:NOROOT(0)
?Subroutine7:
        CFI Block cfiCond198 Using cfiCommon0
        CFI NoFunction
        CFI Conditional ??CrossCallReturnLabel_103
        CFI R6 load(1, XDATA, add(CFA_XSP16, literal(-24)))
        CFI VB load(1, XDATA, add(CFA_XSP16, literal(-23)))
        CFI V0 load(1, XDATA, add(CFA_XSP16, literal(-22)))
        CFI V1 load(1, XDATA, add(CFA_XSP16, literal(-21)))
        CFI V2 load(1, XDATA, add(CFA_XSP16, literal(-20)))
        CFI V3 load(1, XDATA, add(CFA_XSP16, literal(-19)))
        CFI V4 load(1, XDATA, add(CFA_XSP16, literal(-18)))
        CFI V5 load(1, XDATA, add(CFA_XSP16, literal(-17)))
        CFI V6 load(1, XDATA, add(CFA_XSP16, literal(-16)))
        CFI V7 load(1, XDATA, add(CFA_XSP16, literal(-15)))
        CFI V8 load(1, XDATA, add(CFA_XSP16, literal(-14)))
        CFI V9 load(1, XDATA, add(CFA_XSP16, literal(-13)))
        CFI V10 load(1, XDATA, add(CFA_XSP16, literal(-12)))
        CFI V11 load(1, XDATA, add(CFA_XSP16, literal(-11)))
        CFI V12 load(1, XDATA, add(CFA_XSP16, literal(-10)))
        CFI V13 load(1, XDATA, add(CFA_XSP16, literal(-9)))
        CFI V14 load(1, XDATA, add(CFA_XSP16, literal(-8)))
        CFI V15 load(1, XDATA, add(CFA_XSP16, literal(-7)))
        CFI R7 load(1, XDATA, add(CFA_XSP16, literal(-6)))
        CFI ?RET_LOW load(1, XDATA, add(CFA_XSP16, literal(-5)))
        CFI ?RET_HIGH load(1, XDATA, add(CFA_XSP16, literal(-4)))
        CFI ?BRET_EXT load(1, XDATA, add(CFA_XSP16, literal(-3)))
        CFI DPL0 load(1, XDATA, add(CFA_XSP16, literal(-2)))
        CFI DPH0 load(1, XDATA, add(CFA_XSP16, literal(-1)))
        CFI CFA_SP SP+0
        CFI CFA_XSP16 add(XSP16, 25)
        CFI Block cfiCond199 Using cfiCommon0
        CFI (cfiCond199) NoFunction
        CFI (cfiCond199) Conditional ??CrossCallReturnLabel_104
        CFI (cfiCond199) R6 load(1, XDATA, add(CFA_XSP16, literal(-24)))
        CFI (cfiCond199) VB load(1, XDATA, add(CFA_XSP16, literal(-23)))
        CFI (cfiCond199) V0 load(1, XDATA, add(CFA_XSP16, literal(-22)))
        CFI (cfiCond199) V1 load(1, XDATA, add(CFA_XSP16, literal(-21)))
        CFI (cfiCond199) V2 load(1, XDATA, add(CFA_XSP16, literal(-20)))
        CFI (cfiCond199) V3 load(1, XDATA, add(CFA_XSP16, literal(-19)))
        CFI (cfiCond199) V4 load(1, XDATA, add(CFA_XSP16, literal(-18)))
        CFI (cfiCond199) V5 load(1, XDATA, add(CFA_XSP16, literal(-17)))
        CFI (cfiCond199) V6 load(1, XDATA, add(CFA_XSP16, literal(-16)))
        CFI (cfiCond199) V7 load(1, XDATA, add(CFA_XSP16, literal(-15)))
        CFI (cfiCond199) V8 load(1, XDATA, add(CFA_XSP16, literal(-14)))
        CFI (cfiCond199) V9 load(1, XDATA, add(CFA_XSP16, literal(-13)))
        CFI (cfiCond199) V10 load(1, XDATA, add(CFA_XSP16, literal(-12)))
        CFI (cfiCond199) V11 load(1, XDATA, add(CFA_XSP16, literal(-11)))
        CFI (cfiCond199) V12 load(1, XDATA, add(CFA_XSP16, literal(-10)))
        CFI (cfiCond199) V13 load(1, XDATA, add(CFA_XSP16, literal(-9)))
        CFI (cfiCond199) V14 load(1, XDATA, add(CFA_XSP16, literal(-8)))
        CFI (cfiCond199) V15 load(1, XDATA, add(CFA_XSP16, literal(-7)))
        CFI (cfiCond199) R7 load(1, XDATA, add(CFA_XSP16, literal(-6)))
        CFI (cfiCond199) ?RET_LOW load(1, XDATA, add(CFA_XSP16, literal(-5)))
        CFI (cfiCond199) ?RET_HIGH load(1, XDATA, add(CFA_XSP16, literal(-4)))
        CFI (cfiCond199) ?BRET_EXT load(1, XDATA, add(CFA_XSP16, literal(-3)))
        CFI (cfiCond199) DPL0 load(1, XDATA, add(CFA_XSP16, literal(-2)))
        CFI (cfiCond199) DPH0 load(1, XDATA, add(CFA_XSP16, literal(-1)))
        CFI (cfiCond199) CFA_SP SP+0
        CFI (cfiCond199) CFA_XSP16 add(XSP16, 25)
        CFI Block cfiPicker200 Using cfiCommon1
        CFI (cfiPicker200) NoFunction
        CFI (cfiPicker200) Picker
        MOV     DPL,A
        MOV     A,?V0 + 9
        ADDC    A,#0x0
        MOV     DPH,A
        CFI EndBlock cfiCond198
        CFI EndBlock cfiCond199
        CFI EndBlock cfiPicker200
        REQUIRE ??Subroutine54_0
        ; // Fall through to label ??Subroutine54_0

        RSEG BANKED_CODE:CODE:NOROOT(0)
??Subroutine54_0:
        CFI Block cfiCond201 Using cfiCommon0
        CFI NoFunction
        CFI Conditional ??CrossCallReturnLabel_101
        CFI R6 load(1, XDATA, add(CFA_XSP16, literal(-24)))
        CFI VB load(1, XDATA, add(CFA_XSP16, literal(-23)))
        CFI V0 load(1, XDATA, add(CFA_XSP16, literal(-22)))
        CFI V1 load(1, XDATA, add(CFA_XSP16, literal(-21)))
        CFI V2 load(1, XDATA, add(CFA_XSP16, literal(-20)))
        CFI V3 load(1, XDATA, add(CFA_XSP16, literal(-19)))
        CFI V4 load(1, XDATA, add(CFA_XSP16, literal(-18)))
        CFI V5 load(1, XDATA, add(CFA_XSP16, literal(-17)))
        CFI V6 load(1, XDATA, add(CFA_XSP16, literal(-16)))
        CFI V7 load(1, XDATA, add(CFA_XSP16, literal(-15)))
        CFI V8 load(1, XDATA, add(CFA_XSP16, literal(-14)))
        CFI V9 load(1, XDATA, add(CFA_XSP16, literal(-13)))
        CFI V10 load(1, XDATA, add(CFA_XSP16, literal(-12)))
        CFI V11 load(1, XDATA, add(CFA_XSP16, literal(-11)))
        CFI V12 load(1, XDATA, add(CFA_XSP16, literal(-10)))
        CFI V13 load(1, XDATA, add(CFA_XSP16, literal(-9)))
        CFI V14 load(1, XDATA, add(CFA_XSP16, literal(-8)))
        CFI V15 load(1, XDATA, add(CFA_XSP16, literal(-7)))
        CFI R7 load(1, XDATA, add(CFA_XSP16, literal(-6)))
        CFI ?RET_LOW load(1, XDATA, add(CFA_XSP16, literal(-5)))
        CFI ?RET_HIGH load(1, XDATA, add(CFA_XSP16, literal(-4)))
        CFI ?BRET_EXT load(1, XDATA, add(CFA_XSP16, literal(-3)))
        CFI DPL0 load(1, XDATA, add(CFA_XSP16, literal(-2)))
        CFI DPH0 load(1, XDATA, add(CFA_XSP16, literal(-1)))
        CFI CFA_SP SP+0
        CFI CFA_XSP16 add(XSP16, 25)
        CFI Block cfiCond202 Using cfiCommon0
        CFI (cfiCond202) NoFunction
        CFI (cfiCond202) Conditional ??CrossCallReturnLabel_102
        CFI (cfiCond202) R6 load(1, XDATA, add(CFA_XSP16, literal(-24)))
        CFI (cfiCond202) VB load(1, XDATA, add(CFA_XSP16, literal(-23)))
        CFI (cfiCond202) V0 load(1, XDATA, add(CFA_XSP16, literal(-22)))
        CFI (cfiCond202) V1 load(1, XDATA, add(CFA_XSP16, literal(-21)))
        CFI (cfiCond202) V2 load(1, XDATA, add(CFA_XSP16, literal(-20)))
        CFI (cfiCond202) V3 load(1, XDATA, add(CFA_XSP16, literal(-19)))
        CFI (cfiCond202) V4 load(1, XDATA, add(CFA_XSP16, literal(-18)))
        CFI (cfiCond202) V5 load(1, XDATA, add(CFA_XSP16, literal(-17)))
        CFI (cfiCond202) V6 load(1, XDATA, add(CFA_XSP16, literal(-16)))
        CFI (cfiCond202) V7 load(1, XDATA, add(CFA_XSP16, literal(-15)))
        CFI (cfiCond202) V8 load(1, XDATA, add(CFA_XSP16, literal(-14)))
        CFI (cfiCond202) V9 load(1, XDATA, add(CFA_XSP16, literal(-13)))
        CFI (cfiCond202) V10 load(1, XDATA, add(CFA_XSP16, literal(-12)))
        CFI (cfiCond202) V11 load(1, XDATA, add(CFA_XSP16, literal(-11)))
        CFI (cfiCond202) V12 load(1, XDATA, add(CFA_XSP16, literal(-10)))
        CFI (cfiCond202) V13 load(1, XDATA, add(CFA_XSP16, literal(-9)))
        CFI (cfiCond202) V14 load(1, XDATA, add(CFA_XSP16, literal(-8)))
        CFI (cfiCond202) V15 load(1, XDATA, add(CFA_XSP16, literal(-7)))
        CFI (cfiCond202) R7 load(1, XDATA, add(CFA_XSP16, literal(-6)))
        CFI (cfiCond202) ?RET_LOW load(1, XDATA, add(CFA_XSP16, literal(-5)))
        CFI (cfiCond202) ?RET_HIGH load(1, XDATA, add(CFA_XSP16, literal(-4)))
        CFI (cfiCond202) ?BRET_EXT load(1, XDATA, add(CFA_XSP16, literal(-3)))
        CFI (cfiCond202) DPL0 load(1, XDATA, add(CFA_XSP16, literal(-2)))
        CFI (cfiCond202) DPH0 load(1, XDATA, add(CFA_XSP16, literal(-1)))
        CFI (cfiCond202) CFA_SP SP+0
        CFI (cfiCond202) CFA_XSP16 add(XSP16, 25)
        CFI Block cfiCond203 Using cfiCommon0
        CFI (cfiCond203) NoFunction
        CFI (cfiCond203) Conditional ??CrossCallReturnLabel_103
        CFI (cfiCond203) R6 load(1, XDATA, add(CFA_XSP16, literal(-24)))
        CFI (cfiCond203) VB load(1, XDATA, add(CFA_XSP16, literal(-23)))
        CFI (cfiCond203) V0 load(1, XDATA, add(CFA_XSP16, literal(-22)))
        CFI (cfiCond203) V1 load(1, XDATA, add(CFA_XSP16, literal(-21)))
        CFI (cfiCond203) V2 load(1, XDATA, add(CFA_XSP16, literal(-20)))
        CFI (cfiCond203) V3 load(1, XDATA, add(CFA_XSP16, literal(-19)))
        CFI (cfiCond203) V4 load(1, XDATA, add(CFA_XSP16, literal(-18)))
        CFI (cfiCond203) V5 load(1, XDATA, add(CFA_XSP16, literal(-17)))
        CFI (cfiCond203) V6 load(1, XDATA, add(CFA_XSP16, literal(-16)))
        CFI (cfiCond203) V7 load(1, XDATA, add(CFA_XSP16, literal(-15)))
        CFI (cfiCond203) V8 load(1, XDATA, add(CFA_XSP16, literal(-14)))
        CFI (cfiCond203) V9 load(1, XDATA, add(CFA_XSP16, literal(-13)))
        CFI (cfiCond203) V10 load(1, XDATA, add(CFA_XSP16, literal(-12)))
        CFI (cfiCond203) V11 load(1, XDATA, add(CFA_XSP16, literal(-11)))
        CFI (cfiCond203) V12 load(1, XDATA, add(CFA_XSP16, literal(-10)))
        CFI (cfiCond203) V13 load(1, XDATA, add(CFA_XSP16, literal(-9)))
        CFI (cfiCond203) V14 load(1, XDATA, add(CFA_XSP16, literal(-8)))
        CFI (cfiCond203) V15 load(1, XDATA, add(CFA_XSP16, literal(-7)))
        CFI (cfiCond203) R7 load(1, XDATA, add(CFA_XSP16, literal(-6)))
        CFI (cfiCond203) ?RET_LOW load(1, XDATA, add(CFA_XSP16, literal(-5)))
        CFI (cfiCond203) ?RET_HIGH load(1, XDATA, add(CFA_XSP16, literal(-4)))
        CFI (cfiCond203) ?BRET_EXT load(1, XDATA, add(CFA_XSP16, literal(-3)))
        CFI (cfiCond203) DPL0 load(1, XDATA, add(CFA_XSP16, literal(-2)))
        CFI (cfiCond203) DPH0 load(1, XDATA, add(CFA_XSP16, literal(-1)))
        CFI (cfiCond203) CFA_SP SP+0
        CFI (cfiCond203) CFA_XSP16 add(XSP16, 25)
        CFI Block cfiCond204 Using cfiCommon0
        CFI (cfiCond204) NoFunction
        CFI (cfiCond204) Conditional ??CrossCallReturnLabel_104
        CFI (cfiCond204) R6 load(1, XDATA, add(CFA_XSP16, literal(-24)))
        CFI (cfiCond204) VB load(1, XDATA, add(CFA_XSP16, literal(-23)))
        CFI (cfiCond204) V0 load(1, XDATA, add(CFA_XSP16, literal(-22)))
        CFI (cfiCond204) V1 load(1, XDATA, add(CFA_XSP16, literal(-21)))
        CFI (cfiCond204) V2 load(1, XDATA, add(CFA_XSP16, literal(-20)))
        CFI (cfiCond204) V3 load(1, XDATA, add(CFA_XSP16, literal(-19)))
        CFI (cfiCond204) V4 load(1, XDATA, add(CFA_XSP16, literal(-18)))
        CFI (cfiCond204) V5 load(1, XDATA, add(CFA_XSP16, literal(-17)))
        CFI (cfiCond204) V6 load(1, XDATA, add(CFA_XSP16, literal(-16)))
        CFI (cfiCond204) V7 load(1, XDATA, add(CFA_XSP16, literal(-15)))
        CFI (cfiCond204) V8 load(1, XDATA, add(CFA_XSP16, literal(-14)))
        CFI (cfiCond204) V9 load(1, XDATA, add(CFA_XSP16, literal(-13)))
        CFI (cfiCond204) V10 load(1, XDATA, add(CFA_XSP16, literal(-12)))
        CFI (cfiCond204) V11 load(1, XDATA, add(CFA_XSP16, literal(-11)))
        CFI (cfiCond204) V12 load(1, XDATA, add(CFA_XSP16, literal(-10)))
        CFI (cfiCond204) V13 load(1, XDATA, add(CFA_XSP16, literal(-9)))
        CFI (cfiCond204) V14 load(1, XDATA, add(CFA_XSP16, literal(-8)))
        CFI (cfiCond204) V15 load(1, XDATA, add(CFA_XSP16, literal(-7)))
        CFI (cfiCond204) R7 load(1, XDATA, add(CFA_XSP16, literal(-6)))
        CFI (cfiCond204) ?RET_LOW load(1, XDATA, add(CFA_XSP16, literal(-5)))
        CFI (cfiCond204) ?RET_HIGH load(1, XDATA, add(CFA_XSP16, literal(-4)))
        CFI (cfiCond204) ?BRET_EXT load(1, XDATA, add(CFA_XSP16, literal(-3)))
        CFI (cfiCond204) DPL0 load(1, XDATA, add(CFA_XSP16, literal(-2)))
        CFI (cfiCond204) DPH0 load(1, XDATA, add(CFA_XSP16, literal(-1)))
        CFI (cfiCond204) CFA_SP SP+0
        CFI (cfiCond204) CFA_XSP16 add(XSP16, 25)
        CFI Block cfiPicker205 Using cfiCommon1
        CFI (cfiPicker205) NoFunction
        CFI (cfiPicker205) Picker
        LCALL   ?Subroutine42 & 0xFFFF
??CrossCallReturnLabel_112:
        RET
        CFI EndBlock cfiCond201
        CFI EndBlock cfiCond202
        CFI EndBlock cfiCond203
        CFI EndBlock cfiCond204
        CFI EndBlock cfiPicker205

        RSEG BANKED_CODE:CODE:NOROOT(0)
?Subroutine42:
        CFI Block cfiCond206 Using cfiCommon0
        CFI NoFunction
        CFI Conditional ??CrossCallReturnLabel_112, ??CrossCallReturnLabel_103
        CFI R6 load(1, XDATA, add(CFA_XSP16, literal(-24)))
        CFI VB load(1, XDATA, add(CFA_XSP16, literal(-23)))
        CFI V0 load(1, XDATA, add(CFA_XSP16, literal(-22)))
        CFI V1 load(1, XDATA, add(CFA_XSP16, literal(-21)))
        CFI V2 load(1, XDATA, add(CFA_XSP16, literal(-20)))
        CFI V3 load(1, XDATA, add(CFA_XSP16, literal(-19)))
        CFI V4 load(1, XDATA, add(CFA_XSP16, literal(-18)))
        CFI V5 load(1, XDATA, add(CFA_XSP16, literal(-17)))
        CFI V6 load(1, XDATA, add(CFA_XSP16, literal(-16)))
        CFI V7 load(1, XDATA, add(CFA_XSP16, literal(-15)))
        CFI V8 load(1, XDATA, add(CFA_XSP16, literal(-14)))
        CFI V9 load(1, XDATA, add(CFA_XSP16, literal(-13)))
        CFI V10 load(1, XDATA, add(CFA_XSP16, literal(-12)))
        CFI V11 load(1, XDATA, add(CFA_XSP16, literal(-11)))
        CFI V12 load(1, XDATA, add(CFA_XSP16, literal(-10)))
        CFI V13 load(1, XDATA, add(CFA_XSP16, literal(-9)))
        CFI V14 load(1, XDATA, add(CFA_XSP16, literal(-8)))
        CFI V15 load(1, XDATA, add(CFA_XSP16, literal(-7)))
        CFI R7 load(1, XDATA, add(CFA_XSP16, literal(-6)))
        CFI ?RET_LOW load(1, XDATA, add(CFA_XSP16, literal(-5)))
        CFI ?RET_HIGH load(1, XDATA, add(CFA_XSP16, literal(-4)))
        CFI ?BRET_EXT load(1, XDATA, add(CFA_XSP16, literal(-3)))
        CFI DPL0 load(1, XDATA, add(CFA_XSP16, literal(-2)))
        CFI DPH0 load(1, XDATA, add(CFA_XSP16, literal(-1)))
        CFI CFA_SP SP+0
        CFI CFA_XSP16 add(XSP16, 25)
        CFI Block cfiCond207 Using cfiCommon0
        CFI (cfiCond207) NoFunction
        CFI (cfiCond207) Conditional ??CrossCallReturnLabel_112, ??CrossCallReturnLabel_104
        CFI (cfiCond207) R6 load(1, XDATA, add(CFA_XSP16, literal(-24)))
        CFI (cfiCond207) VB load(1, XDATA, add(CFA_XSP16, literal(-23)))
        CFI (cfiCond207) V0 load(1, XDATA, add(CFA_XSP16, literal(-22)))
        CFI (cfiCond207) V1 load(1, XDATA, add(CFA_XSP16, literal(-21)))
        CFI (cfiCond207) V2 load(1, XDATA, add(CFA_XSP16, literal(-20)))
        CFI (cfiCond207) V3 load(1, XDATA, add(CFA_XSP16, literal(-19)))
        CFI (cfiCond207) V4 load(1, XDATA, add(CFA_XSP16, literal(-18)))
        CFI (cfiCond207) V5 load(1, XDATA, add(CFA_XSP16, literal(-17)))
        CFI (cfiCond207) V6 load(1, XDATA, add(CFA_XSP16, literal(-16)))
        CFI (cfiCond207) V7 load(1, XDATA, add(CFA_XSP16, literal(-15)))
        CFI (cfiCond207) V8 load(1, XDATA, add(CFA_XSP16, literal(-14)))
        CFI (cfiCond207) V9 load(1, XDATA, add(CFA_XSP16, literal(-13)))
        CFI (cfiCond207) V10 load(1, XDATA, add(CFA_XSP16, literal(-12)))
        CFI (cfiCond207) V11 load(1, XDATA, add(CFA_XSP16, literal(-11)))
        CFI (cfiCond207) V12 load(1, XDATA, add(CFA_XSP16, literal(-10)))
        CFI (cfiCond207) V13 load(1, XDATA, add(CFA_XSP16, literal(-9)))
        CFI (cfiCond207) V14 load(1, XDATA, add(CFA_XSP16, literal(-8)))
        CFI (cfiCond207) V15 load(1, XDATA, add(CFA_XSP16, literal(-7)))
        CFI (cfiCond207) R7 load(1, XDATA, add(CFA_XSP16, literal(-6)))
        CFI (cfiCond207) ?RET_LOW load(1, XDATA, add(CFA_XSP16, literal(-5)))
        CFI (cfiCond207) ?RET_HIGH load(1, XDATA, add(CFA_XSP16, literal(-4)))
        CFI (cfiCond207) ?BRET_EXT load(1, XDATA, add(CFA_XSP16, literal(-3)))
        CFI (cfiCond207) DPL0 load(1, XDATA, add(CFA_XSP16, literal(-2)))
        CFI (cfiCond207) DPH0 load(1, XDATA, add(CFA_XSP16, literal(-1)))
        CFI (cfiCond207) CFA_SP SP+0
        CFI (cfiCond207) CFA_XSP16 add(XSP16, 25)
        CFI Block cfiCond208 Using cfiCommon0
        CFI (cfiCond208) NoFunction
        CFI (cfiCond208) Conditional ??CrossCallReturnLabel_112, ??CrossCallReturnLabel_101
        CFI (cfiCond208) R6 load(1, XDATA, add(CFA_XSP16, literal(-24)))
        CFI (cfiCond208) VB load(1, XDATA, add(CFA_XSP16, literal(-23)))
        CFI (cfiCond208) V0 load(1, XDATA, add(CFA_XSP16, literal(-22)))
        CFI (cfiCond208) V1 load(1, XDATA, add(CFA_XSP16, literal(-21)))
        CFI (cfiCond208) V2 load(1, XDATA, add(CFA_XSP16, literal(-20)))
        CFI (cfiCond208) V3 load(1, XDATA, add(CFA_XSP16, literal(-19)))
        CFI (cfiCond208) V4 load(1, XDATA, add(CFA_XSP16, literal(-18)))
        CFI (cfiCond208) V5 load(1, XDATA, add(CFA_XSP16, literal(-17)))
        CFI (cfiCond208) V6 load(1, XDATA, add(CFA_XSP16, literal(-16)))
        CFI (cfiCond208) V7 load(1, XDATA, add(CFA_XSP16, literal(-15)))
        CFI (cfiCond208) V8 load(1, XDATA, add(CFA_XSP16, literal(-14)))
        CFI (cfiCond208) V9 load(1, XDATA, add(CFA_XSP16, literal(-13)))
        CFI (cfiCond208) V10 load(1, XDATA, add(CFA_XSP16, literal(-12)))
        CFI (cfiCond208) V11 load(1, XDATA, add(CFA_XSP16, literal(-11)))
        CFI (cfiCond208) V12 load(1, XDATA, add(CFA_XSP16, literal(-10)))
        CFI (cfiCond208) V13 load(1, XDATA, add(CFA_XSP16, literal(-9)))
        CFI (cfiCond208) V14 load(1, XDATA, add(CFA_XSP16, literal(-8)))
        CFI (cfiCond208) V15 load(1, XDATA, add(CFA_XSP16, literal(-7)))
        CFI (cfiCond208) R7 load(1, XDATA, add(CFA_XSP16, literal(-6)))
        CFI (cfiCond208) ?RET_LOW load(1, XDATA, add(CFA_XSP16, literal(-5)))
        CFI (cfiCond208) ?RET_HIGH load(1, XDATA, add(CFA_XSP16, literal(-4)))
        CFI (cfiCond208) ?BRET_EXT load(1, XDATA, add(CFA_XSP16, literal(-3)))
        CFI (cfiCond208) DPL0 load(1, XDATA, add(CFA_XSP16, literal(-2)))
        CFI (cfiCond208) DPH0 load(1, XDATA, add(CFA_XSP16, literal(-1)))
        CFI (cfiCond208) CFA_SP SP+0
        CFI (cfiCond208) CFA_XSP16 add(XSP16, 25)
        CFI Block cfiCond209 Using cfiCommon0
        CFI (cfiCond209) NoFunction
        CFI (cfiCond209) Conditional ??CrossCallReturnLabel_112, ??CrossCallReturnLabel_102
        CFI (cfiCond209) R6 load(1, XDATA, add(CFA_XSP16, literal(-24)))
        CFI (cfiCond209) VB load(1, XDATA, add(CFA_XSP16, literal(-23)))
        CFI (cfiCond209) V0 load(1, XDATA, add(CFA_XSP16, literal(-22)))
        CFI (cfiCond209) V1 load(1, XDATA, add(CFA_XSP16, literal(-21)))
        CFI (cfiCond209) V2 load(1, XDATA, add(CFA_XSP16, literal(-20)))
        CFI (cfiCond209) V3 load(1, XDATA, add(CFA_XSP16, literal(-19)))
        CFI (cfiCond209) V4 load(1, XDATA, add(CFA_XSP16, literal(-18)))
        CFI (cfiCond209) V5 load(1, XDATA, add(CFA_XSP16, literal(-17)))
        CFI (cfiCond209) V6 load(1, XDATA, add(CFA_XSP16, literal(-16)))
        CFI (cfiCond209) V7 load(1, XDATA, add(CFA_XSP16, literal(-15)))
        CFI (cfiCond209) V8 load(1, XDATA, add(CFA_XSP16, literal(-14)))
        CFI (cfiCond209) V9 load(1, XDATA, add(CFA_XSP16, literal(-13)))
        CFI (cfiCond209) V10 load(1, XDATA, add(CFA_XSP16, literal(-12)))
        CFI (cfiCond209) V11 load(1, XDATA, add(CFA_XSP16, literal(-11)))
        CFI (cfiCond209) V12 load(1, XDATA, add(CFA_XSP16, literal(-10)))
        CFI (cfiCond209) V13 load(1, XDATA, add(CFA_XSP16, literal(-9)))
        CFI (cfiCond209) V14 load(1, XDATA, add(CFA_XSP16, literal(-8)))
        CFI (cfiCond209) V15 load(1, XDATA, add(CFA_XSP16, literal(-7)))
        CFI (cfiCond209) R7 load(1, XDATA, add(CFA_XSP16, literal(-6)))
        CFI (cfiCond209) ?RET_LOW load(1, XDATA, add(CFA_XSP16, literal(-5)))
        CFI (cfiCond209) ?RET_HIGH load(1, XDATA, add(CFA_XSP16, literal(-4)))
        CFI (cfiCond209) ?BRET_EXT load(1, XDATA, add(CFA_XSP16, literal(-3)))
        CFI (cfiCond209) DPL0 load(1, XDATA, add(CFA_XSP16, literal(-2)))
        CFI (cfiCond209) DPH0 load(1, XDATA, add(CFA_XSP16, literal(-1)))
        CFI (cfiCond209) CFA_SP SP+0
        CFI (cfiCond209) CFA_XSP16 add(XSP16, 25)
        CFI Block cfiCond210 Using cfiCommon0
        CFI (cfiCond210) NoFunction
        CFI (cfiCond210) Conditional ??CrossCallReturnLabel_113, ??CrossCallReturnLabel_110, ??CrossCallReturnLabel_0
        CFI (cfiCond210) R6 load(1, XDATA, add(CFA_XSP16, literal(-24)))
        CFI (cfiCond210) VB load(1, XDATA, add(CFA_XSP16, literal(-23)))
        CFI (cfiCond210) V0 load(1, XDATA, add(CFA_XSP16, literal(-22)))
        CFI (cfiCond210) V1 load(1, XDATA, add(CFA_XSP16, literal(-21)))
        CFI (cfiCond210) V2 load(1, XDATA, add(CFA_XSP16, literal(-20)))
        CFI (cfiCond210) V3 load(1, XDATA, add(CFA_XSP16, literal(-19)))
        CFI (cfiCond210) V4 load(1, XDATA, add(CFA_XSP16, literal(-18)))
        CFI (cfiCond210) V5 load(1, XDATA, add(CFA_XSP16, literal(-17)))
        CFI (cfiCond210) V6 load(1, XDATA, add(CFA_XSP16, literal(-16)))
        CFI (cfiCond210) V7 load(1, XDATA, add(CFA_XSP16, literal(-15)))
        CFI (cfiCond210) V8 load(1, XDATA, add(CFA_XSP16, literal(-14)))
        CFI (cfiCond210) V9 load(1, XDATA, add(CFA_XSP16, literal(-13)))
        CFI (cfiCond210) V10 load(1, XDATA, add(CFA_XSP16, literal(-12)))
        CFI (cfiCond210) V11 load(1, XDATA, add(CFA_XSP16, literal(-11)))
        CFI (cfiCond210) V12 load(1, XDATA, add(CFA_XSP16, literal(-10)))
        CFI (cfiCond210) V13 load(1, XDATA, add(CFA_XSP16, literal(-9)))
        CFI (cfiCond210) V14 load(1, XDATA, add(CFA_XSP16, literal(-8)))
        CFI (cfiCond210) V15 load(1, XDATA, add(CFA_XSP16, literal(-7)))
        CFI (cfiCond210) R7 load(1, XDATA, add(CFA_XSP16, literal(-6)))
        CFI (cfiCond210) ?RET_LOW load(1, XDATA, add(CFA_XSP16, literal(-5)))
        CFI (cfiCond210) ?RET_HIGH load(1, XDATA, add(CFA_XSP16, literal(-4)))
        CFI (cfiCond210) ?BRET_EXT load(1, XDATA, add(CFA_XSP16, literal(-3)))
        CFI (cfiCond210) DPL0 load(1, XDATA, add(CFA_XSP16, literal(-2)))
        CFI (cfiCond210) DPH0 load(1, XDATA, add(CFA_XSP16, literal(-1)))
        CFI (cfiCond210) CFA_SP SP+0
        CFI (cfiCond210) CFA_XSP16 add(XSP16, 25)
        CFI Block cfiCond211 Using cfiCommon0
        CFI (cfiCond211) NoFunction
        CFI (cfiCond211) Conditional ??CrossCallReturnLabel_113, ??CrossCallReturnLabel_110, ??CrossCallReturnLabel_1
        CFI (cfiCond211) R6 load(1, XDATA, add(CFA_XSP16, literal(-24)))
        CFI (cfiCond211) VB load(1, XDATA, add(CFA_XSP16, literal(-23)))
        CFI (cfiCond211) V0 load(1, XDATA, add(CFA_XSP16, literal(-22)))
        CFI (cfiCond211) V1 load(1, XDATA, add(CFA_XSP16, literal(-21)))
        CFI (cfiCond211) V2 load(1, XDATA, add(CFA_XSP16, literal(-20)))
        CFI (cfiCond211) V3 load(1, XDATA, add(CFA_XSP16, literal(-19)))
        CFI (cfiCond211) V4 load(1, XDATA, add(CFA_XSP16, literal(-18)))
        CFI (cfiCond211) V5 load(1, XDATA, add(CFA_XSP16, literal(-17)))
        CFI (cfiCond211) V6 load(1, XDATA, add(CFA_XSP16, literal(-16)))
        CFI (cfiCond211) V7 load(1, XDATA, add(CFA_XSP16, literal(-15)))
        CFI (cfiCond211) V8 load(1, XDATA, add(CFA_XSP16, literal(-14)))
        CFI (cfiCond211) V9 load(1, XDATA, add(CFA_XSP16, literal(-13)))
        CFI (cfiCond211) V10 load(1, XDATA, add(CFA_XSP16, literal(-12)))
        CFI (cfiCond211) V11 load(1, XDATA, add(CFA_XSP16, literal(-11)))
        CFI (cfiCond211) V12 load(1, XDATA, add(CFA_XSP16, literal(-10)))
        CFI (cfiCond211) V13 load(1, XDATA, add(CFA_XSP16, literal(-9)))
        CFI (cfiCond211) V14 load(1, XDATA, add(CFA_XSP16, literal(-8)))
        CFI (cfiCond211) V15 load(1, XDATA, add(CFA_XSP16, literal(-7)))
        CFI (cfiCond211) R7 load(1, XDATA, add(CFA_XSP16, literal(-6)))
        CFI (cfiCond211) ?RET_LOW load(1, XDATA, add(CFA_XSP16, literal(-5)))
        CFI (cfiCond211) ?RET_HIGH load(1, XDATA, add(CFA_XSP16, literal(-4)))
        CFI (cfiCond211) ?BRET_EXT load(1, XDATA, add(CFA_XSP16, literal(-3)))
        CFI (cfiCond211) DPL0 load(1, XDATA, add(CFA_XSP16, literal(-2)))
        CFI (cfiCond211) DPH0 load(1, XDATA, add(CFA_XSP16, literal(-1)))
        CFI (cfiCond211) CFA_SP SP+0
        CFI (cfiCond211) CFA_XSP16 add(XSP16, 25)
        CFI Block cfiCond212 Using cfiCommon0
        CFI (cfiCond212) NoFunction
        CFI (cfiCond212) Conditional ??CrossCallReturnLabel_113, ??CrossCallReturnLabel_111, ??CrossCallReturnLabel_105
        CFI (cfiCond212) R6 load(1, XDATA, add(CFA_XSP16, literal(-24)))
        CFI (cfiCond212) VB load(1, XDATA, add(CFA_XSP16, literal(-23)))
        CFI (cfiCond212) V0 load(1, XDATA, add(CFA_XSP16, literal(-22)))
        CFI (cfiCond212) V1 load(1, XDATA, add(CFA_XSP16, literal(-21)))
        CFI (cfiCond212) V2 load(1, XDATA, add(CFA_XSP16, literal(-20)))
        CFI (cfiCond212) V3 load(1, XDATA, add(CFA_XSP16, literal(-19)))
        CFI (cfiCond212) V4 load(1, XDATA, add(CFA_XSP16, literal(-18)))
        CFI (cfiCond212) V5 load(1, XDATA, add(CFA_XSP16, literal(-17)))
        CFI (cfiCond212) V6 load(1, XDATA, add(CFA_XSP16, literal(-16)))
        CFI (cfiCond212) V7 load(1, XDATA, add(CFA_XSP16, literal(-15)))
        CFI (cfiCond212) V8 load(1, XDATA, add(CFA_XSP16, literal(-14)))
        CFI (cfiCond212) V9 load(1, XDATA, add(CFA_XSP16, literal(-13)))
        CFI (cfiCond212) V10 load(1, XDATA, add(CFA_XSP16, literal(-12)))
        CFI (cfiCond212) V11 load(1, XDATA, add(CFA_XSP16, literal(-11)))
        CFI (cfiCond212) V12 load(1, XDATA, add(CFA_XSP16, literal(-10)))
        CFI (cfiCond212) V13 load(1, XDATA, add(CFA_XSP16, literal(-9)))
        CFI (cfiCond212) V14 load(1, XDATA, add(CFA_XSP16, literal(-8)))
        CFI (cfiCond212) V15 load(1, XDATA, add(CFA_XSP16, literal(-7)))
        CFI (cfiCond212) R7 load(1, XDATA, add(CFA_XSP16, literal(-6)))
        CFI (cfiCond212) ?RET_LOW load(1, XDATA, add(CFA_XSP16, literal(-5)))
        CFI (cfiCond212) ?RET_HIGH load(1, XDATA, add(CFA_XSP16, literal(-4)))
        CFI (cfiCond212) ?BRET_EXT load(1, XDATA, add(CFA_XSP16, literal(-3)))
        CFI (cfiCond212) DPL0 load(1, XDATA, add(CFA_XSP16, literal(-2)))
        CFI (cfiCond212) DPH0 load(1, XDATA, add(CFA_XSP16, literal(-1)))
        CFI (cfiCond212) CFA_SP SP+0
        CFI (cfiCond212) CFA_XSP16 add(XSP16, 25)
        CFI Block cfiCond213 Using cfiCommon0
        CFI (cfiCond213) NoFunction
        CFI (cfiCond213) Conditional ??CrossCallReturnLabel_113, ??CrossCallReturnLabel_111, ??CrossCallReturnLabel_106
        CFI (cfiCond213) R6 load(1, XDATA, add(CFA_XSP16, literal(-24)))
        CFI (cfiCond213) VB load(1, XDATA, add(CFA_XSP16, literal(-23)))
        CFI (cfiCond213) V0 load(1, XDATA, add(CFA_XSP16, literal(-22)))
        CFI (cfiCond213) V1 load(1, XDATA, add(CFA_XSP16, literal(-21)))
        CFI (cfiCond213) V2 load(1, XDATA, add(CFA_XSP16, literal(-20)))
        CFI (cfiCond213) V3 load(1, XDATA, add(CFA_XSP16, literal(-19)))
        CFI (cfiCond213) V4 load(1, XDATA, add(CFA_XSP16, literal(-18)))
        CFI (cfiCond213) V5 load(1, XDATA, add(CFA_XSP16, literal(-17)))
        CFI (cfiCond213) V6 load(1, XDATA, add(CFA_XSP16, literal(-16)))
        CFI (cfiCond213) V7 load(1, XDATA, add(CFA_XSP16, literal(-15)))
        CFI (cfiCond213) V8 load(1, XDATA, add(CFA_XSP16, literal(-14)))
        CFI (cfiCond213) V9 load(1, XDATA, add(CFA_XSP16, literal(-13)))
        CFI (cfiCond213) V10 load(1, XDATA, add(CFA_XSP16, literal(-12)))
        CFI (cfiCond213) V11 load(1, XDATA, add(CFA_XSP16, literal(-11)))
        CFI (cfiCond213) V12 load(1, XDATA, add(CFA_XSP16, literal(-10)))
        CFI (cfiCond213) V13 load(1, XDATA, add(CFA_XSP16, literal(-9)))
        CFI (cfiCond213) V14 load(1, XDATA, add(CFA_XSP16, literal(-8)))
        CFI (cfiCond213) V15 load(1, XDATA, add(CFA_XSP16, literal(-7)))
        CFI (cfiCond213) R7 load(1, XDATA, add(CFA_XSP16, literal(-6)))
        CFI (cfiCond213) ?RET_LOW load(1, XDATA, add(CFA_XSP16, literal(-5)))
        CFI (cfiCond213) ?RET_HIGH load(1, XDATA, add(CFA_XSP16, literal(-4)))
        CFI (cfiCond213) ?BRET_EXT load(1, XDATA, add(CFA_XSP16, literal(-3)))
        CFI (cfiCond213) DPL0 load(1, XDATA, add(CFA_XSP16, literal(-2)))
        CFI (cfiCond213) DPH0 load(1, XDATA, add(CFA_XSP16, literal(-1)))
        CFI (cfiCond213) CFA_SP SP+0
        CFI (cfiCond213) CFA_XSP16 add(XSP16, 25)
        CFI Block cfiCond214 Using cfiCommon0
        CFI (cfiCond214) NoFunction
        CFI (cfiCond214) Conditional ??CrossCallReturnLabel_113, ??CrossCallReturnLabel_111, ??CrossCallReturnLabel_107
        CFI (cfiCond214) R6 load(1, XDATA, add(CFA_XSP16, literal(-24)))
        CFI (cfiCond214) VB load(1, XDATA, add(CFA_XSP16, literal(-23)))
        CFI (cfiCond214) V0 load(1, XDATA, add(CFA_XSP16, literal(-22)))
        CFI (cfiCond214) V1 load(1, XDATA, add(CFA_XSP16, literal(-21)))
        CFI (cfiCond214) V2 load(1, XDATA, add(CFA_XSP16, literal(-20)))
        CFI (cfiCond214) V3 load(1, XDATA, add(CFA_XSP16, literal(-19)))
        CFI (cfiCond214) V4 load(1, XDATA, add(CFA_XSP16, literal(-18)))
        CFI (cfiCond214) V5 load(1, XDATA, add(CFA_XSP16, literal(-17)))
        CFI (cfiCond214) V6 load(1, XDATA, add(CFA_XSP16, literal(-16)))
        CFI (cfiCond214) V7 load(1, XDATA, add(CFA_XSP16, literal(-15)))
        CFI (cfiCond214) V8 load(1, XDATA, add(CFA_XSP16, literal(-14)))
        CFI (cfiCond214) V9 load(1, XDATA, add(CFA_XSP16, literal(-13)))
        CFI (cfiCond214) V10 load(1, XDATA, add(CFA_XSP16, literal(-12)))
        CFI (cfiCond214) V11 load(1, XDATA, add(CFA_XSP16, literal(-11)))
        CFI (cfiCond214) V12 load(1, XDATA, add(CFA_XSP16, literal(-10)))
        CFI (cfiCond214) V13 load(1, XDATA, add(CFA_XSP16, literal(-9)))
        CFI (cfiCond214) V14 load(1, XDATA, add(CFA_XSP16, literal(-8)))
        CFI (cfiCond214) V15 load(1, XDATA, add(CFA_XSP16, literal(-7)))
        CFI (cfiCond214) R7 load(1, XDATA, add(CFA_XSP16, literal(-6)))
        CFI (cfiCond214) ?RET_LOW load(1, XDATA, add(CFA_XSP16, literal(-5)))
        CFI (cfiCond214) ?RET_HIGH load(1, XDATA, add(CFA_XSP16, literal(-4)))
        CFI (cfiCond214) ?BRET_EXT load(1, XDATA, add(CFA_XSP16, literal(-3)))
        CFI (cfiCond214) DPL0 load(1, XDATA, add(CFA_XSP16, literal(-2)))
        CFI (cfiCond214) DPH0 load(1, XDATA, add(CFA_XSP16, literal(-1)))
        CFI (cfiCond214) CFA_SP SP+0
        CFI (cfiCond214) CFA_XSP16 add(XSP16, 25)
        CFI Block cfiCond215 Using cfiCommon0
        CFI (cfiCond215) NoFunction
        CFI (cfiCond215) Conditional ??CrossCallReturnLabel_113, ??CrossCallReturnLabel_111, ??CrossCallReturnLabel_108
        CFI (cfiCond215) R6 load(1, XDATA, add(CFA_XSP16, literal(-24)))
        CFI (cfiCond215) VB load(1, XDATA, add(CFA_XSP16, literal(-23)))
        CFI (cfiCond215) V0 load(1, XDATA, add(CFA_XSP16, literal(-22)))
        CFI (cfiCond215) V1 load(1, XDATA, add(CFA_XSP16, literal(-21)))
        CFI (cfiCond215) V2 load(1, XDATA, add(CFA_XSP16, literal(-20)))
        CFI (cfiCond215) V3 load(1, XDATA, add(CFA_XSP16, literal(-19)))
        CFI (cfiCond215) V4 load(1, XDATA, add(CFA_XSP16, literal(-18)))
        CFI (cfiCond215) V5 load(1, XDATA, add(CFA_XSP16, literal(-17)))
        CFI (cfiCond215) V6 load(1, XDATA, add(CFA_XSP16, literal(-16)))
        CFI (cfiCond215) V7 load(1, XDATA, add(CFA_XSP16, literal(-15)))
        CFI (cfiCond215) V8 load(1, XDATA, add(CFA_XSP16, literal(-14)))
        CFI (cfiCond215) V9 load(1, XDATA, add(CFA_XSP16, literal(-13)))
        CFI (cfiCond215) V10 load(1, XDATA, add(CFA_XSP16, literal(-12)))
        CFI (cfiCond215) V11 load(1, XDATA, add(CFA_XSP16, literal(-11)))
        CFI (cfiCond215) V12 load(1, XDATA, add(CFA_XSP16, literal(-10)))
        CFI (cfiCond215) V13 load(1, XDATA, add(CFA_XSP16, literal(-9)))
        CFI (cfiCond215) V14 load(1, XDATA, add(CFA_XSP16, literal(-8)))
        CFI (cfiCond215) V15 load(1, XDATA, add(CFA_XSP16, literal(-7)))
        CFI (cfiCond215) R7 load(1, XDATA, add(CFA_XSP16, literal(-6)))
        CFI (cfiCond215) ?RET_LOW load(1, XDATA, add(CFA_XSP16, literal(-5)))
        CFI (cfiCond215) ?RET_HIGH load(1, XDATA, add(CFA_XSP16, literal(-4)))
        CFI (cfiCond215) ?BRET_EXT load(1, XDATA, add(CFA_XSP16, literal(-3)))
        CFI (cfiCond215) DPL0 load(1, XDATA, add(CFA_XSP16, literal(-2)))
        CFI (cfiCond215) DPH0 load(1, XDATA, add(CFA_XSP16, literal(-1)))
        CFI (cfiCond215) CFA_SP SP+0
        CFI (cfiCond215) CFA_XSP16 add(XSP16, 25)
        CFI Block cfiCond216 Using cfiCommon0
        CFI (cfiCond216) NoFunction
        CFI (cfiCond216) Conditional ??CrossCallReturnLabel_113, ??CrossCallReturnLabel_111, ??CrossCallReturnLabel_109
        CFI (cfiCond216) R6 load(1, XDATA, add(CFA_XSP16, literal(-24)))
        CFI (cfiCond216) VB load(1, XDATA, add(CFA_XSP16, literal(-23)))
        CFI (cfiCond216) V0 load(1, XDATA, add(CFA_XSP16, literal(-22)))
        CFI (cfiCond216) V1 load(1, XDATA, add(CFA_XSP16, literal(-21)))
        CFI (cfiCond216) V2 load(1, XDATA, add(CFA_XSP16, literal(-20)))
        CFI (cfiCond216) V3 load(1, XDATA, add(CFA_XSP16, literal(-19)))
        CFI (cfiCond216) V4 load(1, XDATA, add(CFA_XSP16, literal(-18)))
        CFI (cfiCond216) V5 load(1, XDATA, add(CFA_XSP16, literal(-17)))
        CFI (cfiCond216) V6 load(1, XDATA, add(CFA_XSP16, literal(-16)))
        CFI (cfiCond216) V7 load(1, XDATA, add(CFA_XSP16, literal(-15)))
        CFI (cfiCond216) V8 load(1, XDATA, add(CFA_XSP16, literal(-14)))
        CFI (cfiCond216) V9 load(1, XDATA, add(CFA_XSP16, literal(-13)))
        CFI (cfiCond216) V10 load(1, XDATA, add(CFA_XSP16, literal(-12)))
        CFI (cfiCond216) V11 load(1, XDATA, add(CFA_XSP16, literal(-11)))
        CFI (cfiCond216) V12 load(1, XDATA, add(CFA_XSP16, literal(-10)))
        CFI (cfiCond216) V13 load(1, XDATA, add(CFA_XSP16, literal(-9)))
        CFI (cfiCond216) V14 load(1, XDATA, add(CFA_XSP16, literal(-8)))
        CFI (cfiCond216) V15 load(1, XDATA, add(CFA_XSP16, literal(-7)))
        CFI (cfiCond216) R7 load(1, XDATA, add(CFA_XSP16, literal(-6)))
        CFI (cfiCond216) ?RET_LOW load(1, XDATA, add(CFA_XSP16, literal(-5)))
        CFI (cfiCond216) ?RET_HIGH load(1, XDATA, add(CFA_XSP16, literal(-4)))
        CFI (cfiCond216) ?BRET_EXT load(1, XDATA, add(CFA_XSP16, literal(-3)))
        CFI (cfiCond216) DPL0 load(1, XDATA, add(CFA_XSP16, literal(-2)))
        CFI (cfiCond216) DPH0 load(1, XDATA, add(CFA_XSP16, literal(-1)))
        CFI (cfiCond216) CFA_SP SP+0
        CFI (cfiCond216) CFA_XSP16 add(XSP16, 25)
        CFI Block cfiPicker217 Using cfiCommon1
        CFI (cfiPicker217) NoFunction
        CFI (cfiPicker217) Picker
        MOVX    A,@DPTR
        MOV     DPL,?V0 + 2
        MOV     DPH,?V0 + 3
        MOVX    @DPTR,A
        RET
        CFI EndBlock cfiCond206
        CFI EndBlock cfiCond207
        CFI EndBlock cfiCond208
        CFI EndBlock cfiCond209
        CFI EndBlock cfiCond210
        CFI EndBlock cfiCond211
        CFI EndBlock cfiCond212
        CFI EndBlock cfiCond213
        CFI EndBlock cfiCond214
        CFI EndBlock cfiCond215
        CFI EndBlock cfiCond216
        CFI EndBlock cfiPicker217

        RSEG BANKED_CODE:CODE:NOROOT(0)
?Subroutine6:
        CFI Block cfiCond218 Using cfiCommon0
        CFI NoFunction
        CFI Conditional ??CrossCallReturnLabel_0
        CFI R6 load(1, XDATA, add(CFA_XSP16, literal(-24)))
        CFI VB load(1, XDATA, add(CFA_XSP16, literal(-23)))
        CFI V0 load(1, XDATA, add(CFA_XSP16, literal(-22)))
        CFI V1 load(1, XDATA, add(CFA_XSP16, literal(-21)))
        CFI V2 load(1, XDATA, add(CFA_XSP16, literal(-20)))
        CFI V3 load(1, XDATA, add(CFA_XSP16, literal(-19)))
        CFI V4 load(1, XDATA, add(CFA_XSP16, literal(-18)))
        CFI V5 load(1, XDATA, add(CFA_XSP16, literal(-17)))
        CFI V6 load(1, XDATA, add(CFA_XSP16, literal(-16)))
        CFI V7 load(1, XDATA, add(CFA_XSP16, literal(-15)))
        CFI V8 load(1, XDATA, add(CFA_XSP16, literal(-14)))
        CFI V9 load(1, XDATA, add(CFA_XSP16, literal(-13)))
        CFI V10 load(1, XDATA, add(CFA_XSP16, literal(-12)))
        CFI V11 load(1, XDATA, add(CFA_XSP16, literal(-11)))
        CFI V12 load(1, XDATA, add(CFA_XSP16, literal(-10)))
        CFI V13 load(1, XDATA, add(CFA_XSP16, literal(-9)))
        CFI V14 load(1, XDATA, add(CFA_XSP16, literal(-8)))
        CFI V15 load(1, XDATA, add(CFA_XSP16, literal(-7)))
        CFI R7 load(1, XDATA, add(CFA_XSP16, literal(-6)))
        CFI ?RET_LOW load(1, XDATA, add(CFA_XSP16, literal(-5)))
        CFI ?RET_HIGH load(1, XDATA, add(CFA_XSP16, literal(-4)))
        CFI ?BRET_EXT load(1, XDATA, add(CFA_XSP16, literal(-3)))
        CFI DPL0 load(1, XDATA, add(CFA_XSP16, literal(-2)))
        CFI DPH0 load(1, XDATA, add(CFA_XSP16, literal(-1)))
        CFI CFA_SP SP+0
        CFI CFA_XSP16 add(XSP16, 25)
        CFI Block cfiCond219 Using cfiCommon0
        CFI (cfiCond219) NoFunction
        CFI (cfiCond219) Conditional ??CrossCallReturnLabel_1
        CFI (cfiCond219) R6 load(1, XDATA, add(CFA_XSP16, literal(-24)))
        CFI (cfiCond219) VB load(1, XDATA, add(CFA_XSP16, literal(-23)))
        CFI (cfiCond219) V0 load(1, XDATA, add(CFA_XSP16, literal(-22)))
        CFI (cfiCond219) V1 load(1, XDATA, add(CFA_XSP16, literal(-21)))
        CFI (cfiCond219) V2 load(1, XDATA, add(CFA_XSP16, literal(-20)))
        CFI (cfiCond219) V3 load(1, XDATA, add(CFA_XSP16, literal(-19)))
        CFI (cfiCond219) V4 load(1, XDATA, add(CFA_XSP16, literal(-18)))
        CFI (cfiCond219) V5 load(1, XDATA, add(CFA_XSP16, literal(-17)))
        CFI (cfiCond219) V6 load(1, XDATA, add(CFA_XSP16, literal(-16)))
        CFI (cfiCond219) V7 load(1, XDATA, add(CFA_XSP16, literal(-15)))
        CFI (cfiCond219) V8 load(1, XDATA, add(CFA_XSP16, literal(-14)))
        CFI (cfiCond219) V9 load(1, XDATA, add(CFA_XSP16, literal(-13)))
        CFI (cfiCond219) V10 load(1, XDATA, add(CFA_XSP16, literal(-12)))
        CFI (cfiCond219) V11 load(1, XDATA, add(CFA_XSP16, literal(-11)))
        CFI (cfiCond219) V12 load(1, XDATA, add(CFA_XSP16, literal(-10)))
        CFI (cfiCond219) V13 load(1, XDATA, add(CFA_XSP16, literal(-9)))
        CFI (cfiCond219) V14 load(1, XDATA, add(CFA_XSP16, literal(-8)))
        CFI (cfiCond219) V15 load(1, XDATA, add(CFA_XSP16, literal(-7)))
        CFI (cfiCond219) R7 load(1, XDATA, add(CFA_XSP16, literal(-6)))
        CFI (cfiCond219) ?RET_LOW load(1, XDATA, add(CFA_XSP16, literal(-5)))
        CFI (cfiCond219) ?RET_HIGH load(1, XDATA, add(CFA_XSP16, literal(-4)))
        CFI (cfiCond219) ?BRET_EXT load(1, XDATA, add(CFA_XSP16, literal(-3)))
        CFI (cfiCond219) DPL0 load(1, XDATA, add(CFA_XSP16, literal(-2)))
        CFI (cfiCond219) DPH0 load(1, XDATA, add(CFA_XSP16, literal(-1)))
        CFI (cfiCond219) CFA_SP SP+0
        CFI (cfiCond219) CFA_XSP16 add(XSP16, 25)
        CFI Block cfiPicker220 Using cfiCommon1
        CFI (cfiPicker220) NoFunction
        CFI (cfiPicker220) Picker
        LCALL   ?Subroutine33 & 0xFFFF
??CrossCallReturnLabel_110:
        RET
        CFI EndBlock cfiCond218
        CFI EndBlock cfiCond219
        CFI EndBlock cfiPicker220

        RSEG BANKED_CODE:CODE:NOROOT(0)
?Subroutine33:
        CFI Block cfiCond221 Using cfiCommon0
        CFI NoFunction
        CFI Conditional ??CrossCallReturnLabel_110, ??CrossCallReturnLabel_0
        CFI R6 load(1, XDATA, add(CFA_XSP16, literal(-24)))
        CFI VB load(1, XDATA, add(CFA_XSP16, literal(-23)))
        CFI V0 load(1, XDATA, add(CFA_XSP16, literal(-22)))
        CFI V1 load(1, XDATA, add(CFA_XSP16, literal(-21)))
        CFI V2 load(1, XDATA, add(CFA_XSP16, literal(-20)))
        CFI V3 load(1, XDATA, add(CFA_XSP16, literal(-19)))
        CFI V4 load(1, XDATA, add(CFA_XSP16, literal(-18)))
        CFI V5 load(1, XDATA, add(CFA_XSP16, literal(-17)))
        CFI V6 load(1, XDATA, add(CFA_XSP16, literal(-16)))
        CFI V7 load(1, XDATA, add(CFA_XSP16, literal(-15)))
        CFI V8 load(1, XDATA, add(CFA_XSP16, literal(-14)))
        CFI V9 load(1, XDATA, add(CFA_XSP16, literal(-13)))
        CFI V10 load(1, XDATA, add(CFA_XSP16, literal(-12)))
        CFI V11 load(1, XDATA, add(CFA_XSP16, literal(-11)))
        CFI V12 load(1, XDATA, add(CFA_XSP16, literal(-10)))
        CFI V13 load(1, XDATA, add(CFA_XSP16, literal(-9)))
        CFI V14 load(1, XDATA, add(CFA_XSP16, literal(-8)))
        CFI V15 load(1, XDATA, add(CFA_XSP16, literal(-7)))
        CFI R7 load(1, XDATA, add(CFA_XSP16, literal(-6)))
        CFI ?RET_LOW load(1, XDATA, add(CFA_XSP16, literal(-5)))
        CFI ?RET_HIGH load(1, XDATA, add(CFA_XSP16, literal(-4)))
        CFI ?BRET_EXT load(1, XDATA, add(CFA_XSP16, literal(-3)))
        CFI DPL0 load(1, XDATA, add(CFA_XSP16, literal(-2)))
        CFI DPH0 load(1, XDATA, add(CFA_XSP16, literal(-1)))
        CFI CFA_SP SP+0
        CFI CFA_XSP16 add(XSP16, 25)
        CFI Block cfiCond222 Using cfiCommon0
        CFI (cfiCond222) NoFunction
        CFI (cfiCond222) Conditional ??CrossCallReturnLabel_110, ??CrossCallReturnLabel_1
        CFI (cfiCond222) R6 load(1, XDATA, add(CFA_XSP16, literal(-24)))
        CFI (cfiCond222) VB load(1, XDATA, add(CFA_XSP16, literal(-23)))
        CFI (cfiCond222) V0 load(1, XDATA, add(CFA_XSP16, literal(-22)))
        CFI (cfiCond222) V1 load(1, XDATA, add(CFA_XSP16, literal(-21)))
        CFI (cfiCond222) V2 load(1, XDATA, add(CFA_XSP16, literal(-20)))
        CFI (cfiCond222) V3 load(1, XDATA, add(CFA_XSP16, literal(-19)))
        CFI (cfiCond222) V4 load(1, XDATA, add(CFA_XSP16, literal(-18)))
        CFI (cfiCond222) V5 load(1, XDATA, add(CFA_XSP16, literal(-17)))
        CFI (cfiCond222) V6 load(1, XDATA, add(CFA_XSP16, literal(-16)))
        CFI (cfiCond222) V7 load(1, XDATA, add(CFA_XSP16, literal(-15)))
        CFI (cfiCond222) V8 load(1, XDATA, add(CFA_XSP16, literal(-14)))
        CFI (cfiCond222) V9 load(1, XDATA, add(CFA_XSP16, literal(-13)))
        CFI (cfiCond222) V10 load(1, XDATA, add(CFA_XSP16, literal(-12)))
        CFI (cfiCond222) V11 load(1, XDATA, add(CFA_XSP16, literal(-11)))
        CFI (cfiCond222) V12 load(1, XDATA, add(CFA_XSP16, literal(-10)))
        CFI (cfiCond222) V13 load(1, XDATA, add(CFA_XSP16, literal(-9)))
        CFI (cfiCond222) V14 load(1, XDATA, add(CFA_XSP16, literal(-8)))
        CFI (cfiCond222) V15 load(1, XDATA, add(CFA_XSP16, literal(-7)))
        CFI (cfiCond222) R7 load(1, XDATA, add(CFA_XSP16, literal(-6)))
        CFI (cfiCond222) ?RET_LOW load(1, XDATA, add(CFA_XSP16, literal(-5)))
        CFI (cfiCond222) ?RET_HIGH load(1, XDATA, add(CFA_XSP16, literal(-4)))
        CFI (cfiCond222) ?BRET_EXT load(1, XDATA, add(CFA_XSP16, literal(-3)))
        CFI (cfiCond222) DPL0 load(1, XDATA, add(CFA_XSP16, literal(-2)))
        CFI (cfiCond222) DPH0 load(1, XDATA, add(CFA_XSP16, literal(-1)))
        CFI (cfiCond222) CFA_SP SP+0
        CFI (cfiCond222) CFA_XSP16 add(XSP16, 25)
        CFI Block cfiCond223 Using cfiCommon0
        CFI (cfiCond223) NoFunction
        CFI (cfiCond223) Conditional ??CrossCallReturnLabel_111, ??CrossCallReturnLabel_105
        CFI (cfiCond223) R6 load(1, XDATA, add(CFA_XSP16, literal(-24)))
        CFI (cfiCond223) VB load(1, XDATA, add(CFA_XSP16, literal(-23)))
        CFI (cfiCond223) V0 load(1, XDATA, add(CFA_XSP16, literal(-22)))
        CFI (cfiCond223) V1 load(1, XDATA, add(CFA_XSP16, literal(-21)))
        CFI (cfiCond223) V2 load(1, XDATA, add(CFA_XSP16, literal(-20)))
        CFI (cfiCond223) V3 load(1, XDATA, add(CFA_XSP16, literal(-19)))
        CFI (cfiCond223) V4 load(1, XDATA, add(CFA_XSP16, literal(-18)))
        CFI (cfiCond223) V5 load(1, XDATA, add(CFA_XSP16, literal(-17)))
        CFI (cfiCond223) V6 load(1, XDATA, add(CFA_XSP16, literal(-16)))
        CFI (cfiCond223) V7 load(1, XDATA, add(CFA_XSP16, literal(-15)))
        CFI (cfiCond223) V8 load(1, XDATA, add(CFA_XSP16, literal(-14)))
        CFI (cfiCond223) V9 load(1, XDATA, add(CFA_XSP16, literal(-13)))
        CFI (cfiCond223) V10 load(1, XDATA, add(CFA_XSP16, literal(-12)))
        CFI (cfiCond223) V11 load(1, XDATA, add(CFA_XSP16, literal(-11)))
        CFI (cfiCond223) V12 load(1, XDATA, add(CFA_XSP16, literal(-10)))
        CFI (cfiCond223) V13 load(1, XDATA, add(CFA_XSP16, literal(-9)))
        CFI (cfiCond223) V14 load(1, XDATA, add(CFA_XSP16, literal(-8)))
        CFI (cfiCond223) V15 load(1, XDATA, add(CFA_XSP16, literal(-7)))
        CFI (cfiCond223) R7 load(1, XDATA, add(CFA_XSP16, literal(-6)))
        CFI (cfiCond223) ?RET_LOW load(1, XDATA, add(CFA_XSP16, literal(-5)))
        CFI (cfiCond223) ?RET_HIGH load(1, XDATA, add(CFA_XSP16, literal(-4)))
        CFI (cfiCond223) ?BRET_EXT load(1, XDATA, add(CFA_XSP16, literal(-3)))
        CFI (cfiCond223) DPL0 load(1, XDATA, add(CFA_XSP16, literal(-2)))
        CFI (cfiCond223) DPH0 load(1, XDATA, add(CFA_XSP16, literal(-1)))
        CFI (cfiCond223) CFA_SP SP+0
        CFI (cfiCond223) CFA_XSP16 add(XSP16, 25)
        CFI Block cfiCond224 Using cfiCommon0
        CFI (cfiCond224) NoFunction
        CFI (cfiCond224) Conditional ??CrossCallReturnLabel_111, ??CrossCallReturnLabel_106
        CFI (cfiCond224) R6 load(1, XDATA, add(CFA_XSP16, literal(-24)))
        CFI (cfiCond224) VB load(1, XDATA, add(CFA_XSP16, literal(-23)))
        CFI (cfiCond224) V0 load(1, XDATA, add(CFA_XSP16, literal(-22)))
        CFI (cfiCond224) V1 load(1, XDATA, add(CFA_XSP16, literal(-21)))
        CFI (cfiCond224) V2 load(1, XDATA, add(CFA_XSP16, literal(-20)))
        CFI (cfiCond224) V3 load(1, XDATA, add(CFA_XSP16, literal(-19)))
        CFI (cfiCond224) V4 load(1, XDATA, add(CFA_XSP16, literal(-18)))
        CFI (cfiCond224) V5 load(1, XDATA, add(CFA_XSP16, literal(-17)))
        CFI (cfiCond224) V6 load(1, XDATA, add(CFA_XSP16, literal(-16)))
        CFI (cfiCond224) V7 load(1, XDATA, add(CFA_XSP16, literal(-15)))
        CFI (cfiCond224) V8 load(1, XDATA, add(CFA_XSP16, literal(-14)))
        CFI (cfiCond224) V9 load(1, XDATA, add(CFA_XSP16, literal(-13)))
        CFI (cfiCond224) V10 load(1, XDATA, add(CFA_XSP16, literal(-12)))
        CFI (cfiCond224) V11 load(1, XDATA, add(CFA_XSP16, literal(-11)))
        CFI (cfiCond224) V12 load(1, XDATA, add(CFA_XSP16, literal(-10)))
        CFI (cfiCond224) V13 load(1, XDATA, add(CFA_XSP16, literal(-9)))
        CFI (cfiCond224) V14 load(1, XDATA, add(CFA_XSP16, literal(-8)))
        CFI (cfiCond224) V15 load(1, XDATA, add(CFA_XSP16, literal(-7)))
        CFI (cfiCond224) R7 load(1, XDATA, add(CFA_XSP16, literal(-6)))
        CFI (cfiCond224) ?RET_LOW load(1, XDATA, add(CFA_XSP16, literal(-5)))
        CFI (cfiCond224) ?RET_HIGH load(1, XDATA, add(CFA_XSP16, literal(-4)))
        CFI (cfiCond224) ?BRET_EXT load(1, XDATA, add(CFA_XSP16, literal(-3)))
        CFI (cfiCond224) DPL0 load(1, XDATA, add(CFA_XSP16, literal(-2)))
        CFI (cfiCond224) DPH0 load(1, XDATA, add(CFA_XSP16, literal(-1)))
        CFI (cfiCond224) CFA_SP SP+0
        CFI (cfiCond224) CFA_XSP16 add(XSP16, 25)
        CFI Block cfiCond225 Using cfiCommon0
        CFI (cfiCond225) NoFunction
        CFI (cfiCond225) Conditional ??CrossCallReturnLabel_111, ??CrossCallReturnLabel_107
        CFI (cfiCond225) R6 load(1, XDATA, add(CFA_XSP16, literal(-24)))
        CFI (cfiCond225) VB load(1, XDATA, add(CFA_XSP16, literal(-23)))
        CFI (cfiCond225) V0 load(1, XDATA, add(CFA_XSP16, literal(-22)))
        CFI (cfiCond225) V1 load(1, XDATA, add(CFA_XSP16, literal(-21)))
        CFI (cfiCond225) V2 load(1, XDATA, add(CFA_XSP16, literal(-20)))
        CFI (cfiCond225) V3 load(1, XDATA, add(CFA_XSP16, literal(-19)))
        CFI (cfiCond225) V4 load(1, XDATA, add(CFA_XSP16, literal(-18)))
        CFI (cfiCond225) V5 load(1, XDATA, add(CFA_XSP16, literal(-17)))
        CFI (cfiCond225) V6 load(1, XDATA, add(CFA_XSP16, literal(-16)))
        CFI (cfiCond225) V7 load(1, XDATA, add(CFA_XSP16, literal(-15)))
        CFI (cfiCond225) V8 load(1, XDATA, add(CFA_XSP16, literal(-14)))
        CFI (cfiCond225) V9 load(1, XDATA, add(CFA_XSP16, literal(-13)))
        CFI (cfiCond225) V10 load(1, XDATA, add(CFA_XSP16, literal(-12)))
        CFI (cfiCond225) V11 load(1, XDATA, add(CFA_XSP16, literal(-11)))
        CFI (cfiCond225) V12 load(1, XDATA, add(CFA_XSP16, literal(-10)))
        CFI (cfiCond225) V13 load(1, XDATA, add(CFA_XSP16, literal(-9)))
        CFI (cfiCond225) V14 load(1, XDATA, add(CFA_XSP16, literal(-8)))
        CFI (cfiCond225) V15 load(1, XDATA, add(CFA_XSP16, literal(-7)))
        CFI (cfiCond225) R7 load(1, XDATA, add(CFA_XSP16, literal(-6)))
        CFI (cfiCond225) ?RET_LOW load(1, XDATA, add(CFA_XSP16, literal(-5)))
        CFI (cfiCond225) ?RET_HIGH load(1, XDATA, add(CFA_XSP16, literal(-4)))
        CFI (cfiCond225) ?BRET_EXT load(1, XDATA, add(CFA_XSP16, literal(-3)))
        CFI (cfiCond225) DPL0 load(1, XDATA, add(CFA_XSP16, literal(-2)))
        CFI (cfiCond225) DPH0 load(1, XDATA, add(CFA_XSP16, literal(-1)))
        CFI (cfiCond225) CFA_SP SP+0
        CFI (cfiCond225) CFA_XSP16 add(XSP16, 25)
        CFI Block cfiCond226 Using cfiCommon0
        CFI (cfiCond226) NoFunction
        CFI (cfiCond226) Conditional ??CrossCallReturnLabel_111, ??CrossCallReturnLabel_108
        CFI (cfiCond226) R6 load(1, XDATA, add(CFA_XSP16, literal(-24)))
        CFI (cfiCond226) VB load(1, XDATA, add(CFA_XSP16, literal(-23)))
        CFI (cfiCond226) V0 load(1, XDATA, add(CFA_XSP16, literal(-22)))
        CFI (cfiCond226) V1 load(1, XDATA, add(CFA_XSP16, literal(-21)))
        CFI (cfiCond226) V2 load(1, XDATA, add(CFA_XSP16, literal(-20)))
        CFI (cfiCond226) V3 load(1, XDATA, add(CFA_XSP16, literal(-19)))
        CFI (cfiCond226) V4 load(1, XDATA, add(CFA_XSP16, literal(-18)))
        CFI (cfiCond226) V5 load(1, XDATA, add(CFA_XSP16, literal(-17)))
        CFI (cfiCond226) V6 load(1, XDATA, add(CFA_XSP16, literal(-16)))
        CFI (cfiCond226) V7 load(1, XDATA, add(CFA_XSP16, literal(-15)))
        CFI (cfiCond226) V8 load(1, XDATA, add(CFA_XSP16, literal(-14)))
        CFI (cfiCond226) V9 load(1, XDATA, add(CFA_XSP16, literal(-13)))
        CFI (cfiCond226) V10 load(1, XDATA, add(CFA_XSP16, literal(-12)))
        CFI (cfiCond226) V11 load(1, XDATA, add(CFA_XSP16, literal(-11)))
        CFI (cfiCond226) V12 load(1, XDATA, add(CFA_XSP16, literal(-10)))
        CFI (cfiCond226) V13 load(1, XDATA, add(CFA_XSP16, literal(-9)))
        CFI (cfiCond226) V14 load(1, XDATA, add(CFA_XSP16, literal(-8)))
        CFI (cfiCond226) V15 load(1, XDATA, add(CFA_XSP16, literal(-7)))
        CFI (cfiCond226) R7 load(1, XDATA, add(CFA_XSP16, literal(-6)))
        CFI (cfiCond226) ?RET_LOW load(1, XDATA, add(CFA_XSP16, literal(-5)))
        CFI (cfiCond226) ?RET_HIGH load(1, XDATA, add(CFA_XSP16, literal(-4)))
        CFI (cfiCond226) ?BRET_EXT load(1, XDATA, add(CFA_XSP16, literal(-3)))
        CFI (cfiCond226) DPL0 load(1, XDATA, add(CFA_XSP16, literal(-2)))
        CFI (cfiCond226) DPH0 load(1, XDATA, add(CFA_XSP16, literal(-1)))
        CFI (cfiCond226) CFA_SP SP+0
        CFI (cfiCond226) CFA_XSP16 add(XSP16, 25)
        CFI Block cfiCond227 Using cfiCommon0
        CFI (cfiCond227) NoFunction
        CFI (cfiCond227) Conditional ??CrossCallReturnLabel_111, ??CrossCallReturnLabel_109
        CFI (cfiCond227) R6 load(1, XDATA, add(CFA_XSP16, literal(-24)))
        CFI (cfiCond227) VB load(1, XDATA, add(CFA_XSP16, literal(-23)))
        CFI (cfiCond227) V0 load(1, XDATA, add(CFA_XSP16, literal(-22)))
        CFI (cfiCond227) V1 load(1, XDATA, add(CFA_XSP16, literal(-21)))
        CFI (cfiCond227) V2 load(1, XDATA, add(CFA_XSP16, literal(-20)))
        CFI (cfiCond227) V3 load(1, XDATA, add(CFA_XSP16, literal(-19)))
        CFI (cfiCond227) V4 load(1, XDATA, add(CFA_XSP16, literal(-18)))
        CFI (cfiCond227) V5 load(1, XDATA, add(CFA_XSP16, literal(-17)))
        CFI (cfiCond227) V6 load(1, XDATA, add(CFA_XSP16, literal(-16)))
        CFI (cfiCond227) V7 load(1, XDATA, add(CFA_XSP16, literal(-15)))
        CFI (cfiCond227) V8 load(1, XDATA, add(CFA_XSP16, literal(-14)))
        CFI (cfiCond227) V9 load(1, XDATA, add(CFA_XSP16, literal(-13)))
        CFI (cfiCond227) V10 load(1, XDATA, add(CFA_XSP16, literal(-12)))
        CFI (cfiCond227) V11 load(1, XDATA, add(CFA_XSP16, literal(-11)))
        CFI (cfiCond227) V12 load(1, XDATA, add(CFA_XSP16, literal(-10)))
        CFI (cfiCond227) V13 load(1, XDATA, add(CFA_XSP16, literal(-9)))
        CFI (cfiCond227) V14 load(1, XDATA, add(CFA_XSP16, literal(-8)))
        CFI (cfiCond227) V15 load(1, XDATA, add(CFA_XSP16, literal(-7)))
        CFI (cfiCond227) R7 load(1, XDATA, add(CFA_XSP16, literal(-6)))
        CFI (cfiCond227) ?RET_LOW load(1, XDATA, add(CFA_XSP16, literal(-5)))
        CFI (cfiCond227) ?RET_HIGH load(1, XDATA, add(CFA_XSP16, literal(-4)))
        CFI (cfiCond227) ?BRET_EXT load(1, XDATA, add(CFA_XSP16, literal(-3)))
        CFI (cfiCond227) DPL0 load(1, XDATA, add(CFA_XSP16, literal(-2)))
        CFI (cfiCond227) DPH0 load(1, XDATA, add(CFA_XSP16, literal(-1)))
        CFI (cfiCond227) CFA_SP SP+0
        CFI (cfiCond227) CFA_XSP16 add(XSP16, 25)
        CFI Block cfiPicker228 Using cfiCommon1
        CFI (cfiPicker228) NoFunction
        CFI (cfiPicker228) Picker
        LCALL   ?Subroutine42 & 0xFFFF
??CrossCallReturnLabel_113:
        INC     DPTR
        MOV     ?V0 + 2,DPL
        MOV     ?V0 + 3,DPH
        RET
        CFI EndBlock cfiCond221
        CFI EndBlock cfiCond222
        CFI EndBlock cfiCond223
        CFI EndBlock cfiCond224
        CFI EndBlock cfiCond225
        CFI EndBlock cfiCond226
        CFI EndBlock cfiCond227
        CFI EndBlock cfiPicker228

        RSEG BANKED_CODE:CODE:NOROOT(0)
?Subroutine2:
        CFI Block cfiCond229 Using cfiCommon0
        CFI NoFunction
        CFI Conditional ??CrossCallReturnLabel_105
        CFI R6 load(1, XDATA, add(CFA_XSP16, literal(-24)))
        CFI VB load(1, XDATA, add(CFA_XSP16, literal(-23)))
        CFI V0 load(1, XDATA, add(CFA_XSP16, literal(-22)))
        CFI V1 load(1, XDATA, add(CFA_XSP16, literal(-21)))
        CFI V2 load(1, XDATA, add(CFA_XSP16, literal(-20)))
        CFI V3 load(1, XDATA, add(CFA_XSP16, literal(-19)))
        CFI V4 load(1, XDATA, add(CFA_XSP16, literal(-18)))
        CFI V5 load(1, XDATA, add(CFA_XSP16, literal(-17)))
        CFI V6 load(1, XDATA, add(CFA_XSP16, literal(-16)))
        CFI V7 load(1, XDATA, add(CFA_XSP16, literal(-15)))
        CFI V8 load(1, XDATA, add(CFA_XSP16, literal(-14)))
        CFI V9 load(1, XDATA, add(CFA_XSP16, literal(-13)))
        CFI V10 load(1, XDATA, add(CFA_XSP16, literal(-12)))
        CFI V11 load(1, XDATA, add(CFA_XSP16, literal(-11)))
        CFI V12 load(1, XDATA, add(CFA_XSP16, literal(-10)))
        CFI V13 load(1, XDATA, add(CFA_XSP16, literal(-9)))
        CFI V14 load(1, XDATA, add(CFA_XSP16, literal(-8)))
        CFI V15 load(1, XDATA, add(CFA_XSP16, literal(-7)))
        CFI R7 load(1, XDATA, add(CFA_XSP16, literal(-6)))
        CFI ?RET_LOW load(1, XDATA, add(CFA_XSP16, literal(-5)))
        CFI ?RET_HIGH load(1, XDATA, add(CFA_XSP16, literal(-4)))
        CFI ?BRET_EXT load(1, XDATA, add(CFA_XSP16, literal(-3)))
        CFI DPL0 load(1, XDATA, add(CFA_XSP16, literal(-2)))
        CFI DPH0 load(1, XDATA, add(CFA_XSP16, literal(-1)))
        CFI CFA_SP SP+0
        CFI CFA_XSP16 add(XSP16, 25)
        CFI Block cfiCond230 Using cfiCommon0
        CFI (cfiCond230) NoFunction
        CFI (cfiCond230) Conditional ??CrossCallReturnLabel_106
        CFI (cfiCond230) R6 load(1, XDATA, add(CFA_XSP16, literal(-24)))
        CFI (cfiCond230) VB load(1, XDATA, add(CFA_XSP16, literal(-23)))
        CFI (cfiCond230) V0 load(1, XDATA, add(CFA_XSP16, literal(-22)))
        CFI (cfiCond230) V1 load(1, XDATA, add(CFA_XSP16, literal(-21)))
        CFI (cfiCond230) V2 load(1, XDATA, add(CFA_XSP16, literal(-20)))
        CFI (cfiCond230) V3 load(1, XDATA, add(CFA_XSP16, literal(-19)))
        CFI (cfiCond230) V4 load(1, XDATA, add(CFA_XSP16, literal(-18)))
        CFI (cfiCond230) V5 load(1, XDATA, add(CFA_XSP16, literal(-17)))
        CFI (cfiCond230) V6 load(1, XDATA, add(CFA_XSP16, literal(-16)))
        CFI (cfiCond230) V7 load(1, XDATA, add(CFA_XSP16, literal(-15)))
        CFI (cfiCond230) V8 load(1, XDATA, add(CFA_XSP16, literal(-14)))
        CFI (cfiCond230) V9 load(1, XDATA, add(CFA_XSP16, literal(-13)))
        CFI (cfiCond230) V10 load(1, XDATA, add(CFA_XSP16, literal(-12)))
        CFI (cfiCond230) V11 load(1, XDATA, add(CFA_XSP16, literal(-11)))
        CFI (cfiCond230) V12 load(1, XDATA, add(CFA_XSP16, literal(-10)))
        CFI (cfiCond230) V13 load(1, XDATA, add(CFA_XSP16, literal(-9)))
        CFI (cfiCond230) V14 load(1, XDATA, add(CFA_XSP16, literal(-8)))
        CFI (cfiCond230) V15 load(1, XDATA, add(CFA_XSP16, literal(-7)))
        CFI (cfiCond230) R7 load(1, XDATA, add(CFA_XSP16, literal(-6)))
        CFI (cfiCond230) ?RET_LOW load(1, XDATA, add(CFA_XSP16, literal(-5)))
        CFI (cfiCond230) ?RET_HIGH load(1, XDATA, add(CFA_XSP16, literal(-4)))
        CFI (cfiCond230) ?BRET_EXT load(1, XDATA, add(CFA_XSP16, literal(-3)))
        CFI (cfiCond230) DPL0 load(1, XDATA, add(CFA_XSP16, literal(-2)))
        CFI (cfiCond230) DPH0 load(1, XDATA, add(CFA_XSP16, literal(-1)))
        CFI (cfiCond230) CFA_SP SP+0
        CFI (cfiCond230) CFA_XSP16 add(XSP16, 25)
        CFI Block cfiCond231 Using cfiCommon0
        CFI (cfiCond231) NoFunction
        CFI (cfiCond231) Conditional ??CrossCallReturnLabel_107
        CFI (cfiCond231) R6 load(1, XDATA, add(CFA_XSP16, literal(-24)))
        CFI (cfiCond231) VB load(1, XDATA, add(CFA_XSP16, literal(-23)))
        CFI (cfiCond231) V0 load(1, XDATA, add(CFA_XSP16, literal(-22)))
        CFI (cfiCond231) V1 load(1, XDATA, add(CFA_XSP16, literal(-21)))
        CFI (cfiCond231) V2 load(1, XDATA, add(CFA_XSP16, literal(-20)))
        CFI (cfiCond231) V3 load(1, XDATA, add(CFA_XSP16, literal(-19)))
        CFI (cfiCond231) V4 load(1, XDATA, add(CFA_XSP16, literal(-18)))
        CFI (cfiCond231) V5 load(1, XDATA, add(CFA_XSP16, literal(-17)))
        CFI (cfiCond231) V6 load(1, XDATA, add(CFA_XSP16, literal(-16)))
        CFI (cfiCond231) V7 load(1, XDATA, add(CFA_XSP16, literal(-15)))
        CFI (cfiCond231) V8 load(1, XDATA, add(CFA_XSP16, literal(-14)))
        CFI (cfiCond231) V9 load(1, XDATA, add(CFA_XSP16, literal(-13)))
        CFI (cfiCond231) V10 load(1, XDATA, add(CFA_XSP16, literal(-12)))
        CFI (cfiCond231) V11 load(1, XDATA, add(CFA_XSP16, literal(-11)))
        CFI (cfiCond231) V12 load(1, XDATA, add(CFA_XSP16, literal(-10)))
        CFI (cfiCond231) V13 load(1, XDATA, add(CFA_XSP16, literal(-9)))
        CFI (cfiCond231) V14 load(1, XDATA, add(CFA_XSP16, literal(-8)))
        CFI (cfiCond231) V15 load(1, XDATA, add(CFA_XSP16, literal(-7)))
        CFI (cfiCond231) R7 load(1, XDATA, add(CFA_XSP16, literal(-6)))
        CFI (cfiCond231) ?RET_LOW load(1, XDATA, add(CFA_XSP16, literal(-5)))
        CFI (cfiCond231) ?RET_HIGH load(1, XDATA, add(CFA_XSP16, literal(-4)))
        CFI (cfiCond231) ?BRET_EXT load(1, XDATA, add(CFA_XSP16, literal(-3)))
        CFI (cfiCond231) DPL0 load(1, XDATA, add(CFA_XSP16, literal(-2)))
        CFI (cfiCond231) DPH0 load(1, XDATA, add(CFA_XSP16, literal(-1)))
        CFI (cfiCond231) CFA_SP SP+0
        CFI (cfiCond231) CFA_XSP16 add(XSP16, 25)
        CFI Block cfiCond232 Using cfiCommon0
        CFI (cfiCond232) NoFunction
        CFI (cfiCond232) Conditional ??CrossCallReturnLabel_108
        CFI (cfiCond232) R6 load(1, XDATA, add(CFA_XSP16, literal(-24)))
        CFI (cfiCond232) VB load(1, XDATA, add(CFA_XSP16, literal(-23)))
        CFI (cfiCond232) V0 load(1, XDATA, add(CFA_XSP16, literal(-22)))
        CFI (cfiCond232) V1 load(1, XDATA, add(CFA_XSP16, literal(-21)))
        CFI (cfiCond232) V2 load(1, XDATA, add(CFA_XSP16, literal(-20)))
        CFI (cfiCond232) V3 load(1, XDATA, add(CFA_XSP16, literal(-19)))
        CFI (cfiCond232) V4 load(1, XDATA, add(CFA_XSP16, literal(-18)))
        CFI (cfiCond232) V5 load(1, XDATA, add(CFA_XSP16, literal(-17)))
        CFI (cfiCond232) V6 load(1, XDATA, add(CFA_XSP16, literal(-16)))
        CFI (cfiCond232) V7 load(1, XDATA, add(CFA_XSP16, literal(-15)))
        CFI (cfiCond232) V8 load(1, XDATA, add(CFA_XSP16, literal(-14)))
        CFI (cfiCond232) V9 load(1, XDATA, add(CFA_XSP16, literal(-13)))
        CFI (cfiCond232) V10 load(1, XDATA, add(CFA_XSP16, literal(-12)))
        CFI (cfiCond232) V11 load(1, XDATA, add(CFA_XSP16, literal(-11)))
        CFI (cfiCond232) V12 load(1, XDATA, add(CFA_XSP16, literal(-10)))
        CFI (cfiCond232) V13 load(1, XDATA, add(CFA_XSP16, literal(-9)))
        CFI (cfiCond232) V14 load(1, XDATA, add(CFA_XSP16, literal(-8)))
        CFI (cfiCond232) V15 load(1, XDATA, add(CFA_XSP16, literal(-7)))
        CFI (cfiCond232) R7 load(1, XDATA, add(CFA_XSP16, literal(-6)))
        CFI (cfiCond232) ?RET_LOW load(1, XDATA, add(CFA_XSP16, literal(-5)))
        CFI (cfiCond232) ?RET_HIGH load(1, XDATA, add(CFA_XSP16, literal(-4)))
        CFI (cfiCond232) ?BRET_EXT load(1, XDATA, add(CFA_XSP16, literal(-3)))
        CFI (cfiCond232) DPL0 load(1, XDATA, add(CFA_XSP16, literal(-2)))
        CFI (cfiCond232) DPH0 load(1, XDATA, add(CFA_XSP16, literal(-1)))
        CFI (cfiCond232) CFA_SP SP+0
        CFI (cfiCond232) CFA_XSP16 add(XSP16, 25)
        CFI Block cfiPicker233 Using cfiCommon1
        CFI (cfiPicker233) NoFunction
        CFI (cfiPicker233) Picker
        MOV     DPL,A
        MOV     A,?V0 + 9
        ADDC    A,#0x0
        MOV     DPH,A
        CFI EndBlock cfiCond229
        CFI EndBlock cfiCond230
        CFI EndBlock cfiCond231
        CFI EndBlock cfiCond232
        CFI EndBlock cfiPicker233
        REQUIRE ??Subroutine55_0
        ; // Fall through to label ??Subroutine55_0

        RSEG BANKED_CODE:CODE:NOROOT(0)
??Subroutine55_0:
        CFI Block cfiCond234 Using cfiCommon0
        CFI NoFunction
        CFI Conditional ??CrossCallReturnLabel_109
        CFI R6 load(1, XDATA, add(CFA_XSP16, literal(-24)))
        CFI VB load(1, XDATA, add(CFA_XSP16, literal(-23)))
        CFI V0 load(1, XDATA, add(CFA_XSP16, literal(-22)))
        CFI V1 load(1, XDATA, add(CFA_XSP16, literal(-21)))
        CFI V2 load(1, XDATA, add(CFA_XSP16, literal(-20)))
        CFI V3 load(1, XDATA, add(CFA_XSP16, literal(-19)))
        CFI V4 load(1, XDATA, add(CFA_XSP16, literal(-18)))
        CFI V5 load(1, XDATA, add(CFA_XSP16, literal(-17)))
        CFI V6 load(1, XDATA, add(CFA_XSP16, literal(-16)))
        CFI V7 load(1, XDATA, add(CFA_XSP16, literal(-15)))
        CFI V8 load(1, XDATA, add(CFA_XSP16, literal(-14)))
        CFI V9 load(1, XDATA, add(CFA_XSP16, literal(-13)))
        CFI V10 load(1, XDATA, add(CFA_XSP16, literal(-12)))
        CFI V11 load(1, XDATA, add(CFA_XSP16, literal(-11)))
        CFI V12 load(1, XDATA, add(CFA_XSP16, literal(-10)))
        CFI V13 load(1, XDATA, add(CFA_XSP16, literal(-9)))
        CFI V14 load(1, XDATA, add(CFA_XSP16, literal(-8)))
        CFI V15 load(1, XDATA, add(CFA_XSP16, literal(-7)))
        CFI R7 load(1, XDATA, add(CFA_XSP16, literal(-6)))
        CFI ?RET_LOW load(1, XDATA, add(CFA_XSP16, literal(-5)))
        CFI ?RET_HIGH load(1, XDATA, add(CFA_XSP16, literal(-4)))
        CFI ?BRET_EXT load(1, XDATA, add(CFA_XSP16, literal(-3)))
        CFI DPL0 load(1, XDATA, add(CFA_XSP16, literal(-2)))
        CFI DPH0 load(1, XDATA, add(CFA_XSP16, literal(-1)))
        CFI CFA_SP SP+0
        CFI CFA_XSP16 add(XSP16, 25)
        CFI Block cfiCond235 Using cfiCommon0
        CFI (cfiCond235) NoFunction
        CFI (cfiCond235) Conditional ??CrossCallReturnLabel_105
        CFI (cfiCond235) R6 load(1, XDATA, add(CFA_XSP16, literal(-24)))
        CFI (cfiCond235) VB load(1, XDATA, add(CFA_XSP16, literal(-23)))
        CFI (cfiCond235) V0 load(1, XDATA, add(CFA_XSP16, literal(-22)))
        CFI (cfiCond235) V1 load(1, XDATA, add(CFA_XSP16, literal(-21)))
        CFI (cfiCond235) V2 load(1, XDATA, add(CFA_XSP16, literal(-20)))
        CFI (cfiCond235) V3 load(1, XDATA, add(CFA_XSP16, literal(-19)))
        CFI (cfiCond235) V4 load(1, XDATA, add(CFA_XSP16, literal(-18)))
        CFI (cfiCond235) V5 load(1, XDATA, add(CFA_XSP16, literal(-17)))
        CFI (cfiCond235) V6 load(1, XDATA, add(CFA_XSP16, literal(-16)))
        CFI (cfiCond235) V7 load(1, XDATA, add(CFA_XSP16, literal(-15)))
        CFI (cfiCond235) V8 load(1, XDATA, add(CFA_XSP16, literal(-14)))
        CFI (cfiCond235) V9 load(1, XDATA, add(CFA_XSP16, literal(-13)))
        CFI (cfiCond235) V10 load(1, XDATA, add(CFA_XSP16, literal(-12)))
        CFI (cfiCond235) V11 load(1, XDATA, add(CFA_XSP16, literal(-11)))
        CFI (cfiCond235) V12 load(1, XDATA, add(CFA_XSP16, literal(-10)))
        CFI (cfiCond235) V13 load(1, XDATA, add(CFA_XSP16, literal(-9)))
        CFI (cfiCond235) V14 load(1, XDATA, add(CFA_XSP16, literal(-8)))
        CFI (cfiCond235) V15 load(1, XDATA, add(CFA_XSP16, literal(-7)))
        CFI (cfiCond235) R7 load(1, XDATA, add(CFA_XSP16, literal(-6)))
        CFI (cfiCond235) ?RET_LOW load(1, XDATA, add(CFA_XSP16, literal(-5)))
        CFI (cfiCond235) ?RET_HIGH load(1, XDATA, add(CFA_XSP16, literal(-4)))
        CFI (cfiCond235) ?BRET_EXT load(1, XDATA, add(CFA_XSP16, literal(-3)))
        CFI (cfiCond235) DPL0 load(1, XDATA, add(CFA_XSP16, literal(-2)))
        CFI (cfiCond235) DPH0 load(1, XDATA, add(CFA_XSP16, literal(-1)))
        CFI (cfiCond235) CFA_SP SP+0
        CFI (cfiCond235) CFA_XSP16 add(XSP16, 25)
        CFI Block cfiCond236 Using cfiCommon0
        CFI (cfiCond236) NoFunction
        CFI (cfiCond236) Conditional ??CrossCallReturnLabel_106
        CFI (cfiCond236) R6 load(1, XDATA, add(CFA_XSP16, literal(-24)))
        CFI (cfiCond236) VB load(1, XDATA, add(CFA_XSP16, literal(-23)))
        CFI (cfiCond236) V0 load(1, XDATA, add(CFA_XSP16, literal(-22)))
        CFI (cfiCond236) V1 load(1, XDATA, add(CFA_XSP16, literal(-21)))
        CFI (cfiCond236) V2 load(1, XDATA, add(CFA_XSP16, literal(-20)))
        CFI (cfiCond236) V3 load(1, XDATA, add(CFA_XSP16, literal(-19)))
        CFI (cfiCond236) V4 load(1, XDATA, add(CFA_XSP16, literal(-18)))
        CFI (cfiCond236) V5 load(1, XDATA, add(CFA_XSP16, literal(-17)))
        CFI (cfiCond236) V6 load(1, XDATA, add(CFA_XSP16, literal(-16)))
        CFI (cfiCond236) V7 load(1, XDATA, add(CFA_XSP16, literal(-15)))
        CFI (cfiCond236) V8 load(1, XDATA, add(CFA_XSP16, literal(-14)))
        CFI (cfiCond236) V9 load(1, XDATA, add(CFA_XSP16, literal(-13)))
        CFI (cfiCond236) V10 load(1, XDATA, add(CFA_XSP16, literal(-12)))
        CFI (cfiCond236) V11 load(1, XDATA, add(CFA_XSP16, literal(-11)))
        CFI (cfiCond236) V12 load(1, XDATA, add(CFA_XSP16, literal(-10)))
        CFI (cfiCond236) V13 load(1, XDATA, add(CFA_XSP16, literal(-9)))
        CFI (cfiCond236) V14 load(1, XDATA, add(CFA_XSP16, literal(-8)))
        CFI (cfiCond236) V15 load(1, XDATA, add(CFA_XSP16, literal(-7)))
        CFI (cfiCond236) R7 load(1, XDATA, add(CFA_XSP16, literal(-6)))
        CFI (cfiCond236) ?RET_LOW load(1, XDATA, add(CFA_XSP16, literal(-5)))
        CFI (cfiCond236) ?RET_HIGH load(1, XDATA, add(CFA_XSP16, literal(-4)))
        CFI (cfiCond236) ?BRET_EXT load(1, XDATA, add(CFA_XSP16, literal(-3)))
        CFI (cfiCond236) DPL0 load(1, XDATA, add(CFA_XSP16, literal(-2)))
        CFI (cfiCond236) DPH0 load(1, XDATA, add(CFA_XSP16, literal(-1)))
        CFI (cfiCond236) CFA_SP SP+0
        CFI (cfiCond236) CFA_XSP16 add(XSP16, 25)
        CFI Block cfiCond237 Using cfiCommon0
        CFI (cfiCond237) NoFunction
        CFI (cfiCond237) Conditional ??CrossCallReturnLabel_107
        CFI (cfiCond237) R6 load(1, XDATA, add(CFA_XSP16, literal(-24)))
        CFI (cfiCond237) VB load(1, XDATA, add(CFA_XSP16, literal(-23)))
        CFI (cfiCond237) V0 load(1, XDATA, add(CFA_XSP16, literal(-22)))
        CFI (cfiCond237) V1 load(1, XDATA, add(CFA_XSP16, literal(-21)))
        CFI (cfiCond237) V2 load(1, XDATA, add(CFA_XSP16, literal(-20)))
        CFI (cfiCond237) V3 load(1, XDATA, add(CFA_XSP16, literal(-19)))
        CFI (cfiCond237) V4 load(1, XDATA, add(CFA_XSP16, literal(-18)))
        CFI (cfiCond237) V5 load(1, XDATA, add(CFA_XSP16, literal(-17)))
        CFI (cfiCond237) V6 load(1, XDATA, add(CFA_XSP16, literal(-16)))
        CFI (cfiCond237) V7 load(1, XDATA, add(CFA_XSP16, literal(-15)))
        CFI (cfiCond237) V8 load(1, XDATA, add(CFA_XSP16, literal(-14)))
        CFI (cfiCond237) V9 load(1, XDATA, add(CFA_XSP16, literal(-13)))
        CFI (cfiCond237) V10 load(1, XDATA, add(CFA_XSP16, literal(-12)))
        CFI (cfiCond237) V11 load(1, XDATA, add(CFA_XSP16, literal(-11)))
        CFI (cfiCond237) V12 load(1, XDATA, add(CFA_XSP16, literal(-10)))
        CFI (cfiCond237) V13 load(1, XDATA, add(CFA_XSP16, literal(-9)))
        CFI (cfiCond237) V14 load(1, XDATA, add(CFA_XSP16, literal(-8)))
        CFI (cfiCond237) V15 load(1, XDATA, add(CFA_XSP16, literal(-7)))
        CFI (cfiCond237) R7 load(1, XDATA, add(CFA_XSP16, literal(-6)))
        CFI (cfiCond237) ?RET_LOW load(1, XDATA, add(CFA_XSP16, literal(-5)))
        CFI (cfiCond237) ?RET_HIGH load(1, XDATA, add(CFA_XSP16, literal(-4)))
        CFI (cfiCond237) ?BRET_EXT load(1, XDATA, add(CFA_XSP16, literal(-3)))
        CFI (cfiCond237) DPL0 load(1, XDATA, add(CFA_XSP16, literal(-2)))
        CFI (cfiCond237) DPH0 load(1, XDATA, add(CFA_XSP16, literal(-1)))
        CFI (cfiCond237) CFA_SP SP+0
        CFI (cfiCond237) CFA_XSP16 add(XSP16, 25)
        CFI Block cfiCond238 Using cfiCommon0
        CFI (cfiCond238) NoFunction
        CFI (cfiCond238) Conditional ??CrossCallReturnLabel_108
        CFI (cfiCond238) R6 load(1, XDATA, add(CFA_XSP16, literal(-24)))
        CFI (cfiCond238) VB load(1, XDATA, add(CFA_XSP16, literal(-23)))
        CFI (cfiCond238) V0 load(1, XDATA, add(CFA_XSP16, literal(-22)))
        CFI (cfiCond238) V1 load(1, XDATA, add(CFA_XSP16, literal(-21)))
        CFI (cfiCond238) V2 load(1, XDATA, add(CFA_XSP16, literal(-20)))
        CFI (cfiCond238) V3 load(1, XDATA, add(CFA_XSP16, literal(-19)))
        CFI (cfiCond238) V4 load(1, XDATA, add(CFA_XSP16, literal(-18)))
        CFI (cfiCond238) V5 load(1, XDATA, add(CFA_XSP16, literal(-17)))
        CFI (cfiCond238) V6 load(1, XDATA, add(CFA_XSP16, literal(-16)))
        CFI (cfiCond238) V7 load(1, XDATA, add(CFA_XSP16, literal(-15)))
        CFI (cfiCond238) V8 load(1, XDATA, add(CFA_XSP16, literal(-14)))
        CFI (cfiCond238) V9 load(1, XDATA, add(CFA_XSP16, literal(-13)))
        CFI (cfiCond238) V10 load(1, XDATA, add(CFA_XSP16, literal(-12)))
        CFI (cfiCond238) V11 load(1, XDATA, add(CFA_XSP16, literal(-11)))
        CFI (cfiCond238) V12 load(1, XDATA, add(CFA_XSP16, literal(-10)))
        CFI (cfiCond238) V13 load(1, XDATA, add(CFA_XSP16, literal(-9)))
        CFI (cfiCond238) V14 load(1, XDATA, add(CFA_XSP16, literal(-8)))
        CFI (cfiCond238) V15 load(1, XDATA, add(CFA_XSP16, literal(-7)))
        CFI (cfiCond238) R7 load(1, XDATA, add(CFA_XSP16, literal(-6)))
        CFI (cfiCond238) ?RET_LOW load(1, XDATA, add(CFA_XSP16, literal(-5)))
        CFI (cfiCond238) ?RET_HIGH load(1, XDATA, add(CFA_XSP16, literal(-4)))
        CFI (cfiCond238) ?BRET_EXT load(1, XDATA, add(CFA_XSP16, literal(-3)))
        CFI (cfiCond238) DPL0 load(1, XDATA, add(CFA_XSP16, literal(-2)))
        CFI (cfiCond238) DPH0 load(1, XDATA, add(CFA_XSP16, literal(-1)))
        CFI (cfiCond238) CFA_SP SP+0
        CFI (cfiCond238) CFA_XSP16 add(XSP16, 25)
        CFI Block cfiPicker239 Using cfiCommon1
        CFI (cfiPicker239) NoFunction
        CFI (cfiPicker239) Picker
        LCALL   ?Subroutine33 & 0xFFFF
??CrossCallReturnLabel_111:
        MOV     A,?V0 + 8
        RET
        CFI EndBlock cfiCond234
        CFI EndBlock cfiCond235
        CFI EndBlock cfiCond236
        CFI EndBlock cfiCond237
        CFI EndBlock cfiCond238
        CFI EndBlock cfiPicker239
//  758 
//  759 /**************************************************************************************************
//  760  * @fn          MT_AfDataRetrieve
//  761  *
//  762  * @brief   Process AF Data Retrieve command to incrementally read out a very large
//  763  *          incoming AF message.
//  764  *
//  765  * input parameters
//  766  *
//  767  * @param pBuf - pointer to the received buffer
//  768  *
//  769  * output parameters
//  770  *
//  771  * @param rtrn - AF-Status of the operation.
//  772  *
//  773  * @return      None.
//  774  **************************************************************************************************
//  775  */

        RSEG BANKED_CODE:CODE:NOROOT(0)
//  776 void MT_AfDataRetrieve(uint8 *pBuf)
MT_AfDataRetrieve:
        CFI Block cfiBlock240 Using cfiCommon0
        CFI Function MT_AfDataRetrieve
        CODE
//  777 {
        FUNCALL MT_AfDataRetrieve, osal_mem_free
        LOCFRAME ISTACK, 0, STACK
        LOCFRAME PSTACK, 0, STACK
        LOCFRAME XSTACK, 20, STACK
        LOCFRAME IOVERLAY, 0, STATIC
        LOCFRAME DOVERLAY, 0, STATIC
        ARGFRAME ISTACK, 0, STACK
        ARGFRAME PSTACK, 0, STACK
        ARGFRAME XSTACK, 20, STACK
        ARGFRAME IOVERLAY, 0, STATIC
        ARGFRAME DOVERLAY, 0, STATIC
        FUNCALL MT_AfDataRetrieve, MT_BuildAndSendZToolResponse
        LOCFRAME ISTACK, 0, STACK
        LOCFRAME PSTACK, 0, STACK
        LOCFRAME XSTACK, 20, STACK
        LOCFRAME IOVERLAY, 0, STATIC
        LOCFRAME DOVERLAY, 0, STATIC
        ARGFRAME ISTACK, 0, STACK
        ARGFRAME PSTACK, 0, STACK
        ARGFRAME XSTACK, 20, STACK
        ARGFRAME IOVERLAY, 0, STATIC
        ARGFRAME DOVERLAY, 0, STATIC
        FUNCALL MT_AfDataRetrieve, osal_mem_alloc
        LOCFRAME ISTACK, 0, STACK
        LOCFRAME PSTACK, 0, STACK
        LOCFRAME XSTACK, 20, STACK
        LOCFRAME IOVERLAY, 0, STATIC
        LOCFRAME DOVERLAY, 0, STATIC
        ARGFRAME ISTACK, 0, STACK
        ARGFRAME PSTACK, 0, STACK
        ARGFRAME XSTACK, 20, STACK
        ARGFRAME IOVERLAY, 0, STATIC
        ARGFRAME DOVERLAY, 0, STATIC
        FUNCALL MT_AfDataRetrieve, osal_memcpy
        LOCFRAME ISTACK, 0, STACK
        LOCFRAME PSTACK, 0, STACK
        LOCFRAME XSTACK, 23, STACK
        LOCFRAME IOVERLAY, 0, STATIC
        LOCFRAME DOVERLAY, 0, STATIC
        ARGFRAME ISTACK, 0, STACK
        ARGFRAME PSTACK, 0, STACK
        ARGFRAME XSTACK, 23, STACK
        ARGFRAME IOVERLAY, 0, STATIC
        ARGFRAME DOVERLAY, 0, STATIC
        FUNCALL MT_AfDataRetrieve, MT_BuildAndSendZToolResponse
        LOCFRAME ISTACK, 0, STACK
        LOCFRAME PSTACK, 0, STACK
        LOCFRAME XSTACK, 20, STACK
        LOCFRAME IOVERLAY, 0, STATIC
        LOCFRAME DOVERLAY, 0, STATIC
        ARGFRAME ISTACK, 0, STACK
        ARGFRAME PSTACK, 0, STACK
        ARGFRAME XSTACK, 20, STACK
        ARGFRAME IOVERLAY, 0, STATIC
        ARGFRAME DOVERLAY, 0, STATIC
        FUNCALL MT_AfDataRetrieve, osal_mem_free
        LOCFRAME ISTACK, 0, STACK
        LOCFRAME PSTACK, 0, STACK
        LOCFRAME XSTACK, 20, STACK
        LOCFRAME IOVERLAY, 0, STATIC
        LOCFRAME DOVERLAY, 0, STATIC
        ARGFRAME ISTACK, 0, STACK
        ARGFRAME PSTACK, 0, STACK
        ARGFRAME XSTACK, 20, STACK
        ARGFRAME IOVERLAY, 0, STATIC
        ARGFRAME DOVERLAY, 0, STATIC
        MOV     A,#-0x14
        LCALL   ?BANKED_ENTER_XDATA
        CFI DPH0 load(1, XDATA, add(CFA_XSP16, literal(-1)))
        CFI DPL0 load(1, XDATA, add(CFA_XSP16, literal(-2)))
        CFI ?BRET_EXT load(1, XDATA, add(CFA_XSP16, literal(-3)))
        CFI ?RET_HIGH load(1, XDATA, add(CFA_XSP16, literal(-4)))
        CFI ?RET_LOW load(1, XDATA, add(CFA_XSP16, literal(-5)))
        CFI R7 load(1, XDATA, add(CFA_XSP16, literal(-6)))
        CFI V11 load(1, XDATA, add(CFA_XSP16, literal(-7)))
        CFI V10 load(1, XDATA, add(CFA_XSP16, literal(-8)))
        CFI V9 load(1, XDATA, add(CFA_XSP16, literal(-9)))
        CFI V8 load(1, XDATA, add(CFA_XSP16, literal(-10)))
        CFI V7 load(1, XDATA, add(CFA_XSP16, literal(-11)))
        CFI V6 load(1, XDATA, add(CFA_XSP16, literal(-12)))
        CFI V5 load(1, XDATA, add(CFA_XSP16, literal(-13)))
        CFI V4 load(1, XDATA, add(CFA_XSP16, literal(-14)))
        CFI V3 load(1, XDATA, add(CFA_XSP16, literal(-15)))
        CFI V2 load(1, XDATA, add(CFA_XSP16, literal(-16)))
        CFI V1 load(1, XDATA, add(CFA_XSP16, literal(-17)))
        CFI V0 load(1, XDATA, add(CFA_XSP16, literal(-18)))
        CFI VB load(1, XDATA, add(CFA_XSP16, literal(-19)))
        CFI R6 load(1, XDATA, add(CFA_XSP16, literal(-20)))
        CFI CFA_SP SP+0
        CFI CFA_XSP16 add(XSP16, 20)
        ; Saved register size: 20
        ; Auto size: 0
        MOV     A,R2
        MOV     R6,A
        MOV     A,R3
        MOV     R7,A
//  778   #define MT_AF_RTV_HDR_SZ  2
//  779 
//  780   uint32 timestamp;
//  781   mtAfInMsgList_t *pPrev, *pItem = pMtAfInMsgList;
        MOV     DPTR,#pMtAfInMsgList
        MOVX    A,@DPTR
        MOV     ?V0 + 6,A
        INC     DPTR
        MOVX    A,@DPTR
        MOV     ?V0 + 7,A
//  782   uint8 rtrn = afStatus_FAILED;
        MOV     R2,#0x1
//  783   uint8 len = 0;
        MOV     ?V0 + 4,#0x0
//  784 
//  785   pBuf += MT_RPC_FRAME_HDR_SZ;
        MOV     A,R6
        ADD     A,#0x3
        INC     R6
        LCALL   ??Subroutine49_0 & 0xFFFF
//  786   timestamp = BUILD_UINT32(pBuf[0], pBuf[1], pBuf[2], pBuf[3]);
??CrossCallReturnLabel_82:
        MOV     ?V0 + 0,A
        CLR     A
        MOV     ?V0 + 1,A
        MOV     ?V0 + 2,A
        MOV     ?V0 + 3,A
        INC     DPTR
        MOVX    A,@DPTR
        MOV     ?V0 + 8,A
        CLR     A
        MOV     ?V0 + 9,A
        MOV     ?V0 + 10,A
        MOV     ?V0 + 11,A
        MOV     A,#0x8
        MOV     R0,#?V0 + 8
        LCALL   ?L_SHL
        MOV     R0,#?V0 + 0
        MOV     R1,#?V0 + 8
        LCALL   ?L_ADD
        MOV     DPL,R6
        MOV     DPH,R7
        INC     DPTR
        INC     DPTR
        MOVX    A,@DPTR
        MOV     ?V0 + 8,A
        CLR     A
        MOV     ?V0 + 9,A
        MOV     A,#0x10
        MOV     R0,#?V0 + 8
        LCALL   ?L_SHL
        MOV     R0,#?V0 + 0
        MOV     R1,#?V0 + 8
        LCALL   ?L_ADD
        MOV     DPL,R6
        MOV     DPH,R7
        INC     DPTR
        INC     DPTR
        INC     DPTR
        MOVX    A,@DPTR
        MOV     ?V0 + 8,A
        CLR     A
        MOV     ?V0 + 10,A
        MOV     A,#0x18
        MOV     R0,#?V0 + 8
        LCALL   ?L_SHL
        MOV     R0,#?V0 + 0
        MOV     R1,#?V0 + 8
        LCALL   ?L_ADD
        SJMP    ??MT_AfDataRetrieve_0
//  787 
//  788   while (pItem != NULL)
//  789   {
//  790     pPrev = pItem;
//  791     if (pItem->timestamp == timestamp)
//  792     {
//  793       break;
//  794     }
//  795     pItem = pItem->next;
??MT_AfDataRetrieve_1:
        MOV     DPL,R4
        MOV     DPH,R5
        MOVX    A,@DPTR
        MOV     ?V0 + 6,A
        INC     DPTR
        MOVX    A,@DPTR
        MOV     ?V0 + 7,A
??MT_AfDataRetrieve_0:
        MOV     A,?V0 + 6
        ORL     A,?V0 + 7
        JZ      ??MT_AfDataRetrieve_2
        MOV     R4,?V0 + 6
        MOV     R5,?V0 + 7
        MOV     DPL,R4
        MOV     DPH,R5
        INC     DPTR
        INC     DPTR
        INC     DPTR
        INC     DPTR
        MOV     R0,#?V0 + 0
        LCALL   ?L_EQ_X
        JNZ     ??MT_AfDataRetrieve_1
//  796   }
//  797 
//  798   if (pItem != NULL)
//  799   {
//  800     uint16 idx;
//  801     uint8 *pRsp;
//  802 
//  803     pBuf += 4;
        MOV     A,R6
        ADD     A,#0x4
        MOV     R6,A
        MOV     A,R7
        ADDC    A,#0x0
        MOV     R7,A
//  804     idx = BUILD_UINT16(pBuf[0], pBuf[1]);
        LCALL   ?Subroutine9 & 0xFFFF
??CrossCallReturnLabel_85:
        MOV     ?V0 + 2,A
        CLR     A
        ADDC    A,R1
        MOV     ?V0 + 3,A
//  805     len = pBuf[2];
        MOV     DPL,R6
        MOV     DPH,R7
        INC     DPTR
        INC     DPTR
        MOVX    A,@DPTR
        MOV     ?V0 + 4,A
//  806 
//  807     if (len == 0)  // Indication to delete the afIncomingMSGPacket.
        JNZ     ??MT_AfDataRetrieve_3
//  808     {
//  809       if (pMtAfInMsgList == pItem)
        MOV     DPL,R4
        MOV     DPH,R5
        LCALL   ?Subroutine36 & 0xFFFF
??CrossCallReturnLabel_78:
        LCALL   ?Subroutine41 & 0xFFFF
??CrossCallReturnLabel_93:
        MOV     R3,A
        MOV     A,R4
        XRL     A,R2
        JNZ     ??MT_AfDataRetrieve_4
        MOV     A,R5
        XRL     A,R3
??MT_AfDataRetrieve_4:
        JNZ     ??MT_AfDataRetrieve_5
//  810       {
//  811         pMtAfInMsgList = pItem->next;
        MOV     DPTR,#pMtAfInMsgList
        SJMP    ??MT_AfDataRetrieve_6
//  812       }
//  813       else
//  814       {
//  815         pPrev->next = pItem->next;
??MT_AfDataRetrieve_5:
        MOV     DPL,R4
        MOV     DPH,R5
//  816       }
??MT_AfDataRetrieve_6:
        LCALL   ?Subroutine30 & 0xFFFF
//  817       (void)osal_mem_free(pItem);
??CrossCallReturnLabel_47:
        ; Setup parameters for call to function osal_mem_free
        MOV     R2,?V0 + 6
        MOV     R3,?V0 + 7
        LCALL   ??osal_mem_free?relay
//  818       rtrn = afStatus_SUCCESS;
        MOV     R2,#0x0
//  819     }
//  820     else if ((pRsp = osal_mem_alloc(len + MT_AF_RTV_HDR_SZ)) == NULL)
//  821     {
//  822       rtrn = afStatus_MEM_FAIL;
//  823       len = 0;
//  824     }
//  825     else
//  826     {
//  827       pRsp[0] = ZSuccess;
//  828       pRsp[1] = len;
//  829       (void)osal_memcpy(pRsp + MT_AF_RTV_HDR_SZ, pItem->data+idx, len);
//  830       MT_BuildAndSendZToolResponse(((uint8)MT_RPC_CMD_SRSP | (uint8)MT_RPC_SYS_AF),
//  831                                            MT_AF_DATA_RETRIEVE, len + MT_AF_RTV_HDR_SZ, pRsp);
//  832       (void)osal_mem_free(pRsp);
//  833       return;
//  834     }
//  835   }
//  836 
//  837   pBuf[0] = rtrn;
??MT_AfDataRetrieve_2:
        MOV     A,R2
        MOV     DPL,R6
        MOV     DPH,R7
        MOVX    @DPTR,A
//  838   pBuf[1] = len;
        INC     DPTR
        MOV     A,?V0 + 4
        MOVX    @DPTR,A
//  839   MT_BuildAndSendZToolResponse(((uint8)MT_RPC_CMD_SRSP | (uint8)MT_RPC_SYS_AF),
//  840                                        MT_AF_DATA_RETRIEVE, MT_AF_RTV_HDR_SZ, pBuf);
        ; Setup parameters for call to function MT_BuildAndSendZToolResponse
        MOV     A,R6
        MOV     R4,A
        MOV     A,R7
        MOV     R5,A
        MOV     R3,#0x2
        MOV     R2,#0x12
        MOV     R1,#0x64
        LCALL   ??MT_BuildAndSendZToolResponse?relay
//  841 }
??MT_AfDataRetrieve_7:
        MOV     R7,#0xc
        LJMP    ?BANKED_LEAVE_XDATA
??MT_AfDataRetrieve_3:
        ; Setup parameters for call to function osal_mem_alloc
        ADD     A,#0x2
        MOV     R2,A
        CLR     A
        LCALL   ??Subroutine45_0 & 0xFFFF
??CrossCallReturnLabel_61:
        MOV     ?V0 + 0,R2
        MOV     ?V0 + 1,R3
        MOV     A,R2
        ORL     A,?V0 + 1
        JNZ     ??MT_AfDataRetrieve_8
        MOV     R2,#0x10
        MOV     ?V0 + 4,#0x0
        SJMP    ??MT_AfDataRetrieve_2
??MT_AfDataRetrieve_8:
        MOV     DPL,R2
        MOV     DPH,R3
        CLR     A
        MOVX    @DPTR,A
        INC     DPTR
        MOV     A,?V0 + 4
        MOVX    @DPTR,A
        ; Setup parameters for call to function osal_memcpy
        MOV     DPL,?V0 + 6
        MOV     DPH,?V0 + 7
        INC     DPTR
        INC     DPTR
        MOVX    A,@DPTR
        ADD     A,?V0 + 2
        MOV     ?V0 + 8,A
        INC     DPTR
        MOVX    A,@DPTR
        ADDC    A,?V0 + 3
        MOV     ?V0 + 9,A
        MOV     R0,#?V0 + 8
        LCALL   ?PUSH_XSTACK_I_THREE
        CFI CFA_XSP16 add(XSP16, 23)
        MOV     ?V0 + 2,?V0 + 4
        MOV     R4,?V0 + 2
        MOV     R5,#0x0
        MOV     A,R2
        ADD     A,#0x2
        INC     R2
        INC     R2
        MOV     A,R3
        ADDC    A,#0x0
        LCALL   ?Subroutine31 & 0xFFFF
??CrossCallReturnLabel_114:
        LCALL   ?DEALLOC_XSTACK8
        CFI CFA_XSP16 add(XSP16, 20)
        ; Setup parameters for call to function MT_BuildAndSendZToolResponse
        MOV     R4,?V0 + 0
        MOV     R5,?V0 + 1
        MOV     A,#0x2
        ADD     A,?V0 + 4
        MOV     R3,A
        MOV     R2,#0x12
        MOV     R1,#0x64
        LCALL   ??MT_BuildAndSendZToolResponse?relay
        ; Setup parameters for call to function osal_mem_free
        MOV     R2,?V0 + 0
        MOV     R3,?V0 + 1
        LCALL   ??osal_mem_free?relay
        SJMP    ??MT_AfDataRetrieve_7
        CFI EndBlock cfiBlock240

        RSEG BANKED_CODE:CODE:NOROOT(0)
?Subroutine31:
        CFI Block cfiCond241 Using cfiCommon0
        CFI NoFunction
        CFI Conditional ??CrossCallReturnLabel_114
        CFI R6 load(1, XDATA, add(CFA_XSP16, literal(-20)))
        CFI VB load(1, XDATA, add(CFA_XSP16, literal(-19)))
        CFI V0 load(1, XDATA, add(CFA_XSP16, literal(-18)))
        CFI V1 load(1, XDATA, add(CFA_XSP16, literal(-17)))
        CFI V2 load(1, XDATA, add(CFA_XSP16, literal(-16)))
        CFI V3 load(1, XDATA, add(CFA_XSP16, literal(-15)))
        CFI V4 load(1, XDATA, add(CFA_XSP16, literal(-14)))
        CFI V5 load(1, XDATA, add(CFA_XSP16, literal(-13)))
        CFI V6 load(1, XDATA, add(CFA_XSP16, literal(-12)))
        CFI V7 load(1, XDATA, add(CFA_XSP16, literal(-11)))
        CFI V8 load(1, XDATA, add(CFA_XSP16, literal(-10)))
        CFI V9 load(1, XDATA, add(CFA_XSP16, literal(-9)))
        CFI V10 load(1, XDATA, add(CFA_XSP16, literal(-8)))
        CFI V11 load(1, XDATA, add(CFA_XSP16, literal(-7)))
        CFI R7 load(1, XDATA, add(CFA_XSP16, literal(-6)))
        CFI ?RET_LOW load(1, XDATA, add(CFA_XSP16, literal(-5)))
        CFI ?RET_HIGH load(1, XDATA, add(CFA_XSP16, literal(-4)))
        CFI ?BRET_EXT load(1, XDATA, add(CFA_XSP16, literal(-3)))
        CFI DPL0 load(1, XDATA, add(CFA_XSP16, literal(-2)))
        CFI DPH0 load(1, XDATA, add(CFA_XSP16, literal(-1)))
        CFI CFA_SP SP+0
        CFI CFA_XSP16 add(XSP16, 23)
        CFI Block cfiCond242 Using cfiCommon0
        CFI (cfiCond242) NoFunction
        CFI (cfiCond242) Conditional ??CrossCallReturnLabel_115
        CFI (cfiCond242) R6 load(1, XDATA, add(CFA_XSP16, literal(-14)))
        CFI (cfiCond242) VB load(1, XDATA, add(CFA_XSP16, literal(-13)))
        CFI (cfiCond242) V0 load(1, XDATA, add(CFA_XSP16, literal(-12)))
        CFI (cfiCond242) V1 load(1, XDATA, add(CFA_XSP16, literal(-11)))
        CFI (cfiCond242) V2 load(1, XDATA, add(CFA_XSP16, literal(-10)))
        CFI (cfiCond242) V3 load(1, XDATA, add(CFA_XSP16, literal(-9)))
        CFI (cfiCond242) V4 load(1, XDATA, add(CFA_XSP16, literal(-8)))
        CFI (cfiCond242) V5 load(1, XDATA, add(CFA_XSP16, literal(-7)))
        CFI (cfiCond242) R7 load(1, XDATA, add(CFA_XSP16, literal(-6)))
        CFI (cfiCond242) ?RET_LOW load(1, XDATA, add(CFA_XSP16, literal(-5)))
        CFI (cfiCond242) ?RET_HIGH load(1, XDATA, add(CFA_XSP16, literal(-4)))
        CFI (cfiCond242) ?BRET_EXT load(1, XDATA, add(CFA_XSP16, literal(-3)))
        CFI (cfiCond242) DPL0 load(1, XDATA, add(CFA_XSP16, literal(-2)))
        CFI (cfiCond242) DPH0 load(1, XDATA, add(CFA_XSP16, literal(-1)))
        CFI (cfiCond242) CFA_SP SP+0
        CFI (cfiCond242) CFA_XSP16 add(XSP16, 18)
        CFI Block cfiPicker243 Using cfiCommon1
        CFI (cfiPicker243) NoFunction
        CFI (cfiPicker243) Picker
        MOV     R3,A
        CFI EndBlock cfiCond241
        CFI EndBlock cfiCond242
        CFI EndBlock cfiPicker243
        REQUIRE ??Subroutine56_0
        ; // Fall through to label ??Subroutine56_0

        RSEG BANKED_CODE:CODE:NOROOT(0)
??Subroutine56_0:
        CFI Block cfiCond244 Using cfiCommon0
        CFI NoFunction
        CFI Conditional ??CrossCallReturnLabel_116
        CFI R6 load(1, XDATA, add(CFA_XSP16, literal(-22)))
        CFI VB load(1, XDATA, add(CFA_XSP16, literal(-21)))
        CFI V0 load(1, XDATA, add(CFA_XSP16, literal(-20)))
        CFI V1 load(1, XDATA, add(CFA_XSP16, literal(-19)))
        CFI V2 load(1, XDATA, add(CFA_XSP16, literal(-18)))
        CFI V3 load(1, XDATA, add(CFA_XSP16, literal(-17)))
        CFI V4 load(1, XDATA, add(CFA_XSP16, literal(-16)))
        CFI V5 load(1, XDATA, add(CFA_XSP16, literal(-15)))
        CFI V6 load(1, XDATA, add(CFA_XSP16, literal(-14)))
        CFI V7 load(1, XDATA, add(CFA_XSP16, literal(-13)))
        CFI V8 load(1, XDATA, add(CFA_XSP16, literal(-12)))
        CFI V9 load(1, XDATA, add(CFA_XSP16, literal(-11)))
        CFI V10 load(1, XDATA, add(CFA_XSP16, literal(-10)))
        CFI V11 load(1, XDATA, add(CFA_XSP16, literal(-9)))
        CFI V12 load(1, XDATA, add(CFA_XSP16, literal(-8)))
        CFI V13 load(1, XDATA, add(CFA_XSP16, literal(-7)))
        CFI R7 load(1, XDATA, add(CFA_XSP16, literal(-6)))
        CFI ?RET_LOW load(1, XDATA, add(CFA_XSP16, literal(-5)))
        CFI ?RET_HIGH load(1, XDATA, add(CFA_XSP16, literal(-4)))
        CFI ?BRET_EXT load(1, XDATA, add(CFA_XSP16, literal(-3)))
        CFI DPL0 load(1, XDATA, add(CFA_XSP16, literal(-2)))
        CFI DPH0 load(1, XDATA, add(CFA_XSP16, literal(-1)))
        CFI CFA_SP SP+0
        CFI CFA_XSP16 add(XSP16, 39)
        CFI Block cfiCond245 Using cfiCommon0
        CFI (cfiCond245) NoFunction
        CFI (cfiCond245) Conditional ??CrossCallReturnLabel_117
        CFI (cfiCond245) R6 load(1, XDATA, add(CFA_XSP16, literal(-22)))
        CFI (cfiCond245) VB load(1, XDATA, add(CFA_XSP16, literal(-21)))
        CFI (cfiCond245) V0 load(1, XDATA, add(CFA_XSP16, literal(-20)))
        CFI (cfiCond245) V1 load(1, XDATA, add(CFA_XSP16, literal(-19)))
        CFI (cfiCond245) V2 load(1, XDATA, add(CFA_XSP16, literal(-18)))
        CFI (cfiCond245) V3 load(1, XDATA, add(CFA_XSP16, literal(-17)))
        CFI (cfiCond245) V4 load(1, XDATA, add(CFA_XSP16, literal(-16)))
        CFI (cfiCond245) V5 load(1, XDATA, add(CFA_XSP16, literal(-15)))
        CFI (cfiCond245) V6 load(1, XDATA, add(CFA_XSP16, literal(-14)))
        CFI (cfiCond245) V7 load(1, XDATA, add(CFA_XSP16, literal(-13)))
        CFI (cfiCond245) V8 load(1, XDATA, add(CFA_XSP16, literal(-12)))
        CFI (cfiCond245) V9 load(1, XDATA, add(CFA_XSP16, literal(-11)))
        CFI (cfiCond245) V10 load(1, XDATA, add(CFA_XSP16, literal(-10)))
        CFI (cfiCond245) V11 load(1, XDATA, add(CFA_XSP16, literal(-9)))
        CFI (cfiCond245) V12 load(1, XDATA, add(CFA_XSP16, literal(-8)))
        CFI (cfiCond245) V13 load(1, XDATA, add(CFA_XSP16, literal(-7)))
        CFI (cfiCond245) R7 load(1, XDATA, add(CFA_XSP16, literal(-6)))
        CFI (cfiCond245) ?RET_LOW load(1, XDATA, add(CFA_XSP16, literal(-5)))
        CFI (cfiCond245) ?RET_HIGH load(1, XDATA, add(CFA_XSP16, literal(-4)))
        CFI (cfiCond245) ?BRET_EXT load(1, XDATA, add(CFA_XSP16, literal(-3)))
        CFI (cfiCond245) DPL0 load(1, XDATA, add(CFA_XSP16, literal(-2)))
        CFI (cfiCond245) DPH0 load(1, XDATA, add(CFA_XSP16, literal(-1)))
        CFI (cfiCond245) CFA_SP SP+0
        CFI (cfiCond245) CFA_XSP16 add(XSP16, 39)
        CFI Block cfiCond246 Using cfiCommon0
        CFI (cfiCond246) NoFunction
        CFI (cfiCond246) Conditional ??CrossCallReturnLabel_118
        CFI (cfiCond246) R6 load(1, XDATA, add(CFA_XSP16, literal(-24)))
        CFI (cfiCond246) VB load(1, XDATA, add(CFA_XSP16, literal(-23)))
        CFI (cfiCond246) V0 load(1, XDATA, add(CFA_XSP16, literal(-22)))
        CFI (cfiCond246) V1 load(1, XDATA, add(CFA_XSP16, literal(-21)))
        CFI (cfiCond246) V2 load(1, XDATA, add(CFA_XSP16, literal(-20)))
        CFI (cfiCond246) V3 load(1, XDATA, add(CFA_XSP16, literal(-19)))
        CFI (cfiCond246) V4 load(1, XDATA, add(CFA_XSP16, literal(-18)))
        CFI (cfiCond246) V5 load(1, XDATA, add(CFA_XSP16, literal(-17)))
        CFI (cfiCond246) V6 load(1, XDATA, add(CFA_XSP16, literal(-16)))
        CFI (cfiCond246) V7 load(1, XDATA, add(CFA_XSP16, literal(-15)))
        CFI (cfiCond246) V8 load(1, XDATA, add(CFA_XSP16, literal(-14)))
        CFI (cfiCond246) V9 load(1, XDATA, add(CFA_XSP16, literal(-13)))
        CFI (cfiCond246) V10 load(1, XDATA, add(CFA_XSP16, literal(-12)))
        CFI (cfiCond246) V11 load(1, XDATA, add(CFA_XSP16, literal(-11)))
        CFI (cfiCond246) V12 load(1, XDATA, add(CFA_XSP16, literal(-10)))
        CFI (cfiCond246) V13 load(1, XDATA, add(CFA_XSP16, literal(-9)))
        CFI (cfiCond246) V14 load(1, XDATA, add(CFA_XSP16, literal(-8)))
        CFI (cfiCond246) V15 load(1, XDATA, add(CFA_XSP16, literal(-7)))
        CFI (cfiCond246) R7 load(1, XDATA, add(CFA_XSP16, literal(-6)))
        CFI (cfiCond246) ?RET_LOW load(1, XDATA, add(CFA_XSP16, literal(-5)))
        CFI (cfiCond246) ?RET_HIGH load(1, XDATA, add(CFA_XSP16, literal(-4)))
        CFI (cfiCond246) ?BRET_EXT load(1, XDATA, add(CFA_XSP16, literal(-3)))
        CFI (cfiCond246) DPL0 load(1, XDATA, add(CFA_XSP16, literal(-2)))
        CFI (cfiCond246) DPH0 load(1, XDATA, add(CFA_XSP16, literal(-1)))
        CFI (cfiCond246) CFA_SP SP+0
        CFI (cfiCond246) CFA_XSP16 add(XSP16, 28)
        CFI Block cfiCond247 Using cfiCommon0
        CFI (cfiCond247) NoFunction
        CFI (cfiCond247) Conditional ??CrossCallReturnLabel_119
        CFI (cfiCond247) R6 load(1, XDATA, add(CFA_XSP16, literal(-24)))
        CFI (cfiCond247) VB load(1, XDATA, add(CFA_XSP16, literal(-23)))
        CFI (cfiCond247) V0 load(1, XDATA, add(CFA_XSP16, literal(-22)))
        CFI (cfiCond247) V1 load(1, XDATA, add(CFA_XSP16, literal(-21)))
        CFI (cfiCond247) V2 load(1, XDATA, add(CFA_XSP16, literal(-20)))
        CFI (cfiCond247) V3 load(1, XDATA, add(CFA_XSP16, literal(-19)))
        CFI (cfiCond247) V4 load(1, XDATA, add(CFA_XSP16, literal(-18)))
        CFI (cfiCond247) V5 load(1, XDATA, add(CFA_XSP16, literal(-17)))
        CFI (cfiCond247) V6 load(1, XDATA, add(CFA_XSP16, literal(-16)))
        CFI (cfiCond247) V7 load(1, XDATA, add(CFA_XSP16, literal(-15)))
        CFI (cfiCond247) V8 load(1, XDATA, add(CFA_XSP16, literal(-14)))
        CFI (cfiCond247) V9 load(1, XDATA, add(CFA_XSP16, literal(-13)))
        CFI (cfiCond247) V10 load(1, XDATA, add(CFA_XSP16, literal(-12)))
        CFI (cfiCond247) V11 load(1, XDATA, add(CFA_XSP16, literal(-11)))
        CFI (cfiCond247) V12 load(1, XDATA, add(CFA_XSP16, literal(-10)))
        CFI (cfiCond247) V13 load(1, XDATA, add(CFA_XSP16, literal(-9)))
        CFI (cfiCond247) V14 load(1, XDATA, add(CFA_XSP16, literal(-8)))
        CFI (cfiCond247) V15 load(1, XDATA, add(CFA_XSP16, literal(-7)))
        CFI (cfiCond247) R7 load(1, XDATA, add(CFA_XSP16, literal(-6)))
        CFI (cfiCond247) ?RET_LOW load(1, XDATA, add(CFA_XSP16, literal(-5)))
        CFI (cfiCond247) ?RET_HIGH load(1, XDATA, add(CFA_XSP16, literal(-4)))
        CFI (cfiCond247) ?BRET_EXT load(1, XDATA, add(CFA_XSP16, literal(-3)))
        CFI (cfiCond247) DPL0 load(1, XDATA, add(CFA_XSP16, literal(-2)))
        CFI (cfiCond247) DPH0 load(1, XDATA, add(CFA_XSP16, literal(-1)))
        CFI (cfiCond247) CFA_SP SP+0
        CFI (cfiCond247) CFA_XSP16 add(XSP16, 28)
        CFI Block cfiCond248 Using cfiCommon0
        CFI (cfiCond248) NoFunction
        CFI (cfiCond248) Conditional ??CrossCallReturnLabel_114
        CFI (cfiCond248) R6 load(1, XDATA, add(CFA_XSP16, literal(-20)))
        CFI (cfiCond248) VB load(1, XDATA, add(CFA_XSP16, literal(-19)))
        CFI (cfiCond248) V0 load(1, XDATA, add(CFA_XSP16, literal(-18)))
        CFI (cfiCond248) V1 load(1, XDATA, add(CFA_XSP16, literal(-17)))
        CFI (cfiCond248) V2 load(1, XDATA, add(CFA_XSP16, literal(-16)))
        CFI (cfiCond248) V3 load(1, XDATA, add(CFA_XSP16, literal(-15)))
        CFI (cfiCond248) V4 load(1, XDATA, add(CFA_XSP16, literal(-14)))
        CFI (cfiCond248) V5 load(1, XDATA, add(CFA_XSP16, literal(-13)))
        CFI (cfiCond248) V6 load(1, XDATA, add(CFA_XSP16, literal(-12)))
        CFI (cfiCond248) V7 load(1, XDATA, add(CFA_XSP16, literal(-11)))
        CFI (cfiCond248) V8 load(1, XDATA, add(CFA_XSP16, literal(-10)))
        CFI (cfiCond248) V9 load(1, XDATA, add(CFA_XSP16, literal(-9)))
        CFI (cfiCond248) V10 load(1, XDATA, add(CFA_XSP16, literal(-8)))
        CFI (cfiCond248) V11 load(1, XDATA, add(CFA_XSP16, literal(-7)))
        CFI (cfiCond248) R7 load(1, XDATA, add(CFA_XSP16, literal(-6)))
        CFI (cfiCond248) ?RET_LOW load(1, XDATA, add(CFA_XSP16, literal(-5)))
        CFI (cfiCond248) ?RET_HIGH load(1, XDATA, add(CFA_XSP16, literal(-4)))
        CFI (cfiCond248) ?BRET_EXT load(1, XDATA, add(CFA_XSP16, literal(-3)))
        CFI (cfiCond248) DPL0 load(1, XDATA, add(CFA_XSP16, literal(-2)))
        CFI (cfiCond248) DPH0 load(1, XDATA, add(CFA_XSP16, literal(-1)))
        CFI (cfiCond248) CFA_SP SP+0
        CFI (cfiCond248) CFA_XSP16 add(XSP16, 23)
        CFI Block cfiCond249 Using cfiCommon0
        CFI (cfiCond249) NoFunction
        CFI (cfiCond249) Conditional ??CrossCallReturnLabel_115
        CFI (cfiCond249) R6 load(1, XDATA, add(CFA_XSP16, literal(-14)))
        CFI (cfiCond249) VB load(1, XDATA, add(CFA_XSP16, literal(-13)))
        CFI (cfiCond249) V0 load(1, XDATA, add(CFA_XSP16, literal(-12)))
        CFI (cfiCond249) V1 load(1, XDATA, add(CFA_XSP16, literal(-11)))
        CFI (cfiCond249) V2 load(1, XDATA, add(CFA_XSP16, literal(-10)))
        CFI (cfiCond249) V3 load(1, XDATA, add(CFA_XSP16, literal(-9)))
        CFI (cfiCond249) V4 load(1, XDATA, add(CFA_XSP16, literal(-8)))
        CFI (cfiCond249) V5 load(1, XDATA, add(CFA_XSP16, literal(-7)))
        CFI (cfiCond249) R7 load(1, XDATA, add(CFA_XSP16, literal(-6)))
        CFI (cfiCond249) ?RET_LOW load(1, XDATA, add(CFA_XSP16, literal(-5)))
        CFI (cfiCond249) ?RET_HIGH load(1, XDATA, add(CFA_XSP16, literal(-4)))
        CFI (cfiCond249) ?BRET_EXT load(1, XDATA, add(CFA_XSP16, literal(-3)))
        CFI (cfiCond249) DPL0 load(1, XDATA, add(CFA_XSP16, literal(-2)))
        CFI (cfiCond249) DPH0 load(1, XDATA, add(CFA_XSP16, literal(-1)))
        CFI (cfiCond249) CFA_SP SP+0
        CFI (cfiCond249) CFA_XSP16 add(XSP16, 18)
        CFI Block cfiPicker250 Using cfiCommon1
        CFI (cfiPicker250) NoFunction
        CFI (cfiPicker250) Picker
        LCALL   ??osal_memcpy?relay
        MOV     A,#0x3
        RET
        CFI EndBlock cfiCond244
        CFI EndBlock cfiCond245
        CFI EndBlock cfiCond246
        CFI EndBlock cfiCond247
        CFI EndBlock cfiCond248
        CFI EndBlock cfiCond249
        CFI EndBlock cfiPicker250
//  842 
//  843 /**************************************************************************************************
//  844  * @fn          MT_AfDataStore
//  845  *
//  846  * @brief   Process AF Data Store command to incrementally store the data buffer for very large
//  847  *          outgoing AF message.
//  848  *
//  849  * input parameters
//  850  *
//  851  * @param pBuf - pointer to the received buffer
//  852  *
//  853  * output parameters
//  854  *
//  855  * @param rtrn - AF-Status of the operation.
//  856  *
//  857  * @return      None.
//  858  **************************************************************************************************
//  859  */

        RSEG BANKED_CODE:CODE:NOROOT(0)
//  860 void MT_AfDataStore(uint8 *pBuf)
MT_AfDataStore:
        CFI Block cfiBlock251 Using cfiCommon0
        CFI Function MT_AfDataStore
        CODE
//  861 {
        FUNCALL MT_AfDataStore, AF_DataRequest
        LOCFRAME ISTACK, 0, STACK
        LOCFRAME PSTACK, 0, STACK
        LOCFRAME XSTACK, 24, STACK
        LOCFRAME IOVERLAY, 0, STATIC
        LOCFRAME DOVERLAY, 0, STATIC
        ARGFRAME ISTACK, 0, STACK
        ARGFRAME PSTACK, 0, STACK
        ARGFRAME XSTACK, 24, STACK
        ARGFRAME IOVERLAY, 0, STATIC
        ARGFRAME DOVERLAY, 0, STATIC
        FUNCALL MT_AfDataStore, osal_mem_free
        LOCFRAME ISTACK, 0, STACK
        LOCFRAME PSTACK, 0, STACK
        LOCFRAME XSTACK, 15, STACK
        LOCFRAME IOVERLAY, 0, STATIC
        LOCFRAME DOVERLAY, 0, STATIC
        ARGFRAME ISTACK, 0, STACK
        ARGFRAME PSTACK, 0, STACK
        ARGFRAME XSTACK, 15, STACK
        ARGFRAME IOVERLAY, 0, STATIC
        ARGFRAME DOVERLAY, 0, STATIC
        FUNCALL MT_AfDataStore, osal_memcpy
        LOCFRAME ISTACK, 0, STACK
        LOCFRAME PSTACK, 0, STACK
        LOCFRAME XSTACK, 18, STACK
        LOCFRAME IOVERLAY, 0, STATIC
        LOCFRAME DOVERLAY, 0, STATIC
        ARGFRAME ISTACK, 0, STACK
        ARGFRAME PSTACK, 0, STACK
        ARGFRAME XSTACK, 18, STACK
        ARGFRAME IOVERLAY, 0, STATIC
        ARGFRAME DOVERLAY, 0, STATIC
        FUNCALL MT_AfDataStore, MT_BuildAndSendZToolResponse
        LOCFRAME ISTACK, 0, STACK
        LOCFRAME PSTACK, 0, STACK
        LOCFRAME XSTACK, 15, STACK
        LOCFRAME IOVERLAY, 0, STATIC
        LOCFRAME DOVERLAY, 0, STATIC
        ARGFRAME ISTACK, 0, STACK
        ARGFRAME PSTACK, 0, STACK
        ARGFRAME XSTACK, 15, STACK
        ARGFRAME IOVERLAY, 0, STATIC
        ARGFRAME DOVERLAY, 0, STATIC
        MOV     A,#-0xe
        LCALL   ?BANKED_ENTER_XDATA
        CFI DPH0 load(1, XDATA, add(CFA_XSP16, literal(-1)))
        CFI DPL0 load(1, XDATA, add(CFA_XSP16, literal(-2)))
        CFI ?BRET_EXT load(1, XDATA, add(CFA_XSP16, literal(-3)))
        CFI ?RET_HIGH load(1, XDATA, add(CFA_XSP16, literal(-4)))
        CFI ?RET_LOW load(1, XDATA, add(CFA_XSP16, literal(-5)))
        CFI R7 load(1, XDATA, add(CFA_XSP16, literal(-6)))
        CFI V5 load(1, XDATA, add(CFA_XSP16, literal(-7)))
        CFI V4 load(1, XDATA, add(CFA_XSP16, literal(-8)))
        CFI V3 load(1, XDATA, add(CFA_XSP16, literal(-9)))
        CFI V2 load(1, XDATA, add(CFA_XSP16, literal(-10)))
        CFI V1 load(1, XDATA, add(CFA_XSP16, literal(-11)))
        CFI V0 load(1, XDATA, add(CFA_XSP16, literal(-12)))
        CFI VB load(1, XDATA, add(CFA_XSP16, literal(-13)))
        CFI R6 load(1, XDATA, add(CFA_XSP16, literal(-14)))
        CFI CFA_SP SP+0
        CFI CFA_XSP16 add(XSP16, 14)
        ; Saved register size: 14
        ; Auto size: 1
        MOV     A,#-0x1
        LCALL   ?ALLOC_XSTACK8
        CFI CFA_XSP16 add(XSP16, 15)
//  862   uint16 idx;
//  863   uint8 len, rtrn = afStatus_FAILED;
        MOV     DPL,?XSP + 0
        MOV     DPH,?XSP + 1
        MOV     A,#0x1
        MOVX    @DPTR,A
//  864 
//  865   pBuf += MT_RPC_FRAME_HDR_SZ;
        MOV     A,R2
        ADD     A,#0x3
        INC     R2
        INC     R2
        INC     R2
        MOV     A,R3
        LCALL   ?Subroutine18 & 0xFFFF
//  866   idx = BUILD_UINT16(pBuf[0], pBuf[1]);
??CrossCallReturnLabel_15:
        MOV     R1,A
        MOV     A,R4
        ADD     A,#0x0
        MOV     R6,A
        CLR     A
        ADDC    A,R1
        MOV     R7,A
//  867   len = pBuf[2];
        MOV     DPL,R2
        MOV     DPH,R3
        INC     DPTR
        INC     DPTR
        MOVX    A,@DPTR
        MOV     R4,A
//  868   pBuf += 3;
        MOV     A,R2
        ADD     A,#0x3
        INC     R2
        INC     R2
        INC     R2
        MOV     A,R3
        ADDC    A,#0x0
        MOV     R3,A
//  869 
//  870   if (pMtAfDataReq == NULL)
        LCALL   ?Subroutine3 & 0xFFFF
??CrossCallReturnLabel_75:
        JNZ     ??MT_AfDataStore_0
//  871   {
//  872     rtrn = afStatus_MEM_FAIL;
        MOV     DPL,?XSP + 0
        MOV     DPH,?XSP + 1
        MOV     A,#0x10
        LJMP    ??MT_AfDataStore_1 & 0xFFFF
//  873   }
//  874   else if (len == 0)  // Indication to send the message.
??MT_AfDataStore_0:
        LCALL   ?Subroutine14 & 0xFFFF
??CrossCallReturnLabel_11:
        LCALL   ?Subroutine34 & 0xFFFF
??CrossCallReturnLabel_51:
        MOV     A,R4
        JNZ     ??MT_AfDataStore_2
//  875   {
//  876     rtrn = AF_DataRequest(&(pMtAfDataReq->dstAddr), pMtAfDataReq->epDesc, pMtAfDataReq->cId,
//  877                             pMtAfDataReq->dataLen,  pMtAfDataReq->data,
//  878                           &(pMtAfDataReq->transId), pMtAfDataReq->txOpts, pMtAfDataReq->radius);
        ; Setup parameters for call to function AF_DataRequest
        MOV     DPTR,#pMtAfDataReq
        MOVX    A,@DPTR
        ADD     A,#0x16
        LCALL   ??Subroutine44_0 & 0xFFFF
??CrossCallReturnLabel_55:
        MOV     ?V0 + 0,A
        MOV     R0,#?V0 + 0
        LCALL   ?PUSH_XSTACK_I_ONE
        CFI CFA_XSP16 add(XSP16, 16)
        MOV     DPTR,#pMtAfDataReq
        MOVX    A,@DPTR
        ADD     A,#0x14
        MOV     ?V0 + 0,A
        INC     DPTR
        MOVX    A,@DPTR
        ADDC    A,#0x0
        MOV     ?V0 + 1,A
        MOV     R0,#?V0 + 0
        LCALL   ?PUSH_XSTACK_I_TWO
        CFI CFA_XSP16 add(XSP16, 18)
        MOV     R0,#?V0 + 4
        LCALL   ?PUSH_XSTACK_I_TWO
        CFI CFA_XSP16 add(XSP16, 20)
        MOV     DPTR,#pMtAfDataReq
        MOVX    A,@DPTR
        ADD     A,#0x12
        LCALL   ??Subroutine57_0 & 0xFFFF
??CrossCallReturnLabel_126:
        LCALL   ?PUSH_XSTACK8_X_TWO
        CFI CFA_XSP16 add(XSP16, 22)
        LCALL   ?Subroutine5 & 0xFFFF
??CrossCallReturnLabel_128:
        LCALL   ?PUSH_XSTACK8_X_TWO
        CFI CFA_XSP16 add(XSP16, 24)
        MOV     DPTR,#pMtAfDataReq
        MOVX    A,@DPTR
        ADD     A,#0x15
        LCALL   ??Subroutine44_0 & 0xFFFF
??CrossCallReturnLabel_56:
        MOV     R1,A
        MOV     DPTR,#pMtAfDataReq
        MOVX    A,@DPTR
        ADD     A,#0xe
        MOV     R2,A
        INC     DPTR
        MOVX    A,@DPTR
        LCALL   ?Subroutine18 & 0xFFFF
??CrossCallReturnLabel_16:
        MOV     R5,A
        LCALL   ?Subroutine13 & 0xFFFF
??CrossCallReturnLabel_9:
        LCALL   ??AF_DataRequest?relay
        MOV     A,#0x9
        LCALL   ?DEALLOC_XSTACK8
        CFI CFA_XSP16 add(XSP16, 15)
        MOV     A,R1
        MOV     DPL,?XSP + 0
        MOV     DPH,?XSP + 1
        MOVX    @DPTR,A
//  879     (void)osal_mem_free(pMtAfDataReq);
        ; Setup parameters for call to function osal_mem_free
        LCALL   ?Subroutine8 & 0xFFFF
//  880     pMtAfDataReq = NULL;
//  881   }
??CrossCallReturnLabel_3:
        SJMP    ??MT_AfDataStore_1
//  882   else
//  883   {
//  884     (void)osal_memcpy(pMtAfDataReq->data+idx, pBuf, len);
??MT_AfDataStore_2:
        ; Setup parameters for call to function osal_memcpy
        MOV     ?V0 + 0,R2
        MOV     ?V0 + 1,R3
        MOV     ?V0 + 2,#0x0
        MOV     R0,#?V0 + 0
        LCALL   ?PUSH_XSTACK_I_THREE
        CFI CFA_XSP16 add(XSP16, 18)
        MOV     R5,#0x0
        MOV     A,?V0 + 4
        ADD     A,R6
        MOV     R2,A
        MOV     A,?V0 + 5
        ADDC    A,R7
        LCALL   ?Subroutine31 & 0xFFFF
??CrossCallReturnLabel_115:
        LCALL   ?DEALLOC_XSTACK8
        CFI CFA_XSP16 add(XSP16, 15)
//  885     rtrn = afStatus_SUCCESS;
        MOV     DPL,?XSP + 0
        MOV     DPH,?XSP + 1
        CLR     A
//  886   }
??MT_AfDataStore_1:
        LCALL   ?Subroutine23 & 0xFFFF
//  887 
//  888   MT_BuildAndSendZToolResponse(((uint8)MT_RPC_CMD_SRSP | (uint8)MT_RPC_SYS_AF),
//  889                                                                 MT_AF_DATA_STORE, 1, &rtrn);
??CrossCallReturnLabel_25:
        MOV     R3,#0x1
        MOV     R2,#0x11
        LJMP    ?Subroutine1 & 0xFFFF
        CFI EndBlock cfiBlock251
//  890 }

        RSEG BANKED_CODE:CODE:NOROOT(0)
?Subroutine23:
        CFI Block cfiCond252 Using cfiCommon0
        CFI NoFunction
        CFI Conditional ??CrossCallReturnLabel_24
        CFI DPL0 Frame(CFA_SP, 4)
        CFI DPH0 Frame(CFA_SP, 5)
        CFI CFA_SP SP+-5
        CFI CFA_XSP16 add(XSP16, 3)
        CFI Block cfiCond253 Using cfiCommon0
        CFI (cfiCond253) NoFunction
        CFI (cfiCond253) Conditional ??CrossCallReturnLabel_25
        CFI (cfiCond253) R6 load(1, XDATA, add(CFA_XSP16, literal(-14)))
        CFI (cfiCond253) VB load(1, XDATA, add(CFA_XSP16, literal(-13)))
        CFI (cfiCond253) V0 load(1, XDATA, add(CFA_XSP16, literal(-12)))
        CFI (cfiCond253) V1 load(1, XDATA, add(CFA_XSP16, literal(-11)))
        CFI (cfiCond253) V2 load(1, XDATA, add(CFA_XSP16, literal(-10)))
        CFI (cfiCond253) V3 load(1, XDATA, add(CFA_XSP16, literal(-9)))
        CFI (cfiCond253) V4 load(1, XDATA, add(CFA_XSP16, literal(-8)))
        CFI (cfiCond253) V5 load(1, XDATA, add(CFA_XSP16, literal(-7)))
        CFI (cfiCond253) R7 load(1, XDATA, add(CFA_XSP16, literal(-6)))
        CFI (cfiCond253) ?RET_LOW load(1, XDATA, add(CFA_XSP16, literal(-5)))
        CFI (cfiCond253) ?RET_HIGH load(1, XDATA, add(CFA_XSP16, literal(-4)))
        CFI (cfiCond253) ?BRET_EXT load(1, XDATA, add(CFA_XSP16, literal(-3)))
        CFI (cfiCond253) DPL0 load(1, XDATA, add(CFA_XSP16, literal(-2)))
        CFI (cfiCond253) DPH0 load(1, XDATA, add(CFA_XSP16, literal(-1)))
        CFI (cfiCond253) CFA_SP SP+0
        CFI (cfiCond253) CFA_XSP16 add(XSP16, 15)
        CFI Block cfiPicker254 Using cfiCommon1
        CFI (cfiPicker254) NoFunction
        CFI (cfiPicker254) Picker
        MOVX    @DPTR,A
        ; Setup parameters for call to function MT_BuildAndSendZToolResponse
        ; Setup parameters for call to function MT_BuildAndSendZToolResponse
        MOV     DPL,?XSP + 0
        MOV     DPH,?XSP + 1
        MOV     R4,DPL
        MOV     R5,DPH
        RET
        CFI EndBlock cfiCond252
        CFI EndBlock cfiCond253
        CFI EndBlock cfiPicker254

        RSEG BANKED_CODE:CODE:NOROOT(0)
?Subroutine18:
        CFI Block cfiCond255 Using cfiCommon0
        CFI NoFunction
        CFI Conditional ??CrossCallReturnLabel_15
        CFI R6 load(1, XDATA, add(CFA_XSP16, literal(-14)))
        CFI VB load(1, XDATA, add(CFA_XSP16, literal(-13)))
        CFI V0 load(1, XDATA, add(CFA_XSP16, literal(-12)))
        CFI V1 load(1, XDATA, add(CFA_XSP16, literal(-11)))
        CFI V2 load(1, XDATA, add(CFA_XSP16, literal(-10)))
        CFI V3 load(1, XDATA, add(CFA_XSP16, literal(-9)))
        CFI V4 load(1, XDATA, add(CFA_XSP16, literal(-8)))
        CFI V5 load(1, XDATA, add(CFA_XSP16, literal(-7)))
        CFI R7 load(1, XDATA, add(CFA_XSP16, literal(-6)))
        CFI ?RET_LOW load(1, XDATA, add(CFA_XSP16, literal(-5)))
        CFI ?RET_HIGH load(1, XDATA, add(CFA_XSP16, literal(-4)))
        CFI ?BRET_EXT load(1, XDATA, add(CFA_XSP16, literal(-3)))
        CFI DPL0 load(1, XDATA, add(CFA_XSP16, literal(-2)))
        CFI DPH0 load(1, XDATA, add(CFA_XSP16, literal(-1)))
        CFI CFA_SP SP+0
        CFI CFA_XSP16 add(XSP16, 15)
        CFI Block cfiCond256 Using cfiCommon0
        CFI (cfiCond256) NoFunction
        CFI (cfiCond256) Conditional ??CrossCallReturnLabel_16
        CFI (cfiCond256) R6 load(1, XDATA, add(CFA_XSP16, literal(-14)))
        CFI (cfiCond256) VB load(1, XDATA, add(CFA_XSP16, literal(-13)))
        CFI (cfiCond256) V0 load(1, XDATA, add(CFA_XSP16, literal(-12)))
        CFI (cfiCond256) V1 load(1, XDATA, add(CFA_XSP16, literal(-11)))
        CFI (cfiCond256) V2 load(1, XDATA, add(CFA_XSP16, literal(-10)))
        CFI (cfiCond256) V3 load(1, XDATA, add(CFA_XSP16, literal(-9)))
        CFI (cfiCond256) V4 load(1, XDATA, add(CFA_XSP16, literal(-8)))
        CFI (cfiCond256) V5 load(1, XDATA, add(CFA_XSP16, literal(-7)))
        CFI (cfiCond256) R7 load(1, XDATA, add(CFA_XSP16, literal(-6)))
        CFI (cfiCond256) ?RET_LOW load(1, XDATA, add(CFA_XSP16, literal(-5)))
        CFI (cfiCond256) ?RET_HIGH load(1, XDATA, add(CFA_XSP16, literal(-4)))
        CFI (cfiCond256) ?BRET_EXT load(1, XDATA, add(CFA_XSP16, literal(-3)))
        CFI (cfiCond256) DPL0 load(1, XDATA, add(CFA_XSP16, literal(-2)))
        CFI (cfiCond256) DPH0 load(1, XDATA, add(CFA_XSP16, literal(-1)))
        CFI (cfiCond256) CFA_SP SP+0
        CFI (cfiCond256) CFA_XSP16 add(XSP16, 24)
        CFI Block cfiPicker257 Using cfiCommon1
        CFI (cfiPicker257) NoFunction
        CFI (cfiPicker257) Picker
        ADDC    A,#0x0
        MOV     R3,A
        MOV     DPL,R2
        MOV     DPH,R3
        MOVX    A,@DPTR
        MOV     R4,A
        INC     DPTR
        MOVX    A,@DPTR
        RET
        CFI EndBlock cfiCond255
        CFI EndBlock cfiCond256
        CFI EndBlock cfiPicker257

        RSEG BANKED_CODE:CODE:NOROOT(0)
?Subroutine14:
        CFI Block cfiCond258 Using cfiCommon0
        CFI NoFunction
        CFI Conditional ??CrossCallReturnLabel_10
        CFI R6 load(1, XDATA, add(CFA_XSP16, literal(-22)))
        CFI VB load(1, XDATA, add(CFA_XSP16, literal(-21)))
        CFI V0 load(1, XDATA, add(CFA_XSP16, literal(-20)))
        CFI V1 load(1, XDATA, add(CFA_XSP16, literal(-19)))
        CFI V2 load(1, XDATA, add(CFA_XSP16, literal(-18)))
        CFI V3 load(1, XDATA, add(CFA_XSP16, literal(-17)))
        CFI V4 load(1, XDATA, add(CFA_XSP16, literal(-16)))
        CFI V5 load(1, XDATA, add(CFA_XSP16, literal(-15)))
        CFI V6 load(1, XDATA, add(CFA_XSP16, literal(-14)))
        CFI V7 load(1, XDATA, add(CFA_XSP16, literal(-13)))
        CFI V8 load(1, XDATA, add(CFA_XSP16, literal(-12)))
        CFI V9 load(1, XDATA, add(CFA_XSP16, literal(-11)))
        CFI V10 load(1, XDATA, add(CFA_XSP16, literal(-10)))
        CFI V11 load(1, XDATA, add(CFA_XSP16, literal(-9)))
        CFI V12 load(1, XDATA, add(CFA_XSP16, literal(-8)))
        CFI V13 load(1, XDATA, add(CFA_XSP16, literal(-7)))
        CFI R7 load(1, XDATA, add(CFA_XSP16, literal(-6)))
        CFI ?RET_LOW load(1, XDATA, add(CFA_XSP16, literal(-5)))
        CFI ?RET_HIGH load(1, XDATA, add(CFA_XSP16, literal(-4)))
        CFI ?BRET_EXT load(1, XDATA, add(CFA_XSP16, literal(-3)))
        CFI DPL0 load(1, XDATA, add(CFA_XSP16, literal(-2)))
        CFI DPH0 load(1, XDATA, add(CFA_XSP16, literal(-1)))
        CFI CFA_SP SP+0
        CFI CFA_XSP16 add(XSP16, 36)
        CFI Block cfiCond259 Using cfiCommon0
        CFI (cfiCond259) NoFunction
        CFI (cfiCond259) Conditional ??CrossCallReturnLabel_11
        CFI (cfiCond259) R6 load(1, XDATA, add(CFA_XSP16, literal(-14)))
        CFI (cfiCond259) VB load(1, XDATA, add(CFA_XSP16, literal(-13)))
        CFI (cfiCond259) V0 load(1, XDATA, add(CFA_XSP16, literal(-12)))
        CFI (cfiCond259) V1 load(1, XDATA, add(CFA_XSP16, literal(-11)))
        CFI (cfiCond259) V2 load(1, XDATA, add(CFA_XSP16, literal(-10)))
        CFI (cfiCond259) V3 load(1, XDATA, add(CFA_XSP16, literal(-9)))
        CFI (cfiCond259) V4 load(1, XDATA, add(CFA_XSP16, literal(-8)))
        CFI (cfiCond259) V5 load(1, XDATA, add(CFA_XSP16, literal(-7)))
        CFI (cfiCond259) R7 load(1, XDATA, add(CFA_XSP16, literal(-6)))
        CFI (cfiCond259) ?RET_LOW load(1, XDATA, add(CFA_XSP16, literal(-5)))
        CFI (cfiCond259) ?RET_HIGH load(1, XDATA, add(CFA_XSP16, literal(-4)))
        CFI (cfiCond259) ?BRET_EXT load(1, XDATA, add(CFA_XSP16, literal(-3)))
        CFI (cfiCond259) DPL0 load(1, XDATA, add(CFA_XSP16, literal(-2)))
        CFI (cfiCond259) DPH0 load(1, XDATA, add(CFA_XSP16, literal(-1)))
        CFI (cfiCond259) CFA_SP SP+0
        CFI (cfiCond259) CFA_XSP16 add(XSP16, 15)
        CFI Block cfiPicker260 Using cfiCommon1
        CFI (cfiPicker260) NoFunction
        CFI (cfiPicker260) Picker
        MOV     DPTR,#pMtAfDataReq
        MOVX    A,@DPTR
        MOV     R0,A
        INC     DPTR
        MOVX    A,@DPTR
        MOV     DPH,A
        MOV     DPL,R0
        RET
        CFI EndBlock cfiCond258
        CFI EndBlock cfiCond259
        CFI EndBlock cfiPicker260

        RSEG BANKED_CODE:CODE:NOROOT(0)
?Subroutine13:
        CFI Block cfiCond261 Using cfiCommon0
        CFI NoFunction
        CFI Conditional ??CrossCallReturnLabel_8
        CFI R6 load(1, XDATA, add(CFA_XSP16, literal(-22)))
        CFI VB load(1, XDATA, add(CFA_XSP16, literal(-21)))
        CFI V0 load(1, XDATA, add(CFA_XSP16, literal(-20)))
        CFI V1 load(1, XDATA, add(CFA_XSP16, literal(-19)))
        CFI V2 load(1, XDATA, add(CFA_XSP16, literal(-18)))
        CFI V3 load(1, XDATA, add(CFA_XSP16, literal(-17)))
        CFI V4 load(1, XDATA, add(CFA_XSP16, literal(-16)))
        CFI V5 load(1, XDATA, add(CFA_XSP16, literal(-15)))
        CFI V6 load(1, XDATA, add(CFA_XSP16, literal(-14)))
        CFI V7 load(1, XDATA, add(CFA_XSP16, literal(-13)))
        CFI V8 load(1, XDATA, add(CFA_XSP16, literal(-12)))
        CFI V9 load(1, XDATA, add(CFA_XSP16, literal(-11)))
        CFI V10 load(1, XDATA, add(CFA_XSP16, literal(-10)))
        CFI V11 load(1, XDATA, add(CFA_XSP16, literal(-9)))
        CFI V12 load(1, XDATA, add(CFA_XSP16, literal(-8)))
        CFI V13 load(1, XDATA, add(CFA_XSP16, literal(-7)))
        CFI R7 load(1, XDATA, add(CFA_XSP16, literal(-6)))
        CFI ?RET_LOW load(1, XDATA, add(CFA_XSP16, literal(-5)))
        CFI ?RET_HIGH load(1, XDATA, add(CFA_XSP16, literal(-4)))
        CFI ?BRET_EXT load(1, XDATA, add(CFA_XSP16, literal(-3)))
        CFI DPL0 load(1, XDATA, add(CFA_XSP16, literal(-2)))
        CFI DPH0 load(1, XDATA, add(CFA_XSP16, literal(-1)))
        CFI CFA_SP SP+0
        CFI CFA_XSP16 add(XSP16, 39)
        CFI Block cfiCond262 Using cfiCommon0
        CFI (cfiCond262) NoFunction
        CFI (cfiCond262) Conditional ??CrossCallReturnLabel_9
        CFI (cfiCond262) R6 load(1, XDATA, add(CFA_XSP16, literal(-14)))
        CFI (cfiCond262) VB load(1, XDATA, add(CFA_XSP16, literal(-13)))
        CFI (cfiCond262) V0 load(1, XDATA, add(CFA_XSP16, literal(-12)))
        CFI (cfiCond262) V1 load(1, XDATA, add(CFA_XSP16, literal(-11)))
        CFI (cfiCond262) V2 load(1, XDATA, add(CFA_XSP16, literal(-10)))
        CFI (cfiCond262) V3 load(1, XDATA, add(CFA_XSP16, literal(-9)))
        CFI (cfiCond262) V4 load(1, XDATA, add(CFA_XSP16, literal(-8)))
        CFI (cfiCond262) V5 load(1, XDATA, add(CFA_XSP16, literal(-7)))
        CFI (cfiCond262) R7 load(1, XDATA, add(CFA_XSP16, literal(-6)))
        CFI (cfiCond262) ?RET_LOW load(1, XDATA, add(CFA_XSP16, literal(-5)))
        CFI (cfiCond262) ?RET_HIGH load(1, XDATA, add(CFA_XSP16, literal(-4)))
        CFI (cfiCond262) ?BRET_EXT load(1, XDATA, add(CFA_XSP16, literal(-3)))
        CFI (cfiCond262) DPL0 load(1, XDATA, add(CFA_XSP16, literal(-2)))
        CFI (cfiCond262) DPH0 load(1, XDATA, add(CFA_XSP16, literal(-1)))
        CFI (cfiCond262) CFA_SP SP+0
        CFI (cfiCond262) CFA_XSP16 add(XSP16, 24)
        CFI Block cfiPicker263 Using cfiCommon1
        CFI (cfiPicker263) NoFunction
        CFI (cfiPicker263) Picker
        MOV     DPTR,#pMtAfDataReq
        MOVX    A,@DPTR
        ADD     A,#0x2
        MOV     R2,A
        INC     DPTR
        MOVX    A,@DPTR
        ADDC    A,#0x0
        MOV     R3,A
        RET
        CFI EndBlock cfiCond261
        CFI EndBlock cfiCond262
        CFI EndBlock cfiPicker263

        RSEG BANKED_CODE:CODE:NOROOT(0)
?Subroutine8:
        CFI Block cfiCond264 Using cfiCommon0
        CFI NoFunction
        CFI Conditional ??CrossCallReturnLabel_2
        CFI R6 load(1, XDATA, add(CFA_XSP16, literal(-9)))
        CFI VB load(1, XDATA, add(CFA_XSP16, literal(-8)))
        CFI V0 load(1, XDATA, add(CFA_XSP16, literal(-7)))
        CFI R7 load(1, XDATA, add(CFA_XSP16, literal(-6)))
        CFI ?RET_LOW load(1, XDATA, add(CFA_XSP16, literal(-5)))
        CFI ?RET_HIGH load(1, XDATA, add(CFA_XSP16, literal(-4)))
        CFI ?BRET_EXT load(1, XDATA, add(CFA_XSP16, literal(-3)))
        CFI DPL0 load(1, XDATA, add(CFA_XSP16, literal(-2)))
        CFI DPH0 load(1, XDATA, add(CFA_XSP16, literal(-1)))
        CFI CFA_SP SP+0
        CFI CFA_XSP16 add(XSP16, 9)
        CFI Block cfiCond265 Using cfiCommon0
        CFI (cfiCond265) NoFunction
        CFI (cfiCond265) Conditional ??CrossCallReturnLabel_3
        CFI (cfiCond265) R6 load(1, XDATA, add(CFA_XSP16, literal(-14)))
        CFI (cfiCond265) VB load(1, XDATA, add(CFA_XSP16, literal(-13)))
        CFI (cfiCond265) V0 load(1, XDATA, add(CFA_XSP16, literal(-12)))
        CFI (cfiCond265) V1 load(1, XDATA, add(CFA_XSP16, literal(-11)))
        CFI (cfiCond265) V2 load(1, XDATA, add(CFA_XSP16, literal(-10)))
        CFI (cfiCond265) V3 load(1, XDATA, add(CFA_XSP16, literal(-9)))
        CFI (cfiCond265) V4 load(1, XDATA, add(CFA_XSP16, literal(-8)))
        CFI (cfiCond265) V5 load(1, XDATA, add(CFA_XSP16, literal(-7)))
        CFI (cfiCond265) R7 load(1, XDATA, add(CFA_XSP16, literal(-6)))
        CFI (cfiCond265) ?RET_LOW load(1, XDATA, add(CFA_XSP16, literal(-5)))
        CFI (cfiCond265) ?RET_HIGH load(1, XDATA, add(CFA_XSP16, literal(-4)))
        CFI (cfiCond265) ?BRET_EXT load(1, XDATA, add(CFA_XSP16, literal(-3)))
        CFI (cfiCond265) DPL0 load(1, XDATA, add(CFA_XSP16, literal(-2)))
        CFI (cfiCond265) DPH0 load(1, XDATA, add(CFA_XSP16, literal(-1)))
        CFI (cfiCond265) CFA_SP SP+0
        CFI (cfiCond265) CFA_XSP16 add(XSP16, 15)
        CFI Block cfiPicker266 Using cfiCommon1
        CFI (cfiPicker266) NoFunction
        CFI (cfiPicker266) Picker
        MOV     DPTR,#pMtAfDataReq
        LCALL   ??Subroutine52_0 & 0xFFFF
??CrossCallReturnLabel_91:
        MOV     R3,A
        LCALL   ??osal_mem_free?relay
        MOV     DPTR,#pMtAfDataReq
        CLR     A
        MOVX    @DPTR,A
        INC     DPTR
        RET
        CFI EndBlock cfiCond264
        CFI EndBlock cfiCond265
        CFI EndBlock cfiPicker266

        RSEG BANKED_CODE:CODE:NOROOT(0)
?Subroutine5:
        CFI Block cfiCond267 Using cfiCommon0
        CFI NoFunction
        CFI Conditional ??CrossCallReturnLabel_127
        CFI R6 load(1, XDATA, add(CFA_XSP16, literal(-22)))
        CFI VB load(1, XDATA, add(CFA_XSP16, literal(-21)))
        CFI V0 load(1, XDATA, add(CFA_XSP16, literal(-20)))
        CFI V1 load(1, XDATA, add(CFA_XSP16, literal(-19)))
        CFI V2 load(1, XDATA, add(CFA_XSP16, literal(-18)))
        CFI V3 load(1, XDATA, add(CFA_XSP16, literal(-17)))
        CFI V4 load(1, XDATA, add(CFA_XSP16, literal(-16)))
        CFI V5 load(1, XDATA, add(CFA_XSP16, literal(-15)))
        CFI V6 load(1, XDATA, add(CFA_XSP16, literal(-14)))
        CFI V7 load(1, XDATA, add(CFA_XSP16, literal(-13)))
        CFI V8 load(1, XDATA, add(CFA_XSP16, literal(-12)))
        CFI V9 load(1, XDATA, add(CFA_XSP16, literal(-11)))
        CFI V10 load(1, XDATA, add(CFA_XSP16, literal(-10)))
        CFI V11 load(1, XDATA, add(CFA_XSP16, literal(-9)))
        CFI V12 load(1, XDATA, add(CFA_XSP16, literal(-8)))
        CFI V13 load(1, XDATA, add(CFA_XSP16, literal(-7)))
        CFI R7 load(1, XDATA, add(CFA_XSP16, literal(-6)))
        CFI ?RET_LOW load(1, XDATA, add(CFA_XSP16, literal(-5)))
        CFI ?RET_HIGH load(1, XDATA, add(CFA_XSP16, literal(-4)))
        CFI ?BRET_EXT load(1, XDATA, add(CFA_XSP16, literal(-3)))
        CFI DPL0 load(1, XDATA, add(CFA_XSP16, literal(-2)))
        CFI DPH0 load(1, XDATA, add(CFA_XSP16, literal(-1)))
        CFI CFA_SP SP+0
        CFI CFA_XSP16 add(XSP16, 36)
        CFI Block cfiCond268 Using cfiCommon0
        CFI (cfiCond268) NoFunction
        CFI (cfiCond268) Conditional ??CrossCallReturnLabel_128
        CFI (cfiCond268) R6 load(1, XDATA, add(CFA_XSP16, literal(-14)))
        CFI (cfiCond268) VB load(1, XDATA, add(CFA_XSP16, literal(-13)))
        CFI (cfiCond268) V0 load(1, XDATA, add(CFA_XSP16, literal(-12)))
        CFI (cfiCond268) V1 load(1, XDATA, add(CFA_XSP16, literal(-11)))
        CFI (cfiCond268) V2 load(1, XDATA, add(CFA_XSP16, literal(-10)))
        CFI (cfiCond268) V3 load(1, XDATA, add(CFA_XSP16, literal(-9)))
        CFI (cfiCond268) V4 load(1, XDATA, add(CFA_XSP16, literal(-8)))
        CFI (cfiCond268) V5 load(1, XDATA, add(CFA_XSP16, literal(-7)))
        CFI (cfiCond268) R7 load(1, XDATA, add(CFA_XSP16, literal(-6)))
        CFI (cfiCond268) ?RET_LOW load(1, XDATA, add(CFA_XSP16, literal(-5)))
        CFI (cfiCond268) ?RET_HIGH load(1, XDATA, add(CFA_XSP16, literal(-4)))
        CFI (cfiCond268) ?BRET_EXT load(1, XDATA, add(CFA_XSP16, literal(-3)))
        CFI (cfiCond268) DPL0 load(1, XDATA, add(CFA_XSP16, literal(-2)))
        CFI (cfiCond268) DPH0 load(1, XDATA, add(CFA_XSP16, literal(-1)))
        CFI (cfiCond268) CFA_SP SP+0
        CFI (cfiCond268) CFA_XSP16 add(XSP16, 22)
        CFI Block cfiPicker269 Using cfiCommon1
        CFI (cfiPicker269) NoFunction
        CFI (cfiPicker269) Picker
        MOV     DPTR,#pMtAfDataReq
        MOVX    A,@DPTR
        ADD     A,#0x10
        CFI EndBlock cfiCond267
        CFI EndBlock cfiCond268
        CFI EndBlock cfiPicker269
        REQUIRE ??Subroutine57_0
        ; // Fall through to label ??Subroutine57_0

        RSEG BANKED_CODE:CODE:NOROOT(0)
??Subroutine57_0:
        CFI Block cfiCond270 Using cfiCommon0
        CFI NoFunction
        CFI Conditional ??CrossCallReturnLabel_120
        CFI R6 load(1, XDATA, add(CFA_XSP16, literal(-22)))
        CFI VB load(1, XDATA, add(CFA_XSP16, literal(-21)))
        CFI V0 load(1, XDATA, add(CFA_XSP16, literal(-20)))
        CFI V1 load(1, XDATA, add(CFA_XSP16, literal(-19)))
        CFI V2 load(1, XDATA, add(CFA_XSP16, literal(-18)))
        CFI V3 load(1, XDATA, add(CFA_XSP16, literal(-17)))
        CFI V4 load(1, XDATA, add(CFA_XSP16, literal(-16)))
        CFI V5 load(1, XDATA, add(CFA_XSP16, literal(-15)))
        CFI V6 load(1, XDATA, add(CFA_XSP16, literal(-14)))
        CFI V7 load(1, XDATA, add(CFA_XSP16, literal(-13)))
        CFI V8 load(1, XDATA, add(CFA_XSP16, literal(-12)))
        CFI V9 load(1, XDATA, add(CFA_XSP16, literal(-11)))
        CFI V10 load(1, XDATA, add(CFA_XSP16, literal(-10)))
        CFI V11 load(1, XDATA, add(CFA_XSP16, literal(-9)))
        CFI V12 load(1, XDATA, add(CFA_XSP16, literal(-8)))
        CFI V13 load(1, XDATA, add(CFA_XSP16, literal(-7)))
        CFI R7 load(1, XDATA, add(CFA_XSP16, literal(-6)))
        CFI ?RET_LOW load(1, XDATA, add(CFA_XSP16, literal(-5)))
        CFI ?RET_HIGH load(1, XDATA, add(CFA_XSP16, literal(-4)))
        CFI ?BRET_EXT load(1, XDATA, add(CFA_XSP16, literal(-3)))
        CFI DPL0 load(1, XDATA, add(CFA_XSP16, literal(-2)))
        CFI DPH0 load(1, XDATA, add(CFA_XSP16, literal(-1)))
        CFI CFA_SP SP+0
        CFI CFA_XSP16 add(XSP16, 36)
        CFI Block cfiCond271 Using cfiCommon0
        CFI (cfiCond271) NoFunction
        CFI (cfiCond271) Conditional ??CrossCallReturnLabel_121
        CFI (cfiCond271) R6 load(1, XDATA, add(CFA_XSP16, literal(-22)))
        CFI (cfiCond271) VB load(1, XDATA, add(CFA_XSP16, literal(-21)))
        CFI (cfiCond271) V0 load(1, XDATA, add(CFA_XSP16, literal(-20)))
        CFI (cfiCond271) V1 load(1, XDATA, add(CFA_XSP16, literal(-19)))
        CFI (cfiCond271) V2 load(1, XDATA, add(CFA_XSP16, literal(-18)))
        CFI (cfiCond271) V3 load(1, XDATA, add(CFA_XSP16, literal(-17)))
        CFI (cfiCond271) V4 load(1, XDATA, add(CFA_XSP16, literal(-16)))
        CFI (cfiCond271) V5 load(1, XDATA, add(CFA_XSP16, literal(-15)))
        CFI (cfiCond271) V6 load(1, XDATA, add(CFA_XSP16, literal(-14)))
        CFI (cfiCond271) V7 load(1, XDATA, add(CFA_XSP16, literal(-13)))
        CFI (cfiCond271) V8 load(1, XDATA, add(CFA_XSP16, literal(-12)))
        CFI (cfiCond271) V9 load(1, XDATA, add(CFA_XSP16, literal(-11)))
        CFI (cfiCond271) V10 load(1, XDATA, add(CFA_XSP16, literal(-10)))
        CFI (cfiCond271) V11 load(1, XDATA, add(CFA_XSP16, literal(-9)))
        CFI (cfiCond271) V12 load(1, XDATA, add(CFA_XSP16, literal(-8)))
        CFI (cfiCond271) V13 load(1, XDATA, add(CFA_XSP16, literal(-7)))
        CFI (cfiCond271) R7 load(1, XDATA, add(CFA_XSP16, literal(-6)))
        CFI (cfiCond271) ?RET_LOW load(1, XDATA, add(CFA_XSP16, literal(-5)))
        CFI (cfiCond271) ?RET_HIGH load(1, XDATA, add(CFA_XSP16, literal(-4)))
        CFI (cfiCond271) ?BRET_EXT load(1, XDATA, add(CFA_XSP16, literal(-3)))
        CFI (cfiCond271) DPL0 load(1, XDATA, add(CFA_XSP16, literal(-2)))
        CFI (cfiCond271) DPH0 load(1, XDATA, add(CFA_XSP16, literal(-1)))
        CFI (cfiCond271) CFA_SP SP+0
        CFI (cfiCond271) CFA_XSP16 add(XSP16, 36)
        CFI Block cfiCond272 Using cfiCommon0
        CFI (cfiCond272) NoFunction
        CFI (cfiCond272) Conditional ??CrossCallReturnLabel_122
        CFI (cfiCond272) R6 load(1, XDATA, add(CFA_XSP16, literal(-22)))
        CFI (cfiCond272) VB load(1, XDATA, add(CFA_XSP16, literal(-21)))
        CFI (cfiCond272) V0 load(1, XDATA, add(CFA_XSP16, literal(-20)))
        CFI (cfiCond272) V1 load(1, XDATA, add(CFA_XSP16, literal(-19)))
        CFI (cfiCond272) V2 load(1, XDATA, add(CFA_XSP16, literal(-18)))
        CFI (cfiCond272) V3 load(1, XDATA, add(CFA_XSP16, literal(-17)))
        CFI (cfiCond272) V4 load(1, XDATA, add(CFA_XSP16, literal(-16)))
        CFI (cfiCond272) V5 load(1, XDATA, add(CFA_XSP16, literal(-15)))
        CFI (cfiCond272) V6 load(1, XDATA, add(CFA_XSP16, literal(-14)))
        CFI (cfiCond272) V7 load(1, XDATA, add(CFA_XSP16, literal(-13)))
        CFI (cfiCond272) V8 load(1, XDATA, add(CFA_XSP16, literal(-12)))
        CFI (cfiCond272) V9 load(1, XDATA, add(CFA_XSP16, literal(-11)))
        CFI (cfiCond272) V10 load(1, XDATA, add(CFA_XSP16, literal(-10)))
        CFI (cfiCond272) V11 load(1, XDATA, add(CFA_XSP16, literal(-9)))
        CFI (cfiCond272) V12 load(1, XDATA, add(CFA_XSP16, literal(-8)))
        CFI (cfiCond272) V13 load(1, XDATA, add(CFA_XSP16, literal(-7)))
        CFI (cfiCond272) R7 load(1, XDATA, add(CFA_XSP16, literal(-6)))
        CFI (cfiCond272) ?RET_LOW load(1, XDATA, add(CFA_XSP16, literal(-5)))
        CFI (cfiCond272) ?RET_HIGH load(1, XDATA, add(CFA_XSP16, literal(-4)))
        CFI (cfiCond272) ?BRET_EXT load(1, XDATA, add(CFA_XSP16, literal(-3)))
        CFI (cfiCond272) DPL0 load(1, XDATA, add(CFA_XSP16, literal(-2)))
        CFI (cfiCond272) DPH0 load(1, XDATA, add(CFA_XSP16, literal(-1)))
        CFI (cfiCond272) CFA_SP SP+-1
        CFI (cfiCond272) CFA_XSP16 add(XSP16, 36)
        CFI Block cfiCond273 Using cfiCommon0
        CFI (cfiCond273) NoFunction
        CFI (cfiCond273) Conditional ??CrossCallReturnLabel_123
        CFI (cfiCond273) R6 load(1, XDATA, add(CFA_XSP16, literal(-22)))
        CFI (cfiCond273) VB load(1, XDATA, add(CFA_XSP16, literal(-21)))
        CFI (cfiCond273) V0 load(1, XDATA, add(CFA_XSP16, literal(-20)))
        CFI (cfiCond273) V1 load(1, XDATA, add(CFA_XSP16, literal(-19)))
        CFI (cfiCond273) V2 load(1, XDATA, add(CFA_XSP16, literal(-18)))
        CFI (cfiCond273) V3 load(1, XDATA, add(CFA_XSP16, literal(-17)))
        CFI (cfiCond273) V4 load(1, XDATA, add(CFA_XSP16, literal(-16)))
        CFI (cfiCond273) V5 load(1, XDATA, add(CFA_XSP16, literal(-15)))
        CFI (cfiCond273) V6 load(1, XDATA, add(CFA_XSP16, literal(-14)))
        CFI (cfiCond273) V7 load(1, XDATA, add(CFA_XSP16, literal(-13)))
        CFI (cfiCond273) V8 load(1, XDATA, add(CFA_XSP16, literal(-12)))
        CFI (cfiCond273) V9 load(1, XDATA, add(CFA_XSP16, literal(-11)))
        CFI (cfiCond273) V10 load(1, XDATA, add(CFA_XSP16, literal(-10)))
        CFI (cfiCond273) V11 load(1, XDATA, add(CFA_XSP16, literal(-9)))
        CFI (cfiCond273) V12 load(1, XDATA, add(CFA_XSP16, literal(-8)))
        CFI (cfiCond273) V13 load(1, XDATA, add(CFA_XSP16, literal(-7)))
        CFI (cfiCond273) R7 load(1, XDATA, add(CFA_XSP16, literal(-6)))
        CFI (cfiCond273) ?RET_LOW load(1, XDATA, add(CFA_XSP16, literal(-5)))
        CFI (cfiCond273) ?RET_HIGH load(1, XDATA, add(CFA_XSP16, literal(-4)))
        CFI (cfiCond273) ?BRET_EXT load(1, XDATA, add(CFA_XSP16, literal(-3)))
        CFI (cfiCond273) DPL0 load(1, XDATA, add(CFA_XSP16, literal(-2)))
        CFI (cfiCond273) DPH0 load(1, XDATA, add(CFA_XSP16, literal(-1)))
        CFI (cfiCond273) CFA_SP SP+0
        CFI (cfiCond273) CFA_XSP16 add(XSP16, 36)
        CFI Block cfiCond274 Using cfiCommon0
        CFI (cfiCond274) NoFunction
        CFI (cfiCond274) Conditional ??CrossCallReturnLabel_124
        CFI (cfiCond274) R6 load(1, XDATA, add(CFA_XSP16, literal(-22)))
        CFI (cfiCond274) VB load(1, XDATA, add(CFA_XSP16, literal(-21)))
        CFI (cfiCond274) V0 load(1, XDATA, add(CFA_XSP16, literal(-20)))
        CFI (cfiCond274) V1 load(1, XDATA, add(CFA_XSP16, literal(-19)))
        CFI (cfiCond274) V2 load(1, XDATA, add(CFA_XSP16, literal(-18)))
        CFI (cfiCond274) V3 load(1, XDATA, add(CFA_XSP16, literal(-17)))
        CFI (cfiCond274) V4 load(1, XDATA, add(CFA_XSP16, literal(-16)))
        CFI (cfiCond274) V5 load(1, XDATA, add(CFA_XSP16, literal(-15)))
        CFI (cfiCond274) V6 load(1, XDATA, add(CFA_XSP16, literal(-14)))
        CFI (cfiCond274) V7 load(1, XDATA, add(CFA_XSP16, literal(-13)))
        CFI (cfiCond274) V8 load(1, XDATA, add(CFA_XSP16, literal(-12)))
        CFI (cfiCond274) V9 load(1, XDATA, add(CFA_XSP16, literal(-11)))
        CFI (cfiCond274) V10 load(1, XDATA, add(CFA_XSP16, literal(-10)))
        CFI (cfiCond274) V11 load(1, XDATA, add(CFA_XSP16, literal(-9)))
        CFI (cfiCond274) V12 load(1, XDATA, add(CFA_XSP16, literal(-8)))
        CFI (cfiCond274) V13 load(1, XDATA, add(CFA_XSP16, literal(-7)))
        CFI (cfiCond274) R7 load(1, XDATA, add(CFA_XSP16, literal(-6)))
        CFI (cfiCond274) ?RET_LOW load(1, XDATA, add(CFA_XSP16, literal(-5)))
        CFI (cfiCond274) ?RET_HIGH load(1, XDATA, add(CFA_XSP16, literal(-4)))
        CFI (cfiCond274) ?BRET_EXT load(1, XDATA, add(CFA_XSP16, literal(-3)))
        CFI (cfiCond274) DPL0 load(1, XDATA, add(CFA_XSP16, literal(-2)))
        CFI (cfiCond274) DPH0 load(1, XDATA, add(CFA_XSP16, literal(-1)))
        CFI (cfiCond274) CFA_SP SP+0
        CFI (cfiCond274) CFA_XSP16 add(XSP16, 36)
        CFI Block cfiCond275 Using cfiCommon0
        CFI (cfiCond275) NoFunction
        CFI (cfiCond275) Conditional ??CrossCallReturnLabel_125
        CFI (cfiCond275) R6 load(1, XDATA, add(CFA_XSP16, literal(-22)))
        CFI (cfiCond275) VB load(1, XDATA, add(CFA_XSP16, literal(-21)))
        CFI (cfiCond275) V0 load(1, XDATA, add(CFA_XSP16, literal(-20)))
        CFI (cfiCond275) V1 load(1, XDATA, add(CFA_XSP16, literal(-19)))
        CFI (cfiCond275) V2 load(1, XDATA, add(CFA_XSP16, literal(-18)))
        CFI (cfiCond275) V3 load(1, XDATA, add(CFA_XSP16, literal(-17)))
        CFI (cfiCond275) V4 load(1, XDATA, add(CFA_XSP16, literal(-16)))
        CFI (cfiCond275) V5 load(1, XDATA, add(CFA_XSP16, literal(-15)))
        CFI (cfiCond275) V6 load(1, XDATA, add(CFA_XSP16, literal(-14)))
        CFI (cfiCond275) V7 load(1, XDATA, add(CFA_XSP16, literal(-13)))
        CFI (cfiCond275) V8 load(1, XDATA, add(CFA_XSP16, literal(-12)))
        CFI (cfiCond275) V9 load(1, XDATA, add(CFA_XSP16, literal(-11)))
        CFI (cfiCond275) V10 load(1, XDATA, add(CFA_XSP16, literal(-10)))
        CFI (cfiCond275) V11 load(1, XDATA, add(CFA_XSP16, literal(-9)))
        CFI (cfiCond275) V12 load(1, XDATA, add(CFA_XSP16, literal(-8)))
        CFI (cfiCond275) V13 load(1, XDATA, add(CFA_XSP16, literal(-7)))
        CFI (cfiCond275) R7 load(1, XDATA, add(CFA_XSP16, literal(-6)))
        CFI (cfiCond275) ?RET_LOW load(1, XDATA, add(CFA_XSP16, literal(-5)))
        CFI (cfiCond275) ?RET_HIGH load(1, XDATA, add(CFA_XSP16, literal(-4)))
        CFI (cfiCond275) ?BRET_EXT load(1, XDATA, add(CFA_XSP16, literal(-3)))
        CFI (cfiCond275) DPL0 load(1, XDATA, add(CFA_XSP16, literal(-2)))
        CFI (cfiCond275) DPH0 load(1, XDATA, add(CFA_XSP16, literal(-1)))
        CFI (cfiCond275) CFA_SP SP+0
        CFI (cfiCond275) CFA_XSP16 add(XSP16, 36)
        CFI Block cfiCond276 Using cfiCommon0
        CFI (cfiCond276) NoFunction
        CFI (cfiCond276) Conditional ??CrossCallReturnLabel_126
        CFI (cfiCond276) R6 load(1, XDATA, add(CFA_XSP16, literal(-14)))
        CFI (cfiCond276) VB load(1, XDATA, add(CFA_XSP16, literal(-13)))
        CFI (cfiCond276) V0 load(1, XDATA, add(CFA_XSP16, literal(-12)))
        CFI (cfiCond276) V1 load(1, XDATA, add(CFA_XSP16, literal(-11)))
        CFI (cfiCond276) V2 load(1, XDATA, add(CFA_XSP16, literal(-10)))
        CFI (cfiCond276) V3 load(1, XDATA, add(CFA_XSP16, literal(-9)))
        CFI (cfiCond276) V4 load(1, XDATA, add(CFA_XSP16, literal(-8)))
        CFI (cfiCond276) V5 load(1, XDATA, add(CFA_XSP16, literal(-7)))
        CFI (cfiCond276) R7 load(1, XDATA, add(CFA_XSP16, literal(-6)))
        CFI (cfiCond276) ?RET_LOW load(1, XDATA, add(CFA_XSP16, literal(-5)))
        CFI (cfiCond276) ?RET_HIGH load(1, XDATA, add(CFA_XSP16, literal(-4)))
        CFI (cfiCond276) ?BRET_EXT load(1, XDATA, add(CFA_XSP16, literal(-3)))
        CFI (cfiCond276) DPL0 load(1, XDATA, add(CFA_XSP16, literal(-2)))
        CFI (cfiCond276) DPH0 load(1, XDATA, add(CFA_XSP16, literal(-1)))
        CFI (cfiCond276) CFA_SP SP+0
        CFI (cfiCond276) CFA_XSP16 add(XSP16, 20)
        CFI Block cfiCond277 Using cfiCommon0
        CFI (cfiCond277) NoFunction
        CFI (cfiCond277) Conditional ??CrossCallReturnLabel_127
        CFI (cfiCond277) R6 load(1, XDATA, add(CFA_XSP16, literal(-22)))
        CFI (cfiCond277) VB load(1, XDATA, add(CFA_XSP16, literal(-21)))
        CFI (cfiCond277) V0 load(1, XDATA, add(CFA_XSP16, literal(-20)))
        CFI (cfiCond277) V1 load(1, XDATA, add(CFA_XSP16, literal(-19)))
        CFI (cfiCond277) V2 load(1, XDATA, add(CFA_XSP16, literal(-18)))
        CFI (cfiCond277) V3 load(1, XDATA, add(CFA_XSP16, literal(-17)))
        CFI (cfiCond277) V4 load(1, XDATA, add(CFA_XSP16, literal(-16)))
        CFI (cfiCond277) V5 load(1, XDATA, add(CFA_XSP16, literal(-15)))
        CFI (cfiCond277) V6 load(1, XDATA, add(CFA_XSP16, literal(-14)))
        CFI (cfiCond277) V7 load(1, XDATA, add(CFA_XSP16, literal(-13)))
        CFI (cfiCond277) V8 load(1, XDATA, add(CFA_XSP16, literal(-12)))
        CFI (cfiCond277) V9 load(1, XDATA, add(CFA_XSP16, literal(-11)))
        CFI (cfiCond277) V10 load(1, XDATA, add(CFA_XSP16, literal(-10)))
        CFI (cfiCond277) V11 load(1, XDATA, add(CFA_XSP16, literal(-9)))
        CFI (cfiCond277) V12 load(1, XDATA, add(CFA_XSP16, literal(-8)))
        CFI (cfiCond277) V13 load(1, XDATA, add(CFA_XSP16, literal(-7)))
        CFI (cfiCond277) R7 load(1, XDATA, add(CFA_XSP16, literal(-6)))
        CFI (cfiCond277) ?RET_LOW load(1, XDATA, add(CFA_XSP16, literal(-5)))
        CFI (cfiCond277) ?RET_HIGH load(1, XDATA, add(CFA_XSP16, literal(-4)))
        CFI (cfiCond277) ?BRET_EXT load(1, XDATA, add(CFA_XSP16, literal(-3)))
        CFI (cfiCond277) DPL0 load(1, XDATA, add(CFA_XSP16, literal(-2)))
        CFI (cfiCond277) DPH0 load(1, XDATA, add(CFA_XSP16, literal(-1)))
        CFI (cfiCond277) CFA_SP SP+0
        CFI (cfiCond277) CFA_XSP16 add(XSP16, 36)
        CFI Block cfiCond278 Using cfiCommon0
        CFI (cfiCond278) NoFunction
        CFI (cfiCond278) Conditional ??CrossCallReturnLabel_128
        CFI (cfiCond278) R6 load(1, XDATA, add(CFA_XSP16, literal(-14)))
        CFI (cfiCond278) VB load(1, XDATA, add(CFA_XSP16, literal(-13)))
        CFI (cfiCond278) V0 load(1, XDATA, add(CFA_XSP16, literal(-12)))
        CFI (cfiCond278) V1 load(1, XDATA, add(CFA_XSP16, literal(-11)))
        CFI (cfiCond278) V2 load(1, XDATA, add(CFA_XSP16, literal(-10)))
        CFI (cfiCond278) V3 load(1, XDATA, add(CFA_XSP16, literal(-9)))
        CFI (cfiCond278) V4 load(1, XDATA, add(CFA_XSP16, literal(-8)))
        CFI (cfiCond278) V5 load(1, XDATA, add(CFA_XSP16, literal(-7)))
        CFI (cfiCond278) R7 load(1, XDATA, add(CFA_XSP16, literal(-6)))
        CFI (cfiCond278) ?RET_LOW load(1, XDATA, add(CFA_XSP16, literal(-5)))
        CFI (cfiCond278) ?RET_HIGH load(1, XDATA, add(CFA_XSP16, literal(-4)))
        CFI (cfiCond278) ?BRET_EXT load(1, XDATA, add(CFA_XSP16, literal(-3)))
        CFI (cfiCond278) DPL0 load(1, XDATA, add(CFA_XSP16, literal(-2)))
        CFI (cfiCond278) DPH0 load(1, XDATA, add(CFA_XSP16, literal(-1)))
        CFI (cfiCond278) CFA_SP SP+0
        CFI (cfiCond278) CFA_XSP16 add(XSP16, 22)
        CFI Block cfiPicker279 Using cfiCommon1
        CFI (cfiPicker279) NoFunction
        CFI (cfiPicker279) Picker
        LCALL   ?Subroutine37 & 0xFFFF
??CrossCallReturnLabel_130:
        RET
        CFI EndBlock cfiCond270
        CFI EndBlock cfiCond271
        CFI EndBlock cfiCond272
        CFI EndBlock cfiCond273
        CFI EndBlock cfiCond274
        CFI EndBlock cfiCond275
        CFI EndBlock cfiCond276
        CFI EndBlock cfiCond277
        CFI EndBlock cfiCond278
        CFI EndBlock cfiPicker279

        RSEG BANKED_CODE:CODE:NOROOT(0)
?Subroutine37:
        CFI Block cfiCond280 Using cfiCommon0
        CFI NoFunction
        CFI Conditional ??CrossCallReturnLabel_129, ??CrossCallReturnLabel_57
        CFI R6 load(1, XDATA, add(CFA_XSP16, literal(-9)))
        CFI VB load(1, XDATA, add(CFA_XSP16, literal(-8)))
        CFI V0 load(1, XDATA, add(CFA_XSP16, literal(-7)))
        CFI R7 load(1, XDATA, add(CFA_XSP16, literal(-6)))
        CFI ?RET_LOW load(1, XDATA, add(CFA_XSP16, literal(-5)))
        CFI ?RET_HIGH load(1, XDATA, add(CFA_XSP16, literal(-4)))
        CFI ?BRET_EXT load(1, XDATA, add(CFA_XSP16, literal(-3)))
        CFI DPL0 load(1, XDATA, add(CFA_XSP16, literal(-2)))
        CFI DPH0 load(1, XDATA, add(CFA_XSP16, literal(-1)))
        CFI CFA_SP SP+0
        CFI CFA_XSP16 add(XSP16, 9)
        CFI Block cfiCond281 Using cfiCommon0
        CFI (cfiCond281) NoFunction
        CFI (cfiCond281) Conditional ??CrossCallReturnLabel_129, ??CrossCallReturnLabel_58
        CFI (cfiCond281) R6 load(1, XDATA, add(CFA_XSP16, literal(-9)))
        CFI (cfiCond281) VB load(1, XDATA, add(CFA_XSP16, literal(-8)))
        CFI (cfiCond281) V0 load(1, XDATA, add(CFA_XSP16, literal(-7)))
        CFI (cfiCond281) R7 load(1, XDATA, add(CFA_XSP16, literal(-6)))
        CFI (cfiCond281) ?RET_LOW load(1, XDATA, add(CFA_XSP16, literal(-5)))
        CFI (cfiCond281) ?RET_HIGH load(1, XDATA, add(CFA_XSP16, literal(-4)))
        CFI (cfiCond281) ?BRET_EXT load(1, XDATA, add(CFA_XSP16, literal(-3)))
        CFI (cfiCond281) DPL0 load(1, XDATA, add(CFA_XSP16, literal(-2)))
        CFI (cfiCond281) DPH0 load(1, XDATA, add(CFA_XSP16, literal(-1)))
        CFI (cfiCond281) CFA_SP SP+0
        CFI (cfiCond281) CFA_XSP16 add(XSP16, 9)
        CFI Block cfiCond282 Using cfiCommon0
        CFI (cfiCond282) NoFunction
        CFI (cfiCond282) Conditional ??CrossCallReturnLabel_129, ??CrossCallReturnLabel_55
        CFI (cfiCond282) R6 load(1, XDATA, add(CFA_XSP16, literal(-14)))
        CFI (cfiCond282) VB load(1, XDATA, add(CFA_XSP16, literal(-13)))
        CFI (cfiCond282) V0 load(1, XDATA, add(CFA_XSP16, literal(-12)))
        CFI (cfiCond282) V1 load(1, XDATA, add(CFA_XSP16, literal(-11)))
        CFI (cfiCond282) V2 load(1, XDATA, add(CFA_XSP16, literal(-10)))
        CFI (cfiCond282) V3 load(1, XDATA, add(CFA_XSP16, literal(-9)))
        CFI (cfiCond282) V4 load(1, XDATA, add(CFA_XSP16, literal(-8)))
        CFI (cfiCond282) V5 load(1, XDATA, add(CFA_XSP16, literal(-7)))
        CFI (cfiCond282) R7 load(1, XDATA, add(CFA_XSP16, literal(-6)))
        CFI (cfiCond282) ?RET_LOW load(1, XDATA, add(CFA_XSP16, literal(-5)))
        CFI (cfiCond282) ?RET_HIGH load(1, XDATA, add(CFA_XSP16, literal(-4)))
        CFI (cfiCond282) ?BRET_EXT load(1, XDATA, add(CFA_XSP16, literal(-3)))
        CFI (cfiCond282) DPL0 load(1, XDATA, add(CFA_XSP16, literal(-2)))
        CFI (cfiCond282) DPH0 load(1, XDATA, add(CFA_XSP16, literal(-1)))
        CFI (cfiCond282) CFA_SP SP+0
        CFI (cfiCond282) CFA_XSP16 add(XSP16, 15)
        CFI Block cfiCond283 Using cfiCommon0
        CFI (cfiCond283) NoFunction
        CFI (cfiCond283) Conditional ??CrossCallReturnLabel_129, ??CrossCallReturnLabel_56
        CFI (cfiCond283) R6 load(1, XDATA, add(CFA_XSP16, literal(-14)))
        CFI (cfiCond283) VB load(1, XDATA, add(CFA_XSP16, literal(-13)))
        CFI (cfiCond283) V0 load(1, XDATA, add(CFA_XSP16, literal(-12)))
        CFI (cfiCond283) V1 load(1, XDATA, add(CFA_XSP16, literal(-11)))
        CFI (cfiCond283) V2 load(1, XDATA, add(CFA_XSP16, literal(-10)))
        CFI (cfiCond283) V3 load(1, XDATA, add(CFA_XSP16, literal(-9)))
        CFI (cfiCond283) V4 load(1, XDATA, add(CFA_XSP16, literal(-8)))
        CFI (cfiCond283) V5 load(1, XDATA, add(CFA_XSP16, literal(-7)))
        CFI (cfiCond283) R7 load(1, XDATA, add(CFA_XSP16, literal(-6)))
        CFI (cfiCond283) ?RET_LOW load(1, XDATA, add(CFA_XSP16, literal(-5)))
        CFI (cfiCond283) ?RET_HIGH load(1, XDATA, add(CFA_XSP16, literal(-4)))
        CFI (cfiCond283) ?BRET_EXT load(1, XDATA, add(CFA_XSP16, literal(-3)))
        CFI (cfiCond283) DPL0 load(1, XDATA, add(CFA_XSP16, literal(-2)))
        CFI (cfiCond283) DPH0 load(1, XDATA, add(CFA_XSP16, literal(-1)))
        CFI (cfiCond283) CFA_SP SP+0
        CFI (cfiCond283) CFA_XSP16 add(XSP16, 24)
        CFI Block cfiCond284 Using cfiCommon0
        CFI (cfiCond284) NoFunction
        CFI (cfiCond284) Conditional ??CrossCallReturnLabel_130, ??CrossCallReturnLabel_127
        CFI (cfiCond284) R6 load(1, XDATA, add(CFA_XSP16, literal(-22)))
        CFI (cfiCond284) VB load(1, XDATA, add(CFA_XSP16, literal(-21)))
        CFI (cfiCond284) V0 load(1, XDATA, add(CFA_XSP16, literal(-20)))
        CFI (cfiCond284) V1 load(1, XDATA, add(CFA_XSP16, literal(-19)))
        CFI (cfiCond284) V2 load(1, XDATA, add(CFA_XSP16, literal(-18)))
        CFI (cfiCond284) V3 load(1, XDATA, add(CFA_XSP16, literal(-17)))
        CFI (cfiCond284) V4 load(1, XDATA, add(CFA_XSP16, literal(-16)))
        CFI (cfiCond284) V5 load(1, XDATA, add(CFA_XSP16, literal(-15)))
        CFI (cfiCond284) V6 load(1, XDATA, add(CFA_XSP16, literal(-14)))
        CFI (cfiCond284) V7 load(1, XDATA, add(CFA_XSP16, literal(-13)))
        CFI (cfiCond284) V8 load(1, XDATA, add(CFA_XSP16, literal(-12)))
        CFI (cfiCond284) V9 load(1, XDATA, add(CFA_XSP16, literal(-11)))
        CFI (cfiCond284) V10 load(1, XDATA, add(CFA_XSP16, literal(-10)))
        CFI (cfiCond284) V11 load(1, XDATA, add(CFA_XSP16, literal(-9)))
        CFI (cfiCond284) V12 load(1, XDATA, add(CFA_XSP16, literal(-8)))
        CFI (cfiCond284) V13 load(1, XDATA, add(CFA_XSP16, literal(-7)))
        CFI (cfiCond284) R7 load(1, XDATA, add(CFA_XSP16, literal(-6)))
        CFI (cfiCond284) ?RET_LOW load(1, XDATA, add(CFA_XSP16, literal(-5)))
        CFI (cfiCond284) ?RET_HIGH load(1, XDATA, add(CFA_XSP16, literal(-4)))
        CFI (cfiCond284) ?BRET_EXT load(1, XDATA, add(CFA_XSP16, literal(-3)))
        CFI (cfiCond284) DPL0 load(1, XDATA, add(CFA_XSP16, literal(-2)))
        CFI (cfiCond284) DPH0 load(1, XDATA, add(CFA_XSP16, literal(-1)))
        CFI (cfiCond284) CFA_SP SP+0
        CFI (cfiCond284) CFA_XSP16 add(XSP16, 36)
        CFI Block cfiCond285 Using cfiCommon0
        CFI (cfiCond285) NoFunction
        CFI (cfiCond285) Conditional ??CrossCallReturnLabel_130, ??CrossCallReturnLabel_128
        CFI (cfiCond285) R6 load(1, XDATA, add(CFA_XSP16, literal(-14)))
        CFI (cfiCond285) VB load(1, XDATA, add(CFA_XSP16, literal(-13)))
        CFI (cfiCond285) V0 load(1, XDATA, add(CFA_XSP16, literal(-12)))
        CFI (cfiCond285) V1 load(1, XDATA, add(CFA_XSP16, literal(-11)))
        CFI (cfiCond285) V2 load(1, XDATA, add(CFA_XSP16, literal(-10)))
        CFI (cfiCond285) V3 load(1, XDATA, add(CFA_XSP16, literal(-9)))
        CFI (cfiCond285) V4 load(1, XDATA, add(CFA_XSP16, literal(-8)))
        CFI (cfiCond285) V5 load(1, XDATA, add(CFA_XSP16, literal(-7)))
        CFI (cfiCond285) R7 load(1, XDATA, add(CFA_XSP16, literal(-6)))
        CFI (cfiCond285) ?RET_LOW load(1, XDATA, add(CFA_XSP16, literal(-5)))
        CFI (cfiCond285) ?RET_HIGH load(1, XDATA, add(CFA_XSP16, literal(-4)))
        CFI (cfiCond285) ?BRET_EXT load(1, XDATA, add(CFA_XSP16, literal(-3)))
        CFI (cfiCond285) DPL0 load(1, XDATA, add(CFA_XSP16, literal(-2)))
        CFI (cfiCond285) DPH0 load(1, XDATA, add(CFA_XSP16, literal(-1)))
        CFI (cfiCond285) CFA_SP SP+0
        CFI (cfiCond285) CFA_XSP16 add(XSP16, 22)
        CFI Block cfiCond286 Using cfiCommon0
        CFI (cfiCond286) NoFunction
        CFI (cfiCond286) Conditional ??CrossCallReturnLabel_130, ??CrossCallReturnLabel_120
        CFI (cfiCond286) R6 load(1, XDATA, add(CFA_XSP16, literal(-22)))
        CFI (cfiCond286) VB load(1, XDATA, add(CFA_XSP16, literal(-21)))
        CFI (cfiCond286) V0 load(1, XDATA, add(CFA_XSP16, literal(-20)))
        CFI (cfiCond286) V1 load(1, XDATA, add(CFA_XSP16, literal(-19)))
        CFI (cfiCond286) V2 load(1, XDATA, add(CFA_XSP16, literal(-18)))
        CFI (cfiCond286) V3 load(1, XDATA, add(CFA_XSP16, literal(-17)))
        CFI (cfiCond286) V4 load(1, XDATA, add(CFA_XSP16, literal(-16)))
        CFI (cfiCond286) V5 load(1, XDATA, add(CFA_XSP16, literal(-15)))
        CFI (cfiCond286) V6 load(1, XDATA, add(CFA_XSP16, literal(-14)))
        CFI (cfiCond286) V7 load(1, XDATA, add(CFA_XSP16, literal(-13)))
        CFI (cfiCond286) V8 load(1, XDATA, add(CFA_XSP16, literal(-12)))
        CFI (cfiCond286) V9 load(1, XDATA, add(CFA_XSP16, literal(-11)))
        CFI (cfiCond286) V10 load(1, XDATA, add(CFA_XSP16, literal(-10)))
        CFI (cfiCond286) V11 load(1, XDATA, add(CFA_XSP16, literal(-9)))
        CFI (cfiCond286) V12 load(1, XDATA, add(CFA_XSP16, literal(-8)))
        CFI (cfiCond286) V13 load(1, XDATA, add(CFA_XSP16, literal(-7)))
        CFI (cfiCond286) R7 load(1, XDATA, add(CFA_XSP16, literal(-6)))
        CFI (cfiCond286) ?RET_LOW load(1, XDATA, add(CFA_XSP16, literal(-5)))
        CFI (cfiCond286) ?RET_HIGH load(1, XDATA, add(CFA_XSP16, literal(-4)))
        CFI (cfiCond286) ?BRET_EXT load(1, XDATA, add(CFA_XSP16, literal(-3)))
        CFI (cfiCond286) DPL0 load(1, XDATA, add(CFA_XSP16, literal(-2)))
        CFI (cfiCond286) DPH0 load(1, XDATA, add(CFA_XSP16, literal(-1)))
        CFI (cfiCond286) CFA_SP SP+0
        CFI (cfiCond286) CFA_XSP16 add(XSP16, 36)
        CFI Block cfiCond287 Using cfiCommon0
        CFI (cfiCond287) NoFunction
        CFI (cfiCond287) Conditional ??CrossCallReturnLabel_130, ??CrossCallReturnLabel_121
        CFI (cfiCond287) R6 load(1, XDATA, add(CFA_XSP16, literal(-22)))
        CFI (cfiCond287) VB load(1, XDATA, add(CFA_XSP16, literal(-21)))
        CFI (cfiCond287) V0 load(1, XDATA, add(CFA_XSP16, literal(-20)))
        CFI (cfiCond287) V1 load(1, XDATA, add(CFA_XSP16, literal(-19)))
        CFI (cfiCond287) V2 load(1, XDATA, add(CFA_XSP16, literal(-18)))
        CFI (cfiCond287) V3 load(1, XDATA, add(CFA_XSP16, literal(-17)))
        CFI (cfiCond287) V4 load(1, XDATA, add(CFA_XSP16, literal(-16)))
        CFI (cfiCond287) V5 load(1, XDATA, add(CFA_XSP16, literal(-15)))
        CFI (cfiCond287) V6 load(1, XDATA, add(CFA_XSP16, literal(-14)))
        CFI (cfiCond287) V7 load(1, XDATA, add(CFA_XSP16, literal(-13)))
        CFI (cfiCond287) V8 load(1, XDATA, add(CFA_XSP16, literal(-12)))
        CFI (cfiCond287) V9 load(1, XDATA, add(CFA_XSP16, literal(-11)))
        CFI (cfiCond287) V10 load(1, XDATA, add(CFA_XSP16, literal(-10)))
        CFI (cfiCond287) V11 load(1, XDATA, add(CFA_XSP16, literal(-9)))
        CFI (cfiCond287) V12 load(1, XDATA, add(CFA_XSP16, literal(-8)))
        CFI (cfiCond287) V13 load(1, XDATA, add(CFA_XSP16, literal(-7)))
        CFI (cfiCond287) R7 load(1, XDATA, add(CFA_XSP16, literal(-6)))
        CFI (cfiCond287) ?RET_LOW load(1, XDATA, add(CFA_XSP16, literal(-5)))
        CFI (cfiCond287) ?RET_HIGH load(1, XDATA, add(CFA_XSP16, literal(-4)))
        CFI (cfiCond287) ?BRET_EXT load(1, XDATA, add(CFA_XSP16, literal(-3)))
        CFI (cfiCond287) DPL0 load(1, XDATA, add(CFA_XSP16, literal(-2)))
        CFI (cfiCond287) DPH0 load(1, XDATA, add(CFA_XSP16, literal(-1)))
        CFI (cfiCond287) CFA_SP SP+0
        CFI (cfiCond287) CFA_XSP16 add(XSP16, 36)
        CFI Block cfiCond288 Using cfiCommon0
        CFI (cfiCond288) NoFunction
        CFI (cfiCond288) Conditional ??CrossCallReturnLabel_130, ??CrossCallReturnLabel_122
        CFI (cfiCond288) R6 load(1, XDATA, add(CFA_XSP16, literal(-22)))
        CFI (cfiCond288) VB load(1, XDATA, add(CFA_XSP16, literal(-21)))
        CFI (cfiCond288) V0 load(1, XDATA, add(CFA_XSP16, literal(-20)))
        CFI (cfiCond288) V1 load(1, XDATA, add(CFA_XSP16, literal(-19)))
        CFI (cfiCond288) V2 load(1, XDATA, add(CFA_XSP16, literal(-18)))
        CFI (cfiCond288) V3 load(1, XDATA, add(CFA_XSP16, literal(-17)))
        CFI (cfiCond288) V4 load(1, XDATA, add(CFA_XSP16, literal(-16)))
        CFI (cfiCond288) V5 load(1, XDATA, add(CFA_XSP16, literal(-15)))
        CFI (cfiCond288) V6 load(1, XDATA, add(CFA_XSP16, literal(-14)))
        CFI (cfiCond288) V7 load(1, XDATA, add(CFA_XSP16, literal(-13)))
        CFI (cfiCond288) V8 load(1, XDATA, add(CFA_XSP16, literal(-12)))
        CFI (cfiCond288) V9 load(1, XDATA, add(CFA_XSP16, literal(-11)))
        CFI (cfiCond288) V10 load(1, XDATA, add(CFA_XSP16, literal(-10)))
        CFI (cfiCond288) V11 load(1, XDATA, add(CFA_XSP16, literal(-9)))
        CFI (cfiCond288) V12 load(1, XDATA, add(CFA_XSP16, literal(-8)))
        CFI (cfiCond288) V13 load(1, XDATA, add(CFA_XSP16, literal(-7)))
        CFI (cfiCond288) R7 load(1, XDATA, add(CFA_XSP16, literal(-6)))
        CFI (cfiCond288) ?RET_LOW load(1, XDATA, add(CFA_XSP16, literal(-5)))
        CFI (cfiCond288) ?RET_HIGH load(1, XDATA, add(CFA_XSP16, literal(-4)))
        CFI (cfiCond288) ?BRET_EXT load(1, XDATA, add(CFA_XSP16, literal(-3)))
        CFI (cfiCond288) DPL0 load(1, XDATA, add(CFA_XSP16, literal(-2)))
        CFI (cfiCond288) DPH0 load(1, XDATA, add(CFA_XSP16, literal(-1)))
        CFI (cfiCond288) CFA_SP SP+-1
        CFI (cfiCond288) CFA_XSP16 add(XSP16, 36)
        CFI Block cfiCond289 Using cfiCommon0
        CFI (cfiCond289) NoFunction
        CFI (cfiCond289) Conditional ??CrossCallReturnLabel_130, ??CrossCallReturnLabel_123
        CFI (cfiCond289) R6 load(1, XDATA, add(CFA_XSP16, literal(-22)))
        CFI (cfiCond289) VB load(1, XDATA, add(CFA_XSP16, literal(-21)))
        CFI (cfiCond289) V0 load(1, XDATA, add(CFA_XSP16, literal(-20)))
        CFI (cfiCond289) V1 load(1, XDATA, add(CFA_XSP16, literal(-19)))
        CFI (cfiCond289) V2 load(1, XDATA, add(CFA_XSP16, literal(-18)))
        CFI (cfiCond289) V3 load(1, XDATA, add(CFA_XSP16, literal(-17)))
        CFI (cfiCond289) V4 load(1, XDATA, add(CFA_XSP16, literal(-16)))
        CFI (cfiCond289) V5 load(1, XDATA, add(CFA_XSP16, literal(-15)))
        CFI (cfiCond289) V6 load(1, XDATA, add(CFA_XSP16, literal(-14)))
        CFI (cfiCond289) V7 load(1, XDATA, add(CFA_XSP16, literal(-13)))
        CFI (cfiCond289) V8 load(1, XDATA, add(CFA_XSP16, literal(-12)))
        CFI (cfiCond289) V9 load(1, XDATA, add(CFA_XSP16, literal(-11)))
        CFI (cfiCond289) V10 load(1, XDATA, add(CFA_XSP16, literal(-10)))
        CFI (cfiCond289) V11 load(1, XDATA, add(CFA_XSP16, literal(-9)))
        CFI (cfiCond289) V12 load(1, XDATA, add(CFA_XSP16, literal(-8)))
        CFI (cfiCond289) V13 load(1, XDATA, add(CFA_XSP16, literal(-7)))
        CFI (cfiCond289) R7 load(1, XDATA, add(CFA_XSP16, literal(-6)))
        CFI (cfiCond289) ?RET_LOW load(1, XDATA, add(CFA_XSP16, literal(-5)))
        CFI (cfiCond289) ?RET_HIGH load(1, XDATA, add(CFA_XSP16, literal(-4)))
        CFI (cfiCond289) ?BRET_EXT load(1, XDATA, add(CFA_XSP16, literal(-3)))
        CFI (cfiCond289) DPL0 load(1, XDATA, add(CFA_XSP16, literal(-2)))
        CFI (cfiCond289) DPH0 load(1, XDATA, add(CFA_XSP16, literal(-1)))
        CFI (cfiCond289) CFA_SP SP+0
        CFI (cfiCond289) CFA_XSP16 add(XSP16, 36)
        CFI Block cfiCond290 Using cfiCommon0
        CFI (cfiCond290) NoFunction
        CFI (cfiCond290) Conditional ??CrossCallReturnLabel_130, ??CrossCallReturnLabel_124
        CFI (cfiCond290) R6 load(1, XDATA, add(CFA_XSP16, literal(-22)))
        CFI (cfiCond290) VB load(1, XDATA, add(CFA_XSP16, literal(-21)))
        CFI (cfiCond290) V0 load(1, XDATA, add(CFA_XSP16, literal(-20)))
        CFI (cfiCond290) V1 load(1, XDATA, add(CFA_XSP16, literal(-19)))
        CFI (cfiCond290) V2 load(1, XDATA, add(CFA_XSP16, literal(-18)))
        CFI (cfiCond290) V3 load(1, XDATA, add(CFA_XSP16, literal(-17)))
        CFI (cfiCond290) V4 load(1, XDATA, add(CFA_XSP16, literal(-16)))
        CFI (cfiCond290) V5 load(1, XDATA, add(CFA_XSP16, literal(-15)))
        CFI (cfiCond290) V6 load(1, XDATA, add(CFA_XSP16, literal(-14)))
        CFI (cfiCond290) V7 load(1, XDATA, add(CFA_XSP16, literal(-13)))
        CFI (cfiCond290) V8 load(1, XDATA, add(CFA_XSP16, literal(-12)))
        CFI (cfiCond290) V9 load(1, XDATA, add(CFA_XSP16, literal(-11)))
        CFI (cfiCond290) V10 load(1, XDATA, add(CFA_XSP16, literal(-10)))
        CFI (cfiCond290) V11 load(1, XDATA, add(CFA_XSP16, literal(-9)))
        CFI (cfiCond290) V12 load(1, XDATA, add(CFA_XSP16, literal(-8)))
        CFI (cfiCond290) V13 load(1, XDATA, add(CFA_XSP16, literal(-7)))
        CFI (cfiCond290) R7 load(1, XDATA, add(CFA_XSP16, literal(-6)))
        CFI (cfiCond290) ?RET_LOW load(1, XDATA, add(CFA_XSP16, literal(-5)))
        CFI (cfiCond290) ?RET_HIGH load(1, XDATA, add(CFA_XSP16, literal(-4)))
        CFI (cfiCond290) ?BRET_EXT load(1, XDATA, add(CFA_XSP16, literal(-3)))
        CFI (cfiCond290) DPL0 load(1, XDATA, add(CFA_XSP16, literal(-2)))
        CFI (cfiCond290) DPH0 load(1, XDATA, add(CFA_XSP16, literal(-1)))
        CFI (cfiCond290) CFA_SP SP+0
        CFI (cfiCond290) CFA_XSP16 add(XSP16, 36)
        CFI Block cfiCond291 Using cfiCommon0
        CFI (cfiCond291) NoFunction
        CFI (cfiCond291) Conditional ??CrossCallReturnLabel_130, ??CrossCallReturnLabel_125
        CFI (cfiCond291) R6 load(1, XDATA, add(CFA_XSP16, literal(-22)))
        CFI (cfiCond291) VB load(1, XDATA, add(CFA_XSP16, literal(-21)))
        CFI (cfiCond291) V0 load(1, XDATA, add(CFA_XSP16, literal(-20)))
        CFI (cfiCond291) V1 load(1, XDATA, add(CFA_XSP16, literal(-19)))
        CFI (cfiCond291) V2 load(1, XDATA, add(CFA_XSP16, literal(-18)))
        CFI (cfiCond291) V3 load(1, XDATA, add(CFA_XSP16, literal(-17)))
        CFI (cfiCond291) V4 load(1, XDATA, add(CFA_XSP16, literal(-16)))
        CFI (cfiCond291) V5 load(1, XDATA, add(CFA_XSP16, literal(-15)))
        CFI (cfiCond291) V6 load(1, XDATA, add(CFA_XSP16, literal(-14)))
        CFI (cfiCond291) V7 load(1, XDATA, add(CFA_XSP16, literal(-13)))
        CFI (cfiCond291) V8 load(1, XDATA, add(CFA_XSP16, literal(-12)))
        CFI (cfiCond291) V9 load(1, XDATA, add(CFA_XSP16, literal(-11)))
        CFI (cfiCond291) V10 load(1, XDATA, add(CFA_XSP16, literal(-10)))
        CFI (cfiCond291) V11 load(1, XDATA, add(CFA_XSP16, literal(-9)))
        CFI (cfiCond291) V12 load(1, XDATA, add(CFA_XSP16, literal(-8)))
        CFI (cfiCond291) V13 load(1, XDATA, add(CFA_XSP16, literal(-7)))
        CFI (cfiCond291) R7 load(1, XDATA, add(CFA_XSP16, literal(-6)))
        CFI (cfiCond291) ?RET_LOW load(1, XDATA, add(CFA_XSP16, literal(-5)))
        CFI (cfiCond291) ?RET_HIGH load(1, XDATA, add(CFA_XSP16, literal(-4)))
        CFI (cfiCond291) ?BRET_EXT load(1, XDATA, add(CFA_XSP16, literal(-3)))
        CFI (cfiCond291) DPL0 load(1, XDATA, add(CFA_XSP16, literal(-2)))
        CFI (cfiCond291) DPH0 load(1, XDATA, add(CFA_XSP16, literal(-1)))
        CFI (cfiCond291) CFA_SP SP+0
        CFI (cfiCond291) CFA_XSP16 add(XSP16, 36)
        CFI Block cfiCond292 Using cfiCommon0
        CFI (cfiCond292) NoFunction
        CFI (cfiCond292) Conditional ??CrossCallReturnLabel_130, ??CrossCallReturnLabel_126
        CFI (cfiCond292) R6 load(1, XDATA, add(CFA_XSP16, literal(-14)))
        CFI (cfiCond292) VB load(1, XDATA, add(CFA_XSP16, literal(-13)))
        CFI (cfiCond292) V0 load(1, XDATA, add(CFA_XSP16, literal(-12)))
        CFI (cfiCond292) V1 load(1, XDATA, add(CFA_XSP16, literal(-11)))
        CFI (cfiCond292) V2 load(1, XDATA, add(CFA_XSP16, literal(-10)))
        CFI (cfiCond292) V3 load(1, XDATA, add(CFA_XSP16, literal(-9)))
        CFI (cfiCond292) V4 load(1, XDATA, add(CFA_XSP16, literal(-8)))
        CFI (cfiCond292) V5 load(1, XDATA, add(CFA_XSP16, literal(-7)))
        CFI (cfiCond292) R7 load(1, XDATA, add(CFA_XSP16, literal(-6)))
        CFI (cfiCond292) ?RET_LOW load(1, XDATA, add(CFA_XSP16, literal(-5)))
        CFI (cfiCond292) ?RET_HIGH load(1, XDATA, add(CFA_XSP16, literal(-4)))
        CFI (cfiCond292) ?BRET_EXT load(1, XDATA, add(CFA_XSP16, literal(-3)))
        CFI (cfiCond292) DPL0 load(1, XDATA, add(CFA_XSP16, literal(-2)))
        CFI (cfiCond292) DPH0 load(1, XDATA, add(CFA_XSP16, literal(-1)))
        CFI (cfiCond292) CFA_SP SP+0
        CFI (cfiCond292) CFA_XSP16 add(XSP16, 20)
        CFI Block cfiPicker293 Using cfiCommon1
        CFI (cfiPicker293) NoFunction
        CFI (cfiPicker293) Picker
        MOV     R0,A
        INC     DPTR
        MOVX    A,@DPTR
        LCALL   ??Subroutine51_0 & 0xFFFF
??CrossCallReturnLabel_133:
        RET
        CFI EndBlock cfiCond280
        CFI EndBlock cfiCond281
        CFI EndBlock cfiCond282
        CFI EndBlock cfiCond283
        CFI EndBlock cfiCond284
        CFI EndBlock cfiCond285
        CFI EndBlock cfiCond286
        CFI EndBlock cfiCond287
        CFI EndBlock cfiCond288
        CFI EndBlock cfiCond289
        CFI EndBlock cfiCond290
        CFI EndBlock cfiCond291
        CFI EndBlock cfiCond292
        CFI EndBlock cfiPicker293

        RSEG BANK_RELAYS:CODE:REORDER:NOROOT(0)
??MT_AfExec?relay:
        LCALL   ?BDISPATCH
        DATA
        DC24    MT_AfExec

        RSEG BANK_RELAYS:CODE:REORDER:NOROOT(0)
??MT_AfCommandProcessing?relay:
        LCALL   ?BDISPATCH
        DATA
        DC24    MT_AfCommandProcessing

        RSEG BANK_RELAYS:CODE:REORDER:NOROOT(0)
??MT_AfRegister?relay:
        LCALL   ?BDISPATCH
        DATA
        DC24    MT_AfRegister

        RSEG BANK_RELAYS:CODE:REORDER:NOROOT(0)
??MT_AfDataRequest?relay:
        LCALL   ?BDISPATCH
        DATA
        DC24    MT_AfDataRequest

        RSEG BANK_RELAYS:CODE:REORDER:NOROOT(0)
??MT_AfDataRequestSrcRtg?relay:
        LCALL   ?BDISPATCH
        DATA
        DC24    MT_AfDataRequestSrcRtg

        RSEG BANK_RELAYS:CODE:REORDER:NOROOT(0)
??MT_AfDataConfirm?relay:
        LCALL   ?BDISPATCH
        DATA
        DC24    MT_AfDataConfirm

        RSEG BANK_RELAYS:CODE:REORDER:NOROOT(0)
??MT_AfIncomingMsg?relay:
        LCALL   ?BDISPATCH
        DATA
        DC24    MT_AfIncomingMsg

        RSEG BANK_RELAYS:CODE:REORDER:NOROOT(0)
??MT_AfDataRetrieve?relay:
        LCALL   ?BDISPATCH
        DATA
        DC24    MT_AfDataRetrieve

        RSEG BANK_RELAYS:CODE:REORDER:NOROOT(0)
??MT_AfDataStore?relay:
        LCALL   ?BDISPATCH
        DATA
        DC24    MT_AfDataStore

        END
//  891 
//  892 /**************************************************************************************************
//  893  * @fn          MT_AfAPSF_ConfigSet
//  894  *
//  895  * @brief       This function is the MT proxy for afAPSF_ConfigSet().
//  896  *
//  897  * input parameters
//  898  *
//  899  * @param       pBuf - Pointer to the received buffer.
//  900  *
//  901  * output parameters
//  902  *
//  903  * None.
//  904  *
//  905  * @return      None.
//  906  */
//  907 static void MT_AfAPSF_ConfigSet(uint8 *pBuf)
//  908 {
//  909   afAPSF_Config_t cfg = { pBuf[MT_RPC_POS_DAT0+1], pBuf[MT_RPC_POS_DAT0+2] };
//  910   afStatus_t rtrn = afAPSF_ConfigSet(pBuf[MT_RPC_POS_DAT0], &cfg);
//  911 
//  912   MT_BuildAndSendZToolResponse(((uint8)MT_RPC_CMD_SRSP | (uint8)MT_RPC_SYS_AF),
//  913                                        MT_AF_APSF_CONFIG_SET, 1, (uint8 *)&rtrn);
//  914 }
//  915 
//  916 /***************************************************************************************************
//  917 ***************************************************************************************************/
// 
// 3 267 bytes in segment BANKED_CODE
//    54 bytes in segment BANK_RELAYS
//     4 bytes in segment XDATA_Z
// 
// 3 321 bytes of CODE  memory
//     4 bytes of XDATA memory
//
//Errors: none
//Warnings: none
