###############################################################################
#                                                                             #
# IAR C/C++ Compiler V8.10.1.10194/W32 for 8051         08/Aug/2017  09:57:19 #
# Copyright 2004-2011 IAR Systems AB.                                         #
#                                                                             #
#    Core               =  plain                                              #
#    Code model         =  banked                                             #
#    Data model         =  large                                              #
#    Calling convention =  xdata reentrant                                    #
#    Constant location  =  data_rom                                           #
#    Dptr setup         =  1,16                                               #
#    Source file        =  D:\work space\Smart Product\Two YHY\Door\v1.03.0   #
#                          Green\ZStack-CC2530-2.5.1a\Components\osal\mcu\cc2 #
#                          530\OSAL_Nv.c                                      #
#    Command line       =  -f "D:\work space\Smart Product\Two                #
#                          YHY\Door\v1.03.0  Green\ZStack-CC2530-2.5.1a\Proje #
#                          cts\zstack\HomeAutomation\SmartDoor\CC2530DB\..\To #
#                          ols\CC2530DB\f8wEndev.cfg" (-DCPU32MHZ             #
#                          -DROOT=__near_func -DMAC_CFG_TX_DATA_MAX=3         #
#                          -DMAC_CFG_TX_MAX=6 -DMAC_CFG_RX_MAX=3              #
#                          -DHAL_KEY=FALSE -DHAL_LED=FALSE -DHAL_LCD=FALSE    #
#                          -DHAL_ADC=FALSE -DNV_RESTORE -DNV_INIT             #
#                          -DPOWER_SAVING -DTC_LINKKEY_JOIN) -f "D:\work      #
#                          space\Smart Product\Two YHY\Door\v1.03.0           #
#                          Green\ZStack-CC2530-2.5.1a\Projects\zstack\HomeAut #
#                          omation\SmartDoor\CC2530DB\..\Tools\CC2530DB\f8wCo #
#                          nfig.cfg" (-DZIGBEEPRO -DSECURE=1                  #
#                          -DZG_SECURE_DYNAMIC=0 -DREFLECTOR                  #
#                          -DDEFAULT_CHANLIST=0x06108800                      #
#                          -DZDAPP_CONFIG_PAN_ID=0xFFFF                       #
#                          -DNWK_START_DELAY=100 -DEXTENDED_JOINING_RANDOM_MA #
#                          SK=0x007F -DBEACON_REQUEST_DELAY=100               #
#                          -DBEACON_REQ_DELAY_MASK=0x00FF                     #
#                          -DLINK_STATUS_JITTER_MASK=0x007F                   #
#                          -DROUTE_EXPIRY_TIME=30 -DAPSC_ACK_WAIT_DURATION_PO #
#                          LLED=3000 -DNWK_INDIRECT_MSG_TIMEOUT=7             #
#                          -DMAX_RREQ_ENTRIES=8 -DAPSC_MAX_FRAME_RETRIES=3    #
#                          -DNWK_MAX_DATA_RETRIES=2                           #
#                          -DMAX_POLL_FAILURE_RETRIES=2 -DMAX_BCAST=9         #
#                          -DAPS_MAX_GROUPS=16 -DMAX_RTG_ENTRIES=40           #
#                          -DNWK_MAX_BINDING_ENTRIES=4                        #
#                          -DMAX_BINDING_CLUSTER_IDS=4                        #
#                          -DDEFAULT_KEY={0x58,0x69,0x6E,0x67,0x48,0x75,0x6F, #
#                          0x59,0x75,0x61,0x6E,0x53,0x6D,0x61,0x72,0x74}      #
#                          -DMAC_MAX_FRAME_SIZE=116                           #
#                          -DZDNWKMGR_MIN_TRANSMISSIONS=20 "-DCONST=const     #
#                          __code" -DGENERIC=__generic                        #
#                          -DRFD_RCVC_ALWAYS_ON=FALSE -DPOLL_RATE=0           #
#                          -DQUEUED_POLL_RATE=0 -DRESPONSE_POLL_RATE=0        #
#                          -DREJOIN_POLL_RATE=440) -f "D:\work space\Smart    #
#                          Product\Two YHY\Door\v1.03.0                       #
#                          Green\ZStack-CC2530-2.5.1a\Projects\zstack\HomeAut #
#                          omation\SmartDoor\CC2530DB\..\Tools\CC2530DB\f8wZC #
#                          L.cfg" (-DZCL_READ -DZCL_WRITE -DZCL_REPORT        #
#                          -DZCL_BASIC -DZCL_IDENTIFY -DZCL_ON_OFF            #
#                          -DZCL_KEY_ESTABLISH -DZCL_KEY_ESTABLISHMENT_KEY_GE #
#                          NERATE_TIMEOUT=4 -DZCL_KEY_ESTABLISHMENT_MAC_GENER #
#                          ATE_TIMEOUT=10 -DZCL_KEY_ESTABLISHMENT_EKEY_GENERA #
#                          TE_TIMEOUT=10 -DZCL_LOAD_CONTROL                   #
#                          -DZCL_SIMPLE_METERING -DZCL_PRICING -DZCL_MESSAGE  #
#                          -DZCL_TUNNELING -DZCL_TOU) -DZCL_DEVICE_MGMT       #
#                          "D:\work space\Smart Product\Two YHY\Door\v1.03.0  #
#                           Green\ZStack-CC2530-2.5.1a\Components\osal\mcu\cc #
#                          2530\OSAL_Nv.c" -lC "D:\work space\Smart           #
#                          Product\Two YHY\Door\v1.03.0                       #
#                          Green\ZStack-CC2530-2.5.1a\Projects\zstack\HomeAut #
#                          omation\SmartDoor\CC2530DB\EndDeviceEB\List\" -lA  #
#                          "D:\work space\Smart Product\Two YHY\Door\v1.03.0  #
#                           Green\ZStack-CC2530-2.5.1a\Projects\zstack\HomeAu #
#                          tomation\SmartDoor\CC2530DB\EndDeviceEB\List\"     #
#                          --diag_suppress Pe001,Pa010 -o "D:\work            #
#                          space\Smart Product\Two YHY\Door\v1.03.0           #
#                          Green\ZStack-CC2530-2.5.1a\Projects\zstack\HomeAut #
#                          omation\SmartDoor\CC2530DB\EndDeviceEB\Obj\" -e    #
#                          --debug --core=plain --dptr=16,1                   #
#                          --data_model=large --code_model=banked             #
#                          --calling_convention=xdata_reentrant               #
#                          --place_constants=data_rom --nr_virtual_regs 16    #
#                          -I "D:\work space\Smart Product\Two                #
#                          YHY\Door\v1.03.0  Green\ZStack-CC2530-2.5.1a\Proje #
#                          cts\zstack\HomeAutomation\SmartDoor\CC2530DB\" -I  #
#                          "D:\work space\Smart Product\Two YHY\Door\v1.03.0  #
#                           Green\ZStack-CC2530-2.5.1a\Projects\zstack\HomeAu #
#                          tomation\SmartDoor\CC2530DB\..\Source\" -I         #
#                          "D:\work space\Smart Product\Two YHY\Door\v1.03.0  #
#                           Green\ZStack-CC2530-2.5.1a\Projects\zstack\HomeAu #
#                          tomation\SmartDoor\CC2530DB\..\..\Source\" -I      #
#                          "D:\work space\Smart Product\Two YHY\Door\v1.03.0  #
#                           Green\ZStack-CC2530-2.5.1a\Projects\zstack\HomeAu #
#                          tomation\SmartDoor\CC2530DB\..\..\..\ZMain\TI2530D #
#                          B\" -I "D:\work space\Smart Product\Two            #
#                          YHY\Door\v1.03.0  Green\ZStack-CC2530-2.5.1a\Proje #
#                          cts\zstack\HomeAutomation\SmartDoor\CC2530DB\..\.. #
#                          \..\..\..\Components\hal\include\" -I "D:\work     #
#                          space\Smart Product\Two YHY\Door\v1.03.0           #
#                          Green\ZStack-CC2530-2.5.1a\Projects\zstack\HomeAut #
#                          omation\SmartDoor\CC2530DB\..\..\..\..\..\Componen #
#                          ts\hal\target\CC2530EB\" -I "D:\work space\Smart   #
#                          Product\Two YHY\Door\v1.03.0                       #
#                          Green\ZStack-CC2530-2.5.1a\Projects\zstack\HomeAut #
#                          omation\SmartDoor\CC2530DB\..\..\..\..\..\Componen #
#                          ts\mac\include\" -I "D:\work space\Smart           #
#                          Product\Two YHY\Door\v1.03.0                       #
#                          Green\ZStack-CC2530-2.5.1a\Projects\zstack\HomeAut #
#                          omation\SmartDoor\CC2530DB\..\..\..\..\..\Componen #
#                          ts\mac\high_level\" -I "D:\work space\Smart        #
#                          Product\Two YHY\Door\v1.03.0                       #
#                          Green\ZStack-CC2530-2.5.1a\Projects\zstack\HomeAut #
#                          omation\SmartDoor\CC2530DB\..\..\..\..\..\Componen #
#                          ts\mac\low_level\srf04\" -I "D:\work space\Smart   #
#                          Product\Two YHY\Door\v1.03.0                       #
#                          Green\ZStack-CC2530-2.5.1a\Projects\zstack\HomeAut #
#                          omation\SmartDoor\CC2530DB\..\..\..\..\..\Componen #
#                          ts\mac\low_level\srf04\single_chip\" -I "D:\work   #
#                          space\Smart Product\Two YHY\Door\v1.03.0           #
#                          Green\ZStack-CC2530-2.5.1a\Projects\zstack\HomeAut #
#                          omation\SmartDoor\CC2530DB\..\..\..\..\..\Componen #
#                          ts\mt\" -I "D:\work space\Smart Product\Two        #
#                          YHY\Door\v1.03.0  Green\ZStack-CC2530-2.5.1a\Proje #
#                          cts\zstack\HomeAutomation\SmartDoor\CC2530DB\..\.. #
#                          \..\..\..\Components\osal\include\" -I "D:\work    #
#                          space\Smart Product\Two YHY\Door\v1.03.0           #
#                          Green\ZStack-CC2530-2.5.1a\Projects\zstack\HomeAut #
#                          omation\SmartDoor\CC2530DB\..\..\..\..\..\Componen #
#                          ts\services\saddr\" -I "D:\work space\Smart        #
#                          Product\Two YHY\Door\v1.03.0                       #
#                          Green\ZStack-CC2530-2.5.1a\Projects\zstack\HomeAut #
#                          omation\SmartDoor\CC2530DB\..\..\..\..\..\Componen #
#                          ts\services\sdata\" -I "D:\work space\Smart        #
#                          Product\Two YHY\Door\v1.03.0                       #
#                          Green\ZStack-CC2530-2.5.1a\Projects\zstack\HomeAut #
#                          omation\SmartDoor\CC2530DB\..\..\..\..\..\Componen #
#                          ts\stack\af\" -I "D:\work space\Smart Product\Two  #
#                          YHY\Door\v1.03.0  Green\ZStack-CC2530-2.5.1a\Proje #
#                          cts\zstack\HomeAutomation\SmartDoor\CC2530DB\..\.. #
#                          \..\..\..\Components\stack\nwk\" -I "D:\work       #
#                          space\Smart Product\Two YHY\Door\v1.03.0           #
#                          Green\ZStack-CC2530-2.5.1a\Projects\zstack\HomeAut #
#                          omation\SmartDoor\CC2530DB\..\..\..\..\..\Componen #
#                          ts\stack\sapi\" -I "D:\work space\Smart            #
#                          Product\Two YHY\Door\v1.03.0                       #
#                          Green\ZStack-CC2530-2.5.1a\Projects\zstack\HomeAut #
#                          omation\SmartDoor\CC2530DB\..\..\..\..\..\Componen #
#                          ts\stack\sec\" -I "D:\work space\Smart             #
#                          Product\Two YHY\Door\v1.03.0                       #
#                          Green\ZStack-CC2530-2.5.1a\Projects\zstack\HomeAut #
#                          omation\SmartDoor\CC2530DB\..\..\..\..\..\Componen #
#                          ts\stack\sys\" -I "D:\work space\Smart             #
#                          Product\Two YHY\Door\v1.03.0                       #
#                          Green\ZStack-CC2530-2.5.1a\Projects\zstack\HomeAut #
#                          omation\SmartDoor\CC2530DB\..\..\..\..\..\Componen #
#                          ts\stack\zcl\" -I "D:\work space\Smart             #
#                          Product\Two YHY\Door\v1.03.0                       #
#                          Green\ZStack-CC2530-2.5.1a\Projects\zstack\HomeAut #
#                          omation\SmartDoor\CC2530DB\..\..\..\..\..\Componen #
#                          ts\stack\zdo\" -I "D:\work space\Smart             #
#                          Product\Two YHY\Door\v1.03.0                       #
#                          Green\ZStack-CC2530-2.5.1a\Projects\zstack\HomeAut #
#                          omation\SmartDoor\CC2530DB\..\..\..\..\..\Componen #
#                          ts\zmac\" -I "D:\work space\Smart Product\Two      #
#                          YHY\Door\v1.03.0  Green\ZStack-CC2530-2.5.1a\Proje #
#                          cts\zstack\HomeAutomation\SmartDoor\CC2530DB\..\.. #
#                          \..\..\..\Components\zmac\f8w\" -Oh                #
#                          --require_prototypes                               #
#    List file          =  D:\work space\Smart Product\Two YHY\Door\v1.03.0   #
#                          Green\ZStack-CC2530-2.5.1a\Projects\zstack\HomeAut #
#                          omation\SmartDoor\CC2530DB\EndDeviceEB\List\OSAL_N #
#                          v.lst                                              #
#    Object file        =  D:\work space\Smart Product\Two YHY\Door\v1.03.0   #
#                          Green\ZStack-CC2530-2.5.1a\Projects\zstack\HomeAut #
#                          omation\SmartDoor\CC2530DB\EndDeviceEB\Obj\OSAL_Nv #
#                          .r51                                               #
#                                                                             #
#                                                                             #
###############################################################################

D:\work space\Smart Product\Two YHY\Door\v1.03.0  Green\ZStack-CC2530-2.5.1a\Components\osal\mcu\cc2530\OSAL_Nv.c
      1          /******************************************************************************
      2            Filename:       OSAL_Nv.c
      3            Revised:        $Date: 2011-06-05 18:52:21 -0700 (Sun, 05 Jun 2011) $
      4            Revision:       $Revision: 26212 $
      5          
      6            Description:    This module contains the OSAL non-volatile memory functions.
      7          
      8          
      9            Copyright 2006-2011 Texas Instruments Incorporated. All rights reserved.
     10          
     11            IMPORTANT: Your use of this Software is limited to those specific rights
     12            granted under the terms of a software license agreement between the user
     13            who downloaded the software, his/her employer (which must be your employer)
     14            and Texas Instruments Incorporated (the "License"). You may not use this
     15            Software unless you agree to abide by the terms of the License. The License
     16            limits your use, and you acknowledge, that the Software may not be modified,
     17            copied or distributed unless embedded on a Texas Instruments microcontroller
     18            or used solely and exclusively in conjunction with a Texas Instruments radio
     19            frequency transceiver, which is integrated into your product. Other than for
     20            the foregoing purpose, you may not use, reproduce, copy, prepare derivative
     21            works of, modify, distribute, perform, display or sell this Software and/or
     22            its documentation for any purpose.
     23          
     24            YOU FURTHER ACKNOWLEDGE AND AGREE THAT THE SOFTWARE AND DOCUMENTATION ARE
     25            PROVIDED “AS IS?WITHOUT WARRANTY OF ANY KIND, EITHER EXPRESS OR IMPLIED,
     26            INCLUDING WITHOUT LIMITATION, ANY WARRANTY OF MERCHANTABILITY, TITLE,
     27            NON-INFRINGEMENT AND FITNESS FOR A PARTICULAR PURPOSE. IN NO EVENT SHALL
     28            TEXAS INSTRUMENTS OR ITS LICENSORS BE LIABLE OR OBLIGATED UNDER CONTRACT,
     29            NEGLIGENCE, STRICT LIABILITY, CONTRIBUTION, BREACH OF WARRANTY, OR OTHER
     30            LEGAL EQUITABLE THEORY ANY DIRECT OR INDIRECT DAMAGES OR EXPENSES
     31            INCLUDING BUT NOT LIMITED TO ANY INCIDENTAL, SPECIAL, INDIRECT, PUNITIVE
     32            OR CONSEQUENTIAL DAMAGES, LOST PROFITS OR LOST DATA, COST OF PROCUREMENT
     33            OF SUBSTITUTE GOODS, TECHNOLOGY, SERVICES, OR ANY CLAIMS BY THIRD PARTIES
     34            (INCLUDING BUT NOT LIMITED TO ANY DEFENSE THEREOF), OR OTHER SIMILAR COSTS.
     35          
     36            Should you have any questions regarding your right to use this Software,
     37            contact Texas Instruments Incorporated at www.TI.com.
     38          ******************************************************************************/
     39          
     40          /******************************************************************************
     41            Notes:
     42              - A trick buried deep in initPage() requires that the MSB of the NV Item Id
     43                is to be reserved for use by this module.
     44          ******************************************************************************/
     45          
     46          /*********************************************************************
     47           * INCLUDES
     48           */
     49          
     50          #include "hal_adc.h"
     51          #include "hal_flash.h"
     52          #include "hal_types.h"
     53          #include "OSAL_Nv.h"
     54          #include "ZComDef.h"
     55          
     56          /*********************************************************************
     57           * CONSTANTS
     58           */
     59          
     60          #define OSAL_NV_PAGE_SIZE       HAL_FLASH_PAGE_SIZE
     61          #define OSAL_NV_PAGES_USED      HAL_NV_PAGE_CNT
     62          #define OSAL_NV_PAGE_BEG        HAL_NV_PAGE_BEG
     63          #define OSAL_NV_PAGE_END       (OSAL_NV_PAGE_BEG + OSAL_NV_PAGES_USED - 1)
     64          
     65          #define OSAL_NV_ACTIVE          0x00
     66          #define OSAL_NV_ERASED          0xFF
     67          #define OSAL_NV_ERASED_ID       0xFFFF
     68          #define OSAL_NV_ZEROED_ID       0x0000
     69          // Reserve MSB of Id to signal a search for the "old" source copy (new write interrupted/failed.)
     70          #define OSAL_NV_SOURCE_ID       0x8000
     71          
     72          // In case pages 0-1 are ever used, define a null page value.
     73          #define OSAL_NV_PAGE_NULL       0
     74          
     75          // In case item Id 0 is ever used, define a null item value.
     76          #define OSAL_NV_ITEM_NULL       0
     77          
     78          #define OSAL_NV_WORD_SIZE       HAL_FLASH_WORD_SIZE
     79          
     80          #define OSAL_NV_PAGE_HDR_OFFSET 0
     81          
     82          #define OSAL_NV_MAX_HOT         3

   \                                 In  segment XDATA_ROM_C, align 1
     83          static const uint16 hotIds[OSAL_NV_MAX_HOT] = {
   \                     hotIds:
   \   000000   8200         DW 130
   \   000002   3A00         DW 58
   \   000004   3B00         DW 59
     84            ZCD_NV_NWKKEY,
     85            ZCD_NV_NWK_ACTIVE_KEY_INFO,
     86            ZCD_NV_NWK_ALTERN_KEY_INFO,
     87          };
     88          
     89          /*********************************************************************
     90           * MACROS
     91           */
     92          
     93          #define OSAL_NV_CHECK_BUS_VOLTAGE  HalAdcCheckVdd(VDD_MIN_NV)
     94          
     95          #define OSAL_NV_DATA_SIZE( LEN )                      \
     96            (((LEN) >= ((uint16)(65536UL - OSAL_NV_WORD_SIZE))) ? \
     97                       ((uint16)(65536UL - OSAL_NV_WORD_SIZE))  : \
     98                       ((((LEN) + OSAL_NV_WORD_SIZE - 1) / OSAL_NV_WORD_SIZE) * OSAL_NV_WORD_SIZE))
     99          
    100          #define OSAL_NV_ITEM_SIZE( LEN )                                         \
    101            (((LEN) >= ((uint16)(65536UL - OSAL_NV_WORD_SIZE - OSAL_NV_HDR_SIZE))) ? \
    102                       ((uint16)(65536UL - OSAL_NV_WORD_SIZE))                     : \
    103            (((((LEN) + OSAL_NV_WORD_SIZE - 1) / OSAL_NV_WORD_SIZE) * OSAL_NV_WORD_SIZE) + OSAL_NV_HDR_SIZE))
    104          
    105          #define COMPACT_PAGE_CLEANUP( COM_PG ) st ( \
    106            /* In order to recover from a page compaction that is interrupted,\
    107             * the logic in osal_nv_init() depends upon the following order:\
    108             * 1. State of the target of compaction is changed to ePgInUse.\
    109             * 2. Compacted page is erased.\
    110             */\
    111            setPageUse( pgRes, TRUE );  /* Mark the reserve page as being in use. */\
    112            erasePage( (COM_PG) ); \
    113            \
    114            pgRes = (COM_PG);           /* Set the reserve page to be the newly erased page. */\
    115          )
    116          
    117          /*********************************************************************
    118           * TYPEDEFS
    119           */
    120          
    121          typedef struct
    122          {
    123            uint16 id;
    124            uint16 len;   // Enforce Flash-WORD size on len.
    125            uint16 chk;   // Byte-wise checksum of the 'len' data bytes of the item.
    126            uint16 stat;  // Item status.
    127          } osalNvHdr_t;
    128          // Struct member offsets.
    129          #define OSAL_NV_HDR_ID    0
    130          #define OSAL_NV_HDR_LEN   2
    131          #define OSAL_NV_HDR_CHK   4
    132          #define OSAL_NV_HDR_STAT  6
    133          
    134          #define OSAL_NV_HDR_ITEM  2  // Length of any item of a header struct.
    135          #define OSAL_NV_HDR_SIZE  8
    136          #define OSAL_NV_HDR_HALF (OSAL_NV_HDR_SIZE / 2)
    137          
    138          typedef struct
    139          {
    140            uint16 active;
    141            uint16 inUse;
    142            uint16 xfer;
    143            uint16 spare;
    144          } osalNvPgHdr_t;
    145          // Struct member offsets.
    146          #define OSAL_NV_PG_ACTIVE 0
    147          #define OSAL_NV_PG_INUSE  2
    148          #define OSAL_NV_PG_XFER   4
    149          #define OSAL_NV_PG_SPARE  6
    150          
    151          #define OSAL_NV_PAGE_HDR_SIZE  8
    152          #define OSAL_NV_PAGE_HDR_HALF (OSAL_NV_PAGE_HDR_SIZE / 2)
    153          
    154          typedef enum
    155          {
    156            eNvXfer,
    157            eNvZero
    158          } eNvHdrEnum;
    159          
    160          typedef enum
    161          {
    162            ePgActive,
    163            ePgInUse,
    164            ePgXfer,
    165            ePgSpare
    166          } ePgHdrEnum;
    167          
    168          /*********************************************************************
    169           * GLOBAL VARIABLES
    170           */
    171          
    172          #ifndef OAD_KEEP_NV_PAGES
    173          // When NV pages are to remain intact during OAD download,
    174          // the image itself should not include NV pages.
    175          #pragma location="ZIGNV_ADDRESS_SPACE"

   \                                 In  segment ZIGNV_ADDRESS_SPACE, align 1
    176          __no_init uint8 _nvBuf[OSAL_NV_PAGES_USED * OSAL_NV_PAGE_SIZE];
   \                     _nvBuf:
   \   000000                DS 12288
    177          #pragma required=_nvBuf
    178          #endif // OAD_KEEP_NV_PAGES
    179          
    180          /*********************************************************************
    181           * LOCAL VARIABLES
    182           */
    183          
    184          // Offset into the page of the first available erased space.

   \                                 In  segment XDATA_Z, align 1, keep-with-next
    185          static uint16 pgOff[OSAL_NV_PAGES_USED];
   \                     pgOff:
   \   000000                DS 12
   \   00000C                REQUIRE __INIT_XDATA_Z
   \   00000C                REQUIRE _nvBuf
    186          
    187          // Count of the bytes lost for the zeroed-out items.

   \                                 In  segment XDATA_Z, align 1, keep-with-next
    188          static uint16 pgLost[OSAL_NV_PAGES_USED];
   \                     pgLost:
   \   000000                DS 12
   \   00000C                REQUIRE __INIT_XDATA_Z
    189          

   \                                 In  segment XDATA_Z, align 1, keep-with-next
    190          static uint8 pgRes;  // Page reserved for item compacting transfer.
   \                     pgRes:
   \   000000                DS 1
   \   000001                REQUIRE __INIT_XDATA_Z
    191          
    192          // Saving ~100 code bytes to move a uint8* parameter/return value from findItem() to a global.

   \                                 In  segment XDATA_Z, align 1, keep-with-next
    193          static uint8 findPg;
   \                     findPg:
   \   000000                DS 1
   \   000001                REQUIRE __INIT_XDATA_Z
    194          
    195          // NV page and offsets for hot items.

   \                                 In  segment XDATA_Z, align 1, keep-with-next
    196          static uint8 hotPg[OSAL_NV_MAX_HOT];
   \                     hotPg:
   \   000000                DS 3
   \   000003                REQUIRE __INIT_XDATA_Z

   \                                 In  segment XDATA_Z, align 1, keep-with-next
    197          static uint16 hotOff[OSAL_NV_MAX_HOT];
   \                     hotOff:
   \   000000                DS 6
   \   000006                REQUIRE __INIT_XDATA_Z
    198          
    199          /*********************************************************************
    200           * LOCAL FUNCTIONS
    201           */
    202          
    203          static uint8  initNV( void );
    204          
    205          static void   setPageUse( uint8 pg, uint8 inUse );
    206          static uint16 initPage( uint8 pg, uint16 id, uint8 findDups );
    207          static void   erasePage( uint8 pg );
    208          static uint8  compactPage( uint8 srcPg, uint16 skipId );
    209          
    210          static uint16 findItem( uint16 id );
    211          static uint8  initItem( uint8 flag, uint16 id, uint16 len, void *buf );
    212          static void   setItem( uint8 pg, uint16 offset, eNvHdrEnum stat );
    213          static uint16 setChk( uint8 pg, uint16 offset, uint16 chk );
    214          
    215          static uint16 calcChkB( uint16 len, uint8 *buf );
    216          static uint16 calcChkF( uint8 pg, uint16 offset, uint16 len );
    217          
    218          static void   writeWord( uint8 pg, uint16 offset, uint8 *buf );
    219          static void   writeWordH( uint8 pg, uint16 offset, uint8 *buf );
    220          static void   writeWordM( uint8 pg, uint16 offset, uint8 *buf, uint16 cnt );
    221          static void   writeBuf( uint8 pg, uint16 offset, uint16 len, uint8 *buf );
    222          static void   xferBuf( uint8 srcPg, uint16 srcOff, uint8 dstPg, uint16 dstOff, uint16 len );
    223          
    224          static uint8  writeItem( uint8 pg, uint16 id, uint16 len, void *buf, uint8 flag );
    225          static uint8  hotItem(uint16 id);
    226          static void   hotItemUpdate(uint8 pg, uint16 off, uint16 id);
    227          
    228          /*********************************************************************
    229           * @fn      initNV
    230           *
    231           * @brief   Initialize the NV flash pages.
    232           *
    233           * @param   none
    234           *
    235           * @return  TRUE
    236           */

   \                                 In  segment BANKED_CODE, align 1, keep-with-next
    237          static uint8 initNV( void )
   \                     initNV:
    238          {
   \   000000   74F2         MOV     A,#-0xe
   \   000002   12....       LCALL   ?BANKED_ENTER_XDATA
   \   000005                ; Saved register size: 14
   \   000005                ; Auto size: 16
   \   000005   74F0         MOV     A,#-0x10
   \   000007   12....       LCALL   ?ALLOC_XSTACK8
    239            osalNvPgHdr_t pgHdr;
    240            uint8 oldPg = OSAL_NV_PAGE_NULL;
   \   00000A   75..00       MOV     ?V0 + 0,#0x0
    241            uint8 findDups = FALSE;
   \   00000D   75..00       MOV     ?V0 + 2,#0x0
    242            uint8 pg;
    243          
    244            pgRes = OSAL_NV_PAGE_NULL;
   \   000010   90....       MOV     DPTR,#pgRes
   \   000013   E4           CLR     A
   \   000014   F0           MOVX    @DPTR,A
    245          
    246            for ( pg = OSAL_NV_PAGE_BEG; pg <= OSAL_NV_PAGE_END; pg++ )
   \   000015   75..79       MOV     ?V0 + 1,#0x79
   \   000018   7FF2         MOV     R7,#-0xe
    247            {
    248              HalFlashRead(pg, OSAL_NV_PAGE_HDR_OFFSET, (uint8 *)(&pgHdr), OSAL_NV_HDR_SIZE);
   \                     ??initNV_0:
   \   00001A                ; Setup parameters for call to function HalFlashRead
   \   00001A   75..08       MOV     ?V0 + 4,#0x8
   \   00001D   75..00       MOV     ?V0 + 5,#0x0
   \   000020   78..         MOV     R0,#?V0 + 4
   \   000022   12....       LCALL   ?PUSH_XSTACK_I_TWO
   \   000025   740A         MOV     A,#0xa
   \   000027   12....       LCALL   ?XSTACK_DISP0_8
   \   00002A   AC82         MOV     R4,DPL
   \   00002C   AD83         MOV     R5,DPH
   \   00002E   7A00         MOV     R2,#0x0
   \   000030   7B00         MOV     R3,#0x0
   \   000032   A9..         MOV     R1,?V0 + 1
   \   000034   12....       LCALL   ??Subroutine51_0 & 0xFFFF
   \                     ??CrossCallReturnLabel_121:
   \   000037   12....       LCALL   ?DEALLOC_XSTACK8
    249          
    250              if ( pgHdr.active == OSAL_NV_ERASED_ID )
   \   00003A   7408         MOV     A,#0x8
   \   00003C   12....       LCALL   ?XSTACK_DISP0_8
   \   00003F   E0           MOVX    A,@DPTR
   \   000040   F4           CPL     A
   \   000041   7003         JNZ     ??initNV_1
   \   000043   A3           INC     DPTR
   \   000044   E0           MOVX    A,@DPTR
   \   000045   F4           CPL     A
   \                     ??initNV_1:
   \   000046   703A         JNZ     ??initNV_2
    251              {
    252                if ( pgRes == OSAL_NV_PAGE_NULL )
   \   000048   90....       MOV     DPTR,#pgRes
   \   00004B   E0           MOVX    A,@DPTR
   \   00004C   7005         JNZ     ??initNV_3
    253                {
    254                  pgRes = pg;
   \   00004E   E5..         MOV     A,?V0 + 1
   \   000050   F0           MOVX    @DPTR,A
   \   000051   8040         SJMP    ??initNV_4
    255                }
    256                else
    257                {
    258                  setPageUse( pg, TRUE );
   \                     ??initNV_3:
   \   000053   85..82       MOV     DPL,?XSP + 0
   \   000056   85..83       MOV     DPH,?XSP + 1
   \   000059   E4           CLR     A
   \   00005A   F0           MOVX    @DPTR,A
   \   00005B   A3           INC     DPTR
   \   00005C   F0           MOVX    @DPTR,A
   \   00005D   7402         MOV     A,#0x2
   \   00005F   12....       LCALL   ?XSTACK_DISP0_8
   \   000062   E4           CLR     A
   \   000063   F0           MOVX    @DPTR,A
   \   000064   A3           INC     DPTR
   \   000065   F0           MOVX    @DPTR,A
   \   000066                ; Setup parameters for call to function HalFlashWrite
   \   000066   75..01       MOV     ?V0 + 4,#0x1
   \   000069   78..         MOV     R0,#?V0 + 4
   \   00006B   12....       LCALL   ?PUSH_XSTACK_I_TWO
   \   00006E   7402         MOV     A,#0x2
   \   000070   12....       LCALL   ?XSTACK_DISP0_8
   \   000073   AC82         MOV     R4,DPL
   \   000075   AD83         MOV     R5,DPH
   \   000077   7A00         MOV     R2,#0x0
   \   000079   EF           MOV     A,R7
   \   00007A   12....       LCALL   ??Subroutine44_0 & 0xFFFF
   \                     ??CrossCallReturnLabel_84:
   \   00007D   12....       LCALL   ?DEALLOC_XSTACK8
    259                }
    260              }
   \   000080   8011         SJMP    ??initNV_4
    261              // An Xfer from this page was in progress.
    262              else if ( pgHdr.xfer != OSAL_NV_ERASED_ID )
   \                     ??initNV_2:
   \   000082   740C         MOV     A,#0xc
   \   000084   12....       LCALL   ?XSTACK_DISP0_8
   \   000087   E0           MOVX    A,@DPTR
   \   000088   F4           CPL     A
   \   000089   7003         JNZ     ??initNV_5
   \   00008B   A3           INC     DPTR
   \   00008C   E0           MOVX    A,@DPTR
   \   00008D   F4           CPL     A
   \                     ??initNV_5:
   \   00008E   6003         JZ      ??initNV_4
    263              {
    264                oldPg = pg;
   \   000090   85....       MOV     ?V0 + 0,?V0 + 1
    265              }
    266            }
   \                     ??initNV_4:
   \   000093   05..         INC     ?V0 + 1
   \   000095   0F           INC     R7
   \   000096   0F           INC     R7
   \   000097   E5..         MOV     A,?V0 + 1
   \   000099   C3           CLR     C
   \   00009A   947F         SUBB    A,#0x7f
   \   00009C   5003         JNC     $+5
   \   00009E   02....       LJMP    ??initNV_0 & 0xFFFF
    267          
    268            // If a page compaction was interrupted before the old page was erased.
    269            if ( oldPg != OSAL_NV_PAGE_NULL )
   \   0000A1   E5..         MOV     A,?V0 + 0
   \   0000A3   90....       MOV     DPTR,#pgRes
   \   0000A6   601F         JZ      ??initNV_6
    270            {
    271              /* Interrupted compaction before the target of compaction was put in use;
    272               * so erase the target of compaction and start again.
    273               */
    274              if ( pgRes != OSAL_NV_PAGE_NULL )
   \   0000A8   E0           MOVX    A,@DPTR
   \   0000A9   600F         JZ      ??initNV_7
    275              {
    276                erasePage( pgRes );
   \   0000AB                ; Setup parameters for call to function erasePage
   \   0000AB   F9           MOV     R1,A
   \   0000AC   12....       LCALL   ??erasePage?relay
    277                (void)compactPage( oldPg, OSAL_NV_ITEM_NULL );
   \   0000AF                ; Setup parameters for call to function compactPage
   \   0000AF   7A00         MOV     R2,#0x0
   \   0000B1   7B00         MOV     R3,#0x0
   \   0000B3   A9..         MOV     R1,?V0 + 0
   \   0000B5   12....       LCALL   ??compactPage?relay
   \   0000B8   8014         SJMP    ??initNV_8
    278              }
    279              /* Interrupted compaction after the target of compaction was put in use,
    280               * but before the old page was erased; so erase it now and create a new reserve page.
    281               */
    282              else
    283              {
    284                erasePage( oldPg );
   \                     ??initNV_7:
   \   0000BA                ; Setup parameters for call to function erasePage
   \   0000BA   A9..         MOV     R1,?V0 + 0
   \   0000BC   12....       LCALL   ??erasePage?relay
    285                pgRes = oldPg;
   \   0000BF   E5..         MOV     A,?V0 + 0
   \   0000C1   90....       MOV     DPTR,#pgRes
   \   0000C4   F0           MOVX    @DPTR,A
   \   0000C5   8007         SJMP    ??initNV_8
    286              }
    287            }
    288            else if ( pgRes != OSAL_NV_PAGE_NULL )
   \                     ??initNV_6:
   \   0000C7   E0           MOVX    A,@DPTR
   \   0000C8   6004         JZ      ??initNV_8
    289            {
    290              erasePage( pgRes );  // The last page erase could have been interrupted by a power-cycle.
   \   0000CA                ; Setup parameters for call to function erasePage
   \   0000CA   F9           MOV     R1,A
   \   0000CB   12....       LCALL   ??erasePage?relay
    291            }
    292            /* else if there is no reserve page, COMPACT_PAGE_CLEANUP() must have succeeded to put the old
    293             * reserve page (i.e. the target of the compacted items) into use but got interrupted by a reset
    294             * while trying to erase the page to be compacted. Such a page should only contain duplicate items
    295             * (i.e. all items will be marked 'Xfer') and thus should have the lost count equal to the page
    296             * size less the page header.
    297             */
    298          
    299            for ( pg = OSAL_NV_PAGE_BEG; pg <= OSAL_NV_PAGE_END; pg++ )
   \                     ??initNV_8:
   \   0000CE   75..79       MOV     ?V0 + 1,#0x79
    300            {
    301              // Calculate page offset and lost bytes - any "old" item triggers an N^2 re-scan from start.
    302              if ( initPage( pg, OSAL_NV_ITEM_NULL, findDups ) != OSAL_NV_ITEM_NULL )
   \                     ??initNV_9:
   \   0000D1                ; Setup parameters for call to function initPage
   \   0000D1   AC..         MOV     R4,?V0 + 2
   \   0000D3   7A00         MOV     R2,#0x0
   \   0000D5   7B00         MOV     R3,#0x0
   \   0000D7   A9..         MOV     R1,?V0 + 1
   \   0000D9   12....       LCALL   ??initPage?relay
   \   0000DC   8B..         MOV     ?V0 + 5,R3
   \   0000DE   EA           MOV     A,R2
   \   0000DF   45..         ORL     A,?V0 + 5
   \   0000E1   6006         JZ      ??initNV_10
    303              {
    304                findDups = TRUE;
   \   0000E3   75..01       MOV     ?V0 + 2,#0x1
    305                pg = (OSAL_NV_PAGE_BEG - 1);  // Pre-decrement so that loop increment will start over at zero.
   \   0000E6   75..78       MOV     ?V0 + 1,#0x78
    306                continue;
    307              }
    308            }
   \                     ??initNV_10:
   \   0000E9   05..         INC     ?V0 + 1
   \   0000EB   E5..         MOV     A,?V0 + 1
   \   0000ED   C3           CLR     C
   \   0000EE   947F         SUBB    A,#0x7f
   \   0000F0   40DF         JC      ??initNV_9
    309          
    310            if (findDups)
   \   0000F2   E5..         MOV     A,?V0 + 2
   \   0000F4   A2E0         MOV     C,0xE0 /* A   */.0
   \   0000F6   5017         JNC     ??initNV_11
    311            {
    312              // Final pass to calculate page lost after invalidating duplicate items.
    313              for ( pg = OSAL_NV_PAGE_BEG; pg <= OSAL_NV_PAGE_END; pg++ )
   \   0000F8   75..79       MOV     ?V0 + 1,#0x79
    314              {
    315                (void)initPage( pg, OSAL_NV_ITEM_NULL, FALSE );
   \                     ??initNV_12:
   \   0000FB                ; Setup parameters for call to function initPage
   \   0000FB   7C00         MOV     R4,#0x0
   \   0000FD   7A00         MOV     R2,#0x0
   \   0000FF   7B00         MOV     R3,#0x0
   \   000101   A9..         MOV     R1,?V0 + 1
   \   000103   12....       LCALL   ??initPage?relay
    316              }
   \   000106   05..         INC     ?V0 + 1
   \   000108   E5..         MOV     A,?V0 + 1
   \   00010A   C3           CLR     C
   \   00010B   947F         SUBB    A,#0x7f
   \   00010D   40EC         JC      ??initNV_12
    317            }
    318          
    319            if ( pgRes == OSAL_NV_PAGE_NULL )
   \                     ??initNV_11:
   \   00010F   90....       MOV     DPTR,#pgRes
   \   000112   E0           MOVX    A,@DPTR
   \   000113   704D         JNZ     ??initNV_13
    320            {
    321              uint8 idx, mostLost = 0;
   \   000115   7F00         MOV     R7,#0x0
    322          
    323              for ( idx = 0; idx < OSAL_NV_PAGES_USED; idx++ )
   \   000117   7E00         MOV     R6,#0x0
   \   000119   78..         MOV     R0,#pgLost & 0xff
   \   00011B   79..         MOV     R1,#(pgLost >> 8) & 0xff
    324              {
    325                // Is this the page that was compacted?
    326                if (pgLost[idx] == (OSAL_NV_PAGE_SIZE - OSAL_NV_PAGE_HDR_SIZE))
   \                     ??initNV_14:
   \   00011D   8882         MOV     DPL,R0
   \   00011F   8983         MOV     DPH,R1
   \   000121   12....       LCALL   ?Subroutine12 & 0xFFFF
   \                     ??CrossCallReturnLabel_10:
   \   000124   74F8         MOV     A,#-0x8
   \   000126   6C           XRL     A,R4
   \   000127   7003         JNZ     ??initNV_15
   \   000129   7407         MOV     A,#0x7
   \   00012B   6D           XRL     A,R5
   \                     ??initNV_15:
   \   00012C   7004         JNZ     ??initNV_16
    327                {
    328                  mostLost = idx;
   \   00012E   EE           MOV     A,R6
   \   00012F   FF           MOV     R7,A
    329                  break;
   \   000130   8025         SJMP    ??initNV_17
    330                }
    331                /* This check is not expected to be necessary because the above test should always succeed
    332                 * with an early loop exit.
    333                 */
    334                else if (pgLost[idx] > pgLost[mostLost])
   \                     ??initNV_16:
   \   000132   EF           MOV     A,R7
   \   000133   C3           CLR     C
   \   000134   33           RLC     A
   \   000135   FA           MOV     R2,A
   \   000136   E4           CLR     A
   \   000137   33           RLC     A
   \   000138   FB           MOV     R3,A
   \   000139   74..         MOV     A,#pgLost & 0xff
   \   00013B   2A           ADD     A,R2
   \   00013C   F582         MOV     DPL,A
   \   00013E   74..         MOV     A,#(pgLost >> 8) & 0xff
   \   000140   3B           ADDC    A,R3
   \   000141   F583         MOV     DPH,A
   \   000143   C3           CLR     C
   \   000144   E0           MOVX    A,@DPTR
   \   000145   9C           SUBB    A,R4
   \   000146   A3           INC     DPTR
   \   000147   E0           MOVX    A,@DPTR
   \   000148   9D           SUBB    A,R5
   \   000149   5002         JNC     ??initNV_18
    335                {
    336                  mostLost = idx;
   \   00014B   EE           MOV     A,R6
   \   00014C   FF           MOV     R7,A
    337                }
    338              }
   \                     ??initNV_18:
   \   00014D   0E           INC     R6
   \   00014E   12....       LCALL   ?Subroutine28 & 0xFFFF
   \                     ??CrossCallReturnLabel_54:
   \   000151   EE           MOV     A,R6
   \   000152   C3           CLR     C
   \   000153   9406         SUBB    A,#0x6
   \   000155   40C6         JC      ??initNV_14
    339          
    340              pgRes = mostLost + OSAL_NV_PAGE_BEG;
   \                     ??initNV_17:
   \   000157   7479         MOV     A,#0x79
   \   000159   2F           ADD     A,R7
   \   00015A   90....       MOV     DPTR,#pgRes
   \   00015D   F0           MOVX    @DPTR,A
    341              erasePage( pgRes );  // The last page erase had been interrupted by a power-cycle.
   \   00015E                ; Setup parameters for call to function erasePage
   \   00015E   F9           MOV     R1,A
   \   00015F   12....       LCALL   ??erasePage?relay
    342            }
    343          
    344            return TRUE;
   \                     ??initNV_13:
   \   000162   7901         MOV     R1,#0x1
   \   000164   7410         MOV     A,#0x10
   \   000166   02....       LJMP    ?Subroutine0 & 0xFFFF
    345          }

   \                                 In  segment BANKED_CODE, align 1, keep-with-next
   \                     ?Subroutine12:
   \   000000   E0           MOVX    A,@DPTR
   \   000001   FC           MOV     R4,A
   \   000002   A3           INC     DPTR
   \   000003   E0           MOVX    A,@DPTR
   \   000004   FD           MOV     R5,A
   \   000005   22           RET

   \                                 In  segment BANKED_CODE, align 1, keep-with-next
   \                     ??Subroutine51_0:
   \   000000   12....       LCALL   ??HalFlashRead?relay
   \   000003   7402         MOV     A,#0x2
   \   000005   22           RET

   \                                 In  segment BANKED_CODE, align 1, keep-with-next
   \                     ?Subroutine28:
   \   000000   12....       LCALL   ?Subroutine43 & 0xFFFF
   \                     ??CrossCallReturnLabel_81:
   \   000003   22           RET

   \                                 In  segment BANKED_CODE, align 1, keep-with-next
   \                     ?Subroutine43:
   \   000000   E8           MOV     A,R0
   \   000001   2402         ADD     A,#0x2
   \   000003   08           INC     R0
   \   000004   08           INC     R0
   \   000005   E9           MOV     A,R1
   \   000006   3400         ADDC    A,#0x0
   \   000008   F9           MOV     R1,A
   \   000009   22           RET

   \                                 In  segment BANKED_CODE, align 1, keep-with-next
   \                     ?Subroutine0:
   \   000000   12....       LCALL   ?DEALLOC_XSTACK8
   \   000003                REQUIRE ??Subroutine53_0
   \   000003                ; // Fall through to label ??Subroutine53_0

   \                                 In  segment BANKED_CODE, align 1, keep-with-next
   \                     ??Subroutine53_0:
   \   000000   7F06         MOV     R7,#0x6
   \   000002   02....       LJMP    ?BANKED_LEAVE_XDATA
    346          
    347          /*********************************************************************
    348           * @fn      setPageUse
    349           *
    350           * @brief   Set page header active/inUse state according to 'inUse'.
    351           *
    352           * @param   pg - Valid NV page to verify and init.
    353           * @param   inUse - Boolean TRUE if inUse, FALSE if only active.
    354           *
    355           * @return  none
    356           */
    357          static void setPageUse( uint8 pg, uint8 inUse )
    358          {
    359            osalNvPgHdr_t pgHdr;
    360          
    361            pgHdr.active = OSAL_NV_ZEROED_ID;
    362          
    363            if ( inUse )
    364            {
    365              pgHdr.inUse = OSAL_NV_ZEROED_ID;
    366            }
    367            else
    368            {
    369              pgHdr.inUse = OSAL_NV_ERASED_ID;
    370            }
    371          
    372            writeWord( pg, OSAL_NV_PAGE_HDR_OFFSET, (uint8*)(&pgHdr) );
    373          }
    374          
    375          /*********************************************************************
    376           * @fn      initPage
    377           *
    378           * @brief   Walk the page items; calculate checksums, lost bytes & page offset.
    379           *
    380           * @param   pg - Valid NV page to verify and init.
    381           * @param   id - Valid NV item Id to use function as a "findItem".
    382           *               If set to NULL then just perform the page initialization.
    383           * @param   findDups - TRUE on recursive call from initNV() to find and zero-out duplicate items
    384           *                     left from a write that is interrupted by a reset/power-cycle.
    385           *                     FALSE otherwise.
    386           *
    387           * @return  If 'id' is non-NULL and good checksums are found, return the offset
    388           *          of the data corresponding to item Id; else OSAL_NV_ITEM_NULL.
    389           */

   \                                 In  segment BANKED_CODE, align 1, keep-with-next
    390          static uint16 initPage( uint8 pg, uint16 id, uint8 findDups )
   \                     initPage:
    391          {
   \   000000   74EA         MOV     A,#-0x16
   \   000002   12....       LCALL   ?BANKED_ENTER_XDATA
   \   000005                ; Saved register size: 22
   \   000005                ; Auto size: 8
   \   000005   74F8         MOV     A,#-0x8
   \   000007   12....       LCALL   ?ALLOC_XSTACK8
   \   00000A   89..         MOV     ?V0 + 8,R1
   \   00000C   8A..         MOV     ?V0 + 10,R2
   \   00000E   8B..         MOV     ?V0 + 11,R3
   \   000010   8C..         MOV     ?V0 + 9,R4
    392            uint16 offset = OSAL_NV_PAGE_HDR_SIZE;
   \   000012   75..08       MOV     ?V0 + 6,#0x8
   \   000015   75..00       MOV     ?V0 + 7,#0x0
    393            uint16 sz, lost = 0;
   \   000018   7E00         MOV     R6,#0x0
   \   00001A   7F00         MOV     R7,#0x0
   \   00001C   EB           MOV     A,R3
   \   00001D   5480         ANL     A,#0x80
   \   00001F   F5..         MOV     ?V0 + 5,A
   \   000021   EA           MOV     A,R2
   \   000022   F5..         MOV     ?V0 + 2,A
   \   000024   EB           MOV     A,R3
   \   000025   547F         ANL     A,#0x7f
   \   000027   F5..         MOV     ?V0 + 3,A
    394            osalNvHdr_t hdr;
    395          
    396            do
    397            {
    398              HalFlashRead(pg, offset, (uint8 *)(&hdr), OSAL_NV_HDR_SIZE);
   \                     ??initPage_0:
   \   000029                ; Setup parameters for call to function HalFlashRead
   \   000029   75..08       MOV     ?V0 + 0,#0x8
   \   00002C   75..00       MOV     ?V0 + 1,#0x0
   \   00002F   78..         MOV     R0,#?V0 + 0
   \   000031   12....       LCALL   ?PUSH_XSTACK_I_TWO
   \   000034   7402         MOV     A,#0x2
   \   000036   12....       LCALL   ?XSTACK_DISP0_8
   \   000039   AC82         MOV     R4,DPL
   \   00003B   AD83         MOV     R5,DPH
   \   00003D   AA..         MOV     R2,?V0 + 6
   \   00003F   AB..         MOV     R3,?V0 + 7
   \   000041   12....       LCALL   ??Subroutine50_0 & 0xFFFF
   \                     ??CrossCallReturnLabel_118:
   \   000044   12....       LCALL   ?DEALLOC_XSTACK8
    399          
    400              if ( hdr.id == OSAL_NV_ERASED_ID )
   \   000047   85..82       MOV     DPL,?XSP + 0
   \   00004A   85..83       MOV     DPH,?XSP + 1
   \   00004D   E0           MOVX    A,@DPTR
   \   00004E   F4           CPL     A
   \   00004F   7003         JNZ     ??initPage_1
   \   000051   A3           INC     DPTR
   \   000052   E0           MOVX    A,@DPTR
   \   000053   F4           CPL     A
   \                     ??initPage_1:
   \   000054   7003         JNZ     $+5
   \   000056   02....       LJMP    ??initPage_2 & 0xFFFF
    401              {
    402                break;
    403              }
    404          
    405              // Get the actual size in bytes which is the ceiling(hdr.len)
    406              sz = OSAL_NV_DATA_SIZE( hdr.len );
   \   000059   7402         MOV     A,#0x2
   \   00005B   12....       LCALL   ?XSTACK_DISP0_8
   \   00005E   12....       LCALL   ?Subroutine11 & 0xFFFF
   \                     ??CrossCallReturnLabel_8:
   \   000061   4008         JC      ??initPage_3
   \   000063   75..FC       MOV     ?V0 + 0,#-0x4
   \   000066   75..FF       MOV     ?V0 + 1,#-0x1
   \   000069   8008         SJMP    ??initPage_4
   \                     ??initPage_3:
   \   00006B   12....       LCALL   ?Subroutine30 & 0xFFFF
   \                     ??CrossCallReturnLabel_56:
   \   00006E   F5..         MOV     ?V0 + 0,A
   \   000070   E9           MOV     A,R1
   \   000071   F5..         MOV     ?V0 + 1,A
    407          
    408              // A bad 'len' write has blown away the rest of the page.
    409              if (sz > (OSAL_NV_PAGE_SIZE - OSAL_NV_HDR_SIZE - offset))
   \                     ??initPage_4:
   \   000073   74F8         MOV     A,#-0x8
   \   000075   C3           CLR     C
   \   000076   95..         SUBB    A,?V0 + 6
   \   000078   F8           MOV     R0,A
   \   000079   7407         MOV     A,#0x7
   \   00007B   95..         SUBB    A,?V0 + 7
   \   00007D   F9           MOV     R1,A
   \   00007E   C3           CLR     C
   \   00007F   E8           MOV     A,R0
   \   000080   95..         SUBB    A,?V0 + 0
   \   000082   E9           MOV     A,R1
   \   000083   95..         SUBB    A,?V0 + 1
   \   000085   501A         JNC     ??initPage_5
    410              {
    411                lost += (OSAL_NV_PAGE_SIZE - offset);
   \   000087   EE           MOV     A,R6
   \   000088   2400         ADD     A,#0x0
   \   00008A   F8           MOV     R0,A
   \   00008B   EF           MOV     A,R7
   \   00008C   3408         ADDC    A,#0x8
   \   00008E   F9           MOV     R1,A
   \   00008F   E8           MOV     A,R0
   \   000090   C3           CLR     C
   \   000091   95..         SUBB    A,?V0 + 6
   \   000093   FE           MOV     R6,A
   \   000094   E9           MOV     A,R1
   \   000095   95..         SUBB    A,?V0 + 7
   \   000097   FF           MOV     R7,A
    412                offset = OSAL_NV_PAGE_SIZE;
   \   000098   75..00       MOV     ?V0 + 6,#0x0
   \   00009B   75..08       MOV     ?V0 + 7,#0x8
    413                break;
   \   00009E   02....       LJMP    ??initPage_2 & 0xFFFF
    414              }
    415          
    416              offset += OSAL_NV_HDR_SIZE;
   \                     ??initPage_5:
   \   0000A1   E5..         MOV     A,?V0 + 6
   \   0000A3   2408         ADD     A,#0x8
   \   0000A5   F5..         MOV     ?V0 + 6,A
   \   0000A7   E5..         MOV     A,?V0 + 7
   \   0000A9   3400         ADDC    A,#0x0
   \   0000AB   F5..         MOV     ?V0 + 7,A
    417          
    418              if ( hdr.id != OSAL_NV_ZEROED_ID )
   \   0000AD   85..82       MOV     DPL,?XSP + 0
   \   0000B0   85..83       MOV     DPH,?XSP + 1
   \   0000B3   12....       LCALL   ?Subroutine25 & 0xFFFF
   \                     ??CrossCallReturnLabel_39:
   \   0000B6   E8           MOV     A,R0
   \   0000B7   49           ORL     A,R1
   \   0000B8   7003         JNZ     $+5
   \   0000BA   02....       LJMP    ??initPage_6 & 0xFFFF
    419              {
    420                /* This trick allows function to do double duty for findItem() without
    421                 * compromising its essential functionality at powerup initialization.
    422                 */
    423                if ( id != OSAL_NV_ITEM_NULL )
   \   0000BD   E5..         MOV     A,?V0 + 10
   \   0000BF   45..         ORL     A,?V0 + 11
   \   0000C1   6043         JZ      ??initPage_7
    424                {
    425                  /* This trick allows asking to find the old/transferred item in case
    426                   * of a successful new item write that gets interrupted before the
    427                   * old item can be zeroed out.
    428                   */
    429                  if ( (id & 0x7fff) == hdr.id )
   \   0000C3   85..82       MOV     DPL,?XSP + 0
   \   0000C6   85..83       MOV     DPH,?XSP + 1
   \   0000C9   E0           MOVX    A,@DPTR
   \   0000CA   65..         XRL     A,?V0 + 2
   \   0000CC   7004         JNZ     ??initPage_8
   \   0000CE   A3           INC     DPTR
   \   0000CF   E0           MOVX    A,@DPTR
   \   0000D0   65..         XRL     A,?V0 + 3
   \                     ??initPage_8:
   \   0000D2   6003         JZ      $+5
   \   0000D4   02....       LJMP    ??initPage_9 & 0xFFFF
    430                  {
    431                    if ( (((id & OSAL_NV_SOURCE_ID) == 0) && (hdr.stat == OSAL_NV_ERASED_ID)) ||
    432                         (((id & OSAL_NV_SOURCE_ID) != 0) && (hdr.stat != OSAL_NV_ERASED_ID)) )
   \   0000D7   7406         MOV     A,#0x6
   \   0000D9   12....       LCALL   ?XSTACK_DISP0_8
   \   0000DC   12....       LCALL   ?Subroutine25 & 0xFFFF
   \                     ??CrossCallReturnLabel_40:
   \   0000DF   E5..         MOV     A,?V0 + 5
   \   0000E1   700F         JNZ     ??initPage_10
   \   0000E3   74FF         MOV     A,#-0x1
   \   0000E5   68           XRL     A,R0
   \   0000E6   7003         JNZ     ??initPage_11
   \   0000E8   74FF         MOV     A,#-0x1
   \   0000EA   69           XRL     A,R1
   \                     ??initPage_11:
   \   0000EB   6003         JZ      $+5
   \   0000ED   02....       LJMP    ??initPage_9 & 0xFFFF
   \   0000F0   800D         SJMP    ??initPage_12
   \                     ??initPage_10:
   \   0000F2   74FF         MOV     A,#-0x1
   \   0000F4   68           XRL     A,R0
   \   0000F5   7003         JNZ     ??initPage_13
   \   0000F7   74FF         MOV     A,#-0x1
   \   0000F9   69           XRL     A,R1
   \                     ??initPage_13:
   \   0000FA   7003         JNZ     $+5
   \   0000FC   02....       LJMP    ??initPage_9 & 0xFFFF
    433                    {
    434                      return offset;
   \                     ??initPage_12:
   \   0000FF   AA..         MOV     R2,?V0 + 6
   \   000101   AB..         MOV     R3,?V0 + 7
   \   000103   02....       LJMP    ??initPage_14 & 0xFFFF
    435                    }
    436                  }
    437                }
    438                // When invoked from the osal_nv_init(), verify checksums and find & zero any duplicates.
    439                else
    440                {
    441                  if ( hdr.chk == calcChkF( pg, offset, hdr.len ) )
   \                     ??initPage_7:
   \   000106                ; Setup parameters for call to function calcChkF
   \   000106   AA..         MOV     R2,?V0 + 6
   \   000108   AB..         MOV     R3,?V0 + 7
   \   00010A   A9..         MOV     R1,?V0 + 8
   \   00010C   12....       LCALL   ??calcChkF?relay
   \   00010F   8A..         MOV     ?V0 + 12,R2
   \   000111   8B..         MOV     ?V0 + 13,R3
   \   000113   A8..         MOV     R0,?V0 + 12
   \   000115   A9..         MOV     R1,?V0 + 13
   \   000117   7404         MOV     A,#0x4
   \   000119   12....       LCALL   ?XSTACK_DISP0_8
   \   00011C   E0           MOVX    A,@DPTR
   \   00011D   68           XRL     A,R0
   \   00011E   7003         JNZ     ??initPage_15
   \   000120   A3           INC     DPTR
   \   000121   E0           MOVX    A,@DPTR
   \   000122   69           XRL     A,R1
   \                     ??initPage_15:
   \   000123   7046         JNZ     ??initPage_16
    442                  {
    443                    if ( findDups )
   \   000125   7406         MOV     A,#0x6
   \   000127   12....       LCALL   ?XSTACK_DISP0_8
   \   00012A   12....       LCALL   ?Subroutine25 & 0xFFFF
   \                     ??CrossCallReturnLabel_41:
   \   00012D   E5..         MOV     A,?V0 + 9
   \   00012F   602A         JZ      ??initPage_17
    444                    {
    445                      if ( hdr.stat == OSAL_NV_ERASED_ID )
   \   000131   74FF         MOV     A,#-0x1
   \   000133   68           XRL     A,R0
   \   000134   7003         JNZ     ??initPage_18
   \   000136   74FF         MOV     A,#-0x1
   \   000138   69           XRL     A,R1
   \                     ??initPage_18:
   \   000139   704B         JNZ     ??initPage_9
    446                      {
    447                        /* The trick of setting the MSB of the item Id causes the logic
    448                         * immediately above to return a valid page only if the header 'stat'
    449                         * indicates that it was the older item being transferred.
    450                         */
    451                        uint16 off = findItem( (hdr.id | OSAL_NV_SOURCE_ID) );
   \   00013B                ; Setup parameters for call to function findItem
   \   00013B   85..82       MOV     DPL,?XSP + 0
   \   00013E   85..83       MOV     DPH,?XSP + 1
   \   000141   E0           MOVX    A,@DPTR
   \   000142   FA           MOV     R2,A
   \   000143   A3           INC     DPTR
   \   000144   E0           MOVX    A,@DPTR
   \   000145   4480         ORL     A,#0x80
   \   000147   FB           MOV     R3,A
   \   000148   12....       LCALL   ??findItem?relay
    452          
    453                        if ( off != OSAL_NV_ITEM_NULL )
   \   00014B   EA           MOV     A,R2
   \   00014C   4B           ORL     A,R3
   \   00014D   6037         JZ      ??initPage_9
    454                        {
    455                          setItem( findPg, off, eNvZero );  // Mark old duplicate as invalid.
   \   00014F                ; Setup parameters for call to function setItem
   \   00014F   7C01         MOV     R4,#0x1
   \   000151   90....       MOV     DPTR,#findPg
   \   000154   E0           MOVX    A,@DPTR
   \   000155   F9           MOV     R1,A
   \   000156   12....       LCALL   ??setItem?relay
   \   000159   802B         SJMP    ??initPage_9
    456                        }
    457                      }
    458                    }
    459                    // Any "old" item immediately exits and triggers the N^2 exhaustive initialization.
    460                    else if ( hdr.stat != OSAL_NV_ERASED_ID )
   \                     ??initPage_17:
   \   00015B   74FF         MOV     A,#-0x1
   \   00015D   68           XRL     A,R0
   \   00015E   7003         JNZ     ??initPage_19
   \   000160   74FF         MOV     A,#-0x1
   \   000162   69           XRL     A,R1
   \                     ??initPage_19:
   \   000163   6021         JZ      ??initPage_9
    461                    {
    462                      return OSAL_NV_ERASED_ID;
   \   000165   7AFF         MOV     R2,#-0x1
   \   000167   7BFF         MOV     R3,#-0x1
   \   000169   804C         SJMP    ??initPage_14
    463                    }
    464                  }
    465                  else
    466                  {
    467                    setItem( pg, offset, eNvZero );  // Mark bad checksum as invalid.
   \                     ??initPage_16:
   \   00016B                ; Setup parameters for call to function setItem
   \   00016B   7C01         MOV     R4,#0x1
   \   00016D   AA..         MOV     R2,?V0 + 6
   \   00016F   AB..         MOV     R3,?V0 + 7
   \   000171   A9..         MOV     R1,?V0 + 8
   \   000173   12....       LCALL   ??setItem?relay
    468                    lost += (OSAL_NV_HDR_SIZE + sz);
    469                  }
    470                }
    471              }
    472              else
    473              {
    474                lost += (OSAL_NV_HDR_SIZE + sz);
   \                     ??initPage_6:
   \   000176   E5..         MOV     A,?V0 + 0
   \   000178   2408         ADD     A,#0x8
   \   00017A   F8           MOV     R0,A
   \   00017B   E5..         MOV     A,?V0 + 1
   \   00017D   3400         ADDC    A,#0x0
   \   00017F   F9           MOV     R1,A
   \   000180   EE           MOV     A,R6
   \   000181   28           ADD     A,R0
   \   000182   FE           MOV     R6,A
   \   000183   EF           MOV     A,R7
   \   000184   39           ADDC    A,R1
   \   000185   FF           MOV     R7,A
    475              }
    476              offset += sz;
   \                     ??initPage_9:
   \   000186   E5..         MOV     A,?V0 + 6
   \   000188   25..         ADD     A,?V0 + 0
   \   00018A   F5..         MOV     ?V0 + 6,A
   \   00018C   E5..         MOV     A,?V0 + 7
   \   00018E   35..         ADDC    A,?V0 + 1
   \   000190   F5..         MOV     ?V0 + 7,A
    477          
    478            } while (offset < (OSAL_NV_PAGE_SIZE - OSAL_NV_HDR_SIZE));
   \   000192   C3           CLR     C
   \   000193   E5..         MOV     A,?V0 + 6
   \   000195   94F8         SUBB    A,#-0x8
   \   000197   E5..         MOV     A,?V0 + 7
   \   000199   9407         SUBB    A,#0x7
   \   00019B   5003         JNC     $+5
   \   00019D   02....       LJMP    ??initPage_0 & 0xFFFF
    479          
    480            pgOff[pg - OSAL_NV_PAGE_BEG] = offset;
   \                     ??initPage_2:
   \   0001A0   E5..         MOV     A,?V0 + 8
   \   0001A2   12....       LCALL   ??Subroutine46_0 & 0xFFFF
   \                     ??CrossCallReturnLabel_99:
   \   0001A5   E5..         MOV     A,?V0 + 6
   \   0001A7   F0           MOVX    @DPTR,A
   \   0001A8   A3           INC     DPTR
   \   0001A9   E5..         MOV     A,?V0 + 7
   \   0001AB   12....       LCALL   ?Subroutine7 & 0xFFFF
    481            pgLost[pg - OSAL_NV_PAGE_BEG] = lost;
   \                     ??CrossCallReturnLabel_2:
   \   0001AE   EE           MOV     A,R6
   \   0001AF   F0           MOVX    @DPTR,A
   \   0001B0   A3           INC     DPTR
   \   0001B1   EF           MOV     A,R7
   \   0001B2   F0           MOVX    @DPTR,A
    482          
    483            return OSAL_NV_ITEM_NULL;
   \   0001B3   7A00         MOV     R2,#0x0
   \   0001B5   7B00         MOV     R3,#0x0
   \                     ??initPage_14:
   \   0001B7   7408         MOV     A,#0x8
   \   0001B9                REQUIRE ?Subroutine1
   \   0001B9                ; // Fall through to label ?Subroutine1
    484          }

   \                                 In  segment BANKED_CODE, align 1, keep-with-next
   \                     ?Subroutine1:
   \   000000   12....       LCALL   ?DEALLOC_XSTACK8
   \   000003   7F0E         MOV     R7,#0xe
   \   000005   02....       LJMP    ?BANKED_LEAVE_XDATA

   \                                 In  segment BANKED_CODE, align 1, keep-with-next
   \                     ??Subroutine46_0:
   \   000000   C3           CLR     C
   \   000001   33           RLC     A
   \   000002   F8           MOV     R0,A
   \   000003   E4           CLR     A
   \   000004   33           RLC     A
   \   000005   F9           MOV     R1,A
   \   000006   74..         MOV     A,#(pgOff + 14) & 0xff
   \   000008   28           ADD     A,R0
   \   000009   F582         MOV     DPL,A
   \   00000B   74..         MOV     A,#((pgOff - 242) >> 8) & 0xff
   \   00000D   39           ADDC    A,R1
   \   00000E   F583         MOV     DPH,A
   \   000010   22           RET

   \                                 In  segment BANKED_CODE, align 1, keep-with-next
   \                     ?Subroutine7:
   \   000000   F0           MOVX    @DPTR,A
   \   000001   74..         MOV     A,#(pgLost + 14) & 0xff
   \   000003   28           ADD     A,R0
   \   000004   F582         MOV     DPL,A
   \   000006   74..         MOV     A,#((pgLost - 242) >> 8) & 0xff
   \   000008   39           ADDC    A,R1
   \   000009   F583         MOV     DPH,A
   \   00000B   22           RET

   \                                 In  segment BANKED_CODE, align 1, keep-with-next
   \                     ?Subroutine30:
   \   000000   EC           MOV     A,R4
   \   000001   2403         ADD     A,#0x3
   \   000003   F8           MOV     R0,A
   \   000004   ED           MOV     A,R5
   \   000005   12....       LCALL   ?Subroutine40 & 0xFFFF
   \                     ??CrossCallReturnLabel_141:
   \   000008   22           RET

   \                                 In  segment BANKED_CODE, align 1, keep-with-next
   \                     ?Subroutine40:
   \   000000   3400         ADDC    A,#0x0
   \   000002   F9           MOV     R1,A
   \   000003   E8           MOV     A,R0
   \   000004   54FC         ANL     A,#0xfc
   \   000006   22           RET

   \                                 In  segment BANKED_CODE, align 1, keep-with-next
   \                     ?Subroutine11:
   \   000000   E0           MOVX    A,@DPTR
   \   000001   FC           MOV     R4,A
   \   000002   A3           INC     DPTR
   \   000003   E0           MOVX    A,@DPTR
   \   000004   FD           MOV     R5,A
   \   000005   C3           CLR     C
   \   000006   EC           MOV     A,R4
   \   000007   94FC         SUBB    A,#-0x4
   \   000009   ED           MOV     A,R5
   \   00000A   94FF         SUBB    A,#-0x1
   \   00000C   22           RET

   \                                 In  segment BANKED_CODE, align 1, keep-with-next
   \                     ??Subroutine50_0:
   \   000000   A9..         MOV     R1,?V0 + 8
   \   000002                REQUIRE ??Subroutine51_0
   \   000002                ; // Fall through to label ??Subroutine51_0

   \                                 In  segment BANKED_CODE, align 1, keep-with-next
   \                     ?Subroutine25:
   \   000000   12....       LCALL   ?Subroutine39 & 0xFFFF
   \                     ??CrossCallReturnLabel_79:
   \   000003   22           RET

   \                                 In  segment BANKED_CODE, align 1, keep-with-next
   \                     ?Subroutine39:
   \   000000   E0           MOVX    A,@DPTR
   \   000001   F8           MOV     R0,A
   \   000002   A3           INC     DPTR
   \   000003   E0           MOVX    A,@DPTR
   \   000004   F9           MOV     R1,A
   \   000005   22           RET
    485          
    486          /*********************************************************************
    487           * @fn      erasePage
    488           *
    489           * @brief   Erases a page in Flash.
    490           *
    491           * @param   pg - Valid NV page to erase.
    492           *
    493           * @return  none
    494           */

   \                                 In  segment BANKED_CODE, align 1, keep-with-next
    495          static void erasePage( uint8 pg )
   \                     erasePage:
    496          {
   \   000000   74F7         MOV     A,#-0x9
   \   000002   12....       LCALL   ?BANKED_ENTER_XDATA
   \   000005                ; Saved register size: 9
   \   000005                ; Auto size: 0
   \   000005   E9           MOV     A,R1
   \   000006   FE           MOV     R6,A
    497            HalFlashErase(pg);
   \   000007                ; Setup parameters for call to function HalFlashErase
   \   000007   12....       LCALL   ??HalFlashErase?relay
    498          
    499            pgOff[pg - OSAL_NV_PAGE_BEG] = OSAL_NV_PAGE_HDR_SIZE;
   \   00000A   12....       LCALL   ?Subroutine32 & 0xFFFF
   \                     ??CrossCallReturnLabel_101:
   \   00000D   7408         MOV     A,#0x8
   \   00000F   F0           MOVX    @DPTR,A
   \   000010   A3           INC     DPTR
   \   000011   E4           CLR     A
   \   000012   12....       LCALL   ?Subroutine7 & 0xFFFF
    500            pgLost[pg - OSAL_NV_PAGE_BEG] = 0;
   \                     ??CrossCallReturnLabel_3:
   \   000015   E4           CLR     A
   \   000016   F0           MOVX    @DPTR,A
   \   000017   A3           INC     DPTR
   \   000018   F0           MOVX    @DPTR,A
    501          }
   \   000019                REQUIRE ?Subroutine2
   \   000019                ; // Fall through to label ?Subroutine2

   \                                 In  segment BANKED_CODE, align 1, keep-with-next
   \                     ?Subroutine2:
   \   000000   7F01         MOV     R7,#0x1
   \   000002   02....       LJMP    ?BANKED_LEAVE_XDATA

   \                                 In  segment BANKED_CODE, align 1, keep-with-next
   \                     ?Subroutine32:
   \   000000   EE           MOV     A,R6
   \   000001                REQUIRE ??Subroutine46_0
   \   000001                ; // Fall through to label ??Subroutine46_0
    502          
    503          /*********************************************************************
    504           * @fn      compactPage
    505           *
    506           * @brief   Compacts the page specified.
    507           *
    508           * @param   srcPg - Valid NV page to erase.
    509           * @param   skipId - Item Id to not compact.
    510           *
    511           * @return  TRUE if valid items from 'srcPg' are successully compacted onto the 'pgRes';
    512           *          FALSE otherwise.
    513           *          Note that on a failure, this could loop, re-erasing the 'pgRes' and re-compacting with
    514           *          the risk of infinitely looping on HAL flash failure.
    515           *          Worst case scenario: HAL flash starts failing in general, perhaps low Vdd?
    516           *          All page compactions will fail which will cause all osal_nv_write() calls to return
    517           *          NV_OPER_FAILED.
    518           *          Eventually, all pages in use may also be in the state of "pending compaction" where
    519           *          the page header member OSAL_NV_PG_XFER is zeroed out.
    520           *          During this "HAL flash brown-out", the code will run and OTA should work (until low Vdd
    521           *          causes an actual chip brown-out, of course.) Although no new NV items will be created
    522           *          or written, the last value written with a return value of SUCCESS can continue to be
    523           *          read successfully.
    524           *          If eventually HAL flash starts working again, all of the pages marked as
    525           *          "pending compaction" may or may not be eventually compacted. But, initNV() will
    526           *          deterministically clean-up one page pending compaction per power-cycle
    527           *          (if HAL flash is working.) Nevertheless, one erased reserve page will be maintained
    528           *          through such a scenario.
    529           */

   \                                 In  segment BANKED_CODE, align 1, keep-with-next
    530          static uint8 compactPage( uint8 srcPg, uint16 skipId )
   \                     compactPage:
    531          {
   \   000000   74EA         MOV     A,#-0x16
   \   000002   12....       LCALL   ?BANKED_ENTER_XDATA
   \   000005                ; Saved register size: 22
   \   000005                ; Auto size: 15
   \   000005   74F1         MOV     A,#-0xf
   \   000007   12....       LCALL   ?ALLOC_XSTACK8
   \   00000A   89..         MOV     ?V0 + 7,R1
   \   00000C   8A..         MOV     ?V0 + 12,R2
   \   00000E   8B..         MOV     ?V0 + 13,R3
    532            uint16 srcOff;
    533            uint8 rtrn;
    534          
    535            // To minimize code size, only check for a clean page here where it's absolutely required.
    536            for (srcOff = 0; srcOff < OSAL_NV_PAGE_SIZE; srcOff++)
   \   000010   75..00       MOV     ?V0 + 0,#0x0
   \   000013   75..00       MOV     ?V0 + 1,#0x0
    537            {
    538              HalFlashRead(pgRes, srcOff, &rtrn, 1);
   \                     ??compactPage_0:
   \   000016                ; Setup parameters for call to function HalFlashRead
   \   000016   75..01       MOV     ?V0 + 2,#0x1
   \   000019   75..00       MOV     ?V0 + 3,#0x0
   \   00001C   78..         MOV     R0,#?V0 + 2
   \   00001E   12....       LCALL   ?PUSH_XSTACK_I_TWO
   \   000021   7402         MOV     A,#0x2
   \   000023   12....       LCALL   ?XSTACK_DISP0_8
   \   000026   AC82         MOV     R4,DPL
   \   000028   AD83         MOV     R5,DPH
   \   00002A   AA..         MOV     R2,?V0 + 0
   \   00002C   AB..         MOV     R3,?V0 + 1
   \   00002E   90....       MOV     DPTR,#pgRes
   \   000031   E0           MOVX    A,@DPTR
   \   000032   F9           MOV     R1,A
   \   000033   12....       LCALL   ??Subroutine51_0 & 0xFFFF
   \                     ??CrossCallReturnLabel_122:
   \   000036   12....       LCALL   ?DEALLOC_XSTACK8
    539              if (rtrn != OSAL_NV_ERASED)
   \   000039   85..82       MOV     DPL,?XSP + 0
   \   00003C   85..83       MOV     DPH,?XSP + 1
   \   00003F   E0           MOVX    A,@DPTR
   \   000040   F4           CPL     A
   \   000041   6008         JZ      ??compactPage_1
    540              {
    541                erasePage(pgRes);
   \   000043                ; Setup parameters for call to function erasePage
   \   000043   12....       LCALL   ?Subroutine19 & 0xFFFF
    542                return FALSE;
   \                     ??CrossCallReturnLabel_108:
   \   000046   7900         MOV     R1,#0x0
   \   000048   02....       LJMP    ??compactPage_2 & 0xFFFF
    543              }
    544            }
   \                     ??compactPage_1:
   \   00004B   E5..         MOV     A,?V0 + 0
   \   00004D   2401         ADD     A,#0x1
   \   00004F   F5..         MOV     ?V0 + 0,A
   \   000051   E5..         MOV     A,?V0 + 1
   \   000053   3400         ADDC    A,#0x0
   \   000055   F5..         MOV     ?V0 + 1,A
   \   000057   C3           CLR     C
   \   000058   9408         SUBB    A,#0x8
   \   00005A   40BA         JC      ??compactPage_0
    545          
    546            srcOff = OSAL_NV_PAGE_HDR_SIZE;
   \   00005C   75..08       MOV     ?V0 + 0,#0x8
   \   00005F   75..00       MOV     ?V0 + 1,#0x0
    547            rtrn = TRUE;
   \   000062   7401         MOV     A,#0x1
   \   000064   F0           MOVX    @DPTR,A
    548          
    549            while ( srcOff < (OSAL_NV_PAGE_SIZE - OSAL_NV_HDR_SIZE ) )
    550            {
    551              osalNvHdr_t hdr;
    552              uint16 sz, dstOff = pgOff[pgRes-OSAL_NV_PAGE_BEG];
   \                     ??compactPage_3:
   \   000065   90....       MOV     DPTR,#pgRes
   \   000068   E0           MOVX    A,@DPTR
   \   000069   12....       LCALL   ??Subroutine46_0 & 0xFFFF
   \                     ??CrossCallReturnLabel_100:
   \   00006C   12....       LCALL   ?Subroutine16 & 0xFFFF
    553          
    554              HalFlashRead(srcPg, srcOff, (uint8 *)(&hdr), OSAL_NV_HDR_SIZE);
   \                     ??CrossCallReturnLabel_22:
   \   00006F                ; Setup parameters for call to function HalFlashRead
   \   00006F   75..08       MOV     ?V0 + 2,#0x8
   \   000072   75..00       MOV     ?V0 + 3,#0x0
   \   000075   78..         MOV     R0,#?V0 + 2
   \   000077   12....       LCALL   ?PUSH_XSTACK_I_TWO
   \   00007A   7405         MOV     A,#0x5
   \   00007C   12....       LCALL   ?XSTACK_DISP0_8
   \   00007F   AC82         MOV     R4,DPL
   \   000081   AD83         MOV     R5,DPH
   \   000083   AA..         MOV     R2,?V0 + 0
   \   000085   AB..         MOV     R3,?V0 + 1
   \   000087   A9..         MOV     R1,?V0 + 7
   \   000089   12....       LCALL   ??Subroutine51_0 & 0xFFFF
   \                     ??CrossCallReturnLabel_123:
   \   00008C   12....       LCALL   ?DEALLOC_XSTACK8
    555          
    556              if ( hdr.id == OSAL_NV_ERASED_ID )
   \   00008F   7403         MOV     A,#0x3
   \   000091   12....       LCALL   ?XSTACK_DISP0_8
   \   000094   E0           MOVX    A,@DPTR
   \   000095   F4           CPL     A
   \   000096   7003         JNZ     ??compactPage_4
   \   000098   A3           INC     DPTR
   \   000099   E0           MOVX    A,@DPTR
   \   00009A   F4           CPL     A
   \                     ??compactPage_4:
   \   00009B   7003         JNZ     $+5
   \   00009D   02....       LJMP    ??compactPage_5 & 0xFFFF
    557              {
    558                break;
    559              }
    560          
    561              // Get the actual size in bytes which is the ceiling(hdr.len)
    562              sz = OSAL_NV_DATA_SIZE( hdr.len );
   \   0000A0   7405         MOV     A,#0x5
   \   0000A2   12....       LCALL   ?XSTACK_DISP0_8
   \   0000A5   12....       LCALL   ?Subroutine11 & 0xFFFF
   \                     ??CrossCallReturnLabel_9:
   \   0000A8   4006         JC      ??compactPage_6
   \   0000AA   7EFC         MOV     R6,#-0x4
   \   0000AC   7FFF         MOV     R7,#-0x1
   \   0000AE   8006         SJMP    ??compactPage_7
   \                     ??compactPage_6:
   \   0000B0   12....       LCALL   ?Subroutine30 & 0xFFFF
   \                     ??CrossCallReturnLabel_57:
   \   0000B3   FE           MOV     R6,A
   \   0000B4   E9           MOV     A,R1
   \   0000B5   FF           MOV     R7,A
    563          
    564              if ( sz > (OSAL_NV_PAGE_SIZE - OSAL_NV_HDR_SIZE - srcOff) )
   \                     ??compactPage_7:
   \   0000B6   74F8         MOV     A,#-0x8
   \   0000B8   C3           CLR     C
   \   0000B9   95..         SUBB    A,?V0 + 0
   \   0000BB   F8           MOV     R0,A
   \   0000BC   7407         MOV     A,#0x7
   \   0000BE   95..         SUBB    A,?V0 + 1
   \   0000C0   F9           MOV     R1,A
   \   0000C1   C3           CLR     C
   \   0000C2   E8           MOV     A,R0
   \   0000C3   9E           SUBB    A,R6
   \   0000C4   E9           MOV     A,R1
   \   0000C5   9F           SUBB    A,R7
   \   0000C6   5003         JNC     $+5
   \   0000C8   02....       LJMP    ??compactPage_5 & 0xFFFF
    565              {
    566                break;
    567              }
    568          
    569              if ( sz > (OSAL_NV_PAGE_SIZE - OSAL_NV_HDR_SIZE - dstOff) )
   \   0000CB   74F8         MOV     A,#-0x8
   \   0000CD   C3           CLR     C
   \   0000CE   95..         SUBB    A,?V0 + 4
   \   0000D0   F8           MOV     R0,A
   \   0000D1   7407         MOV     A,#0x7
   \   0000D3   95..         SUBB    A,?V0 + 5
   \   0000D5   F9           MOV     R1,A
   \   0000D6   C3           CLR     C
   \   0000D7   E8           MOV     A,R0
   \   0000D8   9E           SUBB    A,R6
   \   0000D9   E9           MOV     A,R1
   \   0000DA   9F           SUBB    A,R7
   \   0000DB   500B         JNC     ??compactPage_8
    570              {
    571                rtrn = FALSE;
   \                     ??compactPage_9:
   \   0000DD   85..82       MOV     DPL,?XSP + 0
   \   0000E0   85..83       MOV     DPH,?XSP + 1
   \   0000E3   E4           CLR     A
   \   0000E4   F0           MOVX    @DPTR,A
    572                break;
   \   0000E5   02....       LJMP    ??compactPage_10 & 0xFFFF
    573              }
    574          
    575              srcOff += OSAL_NV_HDR_SIZE;
   \                     ??compactPage_8:
   \   0000E8   E5..         MOV     A,?V0 + 0
   \   0000EA   2408         ADD     A,#0x8
   \   0000EC   F5..         MOV     ?V0 + 0,A
   \   0000EE   E5..         MOV     A,?V0 + 1
   \   0000F0   3400         ADDC    A,#0x0
   \   0000F2   F5..         MOV     ?V0 + 1,A
    576          
    577              if ( (hdr.id != OSAL_NV_ZEROED_ID) && (hdr.id != skipId) )
   \   0000F4   7403         MOV     A,#0x3
   \   0000F6   12....       LCALL   ?XSTACK_DISP0_8
   \   0000F9   12....       LCALL   ?Subroutine25 & 0xFFFF
   \                     ??CrossCallReturnLabel_42:
   \   0000FC   E8           MOV     A,R0
   \   0000FD   49           ORL     A,R1
   \   0000FE   7003         JNZ     $+5
   \   000100   02....       LJMP    ??compactPage_11 & 0xFFFF
   \   000103   7403         MOV     A,#0x3
   \   000105   12....       LCALL   ?XSTACK_DISP0_8
   \   000108   E0           MOVX    A,@DPTR
   \   000109   65..         XRL     A,?V0 + 12
   \   00010B   7004         JNZ     ??compactPage_12
   \   00010D   A3           INC     DPTR
   \   00010E   E0           MOVX    A,@DPTR
   \   00010F   65..         XRL     A,?V0 + 13
   \                     ??compactPage_12:
   \   000111   7003         JNZ     $+5
   \   000113   02....       LJMP    ??compactPage_11 & 0xFFFF
    578              {
    579                if ( hdr.chk == calcChkF( srcPg, srcOff, hdr.len ) )
   \   000116                ; Setup parameters for call to function calcChkF
   \   000116   AA..         MOV     R2,?V0 + 0
   \   000118   AB..         MOV     R3,?V0 + 1
   \   00011A   A9..         MOV     R1,?V0 + 7
   \   00011C   12....       LCALL   ??calcChkF?relay
   \   00011F   8A..         MOV     ?V0 + 2,R2
   \   000121   8B..         MOV     ?V0 + 3,R3
   \   000123   A8..         MOV     R0,?V0 + 2
   \   000125   A9..         MOV     R1,?V0 + 3
   \   000127   7407         MOV     A,#0x7
   \   000129   12....       LCALL   ?XSTACK_DISP0_8
   \   00012C   E0           MOVX    A,@DPTR
   \   00012D   68           XRL     A,R0
   \   00012E   7003         JNZ     ??compactPage_13
   \   000130   A3           INC     DPTR
   \   000131   E0           MOVX    A,@DPTR
   \   000132   69           XRL     A,R1
   \                     ??compactPage_13:
   \   000133   6003         JZ      $+5
   \   000135   02....       LJMP    ??compactPage_11 & 0xFFFF
    580                {
    581                  /* Prevent excessive re-writes to item header caused by numerous, rapid, & successive
    582                   * OSAL_Nv interruptions caused by resets.
    583                   */
    584                  if ( hdr.stat == OSAL_NV_ERASED_ID )
   \   000138   7409         MOV     A,#0x9
   \   00013A   12....       LCALL   ?XSTACK_DISP0_8
   \   00013D   E0           MOVX    A,@DPTR
   \   00013E   F4           CPL     A
   \   00013F   7003         JNZ     ??compactPage_14
   \   000141   A3           INC     DPTR
   \   000142   E0           MOVX    A,@DPTR
   \   000143   F4           CPL     A
   \                     ??compactPage_14:
   \   000144   700B         JNZ     ??compactPage_15
    585                  {
    586                    setItem( srcPg, srcOff, eNvXfer );
   \   000146                ; Setup parameters for call to function setItem
   \   000146   7C00         MOV     R4,#0x0
   \   000148   AA..         MOV     R2,?V0 + 0
   \   00014A   AB..         MOV     R3,?V0 + 1
   \   00014C   A9..         MOV     R1,?V0 + 7
   \   00014E   12....       LCALL   ??setItem?relay
    587                  }
    588          
    589                  if ( writeItem( pgRes, hdr.id, hdr.len, NULL, FALSE ) )
   \                     ??compactPage_15:
   \   000151                ; Setup parameters for call to function writeItem
   \   000151   75..00       MOV     ?V0 + 2,#0x0
   \   000154   78..         MOV     R0,#?V0 + 2
   \   000156   12....       LCALL   ?PUSH_XSTACK_I_ONE
   \   000159   E4           CLR     A
   \   00015A   F5..         MOV     ?V0 + 3,A
   \   00015C   78..         MOV     R0,#?V0 + 2
   \   00015E   12....       LCALL   ?PUSH_XSTACK_I_TWO
   \   000161   7408         MOV     A,#0x8
   \   000163   12....       LCALL   ?XSTACK_DISP0_8
   \   000166   12....       LCALL   ?Subroutine12 & 0xFFFF
   \                     ??CrossCallReturnLabel_11:
   \   000169   7406         MOV     A,#0x6
   \   00016B   12....       LCALL   ?XSTACK_DISP0_8
   \   00016E   12....       LCALL   ?Subroutine21 & 0xFFFF
   \                     ??CrossCallReturnLabel_29:
   \   000171   F9           MOV     R1,A
   \   000172   12....       LCALL   ??writeItem?relay
   \   000175   7403         MOV     A,#0x3
   \   000177   12....       LCALL   ?DEALLOC_XSTACK8
   \   00017A   E9           MOV     A,R1
   \   00017B   7003         JNZ     $+5
   \   00017D   02....       LJMP    ??compactPage_9 & 0xFFFF
    590                  {
    591                    dstOff += OSAL_NV_HDR_SIZE;
   \   000180   E5..         MOV     A,?V0 + 4
   \   000182   2408         ADD     A,#0x8
   \   000184   F5..         MOV     ?V0 + 4,A
   \   000186   E5..         MOV     A,?V0 + 5
   \   000188   3400         ADDC    A,#0x0
   \   00018A   F5..         MOV     ?V0 + 5,A
    592                    xferBuf( srcPg, srcOff, pgRes, dstOff, sz );
   \   00018C                ; Setup parameters for call to function xferBuf
   \   00018C   8E..         MOV     ?V0 + 2,R6
   \   00018E   8F..         MOV     ?V0 + 3,R7
   \   000190   78..         MOV     R0,#?V0 + 2
   \   000192   12....       LCALL   ?PUSH_XSTACK_I_TWO
   \   000195   78..         MOV     R0,#?V0 + 4
   \   000197   12....       LCALL   ?PUSH_XSTACK_I_TWO
   \   00019A   90....       MOV     DPTR,#pgRes
   \   00019D   E0           MOVX    A,@DPTR
   \   00019E   FC           MOV     R4,A
   \   00019F   AA..         MOV     R2,?V0 + 0
   \   0001A1   AB..         MOV     R3,?V0 + 1
   \   0001A3   A9..         MOV     R1,?V0 + 7
   \   0001A5   12....       LCALL   ??xferBuf?relay
   \   0001A8   7404         MOV     A,#0x4
   \   0001AA   12....       LCALL   ?DEALLOC_XSTACK8
    593                    // Calculate and write the new checksum.
    594                    if (hdr.chk == calcChkF(pgRes, dstOff, hdr.len))
   \   0001AD                ; Setup parameters for call to function calcChkF
   \   0001AD   7405         MOV     A,#0x5
   \   0001AF   12....       LCALL   ?XSTACK_DISP0_8
   \   0001B2   12....       LCALL   ?Subroutine12 & 0xFFFF
   \                     ??CrossCallReturnLabel_12:
   \   0001B5   AA..         MOV     R2,?V0 + 4
   \   0001B7   AB..         MOV     R3,?V0 + 5
   \   0001B9   90....       MOV     DPTR,#pgRes
   \   0001BC   E0           MOVX    A,@DPTR
   \   0001BD   F9           MOV     R1,A
   \   0001BE   12....       LCALL   ??calcChkF?relay
   \   0001C1   7407         MOV     A,#0x7
   \   0001C3   12....       LCALL   ?XSTACK_DISP0_8
   \   0001C6   12....       LCALL   ?Subroutine13 & 0xFFFF
   \                     ??CrossCallReturnLabel_15:
   \   0001C9   7002         JNZ     ??compactPage_16
   \   0001CB   EB           MOV     A,R3
   \   0001CC   69           XRL     A,R1
   \                     ??compactPage_16:
   \   0001CD   6003         JZ      $+5
   \   0001CF   02....       LJMP    ??compactPage_9 & 0xFFFF
    595                    {
    596                      if ( hdr.chk != setChk( pgRes, dstOff, hdr.chk ) )
   \   0001D2   7401         MOV     A,#0x1
   \   0001D4   12....       LCALL   ?XSTACK_DISP0_8
   \   0001D7   E8           MOV     A,R0
   \   0001D8   F0           MOVX    @DPTR,A
   \   0001D9   A3           INC     DPTR
   \   0001DA   E9           MOV     A,R1
   \   0001DB   F0           MOVX    @DPTR,A
   \   0001DC   90....       MOV     DPTR,#pgRes
   \   0001DF   E0           MOVX    A,@DPTR
   \   0001E0   F5..         MOV     ?V0 + 6,A
   \   0001E2   E5..         MOV     A,?V0 + 4
   \   0001E4   24FC         ADD     A,#-0x4
   \   0001E6   F5..         MOV     ?V0 + 2,A
   \   0001E8   E5..         MOV     A,?V0 + 5
   \   0001EA   34FF         ADDC    A,#-0x1
   \   0001EC   F5..         MOV     ?V0 + 3,A
   \   0001EE   7401         MOV     A,#0x1
   \   0001F0   12....       LCALL   ?XSTACK_DISP0_8
   \   0001F3   E0           MOVX    A,@DPTR
   \   0001F4   C0E0         PUSH    A
   \   0001F6   740B         MOV     A,#0xb
   \   0001F8   12....       LCALL   ?XSTACK_DISP0_8
   \   0001FB   D0E0         POP     A
   \   0001FD   F0           MOVX    @DPTR,A
   \   0001FE   7402         MOV     A,#0x2
   \   000200   12....       LCALL   ?XSTACK_DISP0_8
   \   000203   E0           MOVX    A,@DPTR
   \   000204   C0E0         PUSH    A
   \   000206   740C         MOV     A,#0xc
   \   000208   12....       LCALL   ?XSTACK_DISP0_8
   \   00020B   D0E0         POP     A
   \   00020D   F0           MOVX    @DPTR,A
   \   00020E   740D         MOV     A,#0xd
   \   000210   12....       LCALL   ?XSTACK_DISP0_8
   \   000213   74FF         MOV     A,#-0x1
   \   000215   F0           MOVX    @DPTR,A
   \   000216   740E         MOV     A,#0xe
   \   000218   12....       LCALL   ?XSTACK_DISP0_8
   \   00021B   74FF         MOV     A,#-0x1
   \   00021D   F0           MOVX    @DPTR,A
   \   00021E                ; Setup parameters for call to function HalFlashWrite
   \   00021E   75..01       MOV     ?V0 + 8,#0x1
   \   000221   75..00       MOV     ?V0 + 9,#0x0
   \   000224   78..         MOV     R0,#?V0 + 8
   \   000226   12....       LCALL   ?PUSH_XSTACK_I_TWO
   \   000229   740D         MOV     A,#0xd
   \   00022B   12....       LCALL   ?XSTACK_DISP0_8
   \   00022E   AC82         MOV     R4,DPL
   \   000230   AD83         MOV     R5,DPH
   \   000232   85....       MOV     ?V0 + 8,?V0 + 2
   \   000235   85....       MOV     ?V0 + 9,?V0 + 3
   \   000238   7402         MOV     A,#0x2
   \   00023A   78..         MOV     R0,#?V0 + 8
   \   00023C   12....       LCALL   ?US_SHR
   \   00023F   85....       MOV     ?V0 + 10,?V0 + 6
   \   000242   F5..         MOV     ?V0 + 11,A
   \   000244   7409         MOV     A,#0x9
   \   000246   78..         MOV     R0,#?V0 + 10
   \   000248   12....       LCALL   ?S_SHL
   \   00024B   E5..         MOV     A,?V0 + 8
   \   00024D   2400         ADD     A,#0x0
   \   00024F   FA           MOV     R2,A
   \   000250   E5..         MOV     A,?V0 + 9
   \   000252   35..         ADDC    A,?V0 + 11
   \   000254   12....       LCALL   ??Subroutine44_0 & 0xFFFF
   \                     ??CrossCallReturnLabel_85:
   \   000257   12....       LCALL   ?DEALLOC_XSTACK8
   \   00025A                ; Setup parameters for call to function HalFlashRead
   \   00025A   75..02       MOV     ?V0 + 8,#0x2
   \   00025D   75..00       MOV     ?V0 + 9,#0x0
   \   000260   78..         MOV     R0,#?V0 + 8
   \   000262   12....       LCALL   ?PUSH_XSTACK_I_TWO
   \   000265   7403         MOV     A,#0x3
   \   000267   12....       LCALL   ?XSTACK_DISP0_8
   \   00026A   AC82         MOV     R4,DPL
   \   00026C   AD83         MOV     R5,DPH
   \   00026E   AA..         MOV     R2,?V0 + 2
   \   000270   AB..         MOV     R3,?V0 + 3
   \   000272   A9..         MOV     R1,?V0 + 6
   \   000274   12....       LCALL   ??Subroutine51_0 & 0xFFFF
   \                     ??CrossCallReturnLabel_124:
   \   000277   12....       LCALL   ?DEALLOC_XSTACK8
   \   00027A   7407         MOV     A,#0x7
   \   00027C   12....       LCALL   ?XSTACK_DISP0_8
   \   00027F   12....       LCALL   ?Subroutine25 & 0xFFFF
   \                     ??CrossCallReturnLabel_43:
   \   000282   7401         MOV     A,#0x1
   \   000284   12....       LCALL   ?XSTACK_DISP0_8
   \   000287   E0           MOVX    A,@DPTR
   \   000288   68           XRL     A,R0
   \   000289   7003         JNZ     ??compactPage_17
   \   00028B   A3           INC     DPTR
   \   00028C   E0           MOVX    A,@DPTR
   \   00028D   69           XRL     A,R1
   \                     ??compactPage_17:
   \   00028E   6003         JZ      $+5
   \   000290   02....       LJMP    ??compactPage_9 & 0xFFFF
    597                      {
    598                        rtrn = FALSE;
    599                        break;
    600                      }
    601                      else
    602                      {
    603                        hotItemUpdate(pgRes, dstOff, hdr.id);
   \   000293   7403         MOV     A,#0x3
   \   000295   12....       LCALL   ?XSTACK_DISP0_8
   \   000298   12....       LCALL   ?Subroutine21 & 0xFFFF
    604                      }
    605                    }
    606                    else
    607                    {
    608                      rtrn = FALSE;
    609                      break;
    610                    }
    611                  }
    612                  else
    613                  {
    614                    rtrn = FALSE;
    615                    break;
    616                  }
    617                }
    618              }
   \                     ??CrossCallReturnLabel_30:
   \   00029B   FD           MOV     R5,A
   \   00029C   7C00         MOV     R4,#0x0
   \   00029E   78..         MOV     R0,#hotIds & 0xff
   \   0002A0   79..         MOV     R1,#(hotIds >> 8) & 0xff
   \                     ??compactPage_18:
   \   0002A2   8882         MOV     DPL,R0
   \   0002A4   8983         MOV     DPH,R1
   \   0002A6   E0           MOVX    A,@DPTR
   \   0002A7   6A           XRL     A,R2
   \   0002A8   7003         JNZ     ??compactPage_19
   \   0002AA   A3           INC     DPTR
   \   0002AB   E0           MOVX    A,@DPTR
   \   0002AC   6B           XRL     A,R3
   \                     ??compactPage_19:
   \   0002AD   6005         JZ      ??compactPage_20
   \   0002AF   12....       LCALL   ?Subroutine26 & 0xFFFF
   \                     ??CrossCallReturnLabel_51:
   \   0002B2   40EE         JC      ??compactPage_18
   \                     ??compactPage_20:
   \   0002B4   EC           MOV     A,R4
   \   0002B5   C3           CLR     C
   \   0002B6   9403         SUBB    A,#0x3
   \   0002B8   500E         JNC     ??compactPage_11
   \   0002BA   12....       LCALL   ?Subroutine33 & 0xFFFF
   \                     ??CrossCallReturnLabel_104:
   \   0002BD   ED           MOV     A,R5
   \   0002BE   12....       LCALL   ??Subroutine54_0 & 0xFFFF
   \                     ??CrossCallReturnLabel_145:
   \   0002C1   E5..         MOV     A,?V0 + 4
   \   0002C3   F0           MOVX    @DPTR,A
   \   0002C4   A3           INC     DPTR
   \   0002C5   E5..         MOV     A,?V0 + 5
   \   0002C7   F0           MOVX    @DPTR,A
    619          
    620              srcOff += sz;
   \                     ??compactPage_11:
   \   0002C8   E5..         MOV     A,?V0 + 0
   \   0002CA   2E           ADD     A,R6
   \   0002CB   F5..         MOV     ?V0 + 0,A
   \   0002CD   E5..         MOV     A,?V0 + 1
   \   0002CF   3F           ADDC    A,R7
   \   0002D0   F5..         MOV     ?V0 + 1,A
    621            }
   \   0002D2   C3           CLR     C
   \   0002D3   E5..         MOV     A,?V0 + 0
   \   0002D5   94F8         SUBB    A,#-0x8
   \   0002D7   E5..         MOV     A,?V0 + 1
   \   0002D9   9407         SUBB    A,#0x7
   \   0002DB   5003         JNC     $+5
   \   0002DD   02....       LJMP    ??compactPage_3 & 0xFFFF
    622          
    623            if (rtrn == FALSE)
   \                     ??compactPage_5:
   \   0002E0   85..82       MOV     DPL,?XSP + 0
   \   0002E3   85..83       MOV     DPH,?XSP + 1
   \   0002E6   E0           MOVX    A,@DPTR
   \   0002E7   7005         JNZ     ??compactPage_21
    624            {
    625              erasePage(pgRes);
   \                     ??compactPage_10:
   \   0002E9                ; Setup parameters for call to function erasePage
   \   0002E9   12....       LCALL   ?Subroutine19 & 0xFFFF
    626            }
   \                     ??CrossCallReturnLabel_109:
   \   0002EC   8044         SJMP    ??compactPage_22
    627            else if (skipId == OSAL_NV_ITEM_NULL)
   \                     ??compactPage_21:
   \   0002EE   E5..         MOV     A,?V0 + 12
   \   0002F0   45..         ORL     A,?V0 + 13
   \   0002F2   703E         JNZ     ??compactPage_22
    628            {
    629              COMPACT_PAGE_CLEANUP(srcPg);
   \   0002F4   7403         MOV     A,#0x3
   \   0002F6   12....       LCALL   ?XSTACK_DISP0_8
   \   0002F9   E4           CLR     A
   \   0002FA   F0           MOVX    @DPTR,A
   \   0002FB   A3           INC     DPTR
   \   0002FC   F0           MOVX    @DPTR,A
   \   0002FD   7405         MOV     A,#0x5
   \   0002FF   12....       LCALL   ?XSTACK_DISP0_8
   \   000302   12....       LCALL   ?Subroutine9 & 0xFFFF
   \                     ??CrossCallReturnLabel_6:
   \   000305   12....       LCALL   ?PUSH_XSTACK_I_TWO
   \   000308   7405         MOV     A,#0x5
   \   00030A   12....       LCALL   ?XSTACK_DISP0_8
   \   00030D   AC82         MOV     R4,DPL
   \   00030F   AD83         MOV     R5,DPH
   \   000311   90....       MOV     DPTR,#pgRes
   \   000314   E0           MOVX    A,@DPTR
   \   000315   F5..         MOV     ?V0 + 0,A
   \   000317   7409         MOV     A,#0x9
   \   000319   78..         MOV     R0,#?V0 + 0
   \   00031B   12....       LCALL   ?S_SHL
   \   00031E   FA           MOV     R2,A
   \   00031F   AB..         MOV     R3,?V0 + 1
   \   000321   12....       LCALL   ??Subroutine45_0 & 0xFFFF
   \                     ??CrossCallReturnLabel_94:
   \   000324   12....       LCALL   ?DEALLOC_XSTACK8
   \   000327                ; Setup parameters for call to function erasePage
   \   000327   A9..         MOV     R1,?V0 + 7
   \   000329   12....       LCALL   ??erasePage?relay
   \   00032C   E5..         MOV     A,?V0 + 7
   \   00032E   90....       MOV     DPTR,#pgRes
   \   000331   F0           MOVX    @DPTR,A
    630            }
    631            // else invoking function must cleanup.
    632          
    633            return rtrn;
   \                     ??compactPage_22:
   \   000332   85..82       MOV     DPL,?XSP + 0
   \   000335   85..83       MOV     DPH,?XSP + 1
   \   000338   E0           MOVX    A,@DPTR
   \   000339   F9           MOV     R1,A
   \                     ??compactPage_2:
   \   00033A   740F         MOV     A,#0xf
   \   00033C   02....       LJMP    ?Subroutine1 & 0xFFFF
    634          }

   \                                 In  segment BANKED_CODE, align 1, keep-with-next
   \                     ?Subroutine33:
   \   000000   8C82         MOV     DPL,R4
   \   000002                REQUIRE ??Subroutine47_0
   \   000002                ; // Fall through to label ??Subroutine47_0

   \                                 In  segment BANKED_CODE, align 1, keep-with-next
   \                     ??Subroutine47_0:
   \   000000   12....       LCALL   ?Subroutine41 & 0xFFFF
   \                     ??CrossCallReturnLabel_107:
   \   000003   22           RET

   \                                 In  segment BANKED_CODE, align 1, keep-with-next
   \                     ?Subroutine41:
   \   000000   A882         MOV     R0,DPL
   \   000002   74..         MOV     A,#hotPg & 0xff
   \   000004   28           ADD     A,R0
   \   000005   F582         MOV     DPL,A
   \   000007   74..         MOV     A,#(hotPg >> 8) & 0xff
   \   000009   3400         ADDC    A,#0x0
   \   00000B   F583         MOV     DPH,A
   \   00000D   22           RET

   \                                 In  segment BANKED_CODE, align 1, keep-with-next
   \                     ?Subroutine21:
   \   000000   12....       LCALL   ?Subroutine38 & 0xFFFF
   \                     ??CrossCallReturnLabel_74:
   \   000003   90....       MOV     DPTR,#pgRes
   \   000006   E0           MOVX    A,@DPTR
   \   000007   22           RET

   \                                 In  segment BANKED_CODE, align 1, keep-with-next
   \                     ?Subroutine19:
   \   000000   90....       MOV     DPTR,#pgRes
   \   000003                REQUIRE ??Subroutine48_0
   \   000003                ; // Fall through to label ??Subroutine48_0

   \                                 In  segment BANKED_CODE, align 1, keep-with-next
   \                     ??Subroutine48_0:
   \   000000   E0           MOVX    A,@DPTR
   \   000001   F9           MOV     R1,A
   \   000002   12....       LCALL   ??erasePage?relay
   \   000005   22           RET

   \                                 In  segment BANKED_CODE, align 1, keep-with-next
   \                     ?Subroutine13:
   \   000000   12....       LCALL   ?Subroutine39 & 0xFFFF
   \                     ??CrossCallReturnLabel_76:
   \   000003   EA           MOV     A,R2
   \   000004   68           XRL     A,R0
   \   000005   22           RET

   \                                 In  segment BANKED_CODE, align 1, keep-with-next
   \                     ?Subroutine26:
   \   000000   0C           INC     R4
   \   000001   12....       LCALL   ?Subroutine43 & 0xFFFF
   \                     ??CrossCallReturnLabel_80:
   \   000004   EC           MOV     A,R4
   \   000005   C3           CLR     C
   \   000006   9403         SUBB    A,#0x3
   \   000008   22           RET

   \                                 In  segment BANKED_CODE, align 1, keep-with-next
   \                     ?Subroutine38:
   \   000000   E0           MOVX    A,@DPTR
   \   000001   FA           MOV     R2,A
   \   000002   A3           INC     DPTR
   \   000003   E0           MOVX    A,@DPTR
   \   000004   FB           MOV     R3,A
   \   000005   22           RET

   \                                 In  segment BANKED_CODE, align 1, keep-with-next
   \                     ??Subroutine54_0:
   \   000000   F0           MOVX    @DPTR,A
   \   000001   E8           MOV     A,R0
   \   000002   12....       LCALL   ?Subroutine42 & 0xFFFF
   \                     ??CrossCallReturnLabel_149:
   \   000005   22           RET

   \                                 In  segment BANKED_CODE, align 1, keep-with-next
   \                     ?Subroutine42:
   \   000000   C3           CLR     C
   \   000001   33           RLC     A
   \   000002   F8           MOV     R0,A
   \   000003   E4           CLR     A
   \   000004   33           RLC     A
   \   000005   F9           MOV     R1,A
   \   000006   74..         MOV     A,#hotOff & 0xff
   \   000008   28           ADD     A,R0
   \   000009   F582         MOV     DPL,A
   \   00000B   74..         MOV     A,#(hotOff >> 8) & 0xff
   \   00000D   39           ADDC    A,R1
   \   00000E   F583         MOV     DPH,A
   \   000010   22           RET

   \                                 In  segment BANKED_CODE, align 1, keep-with-next
   \                     ?Subroutine16:
   \   000000   E0           MOVX    A,@DPTR
   \   000001   F5..         MOV     ?V0 + 4,A
   \   000003   A3           INC     DPTR
   \   000004   E0           MOVX    A,@DPTR
   \   000005   F5..         MOV     ?V0 + 5,A
   \   000007   22           RET
    635          
    636          /*********************************************************************
    637           * @fn      findItem
    638           *
    639           * @brief   Find an item Id in NV and return the page and offset to its data.
    640           *
    641           * @param   id - Valid NV item Id.
    642           *
    643           * @return  Offset of data corresponding to item Id, if found;
    644           *          otherwise OSAL_NV_ITEM_NULL.
    645           *
    646           *          The page containing the item, if found;
    647           *          otherwise no valid assignment made - left equal to item Id.
    648           *
    649           */

   \                                 In  segment BANKED_CODE, align 1, keep-with-next
    650          static uint16 findItem( uint16 id )
   \                     findItem:
    651          {
   \   000000   74F4         MOV     A,#-0xc
   \   000002   12....       LCALL   ?BANKED_ENTER_XDATA
   \   000005                ; Saved register size: 12
   \   000005                ; Auto size: 0
   \   000005   EA           MOV     A,R2
   \   000006   FE           MOV     R6,A
   \   000007   EB           MOV     A,R3
   \   000008   8003         SJMP    ??findItem_0
    652            uint16 off;
    653            uint8 pg;
    654          
    655            for ( pg = OSAL_NV_PAGE_BEG; pg <= OSAL_NV_PAGE_END; pg++ )
    656            {
    657              if ( (off = initPage( pg, id, FALSE )) != OSAL_NV_ITEM_NULL )
    658              {
    659                findPg = pg;
    660                return off;
    661              }
    662            }
    663          
    664            // Now attempt to find the item as the "old" item of a failed/interrupted NV write.
    665            if ( (id & OSAL_NV_SOURCE_ID) == 0 )
    666            {
    667              return findItem( id | OSAL_NV_SOURCE_ID );
   \                     ??findItem_1:
   \   00000A   7480         MOV     A,#-0x80
   \   00000C   4F           ORL     A,R7
   \                     ??findItem_0:
   \   00000D   FF           MOV     R7,A
    668            }
   \   00000E   75..79       MOV     ?V0 + 0,#0x79
   \                     ??findItem_2:
   \   000011                ; Setup parameters for call to function initPage
   \   000011   7C00         MOV     R4,#0x0
   \   000013   EE           MOV     A,R6
   \   000014   FA           MOV     R2,A
   \   000015   EF           MOV     A,R7
   \   000016   FB           MOV     R3,A
   \   000017   A9..         MOV     R1,?V0 + 0
   \   000019   12....       LCALL   ??initPage?relay
   \   00001C   8B..         MOV     ?V0 + 3,R3
   \   00001E   A9..         MOV     R1,?V0 + 3
   \   000020   EA           MOV     A,R2
   \   000021   49           ORL     A,R1
   \   000022   6008         JZ      ??findItem_3
   \   000024   E5..         MOV     A,?V0 + 0
   \   000026   90....       MOV     DPTR,#findPg
   \   000029   F0           MOVX    @DPTR,A
   \   00002A   8015         SJMP    ??findItem_4
   \                     ??findItem_3:
   \   00002C   05..         INC     ?V0 + 0
   \   00002E   E5..         MOV     A,?V0 + 0
   \   000030   C3           CLR     C
   \   000031   947F         SUBB    A,#0x7f
   \   000033   40DC         JC      ??findItem_2
   \   000035   EF           MOV     A,R7
   \   000036   5480         ANL     A,#0x80
   \   000038   60D0         JZ      ??findItem_1
    669            else
    670            {
    671              findPg = OSAL_NV_PAGE_NULL;
   \   00003A   90....       MOV     DPTR,#findPg
   \   00003D   E4           CLR     A
   \   00003E   F0           MOVX    @DPTR,A
    672              return OSAL_NV_ITEM_NULL;
   \   00003F   FA           MOV     R2,A
   \   000040   FB           MOV     R3,A
   \                     ??findItem_4:
   \   000041   7F04         MOV     R7,#0x4
   \   000043   02....       LJMP    ?BANKED_LEAVE_XDATA
    673            }
    674          }
    675          
    676          /*********************************************************************
    677           * @fn      initItem
    678           *
    679           * @brief   An NV item is created and initialized with the data passed to the function, if any.
    680           *
    681           * @param   flag - TRUE if the 'buf' parameter contains data for the call to writeItem().
    682           *                 (i.e. if invoked from osal_nv_item_init() ).
    683           *                 FALSE if writeItem() should just write the header and the 'buf' parameter
    684           *                 is ok to use as a return value of the page number to be cleaned with
    685           *                 COMPACT_PAGE_CLEANUP().
    686           *                 (i.e. if invoked from osal_nv_write() ).
    687           * @param   id  - Valid NV item Id.
    688           * @param   len - Item data length.
    689           * @param  *buf - Pointer to item initalization data. Set to NULL if none.
    690           *
    691           * @return  The OSAL Nv page number if item write and read back checksums ok;
    692           *          OSAL_NV_PAGE_NULL otherwise.
    693           */

   \                                 In  segment BANKED_CODE, align 1, keep-with-next
    694          static uint8 initItem( uint8 flag, uint16 id, uint16 len, void *buf )
   \                     initItem:
    695          {
   \   000000   74EE         MOV     A,#-0x12
   \   000002   12....       LCALL   ?BANKED_ENTER_XDATA
   \   000005                ; Saved register size: 18
   \   000005                ; Auto size: 22
   \   000005   74EA         MOV     A,#-0x16
   \   000007   12....       LCALL   ?ALLOC_XSTACK8
   \   00000A   89..         MOV     ?V0 + 4,R1
   \   00000C   8A..         MOV     ?V0 + 2,R2
   \   00000E   8B..         MOV     ?V0 + 3,R3
   \   000010   8C..         MOV     ?V0 + 0,R4
   \   000012   8D..         MOV     ?V0 + 1,R5
   \   000014   7428         MOV     A,#0x28
   \   000016   12....       LCALL   ?XSTACK_DISP0_8
   \   000019   E0           MOVX    A,@DPTR
   \   00001A   F5..         MOV     ?V0 + 6,A
   \   00001C   A3           INC     DPTR
   \   00001D   E0           MOVX    A,@DPTR
   \   00001E   F5..         MOV     ?V0 + 7,A
    696            uint16 sz = OSAL_NV_ITEM_SIZE( len );
   \   000020   C3           CLR     C
   \   000021   EC           MOV     A,R4
   \   000022   94F4         SUBB    A,#-0xc
   \   000024   ED           MOV     A,R5
   \   000025   94FF         SUBB    A,#-0x1
   \   000027   400E         JC      ??initItem_0
   \   000029   85..82       MOV     DPL,?XSP + 0
   \   00002C   85..83       MOV     DPH,?XSP + 1
   \   00002F   74FC         MOV     A,#-0x4
   \   000031   F0           MOVX    @DPTR,A
   \   000032   A3           INC     DPTR
   \   000033   74FF         MOV     A,#-0x1
   \   000035   8014         SJMP    ??initItem_1
   \                     ??initItem_0:
   \   000037   12....       LCALL   ?Subroutine30 & 0xFFFF
   \                     ??CrossCallReturnLabel_58:
   \   00003A   2408         ADD     A,#0x8
   \   00003C   F8           MOV     R0,A
   \   00003D   E9           MOV     A,R1
   \   00003E   3400         ADDC    A,#0x0
   \   000040   F9           MOV     R1,A
   \   000041   85..82       MOV     DPL,?XSP + 0
   \   000044   85..83       MOV     DPH,?XSP + 1
   \   000047   E8           MOV     A,R0
   \   000048   F0           MOVX    @DPTR,A
   \   000049   A3           INC     DPTR
   \   00004A   E9           MOV     A,R1
   \                     ??initItem_1:
   \   00004B   F0           MOVX    @DPTR,A
    697            uint8 rtrn = OSAL_NV_PAGE_NULL;
   \   00004C   7F00         MOV     R7,#0x0
    698            uint8 cnt = OSAL_NV_PAGES_USED;
   \   00004E   7C06         MOV     R4,#0x6
    699            uint8 pg = pgRes+1;  // Set to 1 after the reserve page to even wear across all available pages.
   \   000050   90....       MOV     DPTR,#pgRes
   \   000053   E0           MOVX    A,@DPTR
   \   000054   04           INC     A
   \   000055   FE           MOV     R6,A
    700          
    701            do {
    702              if (pg >= OSAL_NV_PAGE_BEG+OSAL_NV_PAGES_USED)
   \                     ??initItem_2:
   \   000056   EE           MOV     A,R6
   \   000057   C3           CLR     C
   \   000058   947F         SUBB    A,#0x7f
   \   00005A   4002         JC      ??initItem_3
    703              {
    704                pg = OSAL_NV_PAGE_BEG;
   \   00005C   7E79         MOV     R6,#0x79
    705              }
    706              if ( pg != pgRes )
   \                     ??initItem_3:
   \   00005E   90....       MOV     DPTR,#pgRes
   \   000061   E0           MOVX    A,@DPTR
   \   000062   6E           XRL     A,R6
   \   000063   6033         JZ      ??initItem_4
    707              {
    708                uint8 idx = pg - OSAL_NV_PAGE_BEG;
   \   000065   7487         MOV     A,#-0x79
   \   000067   2E           ADD     A,R6
    709                if ( sz <= (OSAL_NV_PAGE_SIZE - pgOff[idx] + pgLost[idx]) )
   \   000068   C3           CLR     C
   \   000069   33           RLC     A
   \   00006A   F8           MOV     R0,A
   \   00006B   E4           CLR     A
   \   00006C   33           RLC     A
   \   00006D   F9           MOV     R1,A
   \   00006E   74..         MOV     A,#pgOff & 0xff
   \   000070   28           ADD     A,R0
   \   000071   F582         MOV     DPL,A
   \   000073   74..         MOV     A,#(pgOff >> 8) & 0xff
   \   000075   39           ADDC    A,R1
   \   000076   F583         MOV     DPH,A
   \   000078   12....       LCALL   ?Subroutine22 & 0xFFFF
    710                {
    711                  break;
    712                }
    713              }
   \                     ??CrossCallReturnLabel_31:
   \   00007B   E4           CLR     A
   \   00007C   C3           CLR     C
   \   00007D   9A           SUBB    A,R2
   \   00007E   FA           MOV     R2,A
   \   00007F   7408         MOV     A,#0x8
   \   000081   9B           SUBB    A,R3
   \   000082   FB           MOV     R3,A
   \   000083   74..         MOV     A,#pgLost & 0xff
   \   000085   28           ADD     A,R0
   \   000086   F582         MOV     DPL,A
   \   000088   74..         MOV     A,#(pgLost >> 8) & 0xff
   \   00008A   39           ADDC    A,R1
   \   00008B   F583         MOV     DPH,A
   \   00008D   E0           MOVX    A,@DPTR
   \   00008E   2A           ADD     A,R2
   \   00008F   FA           MOV     R2,A
   \   000090   A3           INC     DPTR
   \   000091   E0           MOVX    A,@DPTR
   \   000092   3B           ADDC    A,R3
   \   000093   12....       LCALL   ?Subroutine18 & 0xFFFF
   \                     ??CrossCallReturnLabel_25:
   \   000096   5008         JNC     ??initItem_5
    714              pg++;
   \                     ??initItem_4:
   \   000098   0E           INC     R6
    715            } while (--cnt);
   \   000099   1C           DEC     R4
   \   00009A   EC           MOV     A,R4
   \   00009B   70B9         JNZ     ??initItem_2
   \   00009D   02....       LJMP    ??initItem_6 & 0xFFFF
    716          
    717            if (cnt)
   \                     ??initItem_5:
   \   0000A0   EC           MOV     A,R4
   \   0000A1   7003         JNZ     $+5
   \   0000A3   02....       LJMP    ??initItem_6 & 0xFFFF
    718            {
    719              // Item fits if an old page is compacted.
    720              if ( sz > (OSAL_NV_PAGE_SIZE - pgOff[pg - OSAL_NV_PAGE_BEG]) )
   \   0000A6   12....       LCALL   ?Subroutine32 & 0xFFFF
   \                     ??CrossCallReturnLabel_102:
   \   0000A9   12....       LCALL   ?Subroutine24 & 0xFFFF
   \                     ??CrossCallReturnLabel_37:
   \   0000AC   FA           MOV     R2,A
   \   0000AD   7408         MOV     A,#0x8
   \   0000AF   99           SUBB    A,R1
   \   0000B0   12....       LCALL   ?Subroutine18 & 0xFFFF
   \                     ??CrossCallReturnLabel_26:
   \   0000B3   4003         JC      $+5
   \   0000B5   02....       LJMP    ??initItem_7 & 0xFFFF
    721              {
    722                osalNvPgHdr_t pgHdr;
    723          
    724                /* Prevent excessive re-writes to page header caused by numerous, rapid, & successive
    725                 * OSAL_Nv interruptions caused by resets.
    726                 */
    727                HalFlashRead(pg, OSAL_NV_PAGE_HDR_OFFSET, (uint8 *)(&pgHdr), OSAL_NV_PAGE_HDR_SIZE);
   \   0000B8                ; Setup parameters for call to function HalFlashRead
   \   0000B8   75..08       MOV     ?V0 + 8,#0x8
   \   0000BB   8F..         MOV     ?V0 + 9,R7
   \   0000BD   78..         MOV     R0,#?V0 + 8
   \   0000BF   12....       LCALL   ?PUSH_XSTACK_I_TWO
   \   0000C2   7410         MOV     A,#0x10
   \   0000C4   12....       LCALL   ?XSTACK_DISP0_8
   \   0000C7   AC82         MOV     R4,DPL
   \   0000C9   AD83         MOV     R5,DPH
   \   0000CB   7A00         MOV     R2,#0x0
   \   0000CD   7B00         MOV     R3,#0x0
   \   0000CF   EE           MOV     A,R6
   \   0000D0   F9           MOV     R1,A
   \   0000D1   12....       LCALL   ??Subroutine51_0 & 0xFFFF
   \                     ??CrossCallReturnLabel_125:
   \   0000D4   12....       LCALL   ?DEALLOC_XSTACK8
    728                if ( pgHdr.xfer == OSAL_NV_ERASED_ID )
   \   0000D7   7412         MOV     A,#0x12
   \   0000D9   12....       LCALL   ?XSTACK_DISP0_8
   \   0000DC   E0           MOVX    A,@DPTR
   \   0000DD   F4           CPL     A
   \   0000DE   7003         JNZ     ??initItem_8
   \   0000E0   A3           INC     DPTR
   \   0000E1   E0           MOVX    A,@DPTR
   \   0000E2   F4           CPL     A
   \                     ??initItem_8:
   \   0000E3   705F         JNZ     ??initItem_9
    729                {
    730                  // Mark the old page as being in process of compaction.
    731                  sz = OSAL_NV_ZEROED_ID;
   \   0000E5   85..82       MOV     DPL,?XSP + 0
   \   0000E8   85..83       MOV     DPH,?XSP + 1
   \   0000EB   E4           CLR     A
   \   0000EC   F0           MOVX    @DPTR,A
   \   0000ED   A3           INC     DPTR
   \   0000EE   F0           MOVX    @DPTR,A
    732                  writeWordH( pg, OSAL_NV_PG_XFER, (uint8*)(&sz) );
   \   0000EF   85..82       MOV     DPL,?XSP + 0
   \   0000F2   85..83       MOV     DPH,?XSP + 1
   \   0000F5   E0           MOVX    A,@DPTR
   \   0000F6   C0E0         PUSH    A
   \   0000F8   7402         MOV     A,#0x2
   \   0000FA   12....       LCALL   ?XSTACK_DISP0_8
   \   0000FD   D0E0         POP     A
   \   0000FF   F0           MOVX    @DPTR,A
   \   000100   7401         MOV     A,#0x1
   \   000102   12....       LCALL   ?XSTACK_DISP0_8
   \   000105   E0           MOVX    A,@DPTR
   \   000106   C0E0         PUSH    A
   \   000108   7403         MOV     A,#0x3
   \   00010A   12....       LCALL   ?XSTACK_DISP0_8
   \   00010D   D0E0         POP     A
   \   00010F   F0           MOVX    @DPTR,A
   \   000110   7404         MOV     A,#0x4
   \   000112   12....       LCALL   ?XSTACK_DISP0_8
   \   000115   74FF         MOV     A,#-0x1
   \   000117   F0           MOVX    @DPTR,A
   \   000118   7405         MOV     A,#0x5
   \   00011A   12....       LCALL   ?XSTACK_DISP0_8
   \   00011D   74FF         MOV     A,#-0x1
   \   00011F   F0           MOVX    @DPTR,A
   \   000120                ; Setup parameters for call to function HalFlashWrite
   \   000120   75..01       MOV     ?V0 + 8,#0x1
   \   000123   78..         MOV     R0,#?V0 + 8
   \   000125   12....       LCALL   ?PUSH_XSTACK_I_TWO
   \   000128   7404         MOV     A,#0x4
   \   00012A   12....       LCALL   ?XSTACK_DISP0_8
   \   00012D   AC82         MOV     R4,DPL
   \   00012F   AD83         MOV     R5,DPH
   \   000131   8E..         MOV     ?V0 + 8,R6
   \   000133   7409         MOV     A,#0x9
   \   000135   78..         MOV     R0,#?V0 + 8
   \   000137   12....       LCALL   ?S_SHL
   \   00013A   7A01         MOV     R2,#0x1
   \   00013C   AB..         MOV     R3,?V0 + 9
   \   00013E   12....       LCALL   ??Subroutine45_0 & 0xFFFF
   \                     ??CrossCallReturnLabel_95:
   \   000141   12....       LCALL   ?DEALLOC_XSTACK8
    733                }
    734          
    735                /* First the old page is compacted, then the new item will be the last one written to what
    736                 * had been the reserved page.
    737                 */
    738                if (compactPage( pg, id ))
   \                     ??initItem_9:
   \   000144                ; Setup parameters for call to function compactPage
   \   000144   AA..         MOV     R2,?V0 + 2
   \   000146   AB..         MOV     R3,?V0 + 3
   \   000148   EE           MOV     A,R6
   \   000149   F9           MOV     R1,A
   \   00014A   12....       LCALL   ??compactPage?relay
   \   00014D   E9           MOV     A,R1
   \   00014E   7003         JNZ     $+5
   \   000150   02....       LJMP    ??initItem_6 & 0xFFFF
    739                {
    740                  if ( writeItem( pgRes, id, len, buf, flag ) )
   \   000153                ; Setup parameters for call to function writeItem
   \   000153   E5..         MOV     A,?V0 + 4
   \   000155   F5..         MOV     ?V0 + 5,A
   \   000157   78..         MOV     R0,#?V0 + 5
   \   000159   12....       LCALL   ?PUSH_XSTACK_I_ONE
   \   00015C   78..         MOV     R0,#?V0 + 6
   \   00015E   12....       LCALL   ?PUSH_XSTACK_I_TWO
   \   000161   AC..         MOV     R4,?V0 + 0
   \   000163   AD..         MOV     R5,?V0 + 1
   \   000165   AA..         MOV     R2,?V0 + 2
   \   000167   AB..         MOV     R3,?V0 + 3
   \   000169   90....       MOV     DPTR,#pgRes
   \   00016C   E0           MOVX    A,@DPTR
   \   00016D   F9           MOV     R1,A
   \   00016E   12....       LCALL   ??writeItem?relay
   \   000171   7403         MOV     A,#0x3
   \   000173   12....       LCALL   ?DEALLOC_XSTACK8
   \   000176   E9           MOV     A,R1
   \   000177   6005         JZ      ??initItem_10
    741                  {
    742                    rtrn = pgRes;
   \   000179   90....       MOV     DPTR,#pgRes
   \   00017C   E0           MOVX    A,@DPTR
   \   00017D   FF           MOV     R7,A
    743                  }
    744          
    745                  if ( flag == FALSE )
   \                     ??initItem_10:
   \   00017E   E5..         MOV     A,?V0 + 4
   \   000180   700A         JNZ     ??initItem_11
    746                  {
    747                    /* Overload 'buf' as an OUT parameter to pass back to the calling function
    748                     * the old page to be cleaned up.
    749                     */
    750                    *(uint8 *)buf = pg;
   \   000182   EE           MOV     A,R6
   \   000183   85..82       MOV     DPL,?V0 + 6
   \   000186   85..83       MOV     DPH,?V0 + 7
   \                     ??initItem_12:
   \   000189   F0           MOVX    @DPTR,A
   \   00018A   8061         SJMP    ??initItem_6
    751                  }
    752                  else
    753                  {
    754                    /* Safe to do the compacted page cleanup even if writeItem() above failed because the
    755                     * item does not yet exist since this call with flag==TRUE is from osal_nv_item_init().
    756                     */
    757                    COMPACT_PAGE_CLEANUP( pg );
   \                     ??initItem_11:
   \   00018C   7406         MOV     A,#0x6
   \   00018E   12....       LCALL   ?XSTACK_DISP0_8
   \   000191   E4           CLR     A
   \   000192   F0           MOVX    @DPTR,A
   \   000193   A3           INC     DPTR
   \   000194   F0           MOVX    @DPTR,A
   \   000195   7408         MOV     A,#0x8
   \   000197   12....       LCALL   ?XSTACK_DISP0_8
   \   00019A   12....       LCALL   ?Subroutine9 & 0xFFFF
   \                     ??CrossCallReturnLabel_7:
   \   00019D   12....       LCALL   ?PUSH_XSTACK_I_TWO
   \   0001A0   7408         MOV     A,#0x8
   \   0001A2   12....       LCALL   ?XSTACK_DISP0_8
   \   0001A5   AC82         MOV     R4,DPL
   \   0001A7   AD83         MOV     R5,DPH
   \   0001A9   90....       MOV     DPTR,#pgRes
   \   0001AC   E0           MOVX    A,@DPTR
   \   0001AD   F5..         MOV     ?V0 + 0,A
   \   0001AF   7409         MOV     A,#0x9
   \   0001B1   78..         MOV     R0,#?V0 + 0
   \   0001B3   12....       LCALL   ?S_SHL
   \   0001B6   FA           MOV     R2,A
   \   0001B7   AB..         MOV     R3,?V0 + 1
   \   0001B9   12....       LCALL   ??Subroutine45_0 & 0xFFFF
   \                     ??CrossCallReturnLabel_96:
   \   0001BC   12....       LCALL   ?DEALLOC_XSTACK8
   \   0001BF                ; Setup parameters for call to function erasePage
   \   0001BF   EE           MOV     A,R6
   \   0001C0   F9           MOV     R1,A
   \   0001C1   12....       LCALL   ??erasePage?relay
   \   0001C4   EE           MOV     A,R6
   \   0001C5   90....       MOV     DPTR,#pgRes
   \   0001C8   80BF         SJMP    ??initItem_12
    758                  }
    759                }
    760              }
    761              else
    762              {
    763                if ( writeItem( pg, id, len, buf, flag ) )
   \                     ??initItem_7:
   \   0001CA                ; Setup parameters for call to function writeItem
   \   0001CA   E5..         MOV     A,?V0 + 4
   \   0001CC   F5..         MOV     ?V0 + 5,A
   \   0001CE   78..         MOV     R0,#?V0 + 5
   \   0001D0   12....       LCALL   ?PUSH_XSTACK_I_ONE
   \   0001D3   78..         MOV     R0,#?V0 + 6
   \   0001D5   12....       LCALL   ?PUSH_XSTACK_I_TWO
   \   0001D8   AC..         MOV     R4,?V0 + 0
   \   0001DA   AA..         MOV     R2,?V0 + 2
   \   0001DC   AB..         MOV     R3,?V0 + 3
   \   0001DE   EE           MOV     A,R6
   \   0001DF   F9           MOV     R1,A
   \   0001E0   12....       LCALL   ??writeItem?relay
   \   0001E3   7403         MOV     A,#0x3
   \   0001E5   12....       LCALL   ?DEALLOC_XSTACK8
   \   0001E8   E9           MOV     A,R1
   \   0001E9   6002         JZ      ??initItem_6
    764                {
    765                  rtrn = pg;
   \   0001EB   EE           MOV     A,R6
   \   0001EC   FF           MOV     R7,A
    766                }
    767              }
    768            }
    769          
    770            return rtrn;
   \                     ??initItem_6:
   \   0001ED   EF           MOV     A,R7
   \   0001EE   F9           MOV     R1,A
   \   0001EF   7416         MOV     A,#0x16
   \   0001F1                REQUIRE ?Subroutine3
   \   0001F1                ; // Fall through to label ?Subroutine3
    771          }

   \                                 In  segment BANKED_CODE, align 1, keep-with-next
   \                     ?Subroutine3:
   \   000000   12....       LCALL   ?DEALLOC_XSTACK8
   \   000003   7F0A         MOV     R7,#0xa
   \   000005   02....       LJMP    ?BANKED_LEAVE_XDATA

   \                                 In  segment BANKED_CODE, align 1, keep-with-next
   \                     ?Subroutine18:
   \   000000   FB           MOV     R3,A
   \   000001   85..82       MOV     DPL,?XSP + 0
   \   000004   85..83       MOV     DPH,?XSP + 1
   \   000007   12....       LCALL   ?Subroutine39 & 0xFFFF
   \                     ??CrossCallReturnLabel_77:
   \   00000A   C3           CLR     C
   \   00000B   EA           MOV     A,R2
   \   00000C   98           SUBB    A,R0
   \   00000D   EB           MOV     A,R3
   \   00000E   99           SUBB    A,R1
   \   00000F   22           RET

   \                                 In  segment BANKED_CODE, align 1, keep-with-next
   \                     ?Subroutine24:
   \   000000   12....       LCALL   ?Subroutine39 & 0xFFFF
   \                     ??CrossCallReturnLabel_78:
   \   000003   E4           CLR     A
   \   000004   C3           CLR     C
   \   000005   98           SUBB    A,R0
   \   000006   22           RET

   \                                 In  segment BANKED_CODE, align 1, keep-with-next
   \                     ?Subroutine22:
   \   000000   12....       LCALL   ?Subroutine38 & 0xFFFF
   \                     ??CrossCallReturnLabel_75:
   \   000003   22           RET
    772          
    773          /*********************************************************************
    774           * @fn      setItem
    775           *
    776           * @brief   Set an item Id or status to mark its state.
    777           *
    778           * @param   pg - Valid NV page.
    779           * @param   offset - Valid offset into the page of the item data - the header
    780           *                   offset is calculated from this.
    781           * @param   stat - Valid enum value for the item status.
    782           *
    783           * @return  none
    784           */

   \                                 In  segment BANKED_CODE, align 1, keep-with-next
    785          static void setItem( uint8 pg, uint16 offset, eNvHdrEnum stat )
   \                     setItem:
    786          {
   \   000000   74F2         MOV     A,#-0xe
   \   000002   12....       LCALL   ?BANKED_ENTER_XDATA
   \   000005                ; Saved register size: 14
   \   000005                ; Auto size: 8
   \   000005   74F8         MOV     A,#-0x8
   \   000007   12....       LCALL   ?ALLOC_XSTACK8
   \   00000A   89..         MOV     ?V0 + 1,R1
   \   00000C   8C..         MOV     ?V0 + 0,R4
    787            osalNvHdr_t hdr;
    788          
    789            offset -= OSAL_NV_HDR_SIZE;
   \   00000E   EA           MOV     A,R2
   \   00000F   24F8         ADD     A,#-0x8
   \   000011   F5..         MOV     ?V0 + 2,A
   \   000013   EB           MOV     A,R3
   \   000014   34FF         ADDC    A,#-0x1
   \   000016   F5..         MOV     ?V0 + 3,A
    790            HalFlashRead(pg, offset, (uint8 *)(&hdr), OSAL_NV_HDR_SIZE);
   \   000018                ; Setup parameters for call to function HalFlashRead
   \   000018   75..08       MOV     ?V0 + 4,#0x8
   \   00001B   75..00       MOV     ?V0 + 5,#0x0
   \   00001E   78..         MOV     R0,#?V0 + 4
   \   000020   12....       LCALL   ?PUSH_XSTACK_I_TWO
   \   000023   7402         MOV     A,#0x2
   \   000025   12....       LCALL   ?XSTACK_DISP0_8
   \   000028   AC82         MOV     R4,DPL
   \   00002A   AD83         MOV     R5,DPH
   \   00002C   AA..         MOV     R2,?V0 + 2
   \   00002E   AB..         MOV     R3,?V0 + 3
   \   000030   12....       LCALL   ??Subroutine51_0 & 0xFFFF
   \                     ??CrossCallReturnLabel_126:
   \   000033   12....       LCALL   ?DEALLOC_XSTACK8
    791          
    792            if ( stat == eNvXfer )
   \   000036   85....       MOV     ?V0 + 4,?V0 + 1
   \   000039   7409         MOV     A,#0x9
   \   00003B   78..         MOV     R0,#?V0 + 4
   \   00003D   12....       LCALL   ?S_SHL
   \   000040   AB..         MOV     R3,?V0 + 5
   \   000042   E5..         MOV     A,?V0 + 0
   \   000044   702A         JNZ     ??setItem_0
    793            {
    794              hdr.stat = OSAL_NV_ACTIVE;
   \   000046   7406         MOV     A,#0x6
   \   000048   12....       LCALL   ?XSTACK_DISP0_8
   \   00004B   12....       LCALL   ?Subroutine8 & 0xFFFF
   \                     ??CrossCallReturnLabel_4:
   \   00004E   12....       LCALL   ?PUSH_XSTACK_I_TWO
   \   000051   7406         MOV     A,#0x6
   \   000053   12....       LCALL   ?XSTACK_DISP0_8
   \   000056   AC82         MOV     R4,DPL
   \   000058   AD83         MOV     R5,DPH
   \   00005A   12....       LCALL   ?Subroutine35 & 0xFFFF
   \                     ??CrossCallReturnLabel_65:
   \   00005D   7402         MOV     A,#0x2
   \   00005F   78..         MOV     R0,#?V0 + 2
   \   000061   12....       LCALL   ?US_SHR
   \   000064   12....       LCALL   ?Subroutine31 & 0xFFFF
   \                     ??CrossCallReturnLabel_59:
   \   000067   3B           ADDC    A,R3
   \   000068   12....       LCALL   ??Subroutine44_0 & 0xFFFF
   \                     ??CrossCallReturnLabel_86:
   \   00006B   12....       LCALL   ?DEALLOC_XSTACK8
    795              writeWord( pg, offset+OSAL_NV_HDR_CHK, (uint8*)(&(hdr.chk)) );
    796            }
   \   00006E   8047         SJMP    ??CrossCallReturnLabel_113
    797            else // if ( stat == eNvZero )
    798            {
    799              uint16 sz = ((hdr.len + (OSAL_NV_WORD_SIZE-1)) / OSAL_NV_WORD_SIZE) * OSAL_NV_WORD_SIZE +
    800                                                                                    OSAL_NV_HDR_SIZE;
   \                     ??setItem_0:
   \   000070   7402         MOV     A,#0x2
   \   000072   12....       LCALL   ?XSTACK_DISP0_8
   \   000075   E0           MOVX    A,@DPTR
   \   000076   2403         ADD     A,#0x3
   \   000078   F8           MOV     R0,A
   \   000079   A3           INC     DPTR
   \   00007A   E0           MOVX    A,@DPTR
   \   00007B   12....       LCALL   ??Subroutine52_0 & 0xFFFF
    801              hdr.id = 0;
   \                     ??CrossCallReturnLabel_137:
   \   00007E   85..82       MOV     DPL,?XSP + 0
   \   000081   85..83       MOV     DPH,?XSP + 1
   \   000084   12....       LCALL   ?Subroutine8 & 0xFFFF
   \                     ??CrossCallReturnLabel_5:
   \   000087   12....       LCALL   ?PUSH_XSTACK_I_TWO
   \   00008A   7402         MOV     A,#0x2
   \   00008C   12....       LCALL   ?XSTACK_DISP0_8
   \   00008F   AC82         MOV     R4,DPL
   \   000091   AD83         MOV     R5,DPH
   \   000093   7402         MOV     A,#0x2
   \   000095   78..         MOV     R0,#?V0 + 2
   \   000097   12....       LCALL   ?US_SHR
   \   00009A   12....       LCALL   ?Subroutine31 & 0xFFFF
   \                     ??CrossCallReturnLabel_60:
   \   00009D   3B           ADDC    A,R3
   \   00009E   12....       LCALL   ??Subroutine44_0 & 0xFFFF
   \                     ??CrossCallReturnLabel_87:
   \   0000A1   12....       LCALL   ?DEALLOC_XSTACK8
    802              writeWord( pg, offset, (uint8 *)(&hdr) );
    803              pgLost[pg-OSAL_NV_PAGE_BEG] += sz;
   \   0000A4   E5..         MOV     A,?V0 + 1
   \   0000A6   C3           CLR     C
   \   0000A7   33           RLC     A
   \   0000A8   F8           MOV     R0,A
   \   0000A9   E4           CLR     A
   \   0000AA   33           RLC     A
   \   0000AB   F9           MOV     R1,A
   \   0000AC   74..         MOV     A,#(pgLost + 14) & 0xff
   \   0000AE   28           ADD     A,R0
   \   0000AF   F582         MOV     DPL,A
   \   0000B1   74..         MOV     A,#((pgLost - 242) >> 8) & 0xff
   \   0000B3   39           ADDC    A,R1
   \   0000B4   12....       LCALL   ?Subroutine17 & 0xFFFF
    804            }
    805          }
   \                     ??CrossCallReturnLabel_113:
   \   0000B7   7408         MOV     A,#0x8
   \   0000B9   02....       LJMP    ?Subroutine0 & 0xFFFF

   \                                 In  segment BANKED_CODE, align 1, keep-with-next
   \                     ?Subroutine17:
   \   000000   F583         MOV     DPH,A
   \   000002                REQUIRE ??Subroutine49_0
   \   000002                ; // Fall through to label ??Subroutine49_0

   \                                 In  segment BANKED_CODE, align 1, keep-with-next
   \                     ??Subroutine49_0:
   \   000000   E0           MOVX    A,@DPTR
   \   000001   2E           ADD     A,R6
   \   000002   F0           MOVX    @DPTR,A
   \   000003   A3           INC     DPTR
   \   000004   E0           MOVX    A,@DPTR
   \   000005   3F           ADDC    A,R7
   \   000006   F0           MOVX    @DPTR,A
   \   000007   22           RET

   \                                 In  segment BANKED_CODE, align 1, keep-with-next
   \                     ?Subroutine8:
   \   000000   E4           CLR     A
   \   000001   F0           MOVX    @DPTR,A
   \   000002   A3           INC     DPTR
   \   000003   F0           MOVX    @DPTR,A
   \   000004                ; Setup parameters for call to function HalFlashWrite
   \   000004                ; Setup parameters for call to function HalFlashWrite
   \   000004   75..01       MOV     ?V0 + 4,#0x1
   \   000007   F5..         MOV     ?V0 + 5,A
   \   000009   78..         MOV     R0,#?V0 + 4
   \   00000B   22           RET

   \                                 In  segment BANKED_CODE, align 1, keep-with-next
   \                     ??Subroutine52_0:
   \   000000   12....       LCALL   ?Subroutine40 & 0xFFFF
   \                     ??CrossCallReturnLabel_142:
   \   000003   2408         ADD     A,#0x8
   \   000005   FE           MOV     R6,A
   \   000006   E9           MOV     A,R1
   \   000007   3400         ADDC    A,#0x0
   \   000009   FF           MOV     R7,A
   \   00000A   22           RET
    806          
    807          /*********************************************************************
    808           * @fn      setChk
    809           *
    810           * @brief   Set the item header checksum given the data buffer offset.
    811           *
    812           * @param   pg - Valid NV page.
    813           * @param   offset - Valid offset into the page of the item data - the header
    814           *                   offset is calculated from this.
    815           * @param   chk - The checksum to set.
    816           *
    817           * @return  The checksum read back.
    818           */
    819          static uint16 setChk( uint8 pg, uint16 offset, uint16 chk )
    820          {
    821            offset -= OSAL_NV_WORD_SIZE;
    822            writeWordH( pg, offset, (uint8 *)&chk );
    823            HalFlashRead( pg, offset, (uint8 *)(&chk), sizeof( chk ) );
    824          
    825            return chk;
    826          }
    827          
    828          /*********************************************************************
    829           * @fn      calcChkB
    830           *
    831           * @brief   Calculates the data checksum over the 'buf' parameter.
    832           *
    833           * @param   len - Byte count of the data to be checksummed.
    834           * @param   buf - Data buffer to be checksummed.
    835           *
    836           * @return  Calculated checksum of the data bytes.
    837           */
    838          static uint16 calcChkB( uint16 len, uint8 *buf )
    839          {
    840            uint8 fill = len % OSAL_NV_WORD_SIZE;
    841            uint16 chk;
    842          
    843            if ( !buf )
    844            {
    845              chk = len * OSAL_NV_ERASED;
    846            }
    847            else
    848            {
    849              chk = 0;
    850              while ( len-- )
    851              {
    852                chk += *buf++;
    853              }
    854            }
    855          
    856            // calcChkF() will calculate over OSAL_NV_WORD_SIZE alignment.
    857            if ( fill )
    858            {
    859              chk += (OSAL_NV_WORD_SIZE - fill) * OSAL_NV_ERASED;
    860            }
    861          
    862            return chk;
    863          }
    864          
    865          /*********************************************************************
    866           * @fn      calcChkF
    867           *
    868           * @brief   Calculates the data checksum by reading the data bytes from NV.
    869           *
    870           * @param   pg - A valid NV Flash page.
    871           * @param   offset - A valid offset into the page.
    872           * @param   len - Byte count of the data to be checksummed.
    873           *
    874           * @return  Calculated checksum of the data bytes.
    875           */

   \                                 In  segment BANKED_CODE, align 1, keep-with-next
    876          static uint16 calcChkF( uint8 pg, uint16 offset, uint16 len )
   \                     calcChkF:
    877          {
   \   000000   74F0         MOV     A,#-0x10
   \   000002   12....       LCALL   ?BANKED_ENTER_XDATA
   \   000005                ; Saved register size: 16
   \   000005                ; Auto size: 4
   \   000005   74FC         MOV     A,#-0x4
   \   000007   12....       LCALL   ?ALLOC_XSTACK8
   \   00000A   89..         MOV     ?V0 + 4,R1
   \   00000C   8A..         MOV     ?V0 + 2,R2
   \   00000E   8B..         MOV     ?V0 + 3,R3
   \   000010   EC           MOV     A,R4
   \   000011   FE           MOV     R6,A
   \   000012   ED           MOV     A,R5
   \   000013   FF           MOV     R7,A
    878            uint16 chk = 0;
   \   000014   75..00       MOV     ?V0 + 0,#0x0
   \   000017   75..00       MOV     ?V0 + 1,#0x0
    879          
    880            len = (len + (OSAL_NV_WORD_SIZE-1)) / OSAL_NV_WORD_SIZE;
   \   00001A   EE           MOV     A,R6
   \   00001B   2403         ADD     A,#0x3
   \   00001D   F5..         MOV     ?V0 + 6,A
   \   00001F   EF           MOV     A,R7
   \   000020   3400         ADDC    A,#0x0
   \   000022   F5..         MOV     ?V0 + 7,A
   \   000024   7402         MOV     A,#0x2
   \   000026   78..         MOV     R0,#?V0 + 6
   \   000028   12....       LCALL   ?US_SHR
   \   00002B   AE..         MOV     R6,?V0 + 6
   \   00002D   AF..         MOV     R7,?V0 + 7
   \   00002F   EE           MOV     A,R6
   \   000030   4F           ORL     A,R7
   \   000031   605E         JZ      ??calcChkF_0
   \                     ??calcChkF_1:
   \   000033   EE           MOV     A,R6
   \   000034   24FF         ADD     A,#-0x1
   \   000036   1E           DEC     R6
   \   000037   EF           MOV     A,R7
   \   000038   34FF         ADDC    A,#-0x1
   \   00003A   FF           MOV     R7,A
    881          
    882            while ( len-- )
    883            {
    884              uint8 cnt, tmp[OSAL_NV_WORD_SIZE];
    885          
    886              HalFlashRead(pg, offset, tmp, OSAL_NV_WORD_SIZE);
   \   00003B                ; Setup parameters for call to function HalFlashRead
   \   00003B   75..04       MOV     ?V0 + 6,#0x4
   \   00003E   75..00       MOV     ?V0 + 7,#0x0
   \   000041   78..         MOV     R0,#?V0 + 6
   \   000043   12....       LCALL   ?PUSH_XSTACK_I_TWO
   \   000046   7402         MOV     A,#0x2
   \   000048   12....       LCALL   ?XSTACK_DISP0_8
   \   00004B   AC82         MOV     R4,DPL
   \   00004D   AD83         MOV     R5,DPH
   \   00004F   AA..         MOV     R2,?V0 + 2
   \   000051   AB..         MOV     R3,?V0 + 3
   \   000053   A9..         MOV     R1,?V0 + 4
   \   000055   12....       LCALL   ??Subroutine51_0 & 0xFFFF
   \                     ??CrossCallReturnLabel_127:
   \   000058   12....       LCALL   ?DEALLOC_XSTACK8
    887              offset += OSAL_NV_WORD_SIZE;
   \   00005B   12....       LCALL   ?Subroutine35 & 0xFFFF
    888          
    889              for ( cnt = 0; cnt < OSAL_NV_WORD_SIZE; cnt++ )
   \                     ??CrossCallReturnLabel_66:
   \   00005E   85..82       MOV     DPL,?XSP + 0
   \   000061   85..83       MOV     DPH,?XSP + 1
   \   000064   A882         MOV     R0,DPL
   \   000066   A983         MOV     R1,DPH
    890              {
    891                chk += tmp[cnt];
   \                     ??calcChkF_2:
   \   000068   8882         MOV     DPL,R0
   \   00006A   8983         MOV     DPH,R1
   \   00006C   E0           MOVX    A,@DPTR
   \   00006D   FA           MOV     R2,A
   \   00006E   E5..         MOV     A,?V0 + 0
   \   000070   2A           ADD     A,R2
   \   000071   F5..         MOV     ?V0 + 0,A
   \   000073   E5..         MOV     A,?V0 + 1
   \   000075   3400         ADDC    A,#0x0
   \   000077   F5..         MOV     ?V0 + 1,A
    892              }
   \   000079   A3           INC     DPTR
   \   00007A   A882         MOV     R0,DPL
   \   00007C   A983         MOV     R1,DPH
   \   00007E   7404         MOV     A,#0x4
   \   000080   12....       LCALL   ?XSTACK_DISP0_8
   \   000083   E582         MOV     A,DPL
   \   000085   68           XRL     A,R0
   \   000086   7003         JNZ     ??calcChkF_3
   \   000088   E583         MOV     A,DPH
   \   00008A   69           XRL     A,R1
   \                     ??calcChkF_3:
   \   00008B   70DB         JNZ     ??calcChkF_2
   \   00008D   EE           MOV     A,R6
   \   00008E   4F           ORL     A,R7
   \   00008F   70A2         JNZ     ??calcChkF_1
    893            }
    894          
    895            return chk;
   \                     ??calcChkF_0:
   \   000091   AA..         MOV     R2,?V0 + 0
   \   000093   AB..         MOV     R3,?V0 + 1
   \   000095   7404         MOV     A,#0x4
   \   000097   12....       LCALL   ?DEALLOC_XSTACK8
   \   00009A   7F08         MOV     R7,#0x8
   \   00009C   02....       LJMP    ?BANKED_LEAVE_XDATA
    896          }

   \                                 In  segment BANKED_CODE, align 1, keep-with-next
   \                     ?Subroutine35:
   \   000000   E5..         MOV     A,?V0 + 2
   \   000002   2404         ADD     A,#0x4
   \   000004   F5..         MOV     ?V0 + 2,A
   \   000006   E5..         MOV     A,?V0 + 3
   \   000008   3400         ADDC    A,#0x0
   \   00000A   F5..         MOV     ?V0 + 3,A
   \   00000C   22           RET
    897          
    898          /*********************************************************************
    899           * @fn      writeWord
    900           *
    901           * @brief   Writes a Flash-WORD to NV.
    902           *
    903           * @param   pg - A valid NV Flash page.
    904           * @param   offset - A valid offset into the page.
    905           * @param   buf - Pointer to source buffer.
    906           *
    907           * @return  none
    908           */
    909          static void writeWord( uint8 pg, uint16 offset, uint8 *buf )
    910          {
    911            offset = (offset / HAL_FLASH_WORD_SIZE) +
    912                    ((uint16)pg * (HAL_FLASH_PAGE_SIZE / HAL_FLASH_WORD_SIZE));
    913          
    914            HalFlashWrite(offset, buf, 1);
    915          }
    916          
    917          /*********************************************************************
    918           * @fn      writeWordM
    919           *
    920           * @brief   Writes multiple Flash-WORDs to NV.
    921           *
    922           * @param   pg - A valid NV Flash page.
    923           * @param   offset - A valid offset into the page.
    924           * @param   buf - Pointer to source buffer.
    925           * @param   cnt - Number of 4-byte blocks to write.
    926           *
    927           * @return  none
    928           */
    929          static void writeWordM( uint8 pg, uint16 offset, uint8 *buf, uint16 cnt )
    930          {
    931            offset = (offset / HAL_FLASH_WORD_SIZE) +
    932                    ((uint16)pg * (HAL_FLASH_PAGE_SIZE / HAL_FLASH_WORD_SIZE));
    933            HalFlashWrite(offset, buf, cnt);
    934          }
    935          
    936          /*********************************************************************
    937           * @fn      writeWordH
    938           *
    939           * @brief   Writes the 1st half of a Flash-WORD to NV (filling 2nd half with 0xffff).
    940           *
    941           * @param   pg - A valid NV Flash page.
    942           * @param   offset - A valid offset into the page.
    943           * @param   buf - Pointer to source buffer.
    944           *
    945           * @return  none
    946           */
    947          static void writeWordH( uint8 pg, uint16 offset, uint8 *buf )
    948          {
    949            uint8 tmp[4];
    950          
    951            tmp[0] = buf[0];
    952            tmp[1] = buf[1];
    953            tmp[2] = OSAL_NV_ERASED;
    954            tmp[3] = OSAL_NV_ERASED;
    955          
    956            writeWord( pg, offset, tmp );
    957          }
    958          
    959          /*********************************************************************
    960           * @fn      writeBuf
    961           *
    962           * @brief   Writes a data buffer to NV.
    963           *
    964           * @param   dstPg - A valid NV Flash page.
    965           * @param   offset - A valid offset into the page.
    966           * @param   len  - Byte count of the data to write.
    967           * @param   buf  - The data to write.
    968           *
    969           * @return  TRUE if data buf checksum matches read back checksum, else FALSE.
    970           */

   \                                 In  segment BANKED_CODE, align 1, keep-with-next
    971          static void writeBuf( uint8 dstPg, uint16 dstOff, uint16 len, uint8 *buf )
   \                     writeBuf:
    972          {
   \   000000   74EE         MOV     A,#-0x12
   \   000002   12....       LCALL   ?BANKED_ENTER_XDATA
   \   000005                ; Saved register size: 18
   \   000005                ; Auto size: 4
   \   000005   74FC         MOV     A,#-0x4
   \   000007   12....       LCALL   ?ALLOC_XSTACK8
   \   00000A   E9           MOV     A,R1
   \   00000B   FF           MOV     R7,A
   \   00000C   8A..         MOV     ?V0 + 2,R2
   \   00000E   8B..         MOV     ?V0 + 3,R3
   \   000010   8C..         MOV     ?V0 + 4,R4
   \   000012   8D..         MOV     ?V0 + 5,R5
   \   000014   7416         MOV     A,#0x16
   \   000016   12....       LCALL   ?XSTACK_DISP0_8
   \   000019   E0           MOVX    A,@DPTR
   \   00001A   F5..         MOV     ?V0 + 0,A
   \   00001C   A3           INC     DPTR
   \   00001D   E0           MOVX    A,@DPTR
   \   00001E   F5..         MOV     ?V0 + 1,A
    973            uint8 rem = dstOff % OSAL_NV_WORD_SIZE;
   \   000020   EA           MOV     A,R2
   \   000021   5403         ANL     A,#0x3
   \   000023   FE           MOV     R6,A
    974            uint8 tmp[OSAL_NV_WORD_SIZE];
    975          
    976            if ( rem )
   \   000024   7003         JNZ     $+5
   \   000026   02....       LJMP    ??CrossCallReturnLabel_67 & 0xFFFF
    977            {
    978              dstOff = (dstOff / OSAL_NV_WORD_SIZE) * OSAL_NV_WORD_SIZE;
   \   000029   74FC         MOV     A,#-0x4
   \   00002B   55..         ANL     A,?V0 + 2
   \   00002D   F5..         MOV     ?V0 + 2,A
    979              HalFlashRead(dstPg, dstOff, tmp, OSAL_NV_WORD_SIZE);
   \   00002F                ; Setup parameters for call to function HalFlashRead
   \   00002F   75..04       MOV     ?V0 + 6,#0x4
   \   000032   75..00       MOV     ?V0 + 7,#0x0
   \   000035   78..         MOV     R0,#?V0 + 6
   \   000037   12....       LCALL   ?PUSH_XSTACK_I_TWO
   \   00003A   7402         MOV     A,#0x2
   \   00003C   12....       LCALL   ?XSTACK_DISP0_8
   \   00003F   AC82         MOV     R4,DPL
   \   000041   AD83         MOV     R5,DPH
   \   000043   AA..         MOV     R2,?V0 + 2
   \   000045   12....       LCALL   ??Subroutine51_0 & 0xFFFF
   \                     ??CrossCallReturnLabel_128:
   \   000048   12....       LCALL   ?DEALLOC_XSTACK8
   \   00004B   8E..         MOV     ?V0 + 6,R6
   \   00004D   85..82       MOV     DPL,?XSP + 0
   \   000050   85..83       MOV     DPH,?XSP + 1
   \   000053   E582         MOV     A,DPL
   \   000055   25..         ADD     A,?V0 + 6
   \   000057   F8           MOV     R0,A
   \   000058   E583         MOV     A,DPH
   \   00005A   3400         ADDC    A,#0x0
   \   00005C   F9           MOV     R1,A
   \                     ??writeBuf_0:
   \   00005D   E5..         MOV     A,?V0 + 4
   \   00005F   45..         ORL     A,?V0 + 5
   \   000061   601F         JZ      ??writeBuf_1
    980          
    981              while ( (rem < OSAL_NV_WORD_SIZE) && len )
    982              {
    983                tmp[rem++] = *buf++;
   \   000063   12....       LCALL   ?Subroutine6 & 0xFFFF
   \                     ??CrossCallReturnLabel_0:
   \   000066   0E           INC     R6
    984                len--;
   \   000067   E5..         MOV     A,?V0 + 4
   \   000069   24FF         ADD     A,#-0x1
   \   00006B   F5..         MOV     ?V0 + 4,A
   \   00006D   E5..         MOV     A,?V0 + 5
   \   00006F   34FF         ADDC    A,#-0x1
   \   000071   F5..         MOV     ?V0 + 5,A
   \   000073   8882         MOV     DPL,R0
   \   000075   8983         MOV     DPH,R1
   \   000077   A3           INC     DPTR
   \   000078   A882         MOV     R0,DPL
   \   00007A   A983         MOV     R1,DPH
    985              }
   \   00007C   EE           MOV     A,R6
   \   00007D   C3           CLR     C
   \   00007E   9404         SUBB    A,#0x4
   \   000080   40DB         JC      ??writeBuf_0
    986          
    987              writeWord( dstPg, dstOff, tmp );
   \                     ??writeBuf_1:
   \   000082                ; Setup parameters for call to function HalFlashWrite
   \   000082   75..01       MOV     ?V0 + 6,#0x1
   \   000085   78..         MOV     R0,#?V0 + 6
   \   000087   12....       LCALL   ?PUSH_XSTACK_I_TWO
   \   00008A   7402         MOV     A,#0x2
   \   00008C   12....       LCALL   ?XSTACK_DISP0_8
   \   00008F   AC82         MOV     R4,DPL
   \   000091   AD83         MOV     R5,DPH
   \   000093   85....       MOV     ?V0 + 6,?V0 + 2
   \   000096   85....       MOV     ?V0 + 7,?V0 + 3
   \   000099   7402         MOV     A,#0x2
   \   00009B   78..         MOV     R0,#?V0 + 6
   \   00009D   12....       LCALL   ?US_SHR
   \   0000A0   8F..         MOV     ?V0 + 8,R7
   \   0000A2   F5..         MOV     ?V0 + 9,A
   \   0000A4   7409         MOV     A,#0x9
   \   0000A6   78..         MOV     R0,#?V0 + 8
   \   0000A8   12....       LCALL   ?S_SHL
   \   0000AB   12....       LCALL   ?Subroutine27 & 0xFFFF
   \                     ??CrossCallReturnLabel_82:
   \   0000AE   12....       LCALL   ?DEALLOC_XSTACK8
    988              dstOff += OSAL_NV_WORD_SIZE;
   \   0000B1   12....       LCALL   ?Subroutine35 & 0xFFFF
    989            }
    990          
    991            rem = len % OSAL_NV_WORD_SIZE;
   \                     ??CrossCallReturnLabel_67:
   \   0000B4   E5..         MOV     A,?V0 + 4
   \   0000B6   5403         ANL     A,#0x3
   \   0000B8   FE           MOV     R6,A
    992            len /= OSAL_NV_WORD_SIZE;
   \   0000B9   85....       MOV     ?V0 + 6,?V0 + 4
   \   0000BC   85....       MOV     ?V0 + 7,?V0 + 5
   \   0000BF   7402         MOV     A,#0x2
   \   0000C1   78..         MOV     R0,#?V0 + 6
   \   0000C3   12....       LCALL   ?US_SHR
   \   0000C6   85....       MOV     ?V0 + 4,?V0 + 6
   \   0000C9   85....       MOV     ?V0 + 5,?V0 + 7
    993          
    994            if ( len )
   \   0000CC   E5..         MOV     A,?V0 + 4
   \   0000CE   45..         ORL     A,?V0 + 5
   \   0000D0   6046         JZ      ??writeBuf_2
    995            {
    996              writeWordM( dstPg, dstOff, buf, len );
   \   0000D2                ; Setup parameters for call to function HalFlashWrite
   \   0000D2   78..         MOV     R0,#?V0 + 4
   \   0000D4   12....       LCALL   ?PUSH_XSTACK_I_TWO
   \   0000D7   AC..         MOV     R4,?V0 + 0
   \   0000D9   AD..         MOV     R5,?V0 + 1
   \   0000DB   85....       MOV     ?V0 + 6,?V0 + 2
   \   0000DE   85....       MOV     ?V0 + 7,?V0 + 3
   \   0000E1   7402         MOV     A,#0x2
   \   0000E3   78..         MOV     R0,#?V0 + 6
   \   0000E5   12....       LCALL   ?US_SHR
   \   0000E8   8F..         MOV     ?V0 + 8,R7
   \   0000EA   F5..         MOV     ?V0 + 9,A
   \   0000EC   7409         MOV     A,#0x9
   \   0000EE   78..         MOV     R0,#?V0 + 8
   \   0000F0   12....       LCALL   ?S_SHL
   \   0000F3   12....       LCALL   ?Subroutine27 & 0xFFFF
   \                     ??CrossCallReturnLabel_83:
   \   0000F6   12....       LCALL   ?DEALLOC_XSTACK8
    997              dstOff += OSAL_NV_WORD_SIZE * len;
   \   0000F9   7402         MOV     A,#0x2
   \   0000FB   78..         MOV     R0,#?V0 + 4
   \   0000FD   12....       LCALL   ?S_SHL
   \   000100   A8..         MOV     R0,?V0 + 4
   \   000102   A9..         MOV     R1,?V0 + 5
   \   000104   E5..         MOV     A,?V0 + 2
   \   000106   28           ADD     A,R0
   \   000107   F5..         MOV     ?V0 + 2,A
   \   000109   E5..         MOV     A,?V0 + 3
   \   00010B   39           ADDC    A,R1
   \   00010C   F5..         MOV     ?V0 + 3,A
    998              buf += OSAL_NV_WORD_SIZE * len;
   \   00010E   E5..         MOV     A,?V0 + 0
   \   000110   28           ADD     A,R0
   \   000111   F5..         MOV     ?V0 + 0,A
   \   000113   E5..         MOV     A,?V0 + 1
   \   000115   39           ADDC    A,R1
   \   000116   F5..         MOV     ?V0 + 1,A
    999            }
   1000          
   1001            if ( rem )
   \                     ??writeBuf_2:
   \   000118   EE           MOV     A,R6
   \   000119   6069         JZ      ??writeBuf_3
   1002            {
   1003              uint8 idx = 0;
   1004              HalFlashRead(dstPg, dstOff, tmp, OSAL_NV_WORD_SIZE);
   \   00011B                ; Setup parameters for call to function HalFlashRead
   \   00011B   75..04       MOV     ?V0 + 4,#0x4
   \   00011E   75..00       MOV     ?V0 + 5,#0x0
   \   000121   78..         MOV     R0,#?V0 + 4
   \   000123   12....       LCALL   ?PUSH_XSTACK_I_TWO
   \   000126   7402         MOV     A,#0x2
   \   000128   12....       LCALL   ?XSTACK_DISP0_8
   \   00012B   AC82         MOV     R4,DPL
   \   00012D   AD83         MOV     R5,DPH
   \   00012F   AA..         MOV     R2,?V0 + 2
   \   000131   AB..         MOV     R3,?V0 + 3
   \   000133   EF           MOV     A,R7
   \   000134   F9           MOV     R1,A
   \   000135   12....       LCALL   ??Subroutine51_0 & 0xFFFF
   \                     ??CrossCallReturnLabel_129:
   \   000138   12....       LCALL   ?DEALLOC_XSTACK8
   \   00013B   85..82       MOV     DPL,?XSP + 0
   \   00013E   85..83       MOV     DPH,?XSP + 1
   \   000141   A882         MOV     R0,DPL
   \   000143   A983         MOV     R1,DPH
   1005              while ( rem-- )
   1006              {
   1007                tmp[idx++] = *buf++;
   \                     ??writeBuf_4:
   \   000145   12....       LCALL   ?Subroutine6 & 0xFFFF
   1008              }
   \                     ??CrossCallReturnLabel_1:
   \   000148   8882         MOV     DPL,R0
   \   00014A   8983         MOV     DPH,R1
   \   00014C   A3           INC     DPTR
   \   00014D   A882         MOV     R0,DPL
   \   00014F   A983         MOV     R1,DPH
   \   000151   1E           DEC     R6
   \   000152   EE           MOV     A,R6
   \   000153   70F0         JNZ     ??writeBuf_4
   1009              writeWord( dstPg, dstOff, tmp );
   \   000155                ; Setup parameters for call to function HalFlashWrite
   \   000155   75..01       MOV     ?V0 + 0,#0x1
   \   000158   75..00       MOV     ?V0 + 1,#0x0
   \   00015B   78..         MOV     R0,#?V0 + 0
   \   00015D   12....       LCALL   ?PUSH_XSTACK_I_TWO
   \   000160   7402         MOV     A,#0x2
   \   000162   12....       LCALL   ?XSTACK_DISP0_8
   \   000165   AC82         MOV     R4,DPL
   \   000167   AD83         MOV     R5,DPH
   \   000169   7402         MOV     A,#0x2
   \   00016B   78..         MOV     R0,#?V0 + 2
   \   00016D   12....       LCALL   ?US_SHR
   \   000170   8F..         MOV     ?V0 + 0,R7
   \   000172   7409         MOV     A,#0x9
   \   000174   78..         MOV     R0,#?V0 + 0
   \   000176   12....       LCALL   ?S_SHL
   \   000179   12....       LCALL   ?Subroutine31 & 0xFFFF
   \                     ??CrossCallReturnLabel_61:
   \   00017C   35..         ADDC    A,?V0 + 1
   \   00017E   12....       LCALL   ??Subroutine44_0 & 0xFFFF
   \                     ??CrossCallReturnLabel_88:
   \   000181   12....       LCALL   ?DEALLOC_XSTACK8
   1010            }
   1011          }
   \                     ??writeBuf_3:
   \   000184   7404         MOV     A,#0x4
   \   000186   02....       LJMP    ?Subroutine3 & 0xFFFF

   \                                 In  segment BANKED_CODE, align 1, keep-with-next
   \                     ?Subroutine6:
   \   000000   85..82       MOV     DPL,?V0 + 0
   \   000003   85..83       MOV     DPH,?V0 + 1
   \   000006   E0           MOVX    A,@DPTR
   \   000007   8882         MOV     DPL,R0
   \   000009   8983         MOV     DPH,R1
   \   00000B   F0           MOVX    @DPTR,A
   \   00000C   85..82       MOV     DPL,?V0 + 0
   \   00000F   85..83       MOV     DPH,?V0 + 1
   \   000012   A3           INC     DPTR
   \   000013   8582..       MOV     ?V0 + 0,DPL
   \   000016   8583..       MOV     ?V0 + 1,DPH
   \   000019   22           RET
   1012          
   1013          /*********************************************************************
   1014           * @fn      xferBuf
   1015           *
   1016           * @brief   Xfers an NV buffer from one location to another, enforcing OSAL_NV_WORD_SIZE writes.
   1017           *
   1018           * @return  none
   1019           */

   \                                 In  segment BANKED_CODE, align 1, keep-with-next
   1020          static void xferBuf( uint8 srcPg, uint16 srcOff, uint8 dstPg, uint16 dstOff, uint16 len )
   \                     xferBuf:
   1021          {
   \   000000   74EC         MOV     A,#-0x14
   \   000002   12....       LCALL   ?BANKED_ENTER_XDATA
   \   000005                ; Saved register size: 20
   \   000005                ; Auto size: 4
   \   000005   74FC         MOV     A,#-0x4
   \   000007   12....       LCALL   ?ALLOC_XSTACK8
   \   00000A   89..         MOV     ?V0 + 8,R1
   \   00000C   8A..         MOV     ?V0 + 4,R2
   \   00000E   8B..         MOV     ?V0 + 5,R3
   \   000010   8C..         MOV     ?V0 + 3,R4
   \   000012   7418         MOV     A,#0x18
   \   000014   12....       LCALL   ?XSTACK_DISP0_8
   \   000017   E0           MOVX    A,@DPTR
   \   000018   FE           MOV     R6,A
   \   000019   A3           INC     DPTR
   \   00001A   E0           MOVX    A,@DPTR
   \   00001B   FF           MOV     R7,A
   \   00001C   741A         MOV     A,#0x1a
   \   00001E   12....       LCALL   ?XSTACK_DISP0_8
   \   000021   E0           MOVX    A,@DPTR
   \   000022   F5..         MOV     ?V0 + 0,A
   \   000024   A3           INC     DPTR
   \   000025   E0           MOVX    A,@DPTR
   \   000026   F5..         MOV     ?V0 + 1,A
   1022            uint8 rem = dstOff % OSAL_NV_WORD_SIZE;
   \   000028   EE           MOV     A,R6
   \   000029   5403         ANL     A,#0x3
   \   00002B   F5..         MOV     ?V0 + 2,A
   1023            uint8 tmp[OSAL_NV_WORD_SIZE];
   1024          
   1025            if ( rem )
   \   00002D   7003         JNZ     $+5
   \   00002F   02....       LJMP    ??xferBuf_0 & 0xFFFF
   1026            {
   1027              dstOff -= rem;
   \   000032   F5..         MOV     ?V0 + 6,A
   \   000034   C3           CLR     C
   \   000035   EE           MOV     A,R6
   \   000036   95..         SUBB    A,?V0 + 6
   \   000038   FE           MOV     R6,A
   \   000039   EF           MOV     A,R7
   \   00003A   9400         SUBB    A,#0x0
   \   00003C   FF           MOV     R7,A
   1028              HalFlashRead(dstPg, dstOff, tmp, OSAL_NV_WORD_SIZE);
   \   00003D                ; Setup parameters for call to function HalFlashRead
   \   00003D   75..04       MOV     ?V0 + 6,#0x4
   \   000040   75..00       MOV     ?V0 + 7,#0x0
   \   000043   78..         MOV     R0,#?V0 + 6
   \   000045   12....       LCALL   ?PUSH_XSTACK_I_TWO
   \   000048   7402         MOV     A,#0x2
   \   00004A   12....       LCALL   ?XSTACK_DISP0_8
   \   00004D   AC82         MOV     R4,DPL
   \   00004F   AD83         MOV     R5,DPH
   \   000051   EE           MOV     A,R6
   \   000052   FA           MOV     R2,A
   \   000053   EF           MOV     A,R7
   \   000054   FB           MOV     R3,A
   \   000055   A9..         MOV     R1,?V0 + 3
   \   000057   12....       LCALL   ??Subroutine51_0 & 0xFFFF
   \                     ??CrossCallReturnLabel_130:
   \   00005A   12....       LCALL   ?DEALLOC_XSTACK8
   \   00005D   85....       MOV     ?V0 + 6,?V0 + 2
   \   000060   85..82       MOV     DPL,?XSP + 0
   \   000063   85..83       MOV     DPH,?XSP + 1
   \   000066   E582         MOV     A,DPL
   \   000068   25..         ADD     A,?V0 + 6
   \   00006A   F5..         MOV     ?V0 + 6,A
   \   00006C   E583         MOV     A,DPH
   \   00006E   3400         ADDC    A,#0x0
   \   000070   F5..         MOV     ?V0 + 7,A
   \                     ??xferBuf_1:
   \   000072   E5..         MOV     A,?V0 + 0
   \   000074   45..         ORL     A,?V0 + 1
   \   000076   6031         JZ      ??xferBuf_2
   1029          
   1030              while ( (rem < OSAL_NV_WORD_SIZE) && len )
   1031              {
   1032                HalFlashRead(srcPg, srcOff, tmp+rem, 1);
   \   000078                ; Setup parameters for call to function HalFlashRead
   \   000078   75..01       MOV     ?V0 + 10,#0x1
   \   00007B   75..00       MOV     ?V0 + 11,#0x0
   \   00007E   78..         MOV     R0,#?V0 + 10
   \   000080   12....       LCALL   ?PUSH_XSTACK_I_TWO
   \   000083   AC..         MOV     R4,?V0 + 6
   \   000085   AD..         MOV     R5,?V0 + 7
   \   000087   12....       LCALL   ?Subroutine10 & 0xFFFF
   \                     ??CrossCallReturnLabel_115:
   \   00008A   12....       LCALL   ?DEALLOC_XSTACK8
   1033                srcOff++;
   \   00008D   12....       LCALL   ?Subroutine34 & 0xFFFF
   1034                rem++;
   \                     ??CrossCallReturnLabel_63:
   \   000090   05..         INC     ?V0 + 2
   1035                len--;
   \   000092   12....       LCALL   ?Subroutine36 & 0xFFFF
   1036              }
   \                     ??CrossCallReturnLabel_68:
   \   000095   85..82       MOV     DPL,?V0 + 6
   \   000098   85..83       MOV     DPH,?V0 + 7
   \   00009B   A3           INC     DPTR
   \   00009C   8582..       MOV     ?V0 + 6,DPL
   \   00009F   8583..       MOV     ?V0 + 7,DPH
   \   0000A2   E5..         MOV     A,?V0 + 2
   \   0000A4   C3           CLR     C
   \   0000A5   9404         SUBB    A,#0x4
   \   0000A7   40C9         JC      ??xferBuf_1
   1037          
   1038              writeWord( dstPg, dstOff, tmp );
   \                     ??xferBuf_2:
   \   0000A9                ; Setup parameters for call to function HalFlashWrite
   \   0000A9   75..01       MOV     ?V0 + 6,#0x1
   \   0000AC   75..00       MOV     ?V0 + 7,#0x0
   \   0000AF   78..         MOV     R0,#?V0 + 6
   \   0000B1   12....       LCALL   ?PUSH_XSTACK_I_TWO
   \   0000B4   7402         MOV     A,#0x2
   \   0000B6   12....       LCALL   ?XSTACK_DISP0_8
   \   0000B9   AC82         MOV     R4,DPL
   \   0000BB   AD83         MOV     R5,DPH
   \   0000BD   8E..         MOV     ?V0 + 6,R6
   \   0000BF   8F..         MOV     ?V0 + 7,R7
   \   0000C1   7402         MOV     A,#0x2
   \   0000C3   78..         MOV     R0,#?V0 + 6
   \   0000C5   12....       LCALL   ?US_SHR
   \   0000C8   85....       MOV     ?V0 + 2,?V0 + 3
   \   0000CB   85....       MOV     ?V0 + 10,?V0 + 2
   \   0000CE   F5..         MOV     ?V0 + 11,A
   \   0000D0   7409         MOV     A,#0x9
   \   0000D2   78..         MOV     R0,#?V0 + 10
   \   0000D4   12....       LCALL   ?S_SHL
   \   0000D7   E5..         MOV     A,?V0 + 6
   \   0000D9   2400         ADD     A,#0x0
   \   0000DB   FA           MOV     R2,A
   \   0000DC   E5..         MOV     A,?V0 + 7
   \   0000DE   35..         ADDC    A,?V0 + 11
   \   0000E0   12....       LCALL   ??Subroutine44_0 & 0xFFFF
   \                     ??CrossCallReturnLabel_89:
   \   0000E3   12....       LCALL   ?DEALLOC_XSTACK8
   1039              dstOff += OSAL_NV_WORD_SIZE;
   \   0000E6   EE           MOV     A,R6
   \   0000E7   2404         ADD     A,#0x4
   \   0000E9   FE           MOV     R6,A
   \   0000EA   EF           MOV     A,R7
   \   0000EB   3400         ADDC    A,#0x0
   \   0000ED   FF           MOV     R7,A
   1040            }
   1041          
   1042            rem = len % OSAL_NV_WORD_SIZE;
   \                     ??xferBuf_0:
   \   0000EE   E5..         MOV     A,?V0 + 0
   \   0000F0   5403         ANL     A,#0x3
   \   0000F2   F5..         MOV     ?V0 + 2,A
   1043            len /= OSAL_NV_WORD_SIZE;
   \   0000F4   85....       MOV     ?V0 + 6,?V0 + 0
   \   0000F7   85....       MOV     ?V0 + 7,?V0 + 1
   \   0000FA   7402         MOV     A,#0x2
   \   0000FC   78..         MOV     R0,#?V0 + 6
   \   0000FE   12....       LCALL   ?US_SHR
   \   000101   85....       MOV     ?V0 + 0,?V0 + 6
   \   000104   85....       MOV     ?V0 + 1,?V0 + 7
   \   000107   E5..         MOV     A,?V0 + 0
   \   000109   45..         ORL     A,?V0 + 1
   \   00010B   6072         JZ      ??xferBuf_3
   \   00010D   85....       MOV     ?V0 + 10,?V0 + 3
   \   000110   75..00       MOV     ?V0 + 11,#0x0
   \   000113   7409         MOV     A,#0x9
   \   000115   78..         MOV     R0,#?V0 + 10
   \   000117   12....       LCALL   ?S_SHL
   \   00011A   85....       MOV     ?V0 + 7,?V0 + 11
   1044          
   1045            while ( len-- )
   1046            {
   1047              HalFlashRead(srcPg, srcOff, tmp, OSAL_NV_WORD_SIZE);
   \                     ??xferBuf_4:
   \   00011D                ; Setup parameters for call to function HalFlashRead
   \   00011D   75..04       MOV     ?V0 + 10,#0x4
   \   000120   75..00       MOV     ?V0 + 11,#0x0
   \   000123   78..         MOV     R0,#?V0 + 10
   \   000125   12....       LCALL   ?PUSH_XSTACK_I_TWO
   \   000128   7402         MOV     A,#0x2
   \   00012A   12....       LCALL   ?XSTACK_DISP0_8
   \   00012D   AC82         MOV     R4,DPL
   \   00012F   AD83         MOV     R5,DPH
   \   000131   12....       LCALL   ?Subroutine10 & 0xFFFF
   \                     ??CrossCallReturnLabel_116:
   \   000134   12....       LCALL   ?DEALLOC_XSTACK8
   1048              srcOff += OSAL_NV_WORD_SIZE;
   \   000137   E5..         MOV     A,?V0 + 4
   \   000139   2404         ADD     A,#0x4
   \   00013B   F5..         MOV     ?V0 + 4,A
   \   00013D   E5..         MOV     A,?V0 + 5
   \   00013F   3400         ADDC    A,#0x0
   \   000141   F5..         MOV     ?V0 + 5,A
   1049              writeWord( dstPg, dstOff, tmp );
   \   000143                ; Setup parameters for call to function HalFlashWrite
   \   000143   75..01       MOV     ?V0 + 10,#0x1
   \   000146   78..         MOV     R0,#?V0 + 10
   \   000148   12....       LCALL   ?PUSH_XSTACK_I_TWO
   \   00014B   7402         MOV     A,#0x2
   \   00014D   12....       LCALL   ?XSTACK_DISP0_8
   \   000150   AC82         MOV     R4,DPL
   \   000152   AD83         MOV     R5,DPH
   \   000154   8E..         MOV     ?V0 + 10,R6
   \   000156   8F..         MOV     ?V0 + 11,R7
   \   000158   7402         MOV     A,#0x2
   \   00015A   78..         MOV     R0,#?V0 + 10
   \   00015C   12....       LCALL   ?US_SHR
   \   00015F   E5..         MOV     A,?V0 + 10
   \   000161   2400         ADD     A,#0x0
   \   000163   FA           MOV     R2,A
   \   000164   E5..         MOV     A,?V0 + 11
   \   000166   35..         ADDC    A,?V0 + 7
   \   000168   12....       LCALL   ??Subroutine44_0 & 0xFFFF
   \                     ??CrossCallReturnLabel_90:
   \   00016B   12....       LCALL   ?DEALLOC_XSTACK8
   1050              dstOff += OSAL_NV_WORD_SIZE;
   \   00016E   EE           MOV     A,R6
   \   00016F   2404         ADD     A,#0x4
   \   000171   FE           MOV     R6,A
   \   000172   EF           MOV     A,R7
   \   000173   3400         ADDC    A,#0x0
   \   000175   FF           MOV     R7,A
   \   000176   12....       LCALL   ?Subroutine36 & 0xFFFF
   1051            }
   \                     ??CrossCallReturnLabel_69:
   \   000179   E5..         MOV     A,?V0 + 0
   \   00017B   45..         ORL     A,?V0 + 1
   \   00017D   709E         JNZ     ??xferBuf_4
   1052          
   1053            if ( rem )
   \                     ??xferBuf_3:
   \   00017F   E5..         MOV     A,?V0 + 2
   \   000181   7003         JNZ     $+5
   \   000183   02....       LJMP    ??xferBuf_5 & 0xFFFF
   1054            {
   1055              uint8 idx = 0;
   1056              HalFlashRead(dstPg, dstOff, tmp, OSAL_NV_WORD_SIZE);
   \   000186                ; Setup parameters for call to function HalFlashRead
   \   000186   75..04       MOV     ?V0 + 0,#0x4
   \   000189   75..00       MOV     ?V0 + 1,#0x0
   \   00018C   78..         MOV     R0,#?V0 + 0
   \   00018E   12....       LCALL   ?PUSH_XSTACK_I_TWO
   \   000191   7402         MOV     A,#0x2
   \   000193   12....       LCALL   ?XSTACK_DISP0_8
   \   000196   AC82         MOV     R4,DPL
   \   000198   AD83         MOV     R5,DPH
   \   00019A   EE           MOV     A,R6
   \   00019B   FA           MOV     R2,A
   \   00019C   EF           MOV     A,R7
   \   00019D   FB           MOV     R3,A
   \   00019E   A9..         MOV     R1,?V0 + 3
   \   0001A0   12....       LCALL   ??Subroutine51_0 & 0xFFFF
   \                     ??CrossCallReturnLabel_131:
   \   0001A3   12....       LCALL   ?DEALLOC_XSTACK8
   \   0001A6   85..82       MOV     DPL,?XSP + 0
   \   0001A9   85..83       MOV     DPH,?XSP + 1
   \   0001AC   8582..       MOV     ?V0 + 0,DPL
   \   0001AF   8583..       MOV     ?V0 + 1,DPH
   1057              while ( rem-- )
   1058              {
   1059                HalFlashRead(srcPg, srcOff, tmp+idx, 1);
   \                     ??xferBuf_6:
   \   0001B2                ; Setup parameters for call to function HalFlashRead
   \   0001B2   75..01       MOV     ?V0 + 6,#0x1
   \   0001B5   75..00       MOV     ?V0 + 7,#0x0
   \   0001B8   78..         MOV     R0,#?V0 + 6
   \   0001BA   12....       LCALL   ?PUSH_XSTACK_I_TWO
   \   0001BD   AC..         MOV     R4,?V0 + 0
   \   0001BF   AD..         MOV     R5,?V0 + 1
   \   0001C1   12....       LCALL   ?Subroutine10 & 0xFFFF
   \                     ??CrossCallReturnLabel_117:
   \   0001C4   12....       LCALL   ?DEALLOC_XSTACK8
   1060                srcOff++;
   \   0001C7   12....       LCALL   ?Subroutine34 & 0xFFFF
   1061                idx++;
   \                     ??CrossCallReturnLabel_64:
   \   0001CA   85..82       MOV     DPL,?V0 + 0
   \   0001CD   85..83       MOV     DPH,?V0 + 1
   \   0001D0   A3           INC     DPTR
   \   0001D1   8582..       MOV     ?V0 + 0,DPL
   \   0001D4   8583..       MOV     ?V0 + 1,DPH
   1062              }
   \   0001D7   15..         DEC     ?V0 + 2
   \   0001D9   E5..         MOV     A,?V0 + 2
   \   0001DB   70D5         JNZ     ??xferBuf_6
   1063              writeWord( dstPg, dstOff, tmp );
   \   0001DD                ; Setup parameters for call to function HalFlashWrite
   \   0001DD   75..01       MOV     ?V0 + 0,#0x1
   \   0001E0   75..00       MOV     ?V0 + 1,#0x0
   \   0001E3   78..         MOV     R0,#?V0 + 0
   \   0001E5   12....       LCALL   ?PUSH_XSTACK_I_TWO
   \   0001E8   7402         MOV     A,#0x2
   \   0001EA   12....       LCALL   ?XSTACK_DISP0_8
   \   0001ED   AC82         MOV     R4,DPL
   \   0001EF   AD83         MOV     R5,DPH
   \   0001F1   8E..         MOV     ?V0 + 0,R6
   \   0001F3   8F..         MOV     ?V0 + 1,R7
   \   0001F5   7402         MOV     A,#0x2
   \   0001F7   78..         MOV     R0,#?V0 + 0
   \   0001F9   12....       LCALL   ?US_SHR
   \   0001FC   85....       MOV     ?V0 + 2,?V0 + 3
   \   0001FF   85....       MOV     ?V0 + 4,?V0 + 2
   \   000202   F5..         MOV     ?V0 + 5,A
   \   000204   7409         MOV     A,#0x9
   \   000206   78..         MOV     R0,#?V0 + 4
   \   000208   12....       LCALL   ?S_SHL
   \   00020B   E5..         MOV     A,?V0 + 0
   \   00020D   2400         ADD     A,#0x0
   \   00020F   FA           MOV     R2,A
   \   000210   E5..         MOV     A,?V0 + 1
   \   000212   35..         ADDC    A,?V0 + 5
   \   000214   12....       LCALL   ??Subroutine44_0 & 0xFFFF
   \                     ??CrossCallReturnLabel_91:
   \   000217   12....       LCALL   ?DEALLOC_XSTACK8
   1064            }
   1065          }
   \                     ??xferBuf_5:
   \   00021A   7404         MOV     A,#0x4
   \   00021C   12....       LCALL   ?DEALLOC_XSTACK8
   \   00021F   7F0C         MOV     R7,#0xc
   \   000221   02....       LJMP    ?BANKED_LEAVE_XDATA

   \                                 In  segment BANKED_CODE, align 1, keep-with-next
   \                     ?Subroutine36:
   \   000000   E5..         MOV     A,?V0 + 0
   \   000002   24FF         ADD     A,#-0x1
   \   000004   F5..         MOV     ?V0 + 0,A
   \   000006   E5..         MOV     A,?V0 + 1
   \   000008   34FF         ADDC    A,#-0x1
   \   00000A   F5..         MOV     ?V0 + 1,A
   \   00000C   22           RET

   \                                 In  segment BANKED_CODE, align 1, keep-with-next
   \                     ?Subroutine34:
   \   000000   E5..         MOV     A,?V0 + 4
   \   000002   2401         ADD     A,#0x1
   \   000004   F5..         MOV     ?V0 + 4,A
   \   000006   E5..         MOV     A,?V0 + 5
   \   000008   3400         ADDC    A,#0x0
   \   00000A   F5..         MOV     ?V0 + 5,A
   \   00000C   22           RET

   \                                 In  segment BANKED_CODE, align 1, keep-with-next
   \                     ?Subroutine10:
   \   000000   AA..         MOV     R2,?V0 + 4
   \   000002   AB..         MOV     R3,?V0 + 5
   \   000004                REQUIRE ??Subroutine50_0
   \   000004                ; // Fall through to label ??Subroutine50_0
   1066          
   1067          /*********************************************************************
   1068           * @fn      writeItem
   1069           *
   1070           * @brief   Writes an item header/data combo to the specified NV page.
   1071           *
   1072           * @param   pg - Valid NV Flash page.
   1073           * @param   id - Valid NV item Id.
   1074           * @param   len  - Byte count of the data to write.
   1075           * @param   buf  - The data to write. If NULL, no data/checksum write.
   1076           * @param   flag - TRUE if the checksum should be written, FALSE otherwise.
   1077           *
   1078           * @return  TRUE if header/data to write matches header/data read back, else FALSE.
   1079           */

   \                                 In  segment BANKED_CODE, align 1, keep-with-next
   1080          static uint8 writeItem( uint8 pg, uint16 id, uint16 len, void *buf, uint8 flag )
   \                     writeItem:
   1081          {
   \   000000   74E8         MOV     A,#-0x18
   \   000002   12....       LCALL   ?BANKED_ENTER_XDATA
   \   000005                ; Saved register size: 24
   \   000005                ; Auto size: 16
   \   000005   74F0         MOV     A,#-0x10
   \   000007   12....       LCALL   ?ALLOC_XSTACK8
   \   00000A   89..         MOV     ?V0 + 4,R1
   \   00000C   8A..         MOV     ?V0 + 12,R2
   \   00000E   8B..         MOV     ?V0 + 13,R3
   \   000010   EC           MOV     A,R4
   \   000011   FE           MOV     R6,A
   \   000012   ED           MOV     A,R5
   \   000013   FF           MOV     R7,A
   \   000014   7428         MOV     A,#0x28
   \   000016   12....       LCALL   ?XSTACK_DISP0_8
   \   000019   E0           MOVX    A,@DPTR
   \   00001A   F5..         MOV     ?V0 + 8,A
   \   00001C   A3           INC     DPTR
   \   00001D   E0           MOVX    A,@DPTR
   \   00001E   F5..         MOV     ?V0 + 9,A
   \   000020   742A         MOV     A,#0x2a
   \   000022   12....       LCALL   ?XSTACK_DISP0_8
   \   000025   E0           MOVX    A,@DPTR
   \   000026   F5..         MOV     ?V0 + 6,A
   1082            uint16 offset = pgOff[pg-OSAL_NV_PAGE_BEG];
   \   000028   E9           MOV     A,R1
   \   000029   C3           CLR     C
   \   00002A   33           RLC     A
   \   00002B   F5..         MOV     ?V0 + 0,A
   \   00002D   E4           CLR     A
   \   00002E   33           RLC     A
   \   00002F   F5..         MOV     ?V0 + 1,A
   \   000031   74..         MOV     A,#(pgOff + 14) & 0xff
   \   000033   25..         ADD     A,?V0 + 0
   \   000035   F5..         MOV     ?V0 + 14,A
   \   000037   74..         MOV     A,#((pgOff - 242) >> 8) & 0xff
   \   000039   35..         ADDC    A,?V0 + 1
   \   00003B   F5..         MOV     ?V0 + 15,A
   \   00003D   85..82       MOV     DPL,?V0 + 14
   \   000040   F583         MOV     DPH,A
   \   000042   E0           MOVX    A,@DPTR
   \   000043   F5..         MOV     ?V0 + 2,A
   \   000045   A3           INC     DPTR
   \   000046   E0           MOVX    A,@DPTR
   \   000047   F5..         MOV     ?V0 + 3,A
   1083            uint8 rtrn = FALSE;
   \   000049   75..00       MOV     ?V0 + 5,#0x0
   1084            osalNvHdr_t hdr;
   1085          
   1086            hdr.id = id;
   \   00004C   7408         MOV     A,#0x8
   \   00004E   12....       LCALL   ?XSTACK_DISP0_8
   \   000051   EA           MOV     A,R2
   \   000052   F0           MOVX    @DPTR,A
   \   000053   A3           INC     DPTR
   \   000054   EB           MOV     A,R3
   \   000055   F0           MOVX    @DPTR,A
   1087            hdr.len = len;
   \   000056   740A         MOV     A,#0xa
   \   000058   12....       LCALL   ?XSTACK_DISP0_8
   \   00005B   EE           MOV     A,R6
   \   00005C   F0           MOVX    @DPTR,A
   \   00005D   A3           INC     DPTR
   \   00005E   EF           MOV     A,R7
   \   00005F   F0           MOVX    @DPTR,A
   1088          
   1089            writeWord( pg, offset, (uint8 *)&hdr );
   \   000060   89..         MOV     ?V0 + 10,R1
   \   000062   75..00       MOV     ?V0 + 11,#0x0
   \   000065   7409         MOV     A,#0x9
   \   000067   78..         MOV     R0,#?V0 + 10
   \   000069   12....       LCALL   ?S_SHL
   \   00006C   7406         MOV     A,#0x6
   \   00006E   12....       LCALL   ?XSTACK_DISP0_8
   \   000071   E4           CLR     A
   \   000072   F0           MOVX    @DPTR,A
   \   000073   A3           INC     DPTR
   \   000074   E5..         MOV     A,?V0 + 11
   \   000076   F0           MOVX    @DPTR,A
   \   000077                ; Setup parameters for call to function HalFlashWrite
   \   000077   75..01       MOV     ?V0 + 10,#0x1
   \   00007A   75..00       MOV     ?V0 + 11,#0x0
   \   00007D   78..         MOV     R0,#?V0 + 10
   \   00007F   12....       LCALL   ?PUSH_XSTACK_I_TWO
   \   000082   740A         MOV     A,#0xa
   \   000084   12....       LCALL   ?XSTACK_DISP0_8
   \   000087   AC82         MOV     R4,DPL
   \   000089   AD83         MOV     R5,DPH
   \   00008B   85....       MOV     ?V0 + 10,?V0 + 2
   \   00008E   85....       MOV     ?V0 + 11,?V0 + 3
   \   000091   7402         MOV     A,#0x2
   \   000093   78..         MOV     R0,#?V0 + 10
   \   000095   12....       LCALL   ?US_SHR
   \   000098   7408         MOV     A,#0x8
   \   00009A   12....       LCALL   ?XSTACK_DISP0_8
   \   00009D   E0           MOVX    A,@DPTR
   \   00009E   25..         ADD     A,?V0 + 10
   \   0000A0   FA           MOV     R2,A
   \   0000A1   A3           INC     DPTR
   \   0000A2   E0           MOVX    A,@DPTR
   \   0000A3   35..         ADDC    A,?V0 + 11
   \   0000A5   12....       LCALL   ??Subroutine44_0 & 0xFFFF
   \                     ??CrossCallReturnLabel_92:
   \   0000A8   12....       LCALL   ?DEALLOC_XSTACK8
   1090            HalFlashRead(pg, offset, (uint8 *)(&hdr), OSAL_NV_HDR_SIZE);
   \   0000AB                ; Setup parameters for call to function HalFlashRead
   \   0000AB   75..08       MOV     ?V0 + 10,#0x8
   \   0000AE   75..00       MOV     ?V0 + 11,#0x0
   \   0000B1   78..         MOV     R0,#?V0 + 10
   \   0000B3   12....       LCALL   ?PUSH_XSTACK_I_TWO
   \   0000B6   740A         MOV     A,#0xa
   \   0000B8   12....       LCALL   ?XSTACK_DISP0_8
   \   0000BB   AC82         MOV     R4,DPL
   \   0000BD   AD83         MOV     R5,DPH
   \   0000BF   AA..         MOV     R2,?V0 + 2
   \   0000C1   AB..         MOV     R3,?V0 + 3
   \   0000C3   A9..         MOV     R1,?V0 + 4
   \   0000C5   12....       LCALL   ??Subroutine51_0 & 0xFFFF
   \                     ??CrossCallReturnLabel_132:
   \   0000C8   12....       LCALL   ?DEALLOC_XSTACK8
   1091          
   1092            if ( (hdr.id == id) && (hdr.len == len) )
   \   0000CB   740A         MOV     A,#0xa
   \   0000CD   12....       LCALL   ?XSTACK_DISP0_8
   \   0000D0   12....       LCALL   ?Subroutine25 & 0xFFFF
   \                     ??CrossCallReturnLabel_44:
   \   0000D3   7408         MOV     A,#0x8
   \   0000D5   12....       LCALL   ?XSTACK_DISP0_8
   \   0000D8   E0           MOVX    A,@DPTR
   \   0000D9   65..         XRL     A,?V0 + 12
   \   0000DB   7004         JNZ     ??writeItem_0
   \   0000DD   A3           INC     DPTR
   \   0000DE   E0           MOVX    A,@DPTR
   \   0000DF   65..         XRL     A,?V0 + 13
   \                     ??writeItem_0:
   \   0000E1   6003         JZ      $+5
   \   0000E3   02....       LJMP    ??writeItem_1 & 0xFFFF
   \   0000E6   EE           MOV     A,R6
   \   0000E7   68           XRL     A,R0
   \   0000E8   7002         JNZ     ??writeItem_2
   \   0000EA   EF           MOV     A,R7
   \   0000EB   69           XRL     A,R1
   \                     ??writeItem_2:
   \   0000EC   6003         JZ      $+5
   \   0000EE   02....       LJMP    ??writeItem_1 & 0xFFFF
   1093            {
   1094              if ( flag )
   \   0000F1   E5..         MOV     A,?V0 + 6
   \   0000F3   7003         JNZ     $+5
   \   0000F5   02....       LJMP    ??writeItem_3 & 0xFFFF
   1095              {
   1096                hdr.chk = calcChkB( len, buf );
   \   0000F8   85..82       MOV     DPL,?V0 + 8
   \   0000FB   85..83       MOV     DPH,?V0 + 9
   \   0000FE   EE           MOV     A,R6
   \   0000FF   F8           MOV     R0,A
   \   000100   EF           MOV     A,R7
   \   000101   F9           MOV     R1,A
   \   000102   E8           MOV     A,R0
   \   000103   5403         ANL     A,#0x3
   \   000105   F5..         MOV     ?V0 + 0,A
   \   000107   E582         MOV     A,DPL
   \   000109   4583         ORL     A,DPH
   \   00010B   7015         JNZ     ??writeItem_4
   \   00010D   E8           MOV     A,R0
   \   00010E   75F0FF       MOV     B,#-0x1
   \   000111   A4           MUL     AB
   \   000112   F8           MOV     R0,A
   \   000113   AAF0         MOV     R2,B
   \   000115   75F0FF       MOV     B,#-0x1
   \   000118   E9           MOV     A,R1
   \   000119   A4           MUL     AB
   \   00011A   2A           ADD     A,R2
   \   00011B   F9           MOV     R1,A
   \   00011C   E8           MOV     A,R0
   \   00011D   FA           MOV     R2,A
   \   00011E   E9           MOV     A,R1
   \   00011F   FB           MOV     R3,A
   \   000120   801E         SJMP    ??writeItem_5
   \                     ??writeItem_4:
   \   000122   7A00         MOV     R2,#0x0
   \   000124   7B00         MOV     R3,#0x0
   \   000126   E8           MOV     A,R0
   \   000127   49           ORL     A,R1
   \   000128   6016         JZ      ??writeItem_5
   \                     ??writeItem_6:
   \   00012A   E0           MOVX    A,@DPTR
   \   00012B   FC           MOV     R4,A
   \   00012C   EA           MOV     A,R2
   \   00012D   2C           ADD     A,R4
   \   00012E   FA           MOV     R2,A
   \   00012F   EB           MOV     A,R3
   \   000130   3400         ADDC    A,#0x0
   \   000132   FB           MOV     R3,A
   \   000133   A3           INC     DPTR
   \   000134   E8           MOV     A,R0
   \   000135   24FF         ADD     A,#-0x1
   \   000137   18           DEC     R0
   \   000138   E9           MOV     A,R1
   \   000139   34FF         ADDC    A,#-0x1
   \   00013B   F9           MOV     R1,A
   \   00013C   E8           MOV     A,R0
   \   00013D   49           ORL     A,R1
   \   00013E   70EA         JNZ     ??writeItem_6
   \                     ??writeItem_5:
   \   000140   E5..         MOV     A,?V0 + 0
   \   000142   601E         JZ      ??writeItem_7
   \   000144   7404         MOV     A,#0x4
   \   000146   C3           CLR     C
   \   000147   95..         SUBB    A,?V0 + 0
   \   000149   F8           MOV     R0,A
   \   00014A   95E0         SUBB    A,0xE0 /* A   */
   \   00014C   F9           MOV     R1,A
   \   00014D   E8           MOV     A,R0
   \   00014E   75F0FF       MOV     B,#-0x1
   \   000151   A4           MUL     AB
   \   000152   F8           MOV     R0,A
   \   000153   ACF0         MOV     R4,B
   \   000155   75F0FF       MOV     B,#-0x1
   \   000158   E9           MOV     A,R1
   \   000159   A4           MUL     AB
   \   00015A   2C           ADD     A,R4
   \   00015B   F9           MOV     R1,A
   \   00015C   EA           MOV     A,R2
   \   00015D   28           ADD     A,R0
   \   00015E   FA           MOV     R2,A
   \   00015F   EB           MOV     A,R3
   \   000160   39           ADDC    A,R1
   \   000161   FB           MOV     R3,A
   \                     ??writeItem_7:
   \   000162   740C         MOV     A,#0xc
   \   000164   12....       LCALL   ?XSTACK_DISP0_8
   \   000167   EA           MOV     A,R2
   \   000168   F0           MOVX    @DPTR,A
   \   000169   A3           INC     DPTR
   \   00016A   EB           MOV     A,R3
   \   00016B   F0           MOVX    @DPTR,A
   1097          
   1098                offset += OSAL_NV_HDR_SIZE;
   \   00016C   E5..         MOV     A,?V0 + 2
   \   00016E   2408         ADD     A,#0x8
   \   000170   F5..         MOV     ?V0 + 2,A
   \   000172   E5..         MOV     A,?V0 + 3
   \   000174   3400         ADDC    A,#0x0
   \   000176   F5..         MOV     ?V0 + 3,A
   1099                if ( buf != NULL )
   \   000178   E5..         MOV     A,?V0 + 8
   \   00017A   45..         ORL     A,?V0 + 9
   \   00017C   6017         JZ      ??writeItem_8
   1100                {
   1101                  writeBuf( pg, offset, len, buf );
   \   00017E                ; Setup parameters for call to function writeBuf
   \   00017E   78..         MOV     R0,#?V0 + 8
   \   000180   12....       LCALL   ?PUSH_XSTACK_I_TWO
   \   000183   EE           MOV     A,R6
   \   000184   FC           MOV     R4,A
   \   000185   EF           MOV     A,R7
   \   000186   FD           MOV     R5,A
   \   000187   AA..         MOV     R2,?V0 + 2
   \   000189   AB..         MOV     R3,?V0 + 3
   \   00018B   A9..         MOV     R1,?V0 + 4
   \   00018D   12....       LCALL   ??writeBuf?relay
   \   000190   7402         MOV     A,#0x2
   \   000192   12....       LCALL   ?DEALLOC_XSTACK8
   1102                }
   1103          
   1104                if ( hdr.chk == calcChkF( pg, offset, len ) )
   \                     ??writeItem_8:
   \   000195                ; Setup parameters for call to function calcChkF
   \   000195   EE           MOV     A,R6
   \   000196   FC           MOV     R4,A
   \   000197   EF           MOV     A,R7
   \   000198   FD           MOV     R5,A
   \   000199   AA..         MOV     R2,?V0 + 2
   \   00019B   AB..         MOV     R3,?V0 + 3
   \   00019D   A9..         MOV     R1,?V0 + 4
   \   00019F   12....       LCALL   ??calcChkF?relay
   \   0001A2   740C         MOV     A,#0xc
   \   0001A4   12....       LCALL   ?XSTACK_DISP0_8
   \   0001A7   12....       LCALL   ?Subroutine13 & 0xFFFF
   \                     ??CrossCallReturnLabel_16:
   \   0001AA   7002         JNZ     ??writeItem_9
   \   0001AC   EB           MOV     A,R3
   \   0001AD   69           XRL     A,R1
   \                     ??writeItem_9:
   \   0001AE   6003         JZ      $+5
   \   0001B0   02....       LJMP    ??writeItem_10 & 0xFFFF
   1105                {
   1106                  if ( hdr.chk == setChk( pg, offset, hdr.chk ) )
   \   0001B3   85..82       MOV     DPL,?XSP + 0
   \   0001B6   85..83       MOV     DPH,?XSP + 1
   \   0001B9   E8           MOV     A,R0
   \   0001BA   F0           MOVX    @DPTR,A
   \   0001BB   A3           INC     DPTR
   \   0001BC   E9           MOV     A,R1
   \   0001BD   F0           MOVX    @DPTR,A
   \   0001BE   E5..         MOV     A,?V0 + 2
   \   0001C0   24FC         ADD     A,#-0x4
   \   0001C2   FE           MOV     R6,A
   \   0001C3   E5..         MOV     A,?V0 + 3
   \   0001C5   34FF         ADDC    A,#-0x1
   \   0001C7   FF           MOV     R7,A
   \   0001C8   85..82       MOV     DPL,?XSP + 0
   \   0001CB   85..83       MOV     DPH,?XSP + 1
   \   0001CE   E0           MOVX    A,@DPTR
   \   0001CF   C0E0         PUSH    A
   \   0001D1   7402         MOV     A,#0x2
   \   0001D3   12....       LCALL   ?XSTACK_DISP0_8
   \   0001D6   D0E0         POP     A
   \   0001D8   F0           MOVX    @DPTR,A
   \   0001D9   7401         MOV     A,#0x1
   \   0001DB   12....       LCALL   ?XSTACK_DISP0_8
   \   0001DE   E0           MOVX    A,@DPTR
   \   0001DF   C0E0         PUSH    A
   \   0001E1   7403         MOV     A,#0x3
   \   0001E3   12....       LCALL   ?XSTACK_DISP0_8
   \   0001E6   D0E0         POP     A
   \   0001E8   F0           MOVX    @DPTR,A
   \   0001E9   7404         MOV     A,#0x4
   \   0001EB   12....       LCALL   ?XSTACK_DISP0_8
   \   0001EE   74FF         MOV     A,#-0x1
   \   0001F0   F0           MOVX    @DPTR,A
   \   0001F1   7405         MOV     A,#0x5
   \   0001F3   12....       LCALL   ?XSTACK_DISP0_8
   \   0001F6   74FF         MOV     A,#-0x1
   \   0001F8   F0           MOVX    @DPTR,A
   \   0001F9                ; Setup parameters for call to function HalFlashWrite
   \   0001F9   75..01       MOV     ?V0 + 0,#0x1
   \   0001FC   75..00       MOV     ?V0 + 1,#0x0
   \   0001FF   78..         MOV     R0,#?V0 + 0
   \   000201   12....       LCALL   ?PUSH_XSTACK_I_TWO
   \   000204   7404         MOV     A,#0x4
   \   000206   12....       LCALL   ?XSTACK_DISP0_8
   \   000209   AC82         MOV     R4,DPL
   \   00020B   AD83         MOV     R5,DPH
   \   00020D   8E..         MOV     ?V0 + 0,R6
   \   00020F   8F..         MOV     ?V0 + 1,R7
   \   000211   7402         MOV     A,#0x2
   \   000213   78..         MOV     R0,#?V0 + 0
   \   000215   12....       LCALL   ?US_SHR
   \   000218   7408         MOV     A,#0x8
   \   00021A   12....       LCALL   ?XSTACK_DISP0_8
   \   00021D   12....       LCALL   ?Subroutine23 & 0xFFFF
   \                     ??CrossCallReturnLabel_35:
   \   000220   12....       LCALL   ??Subroutine45_0 & 0xFFFF
   \                     ??CrossCallReturnLabel_97:
   \   000223   12....       LCALL   ?DEALLOC_XSTACK8
   \   000226                ; Setup parameters for call to function HalFlashRead
   \   000226   75..02       MOV     ?V0 + 0,#0x2
   \   000229   75..00       MOV     ?V0 + 1,#0x0
   \   00022C   78..         MOV     R0,#?V0 + 0
   \   00022E   12....       LCALL   ?PUSH_XSTACK_I_TWO
   \   000231   7402         MOV     A,#0x2
   \   000233   12....       LCALL   ?XSTACK_DISP0_8
   \   000236   AC82         MOV     R4,DPL
   \   000238   AD83         MOV     R5,DPH
   \   00023A   EE           MOV     A,R6
   \   00023B   FA           MOV     R2,A
   \   00023C   EF           MOV     A,R7
   \   00023D   FB           MOV     R3,A
   \   00023E   A9..         MOV     R1,?V0 + 4
   \   000240   12....       LCALL   ??Subroutine51_0 & 0xFFFF
   \                     ??CrossCallReturnLabel_133:
   \   000243   12....       LCALL   ?DEALLOC_XSTACK8
   \   000246   740C         MOV     A,#0xc
   \   000248   12....       LCALL   ?XSTACK_DISP0_8
   \   00024B   12....       LCALL   ?Subroutine25 & 0xFFFF
   \                     ??CrossCallReturnLabel_45:
   \   00024E   85..82       MOV     DPL,?XSP + 0
   \   000251   85..83       MOV     DPH,?XSP + 1
   \   000254   E0           MOVX    A,@DPTR
   \   000255   68           XRL     A,R0
   \   000256   7003         JNZ     ??writeItem_11
   \   000258   A3           INC     DPTR
   \   000259   E0           MOVX    A,@DPTR
   \   00025A   69           XRL     A,R1
   \                     ??writeItem_11:
   \   00025B   702D         JNZ     ??writeItem_10
   1107                  {
   1108                    hotItemUpdate(pg, offset, hdr.id);
   \   00025D   7408         MOV     A,#0x8
   \   00025F   12....       LCALL   ?XSTACK_DISP0_8
   \   000262   12....       LCALL   ?Subroutine14 & 0xFFFF
   1109                    rtrn = TRUE;
   1110                  }
   1111                }
   1112              }
   \                     ??CrossCallReturnLabel_18:
   \   000265   8882         MOV     DPL,R0
   \   000267   8983         MOV     DPH,R1
   \   000269   E0           MOVX    A,@DPTR
   \   00026A   6A           XRL     A,R2
   \   00026B   7003         JNZ     ??writeItem_12
   \   00026D   A3           INC     DPTR
   \   00026E   E0           MOVX    A,@DPTR
   \   00026F   6B           XRL     A,R3
   \                     ??writeItem_12:
   \   000270   6005         JZ      ??writeItem_13
   \   000272   12....       LCALL   ?Subroutine26 & 0xFFFF
   \                     ??CrossCallReturnLabel_52:
   \   000275   40EE         JC      ??CrossCallReturnLabel_18
   \                     ??writeItem_13:
   \   000277   EC           MOV     A,R4
   \   000278   C3           CLR     C
   \   000279   9403         SUBB    A,#0x3
   \   00027B   500A         JNC     ??writeItem_3
   \   00027D   12....       LCALL   ?Subroutine5 & 0xFFFF
   \                     ??CrossCallReturnLabel_146:
   \   000280   E5..         MOV     A,?V0 + 2
   \   000282   F0           MOVX    @DPTR,A
   \   000283   A3           INC     DPTR
   \   000284   E5..         MOV     A,?V0 + 3
   \   000286   F0           MOVX    @DPTR,A
   1113              else
   1114              {
   1115                rtrn = TRUE;
   \                     ??writeItem_3:
   \   000287   75..01       MOV     ?V0 + 5,#0x1
   1116              }
   1117          
   1118              len = OSAL_NV_ITEM_SIZE( hdr.len );
   \                     ??writeItem_10:
   \   00028A   740A         MOV     A,#0xa
   \   00028C   12....       LCALL   ?XSTACK_DISP0_8
   \   00028F   12....       LCALL   ?Subroutine25 & 0xFFFF
   1119            }
   \                     ??CrossCallReturnLabel_46:
   \   000292   C3           CLR     C
   \   000293   E8           MOV     A,R0
   \   000294   94F4         SUBB    A,#-0xc
   \   000296   E9           MOV     A,R1
   \   000297   94FF         SUBB    A,#-0x1
   \   000299   4006         JC      ??writeItem_14
   \   00029B   7EFC         MOV     R6,#-0x4
   \   00029D   7FFF         MOV     R7,#-0x1
   \   00029F   803D         SJMP    ??CrossCallReturnLabel_114
   \                     ??writeItem_14:
   \   0002A1   12....       LCALL   ?Subroutine29 & 0xFFFF
   \                     ??CrossCallReturnLabel_138:
   \   0002A4   8038         SJMP    ??CrossCallReturnLabel_114
   1120            else
   1121            {
   1122              len = OSAL_NV_ITEM_SIZE( hdr.len );
   \                     ??writeItem_1:
   \   0002A6   C3           CLR     C
   \   0002A7   E8           MOV     A,R0
   \   0002A8   94F4         SUBB    A,#-0xc
   \   0002AA   E9           MOV     A,R1
   \   0002AB   94FF         SUBB    A,#-0x1
   \   0002AD   4006         JC      ??writeItem_15
   \   0002AF   7EFC         MOV     R6,#-0x4
   \   0002B1   7FFF         MOV     R7,#-0x1
   \   0002B3   8003         SJMP    ??CrossCallReturnLabel_139
   \                     ??writeItem_15:
   \   0002B5   12....       LCALL   ?Subroutine29 & 0xFFFF
   1123          
   1124              if (len > (OSAL_NV_PAGE_SIZE - pgOff[pg - OSAL_NV_PAGE_BEG]))
   \                     ??CrossCallReturnLabel_139:
   \   0002B8   85..82       MOV     DPL,?V0 + 14
   \   0002BB   85..83       MOV     DPH,?V0 + 15
   \   0002BE   12....       LCALL   ?Subroutine24 & 0xFFFF
   \                     ??CrossCallReturnLabel_38:
   \   0002C1   F8           MOV     R0,A
   \   0002C2   7408         MOV     A,#0x8
   \   0002C4   99           SUBB    A,R1
   \   0002C5   F9           MOV     R1,A
   \   0002C6   C3           CLR     C
   \   0002C7   E8           MOV     A,R0
   \   0002C8   9E           SUBB    A,R6
   \   0002C9   E9           MOV     A,R1
   \   0002CA   9F           SUBB    A,R7
   \   0002CB   5004         JNC     ??writeItem_16
   1125              {
   1126                len = (OSAL_NV_PAGE_SIZE - pgOff[pg - OSAL_NV_PAGE_BEG]);
   \   0002CD   E8           MOV     A,R0
   \   0002CE   FE           MOV     R6,A
   \   0002CF   E9           MOV     A,R1
   \   0002D0   FF           MOV     R7,A
   1127              }
   1128          
   1129              pgLost[pg - OSAL_NV_PAGE_BEG] += len;
   \                     ??writeItem_16:
   \   0002D1   74..         MOV     A,#(pgLost + 14) & 0xff
   \   0002D3   25..         ADD     A,?V0 + 0
   \   0002D5   F582         MOV     DPL,A
   \   0002D7   74..         MOV     A,#((pgLost - 242) >> 8) & 0xff
   \   0002D9   35..         ADDC    A,?V0 + 1
   \   0002DB   12....       LCALL   ?Subroutine17 & 0xFFFF
   1130            }
   1131            pgOff[pg - OSAL_NV_PAGE_BEG] += len;
   \                     ??CrossCallReturnLabel_114:
   \   0002DE   85..82       MOV     DPL,?V0 + 14
   \   0002E1   85..83       MOV     DPH,?V0 + 15
   \   0002E4   12....       LCALL   ??Subroutine49_0 & 0xFFFF
   1132          
   1133            return rtrn;
   \                     ??CrossCallReturnLabel_112:
   \   0002E7   A9..         MOV     R1,?V0 + 5
   \   0002E9   7410         MOV     A,#0x10
   \   0002EB                REQUIRE ?Subroutine4
   \   0002EB                ; // Fall through to label ?Subroutine4
   1134          }

   \                                 In  segment BANKED_CODE, align 1, keep-with-next
   \                     ?Subroutine4:
   \   000000   12....       LCALL   ?DEALLOC_XSTACK8
   \   000003   7F10         MOV     R7,#0x10
   \   000005   02....       LJMP    ?BANKED_LEAVE_XDATA

   \                                 In  segment BANKED_CODE, align 1, keep-with-next
   \                     ?Subroutine29:
   \   000000   E8           MOV     A,R0
   \   000001   2403         ADD     A,#0x3
   \   000003   08           INC     R0
   \   000004   08           INC     R0
   \   000005   08           INC     R0
   \   000006   E9           MOV     A,R1
   \   000007                REQUIRE ??Subroutine52_0
   \   000007                ; // Fall through to label ??Subroutine52_0

   \                                 In  segment BANKED_CODE, align 1, keep-with-next
   \                     ?Subroutine5:
   \   000000   8C82         MOV     DPL,R4
   \   000002   12....       LCALL   ?Subroutine41 & 0xFFFF
   \                     ??CrossCallReturnLabel_106:
   \   000005   E5..         MOV     A,?V0 + 4
   \   000007                REQUIRE ??Subroutine54_0
   \   000007                ; // Fall through to label ??Subroutine54_0

   \                                 In  segment BANKED_CODE, align 1, keep-with-next
   \                     ?Subroutine14:
   \   000000   12....       LCALL   ?Subroutine38 & 0xFFFF
   \                     ??CrossCallReturnLabel_72:
   \   000003   7C00         MOV     R4,#0x0
   \   000005   78..         MOV     R0,#hotIds & 0xff
   \   000007   79..         MOV     R1,#(hotIds >> 8) & 0xff
   \   000009   22           RET
   1135          
   1136          /*********************************************************************
   1137           * @fn      hotItem
   1138           *
   1139           * @brief   Look for the parameter 'id' in the hot items array.
   1140           *
   1141           * @param   id - A valid NV item Id.
   1142           *
   1143           * @return  A valid index into the hot items if the item is hot; OSAL_NV_MAX_HOT if not.
   1144           */
   1145          static uint8 hotItem(uint16 id)
   1146          {
   1147            uint8 hotIdx;
   1148          
   1149            for (hotIdx = 0; hotIdx < OSAL_NV_MAX_HOT; hotIdx++)
   1150            {
   1151              if (hotIds[hotIdx] == id)
   1152              {
   1153                break;
   1154              }
   1155            }
   1156          
   1157            return hotIdx;
   1158          }
   1159          
   1160          /*********************************************************************
   1161           * @fn      hotItemUpdate
   1162           *
   1163           * @brief   If the parameter 'id' is a hot item, update the corresponding hot item data.
   1164           *
   1165           * @param   pg - The new NV page corresponding to the hot item.
   1166           * @param   off - The new NV page offset corresponding to the hot item.
   1167           * @param   id - A valid NV item Id.
   1168           *
   1169           * @return  none
   1170           */
   1171          static void hotItemUpdate(uint8 pg, uint16 off, uint16 id)
   1172          {
   1173            uint8 hotIdx = hotItem(id);
   1174          
   1175            if (hotIdx < OSAL_NV_MAX_HOT)
   1176            {
   1177              {
   1178                hotPg[hotIdx] = pg;
   1179                hotOff[hotIdx] = off;
   1180              }
   1181            }
   1182          }
   1183          
   1184          /*********************************************************************
   1185           * @fn      osal_nv_init
   1186           *
   1187           * @brief   Initialize NV service.
   1188           *
   1189           * @param   p - Not used.
   1190           *
   1191           * @return  none
   1192           */

   \                                 In  segment BANKED_CODE, align 1, keep-with-next
   1193          void osal_nv_init( void *p )
   \                     osal_nv_init:
   1194          {
   \   000000   C082         PUSH    DPL
   \   000002   C083         PUSH    DPH
   \   000004                ; Saved register size: 2
   \   000004                ; Auto size: 0
   1195            (void)p;  // Suppress Lint warning.
   1196            (void)initNV();  // Always returns TRUE after pages have been erased.
   \   000004                ; Setup parameters for call to function initNV
   \   000004   12....       LCALL   ??initNV?relay
   1197          }
   \   000007   D083         POP     DPH
   \   000009   D082         POP     DPL
   \   00000B   02....       LJMP    ?BRET
   1198          
   1199          /*********************************************************************
   1200           * @fn      osal_nv_item_init
   1201           *
   1202           * @brief   If the NV item does not already exist, it is created and
   1203           *          initialized with the data passed to the function, if any.
   1204           *          This function must be called before calling osal_nv_read() or
   1205           *          osal_nv_write().
   1206           *
   1207           * @param   id  - Valid NV item Id.
   1208           * @param   len - Item length.
   1209           * @param  *buf - Pointer to item initalization data. Set to NULL if none.
   1210           *
   1211           * @return  NV_ITEM_UNINIT - Id did not exist and was created successfully.
   1212           *          SUCCESS        - Id already existed, no action taken.
   1213           *          NV_OPER_FAILED - Failure to find or create Id.
   1214           */

   \                                 In  segment BANKED_CODE, align 1, keep-with-next
   1215          uint8 osal_nv_item_init( uint16 id, uint16 len, void *buf )
   \                     osal_nv_item_init:
   1216          {
   \   000000   74F2         MOV     A,#-0xe
   \   000002   12....       LCALL   ?BANKED_ENTER_XDATA
   \   000005                ; Saved register size: 14
   \   000005                ; Auto size: 0
   \   000005   EA           MOV     A,R2
   \   000006   FE           MOV     R6,A
   \   000007   EB           MOV     A,R3
   \   000008   FF           MOV     R7,A
   \   000009   8C..         MOV     ?V0 + 0,R4
   \   00000B   8D..         MOV     ?V0 + 1,R5
   \   00000D   740E         MOV     A,#0xe
   \   00000F   12....       LCALL   ?XSTACK_DISP0_8
   \   000012   E0           MOVX    A,@DPTR
   \   000013   F5..         MOV     ?V0 + 2,A
   \   000015   A3           INC     DPTR
   \   000016   E0           MOVX    A,@DPTR
   \   000017   F5..         MOV     ?V0 + 3,A
   1217            uint16 offset;
   1218          
   1219            if ( !OSAL_NV_CHECK_BUS_VOLTAGE )
   \   000019                ; Setup parameters for call to function HalAdcCheckVdd
   \   000019   794E         MOV     R1,#0x4e
   \   00001B   12....       LCALL   ??HalAdcCheckVdd?relay
   \   00001E   E9           MOV     A,R1
   \   00001F   7004         JNZ     ??osal_nv_item_init_0
   1220            {
   1221              return NV_OPER_FAILED;
   \                     ??osal_nv_item_init_1:
   \   000021   790A         MOV     R1,#0xa
   \   000023   806D         SJMP    ??osal_nv_item_init_2
   1222            }
   1223            else if ((offset = findItem(id)) != OSAL_NV_ITEM_NULL)
   \                     ??osal_nv_item_init_0:
   \   000025                ; Setup parameters for call to function findItem
   \   000025   EE           MOV     A,R6
   \   000026   FA           MOV     R2,A
   \   000027   EF           MOV     A,R7
   \   000028   FB           MOV     R3,A
   \   000029   12....       LCALL   ??findItem?relay
   \   00002C   8A..         MOV     ?V0 + 4,R2
   \   00002E   8B..         MOV     ?V0 + 5,R3
   \   000030   A8..         MOV     R0,?V0 + 4
   \   000032   A9..         MOV     R1,?V0 + 5
   \   000034   E8           MOV     A,R0
   \   000035   49           ORL     A,R1
   \   000036   603E         JZ      ??osal_nv_item_init_3
   1224            {
   1225              // Re-populate the NV hot item data if the corresponding items are already established.
   1226              hotItemUpdate(findPg, offset, id);
   \   000038   E8           MOV     A,R0
   \   000039   FC           MOV     R4,A
   \   00003A   E9           MOV     A,R1
   \   00003B   FD           MOV     R5,A
   \   00003C   90....       MOV     DPTR,#findPg
   \   00003F   E0           MOVX    A,@DPTR
   \   000040   FB           MOV     R3,A
   \   000041   7A00         MOV     R2,#0x0
   \   000043   78..         MOV     R0,#hotIds & 0xff
   \   000045   79..         MOV     R1,#(hotIds >> 8) & 0xff
   \                     ??osal_nv_item_init_4:
   \   000047   8882         MOV     DPL,R0
   \   000049   8983         MOV     DPH,R1
   \   00004B   E0           MOVX    A,@DPTR
   \   00004C   6E           XRL     A,R6
   \   00004D   7003         JNZ     ??osal_nv_item_init_5
   \   00004F   A3           INC     DPTR
   \   000050   E0           MOVX    A,@DPTR
   \   000051   6F           XRL     A,R7
   \                     ??osal_nv_item_init_5:
   \   000052   600A         JZ      ??osal_nv_item_init_6
   \   000054   0A           INC     R2
   \   000055   12....       LCALL   ?Subroutine28 & 0xFFFF
   \                     ??CrossCallReturnLabel_55:
   \   000058   EA           MOV     A,R2
   \   000059   C3           CLR     C
   \   00005A   9403         SUBB    A,#0x3
   \   00005C   40E9         JC      ??osal_nv_item_init_4
   \                     ??osal_nv_item_init_6:
   \   00005E   EA           MOV     A,R2
   \   00005F   C3           CLR     C
   \   000060   9403         SUBB    A,#0x3
   \   000062   500E         JNC     ??osal_nv_item_init_7
   \   000064   8A82         MOV     DPL,R2
   \   000066   12....       LCALL   ??Subroutine47_0 & 0xFFFF
   \                     ??CrossCallReturnLabel_103:
   \   000069   EB           MOV     A,R3
   \   00006A   12....       LCALL   ??Subroutine54_0 & 0xFFFF
   \                     ??CrossCallReturnLabel_143:
   \   00006D   EC           MOV     A,R4
   \   00006E   F0           MOVX    @DPTR,A
   \   00006F   A3           INC     DPTR
   \   000070   ED           MOV     A,R5
   \   000071   F0           MOVX    @DPTR,A
   1227          
   1228              return SUCCESS;
   \                     ??osal_nv_item_init_7:
   \   000072   7900         MOV     R1,#0x0
   \   000074   801C         SJMP    ??osal_nv_item_init_2
   1229            }
   1230            else if ( initItem( TRUE, id, len, buf ) != OSAL_NV_PAGE_NULL )
   \                     ??osal_nv_item_init_3:
   \   000076                ; Setup parameters for call to function initItem
   \   000076   78..         MOV     R0,#?V0 + 2
   \   000078   12....       LCALL   ?PUSH_XSTACK_I_TWO
   \   00007B   AC..         MOV     R4,?V0 + 0
   \   00007D   AD..         MOV     R5,?V0 + 1
   \   00007F   EE           MOV     A,R6
   \   000080   FA           MOV     R2,A
   \   000081   EF           MOV     A,R7
   \   000082   FB           MOV     R3,A
   \   000083   7901         MOV     R1,#0x1
   \   000085   12....       LCALL   ??initItem?relay
   \   000088   7402         MOV     A,#0x2
   \   00008A   12....       LCALL   ?DEALLOC_XSTACK8
   \   00008D   E9           MOV     A,R1
   \   00008E   6091         JZ      ??osal_nv_item_init_1
   1231            {
   1232              return NV_ITEM_UNINIT;
   \   000090   7909         MOV     R1,#0x9
   1233            }
   \                     ??osal_nv_item_init_2:
   \   000092   80..         SJMP    ??Subroutine53_0
   1234            else
   1235            {
   1236              return NV_OPER_FAILED;
   1237            }
   1238          }
   1239          
   1240          /*********************************************************************
   1241           * @fn      osal_nv_item_len
   1242           *
   1243           * @brief   Get the data length of the item stored in NV memory.
   1244           *
   1245           * @param   id  - Valid NV item Id.
   1246           *
   1247           * @return  Item length, if found; zero otherwise.
   1248           */

   \                                 In  segment BANKED_CODE, align 1, keep-with-next
   1249          uint16 osal_nv_item_len( uint16 id )
   \                     osal_nv_item_len:
   1250          {
   \   000000   74F6         MOV     A,#-0xa
   \   000002   12....       LCALL   ?BANKED_ENTER_XDATA
   \   000005                ; Saved register size: 10
   \   000005                ; Auto size: 8
   \   000005   74F8         MOV     A,#-0x8
   \   000007   12....       LCALL   ?ALLOC_XSTACK8
   1251            osalNvHdr_t hdr;
   1252            uint16 offset;
   1253            uint8 hotIdx;
   1254          
   1255            if ((hotIdx = hotItem(id)) < OSAL_NV_MAX_HOT)
   \   00000A   7C00         MOV     R4,#0x0
   \   00000C   78..         MOV     R0,#hotIds & 0xff
   \   00000E   79..         MOV     R1,#(hotIds >> 8) & 0xff
   \                     ??osal_nv_item_len_0:
   \   000010   8882         MOV     DPL,R0
   \   000012   8983         MOV     DPH,R1
   \   000014   E0           MOVX    A,@DPTR
   \   000015   6A           XRL     A,R2
   \   000016   7003         JNZ     ??osal_nv_item_len_1
   \   000018   A3           INC     DPTR
   \   000019   E0           MOVX    A,@DPTR
   \   00001A   6B           XRL     A,R3
   \                     ??osal_nv_item_len_1:
   \   00001B   6005         JZ      ??osal_nv_item_len_2
   \   00001D   12....       LCALL   ?Subroutine26 & 0xFFFF
   \                     ??CrossCallReturnLabel_49:
   \   000020   40EE         JC      ??osal_nv_item_len_0
   \                     ??osal_nv_item_len_2:
   \   000022   EC           MOV     A,R4
   \   000023   C3           CLR     C
   \   000024   9403         SUBB    A,#0x3
   \   000026   5046         JNC     ??osal_nv_item_len_3
   1256            {
   1257              findPg = hotPg[hotIdx];
   \   000028   12....       LCALL   ?Subroutine33 & 0xFFFF
   1258              offset = hotOff[hotIdx];
   1259            }
   \                     ??CrossCallReturnLabel_105:
   \   00002B   E0           MOVX    A,@DPTR
   \   00002C   90....       MOV     DPTR,#findPg
   \   00002F   12....       LCALL   ??Subroutine54_0 & 0xFFFF
   \                     ??CrossCallReturnLabel_144:
   \   000032   12....       LCALL   ?Subroutine22 & 0xFFFF
   1260            else if ((offset = findItem(id)) == OSAL_NV_ITEM_NULL)
   1261            {
   1262              return 0;
   1263            }
   1264          
   1265            HalFlashRead(findPg, (offset - OSAL_NV_HDR_SIZE), (uint8 *)(&hdr), OSAL_NV_HDR_SIZE);
   \                     ??CrossCallReturnLabel_32:
   \   000035                ; Setup parameters for call to function HalFlashRead
   \   000035   75..08       MOV     ?V0 + 0,#0x8
   \   000038   75..00       MOV     ?V0 + 1,#0x0
   \   00003B   78..         MOV     R0,#?V0 + 0
   \   00003D   12....       LCALL   ?PUSH_XSTACK_I_TWO
   \   000040   7402         MOV     A,#0x2
   \   000042   12....       LCALL   ?XSTACK_DISP0_8
   \   000045   AC82         MOV     R4,DPL
   \   000047   AD83         MOV     R5,DPH
   \   000049   EA           MOV     A,R2
   \   00004A   24F8         ADD     A,#-0x8
   \   00004C   FA           MOV     R2,A
   \   00004D   EB           MOV     A,R3
   \   00004E   34FF         ADDC    A,#-0x1
   \   000050   FB           MOV     R3,A
   \   000051   90....       MOV     DPTR,#findPg
   \   000054   E0           MOVX    A,@DPTR
   \   000055   F9           MOV     R1,A
   \   000056   12....       LCALL   ??Subroutine51_0 & 0xFFFF
   \                     ??CrossCallReturnLabel_134:
   \   000059   12....       LCALL   ?DEALLOC_XSTACK8
   1266            return hdr.len;
   \   00005C   7402         MOV     A,#0x2
   \   00005E   12....       LCALL   ?XSTACK_DISP0_8
   \   000061   12....       LCALL   ?Subroutine22 & 0xFFFF
   \                     ??CrossCallReturnLabel_33:
   \   000064   7408         MOV     A,#0x8
   \   000066   12....       LCALL   ?DEALLOC_XSTACK8
   \   000069   7F02         MOV     R7,#0x2
   \   00006B   02....       LJMP    ?BANKED_LEAVE_XDATA
   \                     ??osal_nv_item_len_3:
   \   00006E                ; Setup parameters for call to function findItem
   \   00006E   12....       LCALL   ??findItem?relay
   \   000071   8B..         MOV     ?V0 + 1,R3
   \   000073   A9..         MOV     R1,?V0 + 1
   \   000075   EA           MOV     A,R2
   \   000076   49           ORL     A,R1
   \   000077   70BC         JNZ     ??CrossCallReturnLabel_32
   \   000079   7A00         MOV     R2,#0x0
   \   00007B   7B00         MOV     R3,#0x0
   \   00007D   80E5         SJMP    ??CrossCallReturnLabel_33
   1267          }
   1268          
   1269          /*********************************************************************
   1270           * @fn      osal_nv_write
   1271           *
   1272           * @brief   Write a data item to NV. Function can write an entire item to NV or
   1273           *          an element of an item by indexing into the item with an offset.
   1274           *
   1275           * @param   id  - Valid NV item Id.
   1276           * @param   ndx - Index offset into item
   1277           * @param   len - Length of data to write.
   1278           * @param  *buf - Data to write.
   1279           *
   1280           * @return  SUCCESS if successful, NV_ITEM_UNINIT if item did not
   1281           *          exist in NV and offset is non-zero, NV_OPER_FAILED if failure.
   1282           */

   \                                 In  segment BANKED_CODE, align 1, keep-with-next
   1283          uint8 osal_nv_write( uint16 id, uint16 ndx, uint16 len, void *buf )
   \                     osal_nv_write:
   1284          {
   \   000000   74E8         MOV     A,#-0x18
   \   000002   12....       LCALL   ?BANKED_ENTER_XDATA
   \   000005                ; Saved register size: 24
   \   000005                ; Auto size: 25
   \   000005   74E7         MOV     A,#-0x19
   \   000007   12....       LCALL   ?ALLOC_XSTACK8
   \   00000A   8A..         MOV     ?V0 + 14,R2
   \   00000C   8B..         MOV     ?V0 + 15,R3
   \   00000E   8C..         MOV     ?V0 + 2,R4
   \   000010   8D..         MOV     ?V0 + 3,R5
   \   000012   7431         MOV     A,#0x31
   \   000014   12....       LCALL   ?XSTACK_DISP0_8
   \   000017   E0           MOVX    A,@DPTR
   \   000018   F5..         MOV     ?V0 + 10,A
   \   00001A   A3           INC     DPTR
   \   00001B   E0           MOVX    A,@DPTR
   \   00001C   F5..         MOV     ?V0 + 11,A
   1285            uint8 rtrn = SUCCESS;
   \   00001E   75..00       MOV     ?V0 + 9,#0x0
   1286          
   1287            if ( !OSAL_NV_CHECK_BUS_VOLTAGE )
   \   000021                ; Setup parameters for call to function HalAdcCheckVdd
   \   000021   794E         MOV     R1,#0x4e
   \   000023   12....       LCALL   ??HalAdcCheckVdd?relay
   \   000026   E9           MOV     A,R1
   \   000027   7005         JNZ     ??osal_nv_write_0
   1288            {
   1289              return NV_OPER_FAILED;
   \                     ??osal_nv_write_1:
   \   000029   790A         MOV     R1,#0xa
   \   00002B   02....       LJMP    ??osal_nv_write_2 & 0xFFFF
   1290            }
   1291            else if ( len != 0 )
   \                     ??osal_nv_write_0:
   \   00002E   E5..         MOV     A,?V0 + 10
   \   000030   45..         ORL     A,?V0 + 11
   \   000032   7003         JNZ     $+5
   \   000034   02....       LJMP    ??CrossCallReturnLabel_21 & 0xFFFF
   1292            {
   1293              osalNvHdr_t hdr;
   1294              uint16 origOff, srcOff;
   1295              uint16 cnt, chk;
   1296              uint8 *ptr, srcPg;
   1297          
   1298              origOff = srcOff = findItem( id );
   \   000037                ; Setup parameters for call to function findItem
   \   000037   AA..         MOV     R2,?V0 + 14
   \   000039   AB..         MOV     R3,?V0 + 15
   \   00003B   12....       LCALL   ??findItem?relay
   \   00003E   8A..         MOV     ?V0 + 0,R2
   \   000040   8B..         MOV     ?V0 + 1,R3
   \   000042   A8..         MOV     R0,?V0 + 0
   \   000044   A9..         MOV     R1,?V0 + 1
   \   000046   E8           MOV     A,R0
   \   000047   FE           MOV     R6,A
   \   000048   E9           MOV     A,R1
   \   000049   FF           MOV     R7,A
   \   00004A   7403         MOV     A,#0x3
   \   00004C   12....       LCALL   ?XSTACK_DISP0_8
   \   00004F   E8           MOV     A,R0
   \   000050   F0           MOVX    @DPTR,A
   \   000051   A3           INC     DPTR
   \   000052   E9           MOV     A,R1
   \   000053   F0           MOVX    @DPTR,A
   1299              srcPg = findPg;
   \   000054   90....       MOV     DPTR,#findPg
   \   000057   E0           MOVX    A,@DPTR
   \   000058   F5..         MOV     ?V0 + 8,A
   1300              if ( srcOff == OSAL_NV_ITEM_NULL )
   \   00005A   EE           MOV     A,R6
   \   00005B   4F           ORL     A,R7
   \   00005C   7005         JNZ     ??osal_nv_write_3
   1301              {
   1302                return NV_ITEM_UNINIT;
   \   00005E   7909         MOV     R1,#0x9
   \   000060   02....       LJMP    ??osal_nv_write_2 & 0xFFFF
   1303              }
   1304          
   1305              HalFlashRead(srcPg, (srcOff - OSAL_NV_HDR_SIZE), (uint8 *)(&hdr), OSAL_NV_HDR_SIZE);
   \                     ??osal_nv_write_3:
   \   000063                ; Setup parameters for call to function HalFlashRead
   \   000063   75..08       MOV     ?V0 + 0,#0x8
   \   000066   75..00       MOV     ?V0 + 1,#0x0
   \   000069   78..         MOV     R0,#?V0 + 0
   \   00006B   12....       LCALL   ?PUSH_XSTACK_I_TWO
   \   00006E   7407         MOV     A,#0x7
   \   000070   12....       LCALL   ?XSTACK_DISP0_8
   \   000073   AC82         MOV     R4,DPL
   \   000075   AD83         MOV     R5,DPH
   \   000077   EE           MOV     A,R6
   \   000078   24F8         ADD     A,#-0x8
   \   00007A   FA           MOV     R2,A
   \   00007B   EF           MOV     A,R7
   \   00007C   34FF         ADDC    A,#-0x1
   \   00007E   FB           MOV     R3,A
   \   00007F   12....       LCALL   ??Subroutine50_0 & 0xFFFF
   \                     ??CrossCallReturnLabel_119:
   \   000082   12....       LCALL   ?DEALLOC_XSTACK8
   1306              if ( hdr.len < (ndx + len) )
   \   000085   7407         MOV     A,#0x7
   \   000087   12....       LCALL   ?XSTACK_DISP0_8
   \   00008A   E5..         MOV     A,?V0 + 2
   \   00008C   25..         ADD     A,?V0 + 10
   \   00008E   F8           MOV     R0,A
   \   00008F   E5..         MOV     A,?V0 + 3
   \   000091   35..         ADDC    A,?V0 + 11
   \   000093   F9           MOV     R1,A
   \   000094   C3           CLR     C
   \   000095   E0           MOVX    A,@DPTR
   \   000096   98           SUBB    A,R0
   \   000097   A3           INC     DPTR
   \   000098   E0           MOVX    A,@DPTR
   \   000099   99           SUBB    A,R1
   \   00009A   408D         JC      ??osal_nv_write_1
   1307              {
   1308                return NV_OPER_FAILED;
   1309              }
   1310          
   1311              srcOff += ndx;
   \   00009C   12....       LCALL   ?Subroutine37 & 0xFFFF
   1312              ptr = buf;
   \                     ??CrossCallReturnLabel_70:
   \   00009F   12....       LCALL   ?XSTACK_DISP0_8
   \   0000A2   12....       LCALL   ?Subroutine16 & 0xFFFF
   1313              cnt = len;
   \                     ??CrossCallReturnLabel_23:
   \   0000A5   85....       MOV     ?V0 + 6,?V0 + 10
   \   0000A8   85....       MOV     ?V0 + 7,?V0 + 11
   1314              chk = 0;
   \   0000AB   75..00       MOV     ?V0 + 0,#0x0
   \                     ??osal_nv_write_4:
   \   0000AE   E5..         MOV     A,?V0 + 6
   \   0000B0   24FF         ADD     A,#-0x1
   \   0000B2   F5..         MOV     ?V0 + 6,A
   \   0000B4   E5..         MOV     A,?V0 + 7
   \   0000B6   34FF         ADDC    A,#-0x1
   \   0000B8   F5..         MOV     ?V0 + 7,A
   1315              while ( cnt-- )
   1316              {
   1317                uint8 tmp;
   1318                HalFlashRead(srcPg, srcOff, &tmp, 1);
   \   0000BA                ; Setup parameters for call to function HalFlashRead
   \   0000BA   75..01       MOV     ?V0 + 12,#0x1
   \   0000BD   75..00       MOV     ?V0 + 13,#0x0
   \   0000C0   78..         MOV     R0,#?V0 + 12
   \   0000C2   12....       LCALL   ?PUSH_XSTACK_I_TWO
   \   0000C5   7402         MOV     A,#0x2
   \   0000C7   12....       LCALL   ?XSTACK_DISP0_8
   \   0000CA   AC82         MOV     R4,DPL
   \   0000CC   AD83         MOV     R5,DPH
   \   0000CE   EE           MOV     A,R6
   \   0000CF   FA           MOV     R2,A
   \   0000D0   EF           MOV     A,R7
   \   0000D1   FB           MOV     R3,A
   \   0000D2   12....       LCALL   ??Subroutine50_0 & 0xFFFF
   \                     ??CrossCallReturnLabel_120:
   \   0000D5   12....       LCALL   ?DEALLOC_XSTACK8
   1319                if ( tmp != *ptr )
   \   0000D8   85..82       MOV     DPL,?XSP + 0
   \   0000DB   85..83       MOV     DPH,?XSP + 1
   \   0000DE   E0           MOVX    A,@DPTR
   \   0000DF   F8           MOV     R0,A
   \   0000E0   85..82       MOV     DPL,?V0 + 4
   \   0000E3   85..83       MOV     DPH,?V0 + 5
   \   0000E6   E0           MOVX    A,@DPTR
   \   0000E7   68           XRL     A,R0
   \   0000E8   6026         JZ      ??osal_nv_write_5
   1320                {
   1321                  chk = 1;  // Mark that at least one byte is different.
   \   0000EA   75..01       MOV     ?V0 + 0,#0x1
   1322                  // Calculate expected checksum after transferring old data and writing new data.
   1323                  hdr.chk -= tmp;
   \   0000ED   7409         MOV     A,#0x9
   \   0000EF   12....       LCALL   ?XSTACK_DISP0_8
   \   0000F2   C3           CLR     C
   \   0000F3   E0           MOVX    A,@DPTR
   \   0000F4   98           SUBB    A,R0
   \   0000F5   F0           MOVX    @DPTR,A
   \   0000F6   A3           INC     DPTR
   \   0000F7   E0           MOVX    A,@DPTR
   \   0000F8   9400         SUBB    A,#0x0
   \   0000FA   F0           MOVX    @DPTR,A
   1324                  hdr.chk += *ptr;
   \   0000FB   85..82       MOV     DPL,?V0 + 4
   \   0000FE   85..83       MOV     DPH,?V0 + 5
   \   000101   E0           MOVX    A,@DPTR
   \   000102   F8           MOV     R0,A
   \   000103   7409         MOV     A,#0x9
   \   000105   12....       LCALL   ?XSTACK_DISP0_8
   \   000108   E0           MOVX    A,@DPTR
   \   000109   28           ADD     A,R0
   \   00010A   F0           MOVX    @DPTR,A
   \   00010B   A3           INC     DPTR
   \   00010C   E0           MOVX    A,@DPTR
   \   00010D   3400         ADDC    A,#0x0
   \   00010F   F0           MOVX    @DPTR,A
   1325                }
   1326                srcOff++;
   \                     ??osal_nv_write_5:
   \   000110   EE           MOV     A,R6
   \   000111   2401         ADD     A,#0x1
   \   000113   0E           INC     R6
   \   000114   EF           MOV     A,R7
   \   000115   3400         ADDC    A,#0x0
   \   000117   FF           MOV     R7,A
   1327                ptr++;
   \   000118   85..82       MOV     DPL,?V0 + 4
   \   00011B   85..83       MOV     DPH,?V0 + 5
   \   00011E   A3           INC     DPTR
   \   00011F   8582..       MOV     ?V0 + 4,DPL
   \   000122   8583..       MOV     ?V0 + 5,DPH
   \   000125   E5..         MOV     A,?V0 + 6
   \   000127   45..         ORL     A,?V0 + 7
   \   000129   7083         JNZ     ??osal_nv_write_4
   1328              }
   1329          
   1330              if ( chk != 0 )  // If the buffer to write is different in one or more bytes.
   \   00012B   E5..         MOV     A,?V0 + 0
   \   00012D   A2E0         MOV     C,0xE0 /* A   */.0
   \   00012F   4003         JC      $+5
   \   000131   02....       LJMP    ??CrossCallReturnLabel_21 & 0xFFFF
   1331              {
   1332                uint8 comPg = OSAL_NV_PAGE_NULL;
   \   000134   85..82       MOV     DPL,?XSP + 0
   \   000137   85..83       MOV     DPH,?XSP + 1
   \   00013A   E4           CLR     A
   \   00013B   F0           MOVX    @DPTR,A
   1333                uint8 dstPg = initItem( FALSE, id, hdr.len, &comPg );
   \   00013C                ; Setup parameters for call to function initItem
   \   00013C   8582..       MOV     ?V0 + 0,DPL
   \   00013F   8583..       MOV     ?V0 + 1,DPH
   \   000142   78..         MOV     R0,#?V0 + 0
   \   000144   12....       LCALL   ?PUSH_XSTACK_I_TWO
   \   000147   7409         MOV     A,#0x9
   \   000149   12....       LCALL   ?XSTACK_DISP0_8
   \   00014C   12....       LCALL   ?Subroutine12 & 0xFFFF
   \                     ??CrossCallReturnLabel_13:
   \   00014F   AA..         MOV     R2,?V0 + 14
   \   000151   AB..         MOV     R3,?V0 + 15
   \   000153   7900         MOV     R1,#0x0
   \   000155   12....       LCALL   ??initItem?relay
   \   000158   7402         MOV     A,#0x2
   \   00015A   12....       LCALL   ?DEALLOC_XSTACK8
   \   00015D   E9           MOV     A,R1
   \   00015E   F5..         MOV     ?V0 + 4,A
   1334          
   1335                if ( dstPg != OSAL_NV_PAGE_NULL )
   \   000160   7003         JNZ     $+5
   \   000162   02....       LJMP    ??osal_nv_write_6 & 0xFFFF
   1336                {
   1337                  uint16 tmp = OSAL_NV_DATA_SIZE( hdr.len );
   \   000165   7407         MOV     A,#0x7
   \   000167   12....       LCALL   ?XSTACK_DISP0_8
   \   00016A   12....       LCALL   ?Subroutine25 & 0xFFFF
   \                     ??CrossCallReturnLabel_47:
   \   00016D   C3           CLR     C
   \   00016E   E8           MOV     A,R0
   \   00016F   94FC         SUBB    A,#-0x4
   \   000171   E9           MOV     A,R1
   \   000172   94FF         SUBB    A,#-0x1
   \   000174   4008         JC      ??osal_nv_write_7
   \   000176   75..FC       MOV     ?V0 + 0,#-0x4
   \   000179   75..FF       MOV     ?V0 + 1,#-0x1
   \   00017C   800F         SJMP    ??osal_nv_write_8
   \                     ??osal_nv_write_7:
   \   00017E   E8           MOV     A,R0
   \   00017F   2403         ADD     A,#0x3
   \   000181   08           INC     R0
   \   000182   08           INC     R0
   \   000183   08           INC     R0
   \   000184   E9           MOV     A,R1
   \   000185   12....       LCALL   ?Subroutine40 & 0xFFFF
   \                     ??CrossCallReturnLabel_140:
   \   000188   F5..         MOV     ?V0 + 0,A
   \   00018A   E9           MOV     A,R1
   \   00018B   F5..         MOV     ?V0 + 1,A
   1338                  uint16 dstOff = pgOff[dstPg-OSAL_NV_PAGE_BEG] - tmp;
   \                     ??osal_nv_write_8:
   \   00018D   E5..         MOV     A,?V0 + 4
   \   00018F   C3           CLR     C
   \   000190   33           RLC     A
   \   000191   F8           MOV     R0,A
   \   000192   E4           CLR     A
   \   000193   33           RLC     A
   \   000194   F9           MOV     R1,A
   \   000195   74..         MOV     A,#(pgOff + 14) & 0xff
   \   000197   28           ADD     A,R0
   \   000198   F5..         MOV     ?V0 + 12,A
   \   00019A   74..         MOV     A,#((pgOff - 242) >> 8) & 0xff
   \   00019C   39           ADDC    A,R1
   \   00019D   F5..         MOV     ?V0 + 13,A
   \   00019F   85..82       MOV     DPL,?V0 + 12
   \   0001A2   F583         MOV     DPH,A
   \   0001A4   12....       LCALL   ?Subroutine20 & 0xFFFF
   1339                  srcOff = origOff;
   1340          
   1341                  /* Prevent excessive re-writes to item header caused by numerous, rapid, & successive
   1342                   * OSAL_Nv interruptions caused by resets.
   1343                   */
   1344                  if ( hdr.stat == OSAL_NV_ERASED_ID )
   \                     ??CrossCallReturnLabel_27:
   \   0001A7   740B         MOV     A,#0xb
   \   0001A9   12....       LCALL   ?XSTACK_DISP0_8
   \   0001AC   E0           MOVX    A,@DPTR
   \   0001AD   F4           CPL     A
   \   0001AE   7003         JNZ     ??osal_nv_write_9
   \   0001B0   A3           INC     DPTR
   \   0001B1   E0           MOVX    A,@DPTR
   \   0001B2   F4           CPL     A
   \                     ??osal_nv_write_9:
   \   0001B3   700A         JNZ     ??CrossCallReturnLabel_20
   1345                  {
   1346                    setItem( srcPg, srcOff, eNvXfer );
   \   0001B5                ; Setup parameters for call to function setItem
   \   0001B5   7C00         MOV     R4,#0x0
   \   0001B7   7403         MOV     A,#0x3
   \   0001B9   12....       LCALL   ?XSTACK_DISP0_8
   \   0001BC   12....       LCALL   ?Subroutine15 & 0xFFFF
   1347                  }
   1348          
   1349                  xferBuf( srcPg, srcOff, dstPg, dstOff, ndx );
   \                     ??CrossCallReturnLabel_20:
   \   0001BF                ; Setup parameters for call to function xferBuf
   \   0001BF   78..         MOV     R0,#?V0 + 2
   \   0001C1   12....       LCALL   ?PUSH_XSTACK_I_TWO
   \   0001C4   8E..         MOV     ?V0 + 6,R6
   \   0001C6   8F..         MOV     ?V0 + 7,R7
   \   0001C8   78..         MOV     R0,#?V0 + 6
   \   0001CA   12....       LCALL   ?PUSH_XSTACK_I_TWO
   \   0001CD   AC..         MOV     R4,?V0 + 4
   \   0001CF   7407         MOV     A,#0x7
   \   0001D1   12....       LCALL   ?XSTACK_DISP0_8
   \   0001D4   12....       LCALL   ?Subroutine22 & 0xFFFF
   \                     ??CrossCallReturnLabel_34:
   \   0001D7   A9..         MOV     R1,?V0 + 8
   \   0001D9   12....       LCALL   ??xferBuf?relay
   \   0001DC   7404         MOV     A,#0x4
   \   0001DE   12....       LCALL   ?DEALLOC_XSTACK8
   1350                  srcOff += ndx;
   1351                  dstOff += ndx;
   \   0001E1   12....       LCALL   ?Subroutine37 & 0xFFFF
   1352          
   1353                  writeBuf( dstPg, dstOff, len, buf );
   \                     ??CrossCallReturnLabel_71:
   \   0001E4   12....       LCALL   ?XSTACK_DISP0_8
   \   0001E7   12....       LCALL   ?PUSH_XSTACK8_X_TWO
   \   0001EA   AC..         MOV     R4,?V0 + 10
   \   0001EC   AD..         MOV     R5,?V0 + 11
   \   0001EE   EE           MOV     A,R6
   \   0001EF   FA           MOV     R2,A
   \   0001F0   EF           MOV     A,R7
   \   0001F1   FB           MOV     R3,A
   \   0001F2   A9..         MOV     R1,?V0 + 4
   \   0001F4   12....       LCALL   ??writeBuf?relay
   \   0001F7   7402         MOV     A,#0x2
   \   0001F9   12....       LCALL   ?DEALLOC_XSTACK8
   1354                  srcOff += len;
   1355                  dstOff += len;
   1356          
   1357                  xferBuf( srcPg, srcOff, dstPg, dstOff, (hdr.len-ndx-len) );
   \   0001FC                ; Setup parameters for call to function xferBuf
   \   0001FC   7407         MOV     A,#0x7
   \   0001FE   12....       LCALL   ?XSTACK_DISP0_8
   \   000201   E0           MOVX    A,@DPTR
   \   000202   C3           CLR     C
   \   000203   95..         SUBB    A,?V0 + 2
   \   000205   F8           MOV     R0,A
   \   000206   A3           INC     DPTR
   \   000207   E0           MOVX    A,@DPTR
   \   000208   95..         SUBB    A,?V0 + 3
   \   00020A   F9           MOV     R1,A
   \   00020B   E8           MOV     A,R0
   \   00020C   C3           CLR     C
   \   00020D   95..         SUBB    A,?V0 + 10
   \   00020F   F5..         MOV     ?V0 + 6,A
   \   000211   E9           MOV     A,R1
   \   000212   95..         SUBB    A,?V0 + 11
   \   000214   F5..         MOV     ?V0 + 7,A
   \   000216   78..         MOV     R0,#?V0 + 6
   \   000218   12....       LCALL   ?PUSH_XSTACK_I_TWO
   \   00021B   EE           MOV     A,R6
   \   00021C   25..         ADD     A,?V0 + 10
   \   00021E   F5..         MOV     ?V0 + 6,A
   \   000220   EF           MOV     A,R7
   \   000221   35..         ADDC    A,?V0 + 11
   \   000223   F5..         MOV     ?V0 + 7,A
   \   000225   78..         MOV     R0,#?V0 + 6
   \   000227   12....       LCALL   ?PUSH_XSTACK_I_TWO
   \   00022A   AC..         MOV     R4,?V0 + 4
   \   00022C   7407         MOV     A,#0x7
   \   00022E   12....       LCALL   ?XSTACK_DISP0_8
   \   000231   E0           MOVX    A,@DPTR
   \   000232   25..         ADD     A,?V0 + 2
   \   000234   F8           MOV     R0,A
   \   000235   A3           INC     DPTR
   \   000236   E0           MOVX    A,@DPTR
   \   000237   35..         ADDC    A,?V0 + 3
   \   000239   F9           MOV     R1,A
   \   00023A   E8           MOV     A,R0
   \   00023B   25..         ADD     A,?V0 + 10
   \   00023D   FA           MOV     R2,A
   \   00023E   E9           MOV     A,R1
   \   00023F   35..         ADDC    A,?V0 + 11
   \   000241   FB           MOV     R3,A
   \   000242   A9..         MOV     R1,?V0 + 8
   \   000244   12....       LCALL   ??xferBuf?relay
   \   000247   7404         MOV     A,#0x4
   \   000249   12....       LCALL   ?DEALLOC_XSTACK8
   1358          
   1359                  // Calculate and write the new checksum.
   1360                  dstOff = pgOff[dstPg-OSAL_NV_PAGE_BEG] - tmp;
   \   00024C   85..82       MOV     DPL,?V0 + 12
   \   00024F   85..83       MOV     DPH,?V0 + 13
   \   000252   12....       LCALL   ?Subroutine20 & 0xFFFF
   1361          
   1362                  if ( hdr.chk == calcChkF( dstPg, dstOff, hdr.len ) )
   \                     ??CrossCallReturnLabel_28:
   \   000255                ; Setup parameters for call to function calcChkF
   \   000255   7407         MOV     A,#0x7
   \   000257   12....       LCALL   ?XSTACK_DISP0_8
   \   00025A   12....       LCALL   ?Subroutine12 & 0xFFFF
   \                     ??CrossCallReturnLabel_14:
   \   00025D   EE           MOV     A,R6
   \   00025E   FA           MOV     R2,A
   \   00025F   EF           MOV     A,R7
   \   000260   FB           MOV     R3,A
   \   000261   A9..         MOV     R1,?V0 + 4
   \   000263   12....       LCALL   ??calcChkF?relay
   \   000266   7409         MOV     A,#0x9
   \   000268   12....       LCALL   ?XSTACK_DISP0_8
   \   00026B   12....       LCALL   ?Subroutine13 & 0xFFFF
   \                     ??CrossCallReturnLabel_17:
   \   00026E   7002         JNZ     ??osal_nv_write_10
   \   000270   EB           MOV     A,R3
   \   000271   69           XRL     A,R1
   \                     ??osal_nv_write_10:
   \   000272   6003         JZ      $+5
   \   000274   02....       LJMP    ??osal_nv_write_6 & 0xFFFF
   1363                  {
   1364                    if ( hdr.chk != setChk( dstPg, dstOff, hdr.chk ) )
   \   000277   7401         MOV     A,#0x1
   \   000279   12....       LCALL   ?XSTACK_DISP0_8
   \   00027C   E8           MOV     A,R0
   \   00027D   F0           MOVX    @DPTR,A
   \   00027E   A3           INC     DPTR
   \   00027F   E9           MOV     A,R1
   \   000280   F0           MOVX    @DPTR,A
   \   000281   EE           MOV     A,R6
   \   000282   24FC         ADD     A,#-0x4
   \   000284   F5..         MOV     ?V0 + 0,A
   \   000286   EF           MOV     A,R7
   \   000287   34FF         ADDC    A,#-0x1
   \   000289   F5..         MOV     ?V0 + 1,A
   \   00028B   7401         MOV     A,#0x1
   \   00028D   12....       LCALL   ?XSTACK_DISP0_8
   \   000290   E0           MOVX    A,@DPTR
   \   000291   C0E0         PUSH    A
   \   000293   740D         MOV     A,#0xd
   \   000295   12....       LCALL   ?XSTACK_DISP0_8
   \   000298   D0E0         POP     A
   \   00029A   F0           MOVX    @DPTR,A
   \   00029B   7402         MOV     A,#0x2
   \   00029D   12....       LCALL   ?XSTACK_DISP0_8
   \   0002A0   E0           MOVX    A,@DPTR
   \   0002A1   C0E0         PUSH    A
   \   0002A3   740E         MOV     A,#0xe
   \   0002A5   12....       LCALL   ?XSTACK_DISP0_8
   \   0002A8   D0E0         POP     A
   \   0002AA   F0           MOVX    @DPTR,A
   \   0002AB   740F         MOV     A,#0xf
   \   0002AD   12....       LCALL   ?XSTACK_DISP0_8
   \   0002B0   74FF         MOV     A,#-0x1
   \   0002B2   F0           MOVX    @DPTR,A
   \   0002B3   7410         MOV     A,#0x10
   \   0002B5   12....       LCALL   ?XSTACK_DISP0_8
   \   0002B8   74FF         MOV     A,#-0x1
   \   0002BA   F0           MOVX    @DPTR,A
   \   0002BB                ; Setup parameters for call to function HalFlashWrite
   \   0002BB   75..01       MOV     ?V0 + 2,#0x1
   \   0002BE   75..00       MOV     ?V0 + 3,#0x0
   \   0002C1   78..         MOV     R0,#?V0 + 2
   \   0002C3   12....       LCALL   ?PUSH_XSTACK_I_TWO
   \   0002C6   740F         MOV     A,#0xf
   \   0002C8   12....       LCALL   ?XSTACK_DISP0_8
   \   0002CB   AC82         MOV     R4,DPL
   \   0002CD   AD83         MOV     R5,DPH
   \   0002CF   85....       MOV     ?V0 + 2,?V0 + 0
   \   0002D2   85....       MOV     ?V0 + 3,?V0 + 1
   \   0002D5   7402         MOV     A,#0x2
   \   0002D7   78..         MOV     R0,#?V0 + 2
   \   0002D9   12....       LCALL   ?US_SHR
   \   0002DC   85....       MOV     ?V0 + 6,?V0 + 4
   \   0002DF   F5..         MOV     ?V0 + 7,A
   \   0002E1   7409         MOV     A,#0x9
   \   0002E3   78..         MOV     R0,#?V0 + 6
   \   0002E5   12....       LCALL   ?S_SHL
   \   0002E8   12....       LCALL   ?Subroutine31 & 0xFFFF
   \                     ??CrossCallReturnLabel_62:
   \   0002EB   35..         ADDC    A,?V0 + 7
   \   0002ED   12....       LCALL   ??Subroutine44_0 & 0xFFFF
   \                     ??CrossCallReturnLabel_93:
   \   0002F0   12....       LCALL   ?DEALLOC_XSTACK8
   \   0002F3                ; Setup parameters for call to function HalFlashRead
   \   0002F3   75..02       MOV     ?V0 + 2,#0x2
   \   0002F6   75..00       MOV     ?V0 + 3,#0x0
   \   0002F9   78..         MOV     R0,#?V0 + 2
   \   0002FB   12....       LCALL   ?PUSH_XSTACK_I_TWO
   \   0002FE   7403         MOV     A,#0x3
   \   000300   12....       LCALL   ?XSTACK_DISP0_8
   \   000303   AC82         MOV     R4,DPL
   \   000305   AD83         MOV     R5,DPH
   \   000307   AA..         MOV     R2,?V0 + 0
   \   000309   AB..         MOV     R3,?V0 + 1
   \   00030B   A9..         MOV     R1,?V0 + 4
   \   00030D   12....       LCALL   ??Subroutine51_0 & 0xFFFF
   \                     ??CrossCallReturnLabel_135:
   \   000310   12....       LCALL   ?DEALLOC_XSTACK8
   \   000313   7409         MOV     A,#0x9
   \   000315   12....       LCALL   ?XSTACK_DISP0_8
   \   000318   12....       LCALL   ?Subroutine25 & 0xFFFF
   \                     ??CrossCallReturnLabel_48:
   \   00031B   7401         MOV     A,#0x1
   \   00031D   12....       LCALL   ?XSTACK_DISP0_8
   \   000320   E0           MOVX    A,@DPTR
   \   000321   68           XRL     A,R0
   \   000322   7003         JNZ     ??osal_nv_write_11
   \   000324   A3           INC     DPTR
   \   000325   E0           MOVX    A,@DPTR
   \   000326   69           XRL     A,R1
   \                     ??osal_nv_write_11:
   \   000327   6005         JZ      ??osal_nv_write_12
   1365                    {
   1366                      rtrn = NV_OPER_FAILED;
   \                     ??osal_nv_write_6:
   \   000329   75..0A       MOV     ?V0 + 9,#0xa
   \   00032C   8028         SJMP    ??osal_nv_write_13
   1367                    }
   1368                    else
   1369                    {
   1370                      hotItemUpdate(dstPg, dstOff, hdr.id);
   \                     ??osal_nv_write_12:
   \   00032E   7405         MOV     A,#0x5
   \   000330   12....       LCALL   ?XSTACK_DISP0_8
   \   000333   12....       LCALL   ?Subroutine14 & 0xFFFF
   1371                    }
   1372                  }
   1373                  else
   1374                  {
   1375                    rtrn = NV_OPER_FAILED;
   1376                  }
   1377                }
   \                     ??CrossCallReturnLabel_19:
   \   000336   8882         MOV     DPL,R0
   \   000338   8983         MOV     DPH,R1
   \   00033A   E0           MOVX    A,@DPTR
   \   00033B   6A           XRL     A,R2
   \   00033C   7003         JNZ     ??osal_nv_write_14
   \   00033E   A3           INC     DPTR
   \   00033F   E0           MOVX    A,@DPTR
   \   000340   6B           XRL     A,R3
   \                     ??osal_nv_write_14:
   \   000341   6005         JZ      ??osal_nv_write_15
   \   000343   12....       LCALL   ?Subroutine26 & 0xFFFF
   \                     ??CrossCallReturnLabel_53:
   \   000346   40EE         JC      ??CrossCallReturnLabel_19
   \                     ??osal_nv_write_15:
   \   000348   EC           MOV     A,R4
   \   000349   C3           CLR     C
   \   00034A   9403         SUBB    A,#0x3
   \   00034C   5008         JNC     ??osal_nv_write_13
   \   00034E   12....       LCALL   ?Subroutine5 & 0xFFFF
   \                     ??CrossCallReturnLabel_147:
   \   000351   EE           MOV     A,R6
   \   000352   F0           MOVX    @DPTR,A
   \   000353   A3           INC     DPTR
   \   000354   EF           MOV     A,R7
   \   000355   F0           MOVX    @DPTR,A
   1378                else
   1379                {
   1380                  rtrn = NV_OPER_FAILED;
   1381                }
   1382          
   1383                if ( comPg != OSAL_NV_PAGE_NULL )
   \                     ??osal_nv_write_13:
   \   000356   85..82       MOV     DPL,?XSP + 0
   \   000359   85..83       MOV     DPH,?XSP + 1
   \   00035C   E0           MOVX    A,@DPTR
   \   00035D   6061         JZ      ??osal_nv_write_16
   1384                {
   1385                  /* Even though the page compaction succeeded, if the new item is coming from the compacted
   1386                   * page and writing the new value failed, then the compaction must be aborted.
   1387                   */
   1388                  if ( (srcPg == comPg) && (rtrn == NV_OPER_FAILED) )
   \   00035F   65..         XRL     A,?V0 + 8
   \   000361   700B         JNZ     ??osal_nv_write_17
   \   000363   740A         MOV     A,#0xa
   \   000365   65..         XRL     A,?V0 + 9
   \   000367   7005         JNZ     ??osal_nv_write_17
   1389                  {
   1390                    erasePage( pgRes );
   \   000369                ; Setup parameters for call to function erasePage
   \   000369   12....       LCALL   ?Subroutine19 & 0xFFFF
   1391                  }
   \                     ??CrossCallReturnLabel_110:
   \   00036C   8052         SJMP    ??osal_nv_write_16
   1392                  else
   1393                  {
   1394                    COMPACT_PAGE_CLEANUP( comPg );
   \                     ??osal_nv_write_17:
   \   00036E   90....       MOV     DPTR,#pgRes
   \   000371   E0           MOVX    A,@DPTR
   \   000372   F5..         MOV     ?V0 + 0,A
   \   000374   7411         MOV     A,#0x11
   \   000376   12....       LCALL   ?XSTACK_DISP0_8
   \   000379   E4           CLR     A
   \   00037A   F0           MOVX    @DPTR,A
   \   00037B   A3           INC     DPTR
   \   00037C   F0           MOVX    @DPTR,A
   \   00037D   7413         MOV     A,#0x13
   \   00037F   12....       LCALL   ?XSTACK_DISP0_8
   \   000382   E4           CLR     A
   \   000383   F0           MOVX    @DPTR,A
   \   000384   A3           INC     DPTR
   \   000385   F0           MOVX    @DPTR,A
   \   000386                ; Setup parameters for call to function HalFlashWrite
   \   000386   75..01       MOV     ?V0 + 2,#0x1
   \   000389   F5..         MOV     ?V0 + 3,A
   \   00038B   78..         MOV     R0,#?V0 + 2
   \   00038D   12....       LCALL   ?PUSH_XSTACK_I_TWO
   \   000390   7413         MOV     A,#0x13
   \   000392   12....       LCALL   ?XSTACK_DISP0_8
   \   000395   AC82         MOV     R4,DPL
   \   000397   AD83         MOV     R5,DPH
   \   000399   75..00       MOV     ?V0 + 1,#0x0
   \   00039C   7409         MOV     A,#0x9
   \   00039E   78..         MOV     R0,#?V0 + 0
   \   0003A0   12....       LCALL   ?S_SHL
   \   0003A3   FA           MOV     R2,A
   \   0003A4   AB..         MOV     R3,?V0 + 1
   \   0003A6   12....       LCALL   ??Subroutine45_0 & 0xFFFF
   \                     ??CrossCallReturnLabel_98:
   \   0003A9   12....       LCALL   ?DEALLOC_XSTACK8
   \   0003AC                ; Setup parameters for call to function erasePage
   \   0003AC   85..82       MOV     DPL,?XSP + 0
   \   0003AF   85..83       MOV     DPH,?XSP + 1
   \   0003B2   12....       LCALL   ??Subroutine48_0 & 0xFFFF
   \                     ??CrossCallReturnLabel_111:
   \   0003B5   85..82       MOV     DPL,?XSP + 0
   \   0003B8   85..83       MOV     DPH,?XSP + 1
   \   0003BB   E0           MOVX    A,@DPTR
   \   0003BC   90....       MOV     DPTR,#pgRes
   \   0003BF   F0           MOVX    @DPTR,A
   1395                  }
   1396                }
   1397          
   1398                /* Zero of the old item must wait until after compact page cleanup has finished - if the item
   1399                 * is zeroed before and cleanup is interrupted by a power-cycle, the new item can be lost.
   1400                 */
   1401                if ( (srcPg != comPg) && (rtrn != NV_OPER_FAILED) )
   \                     ??osal_nv_write_16:
   \   0003C0   85..82       MOV     DPL,?XSP + 0
   \   0003C3   85..83       MOV     DPH,?XSP + 1
   \   0003C6   E0           MOVX    A,@DPTR
   \   0003C7   65..         XRL     A,?V0 + 8
   \   0003C9   6010         JZ      ??CrossCallReturnLabel_21
   \   0003CB   740A         MOV     A,#0xa
   \   0003CD   65..         XRL     A,?V0 + 9
   \   0003CF   600A         JZ      ??CrossCallReturnLabel_21
   1402                {
   1403                  setItem( srcPg, origOff, eNvZero );
   \   0003D1                ; Setup parameters for call to function setItem
   \   0003D1   7C01         MOV     R4,#0x1
   \   0003D3   7403         MOV     A,#0x3
   \   0003D5   12....       LCALL   ?XSTACK_DISP0_8
   \   0003D8   12....       LCALL   ?Subroutine15 & 0xFFFF
   1404                }
   1405              }
   1406            }
   1407          
   1408            return rtrn;
   \                     ??CrossCallReturnLabel_21:
   \   0003DB   A9..         MOV     R1,?V0 + 9
   \                     ??osal_nv_write_2:
   \   0003DD   7419         MOV     A,#0x19
   \   0003DF   02....       LJMP    ?Subroutine4 & 0xFFFF
   1409          }

   \                                 In  segment BANKED_CODE, align 1, keep-with-next
   \                     ?Subroutine37:
   \   000000   EE           MOV     A,R6
   \   000001   25..         ADD     A,?V0 + 2
   \   000003   FE           MOV     R6,A
   \   000004   EF           MOV     A,R7
   \   000005   35..         ADDC    A,?V0 + 3
   \   000007   FF           MOV     R7,A
   \   000008                ; Setup parameters for call to function writeBuf
   \   000008   7433         MOV     A,#0x33
   \   00000A   22           RET

   \                                 In  segment BANKED_CODE, align 1, keep-with-next
   \                     ?Subroutine20:
   \   000000   E0           MOVX    A,@DPTR
   \   000001   C3           CLR     C
   \   000002   95..         SUBB    A,?V0 + 0
   \   000004   FE           MOV     R6,A
   \   000005   A3           INC     DPTR
   \   000006   E0           MOVX    A,@DPTR
   \   000007   95..         SUBB    A,?V0 + 1
   \   000009   FF           MOV     R7,A
   \   00000A   22           RET

   \                                 In  segment BANKED_CODE, align 1, keep-with-next
   \                     ?Subroutine15:
   \   000000   12....       LCALL   ?Subroutine38 & 0xFFFF
   \                     ??CrossCallReturnLabel_73:
   \   000003   A9..         MOV     R1,?V0 + 8
   \   000005   12....       LCALL   ??setItem?relay
   \   000008   22           RET
   1410          
   1411          /*********************************************************************
   1412           * @fn      osal_nv_read
   1413           *
   1414           * @brief   Read data from NV. This function can be used to read an entire item from NV or
   1415           *          an element of an item by indexing into the item with an offset.
   1416           *          Read data is copied into *buf.
   1417           *
   1418           * @param   id  - Valid NV item Id.
   1419           * @param   ndx - Index offset into item
   1420           * @param   len - Length of data to read.
   1421           * @param  *buf - Data is read into this buffer.
   1422           *
   1423           * @return  SUCCESS if NV data was copied to the parameter 'buf'.
   1424           *          Otherwise, NV_OPER_FAILED for failure.
   1425           */

   \                                 In  segment BANKED_CODE, align 1, keep-with-next
   1426          uint8 osal_nv_read( uint16 id, uint16 ndx, uint16 len, void *buf )
   \                     osal_nv_read:
   1427          {
   \   000000   74F2         MOV     A,#-0xe
   \   000002   12....       LCALL   ?BANKED_ENTER_XDATA
   \   000005                ; Saved register size: 14
   \   000005                ; Auto size: 0
   \   000005   8C..         MOV     ?V0 + 0,R4
   \   000007   8D..         MOV     ?V0 + 1,R5
   \   000009   740E         MOV     A,#0xe
   \   00000B   12....       LCALL   ?XSTACK_DISP0_8
   \   00000E   12....       LCALL   ?Subroutine16 & 0xFFFF
   \                     ??CrossCallReturnLabel_24:
   \   000011   7410         MOV     A,#0x10
   \   000013   12....       LCALL   ?XSTACK_DISP0_8
   \   000016   E0           MOVX    A,@DPTR
   \   000017   FE           MOV     R6,A
   \   000018   A3           INC     DPTR
   \   000019   E0           MOVX    A,@DPTR
   \   00001A   FF           MOV     R7,A
   1428            uint16 offset;
   1429            uint8 hotIdx;
   1430          
   1431            if ((hotIdx = hotItem(id)) < OSAL_NV_MAX_HOT)
   \   00001B   7C00         MOV     R4,#0x0
   \   00001D   78..         MOV     R0,#hotIds & 0xff
   \   00001F   79..         MOV     R1,#(hotIds >> 8) & 0xff
   \                     ??osal_nv_read_0:
   \   000021   8882         MOV     DPL,R0
   \   000023   8983         MOV     DPH,R1
   \   000025   E0           MOVX    A,@DPTR
   \   000026   6A           XRL     A,R2
   \   000027   7003         JNZ     ??osal_nv_read_1
   \   000029   A3           INC     DPTR
   \   00002A   E0           MOVX    A,@DPTR
   \   00002B   6B           XRL     A,R3
   \                     ??osal_nv_read_1:
   \   00002C   6005         JZ      ??osal_nv_read_2
   \   00002E   12....       LCALL   ?Subroutine26 & 0xFFFF
   \                     ??CrossCallReturnLabel_50:
   \   000031   40EE         JC      ??osal_nv_read_0
   \                     ??osal_nv_read_2:
   \   000033   EC           MOV     A,R4
   \   000034   C3           CLR     C
   \   000035   9403         SUBB    A,#0x3
   \   000037   5024         JNC     ??osal_nv_read_3
   1432            {
   1433              HalFlashRead(hotPg[hotIdx], hotOff[hotIdx]+ndx, buf, len);
   \   000039   8C82         MOV     DPL,R4
   \   00003B   8582..       MOV     ?V0 + 2,DPL
   \   00003E                ; Setup parameters for call to function HalFlashRead
   \   00003E   78..         MOV     R0,#?V0 + 4
   \   000040   12....       LCALL   ?PUSH_XSTACK_I_TWO
   \   000043   EE           MOV     A,R6
   \   000044   FC           MOV     R4,A
   \   000045   EF           MOV     A,R7
   \   000046   FD           MOV     R5,A
   \   000047   E5..         MOV     A,?V0 + 2
   \   000049   12....       LCALL   ?Subroutine42 & 0xFFFF
   1434              return SUCCESS;
   1435            }
   \                     ??CrossCallReturnLabel_148:
   \   00004C   12....       LCALL   ?Subroutine23 & 0xFFFF
   \                     ??CrossCallReturnLabel_36:
   \   00004F   74..         MOV     A,#hotPg & 0xff
   \   000051   25..         ADD     A,?V0 + 2
   \   000053   F582         MOV     DPL,A
   \   000055   74..         MOV     A,#(hotPg >> 8) & 0xff
   \   000057   3400         ADDC    A,#0x0
   \   000059   F583         MOV     DPH,A
   \   00005B   801F         SJMP    ??osal_nv_read_4
   1436          
   1437            if ((offset = findItem(id)) == OSAL_NV_ITEM_NULL)
   \                     ??osal_nv_read_3:
   \   00005D                ; Setup parameters for call to function findItem
   \   00005D   12....       LCALL   ??findItem?relay
   \   000060   EA           MOV     A,R2
   \   000061   4B           ORL     A,R3
   \   000062   7004         JNZ     ??osal_nv_read_5
   1438            {
   1439              return NV_OPER_FAILED;
   \   000064   790A         MOV     R1,#0xa
   \   000066   801E         SJMP    ??osal_nv_read_6
   1440            }
   1441            else
   1442            {
   1443              HalFlashRead(findPg, offset+ndx, buf, len);
   \                     ??osal_nv_read_5:
   \   000068                ; Setup parameters for call to function HalFlashRead
   \   000068   78..         MOV     R0,#?V0 + 4
   \   00006A   12....       LCALL   ?PUSH_XSTACK_I_TWO
   \   00006D   EE           MOV     A,R6
   \   00006E   FC           MOV     R4,A
   \   00006F   EF           MOV     A,R7
   \   000070   FD           MOV     R5,A
   \   000071   EA           MOV     A,R2
   \   000072   25..         ADD     A,?V0 + 0
   \   000074   FA           MOV     R2,A
   \   000075   EB           MOV     A,R3
   \   000076   35..         ADDC    A,?V0 + 1
   \   000078   FB           MOV     R3,A
   \   000079   90....       MOV     DPTR,#findPg
   \                     ??osal_nv_read_4:
   \   00007C   E0           MOVX    A,@DPTR
   \   00007D   F9           MOV     R1,A
   \   00007E   12....       LCALL   ??Subroutine51_0 & 0xFFFF
   \                     ??CrossCallReturnLabel_136:
   \   000081   12....       LCALL   ?DEALLOC_XSTACK8
   1444              return SUCCESS;
   \   000084   7900         MOV     R1,#0x0
   1445            }
   \                     ??osal_nv_read_6:
   \   000086   02....       LJMP    ??Subroutine53_0 & 0xFFFF
   1446          }

   \                                 In  segment BANKED_CODE, align 1, keep-with-next
   \                     ?Subroutine23:
   \   000000   E0           MOVX    A,@DPTR
   \   000001   25..         ADD     A,?V0 + 0
   \   000003   FA           MOV     R2,A
   \   000004   A3           INC     DPTR
   \   000005   E0           MOVX    A,@DPTR
   \   000006   35..         ADDC    A,?V0 + 1
   \   000008   FB           MOV     R3,A
   \   000009   22           RET
   1447          
   1448          /*********************************************************************
   1449           * @fn      osal_nv_delete
   1450           *
   1451           * @brief   Delete item from NV. This function will fail if the length
   1452           *          parameter does not match the length of the item in NV.
   1453           *
   1454           * @param   id  - Valid NV item Id.
   1455           * @param   len - Length of item to delete.
   1456           *
   1457           * @return  SUCCESS if item was deleted,
   1458           *          NV_ITEM_UNINIT if item did not exist in NV,
   1459           *          NV_BAD_ITEM_LEN if length parameter not correct,
   1460           *          NV_OPER_FAILED if attempted deletion failed.
   1461           */

   \                                 In  segment BANKED_CODE, align 1, keep-with-next
   1462          uint8 osal_nv_delete( uint16 id, uint16 len )
   \                     osal_nv_delete:
   1463          {
   \   000000   74F2         MOV     A,#-0xe
   \   000002   12....       LCALL   ?BANKED_ENTER_XDATA
   \   000005                ; Saved register size: 14
   \   000005                ; Auto size: 0
   \   000005   EA           MOV     A,R2
   \   000006   FE           MOV     R6,A
   \   000007   EB           MOV     A,R3
   \   000008   FF           MOV     R7,A
   \   000009   8C..         MOV     ?V0 + 2,R4
   \   00000B   8D..         MOV     ?V0 + 3,R5
   1464            uint16 length;
   1465            uint16 offset;
   1466          
   1467            offset = findItem( id );
   \   00000D                ; Setup parameters for call to function findItem
   \   00000D   12....       LCALL   ??findItem?relay
   \   000010   8A..         MOV     ?V0 + 0,R2
   \   000012   8B..         MOV     ?V0 + 1,R3
   1468            if ( offset == OSAL_NV_ITEM_NULL )
   \   000014   EA           MOV     A,R2
   \   000015   45..         ORL     A,?V0 + 1
   \   000017   7004         JNZ     ??osal_nv_delete_0
   1469            {
   1470              // NV item does not exist
   1471              return NV_ITEM_UNINIT;
   \   000019   7909         MOV     R1,#0x9
   \   00001B   803D         SJMP    ??osal_nv_delete_1
   1472            }
   1473          
   1474            length = osal_nv_item_len( id );
   1475            if ( length != len )
   \                     ??osal_nv_delete_0:
   \   00001D                ; Setup parameters for call to function osal_nv_item_len
   \   00001D   EE           MOV     A,R6
   \   00001E   FA           MOV     R2,A
   \   00001F   EF           MOV     A,R7
   \   000020   FB           MOV     R3,A
   \   000021   12....       LCALL   ??osal_nv_item_len?relay
   \   000024   8A..         MOV     ?V0 + 4,R2
   \   000026   8B..         MOV     ?V0 + 5,R3
   \   000028   E5..         MOV     A,?V0 + 2
   \   00002A   65..         XRL     A,?V0 + 4
   \   00002C   7004         JNZ     ??osal_nv_delete_2
   \   00002E   E5..         MOV     A,?V0 + 3
   \   000030   65..         XRL     A,?V0 + 5
   \                     ??osal_nv_delete_2:
   \   000032   6004         JZ      ??osal_nv_delete_3
   1476            {
   1477              // NV item has different length
   1478              return NV_BAD_ITEM_LEN;
   \   000034   790C         MOV     R1,#0xc
   \   000036   8022         SJMP    ??osal_nv_delete_1
   1479            }
   1480          
   1481            // Set item header ID to zero to 'delete' the item
   1482            setItem( findPg, offset, eNvZero );
   \                     ??osal_nv_delete_3:
   \   000038                ; Setup parameters for call to function setItem
   \   000038   7C01         MOV     R4,#0x1
   \   00003A   AA..         MOV     R2,?V0 + 0
   \   00003C   AB..         MOV     R3,?V0 + 1
   \   00003E   90....       MOV     DPTR,#findPg
   \   000041   E0           MOVX    A,@DPTR
   \   000042   F9           MOV     R1,A
   \   000043   12....       LCALL   ??setItem?relay
   1483          
   1484            // Verify that item has been removed
   1485            offset = findItem( id );
   1486            if ( offset != OSAL_NV_ITEM_NULL )
   \   000046                ; Setup parameters for call to function findItem
   \   000046   EE           MOV     A,R6
   \   000047   FA           MOV     R2,A
   \   000048   EF           MOV     A,R7
   \   000049   FB           MOV     R3,A
   \   00004A   12....       LCALL   ??findItem?relay
   \   00004D   8B..         MOV     ?V0 + 1,R3
   \   00004F   EA           MOV     A,R2
   \   000050   45..         ORL     A,?V0 + 1
   \   000052   6004         JZ      ??osal_nv_delete_4
   1487            {
   1488              // Still there
   1489              return NV_OPER_FAILED;
   \   000054   790A         MOV     R1,#0xa
   \   000056   8002         SJMP    ??osal_nv_delete_1
   1490            }
   1491            else
   1492            {
   1493              // Yes, it's gone
   1494              return SUCCESS;
   \                     ??osal_nv_delete_4:
   \   000058   7900         MOV     R1,#0x0
   1495            }
   \                     ??osal_nv_delete_1:
   \   00005A   02....       LJMP    ??Subroutine53_0 & 0xFFFF
   1496          }

   \                                 In  segment BANKED_CODE, align 1, keep-with-next
   1497          void osal_nv_factory_reset(void)
   \                     osal_nv_factory_reset:
   1498          {
   \   000000   74F7         MOV     A,#-0x9
   \   000002   12....       LCALL   ?BANKED_ENTER_XDATA
   \   000005                ; Saved register size: 9
   \   000005                ; Auto size: 0
   1499            uint8 pg;
   1500            for (pg = OSAL_NV_PAGE_BEG; pg <= OSAL_NV_PAGE_END; pg++) {
   \   000005   7E79         MOV     R6,#0x79
   1501              HalFlashErase(pg);
   \                     ??osal_nv_factory_reset_0:
   \   000007                ; Setup parameters for call to function HalFlashErase
   \   000007   EE           MOV     A,R6
   \   000008   F9           MOV     R1,A
   \   000009   12....       LCALL   ??HalFlashErase?relay
   1502            }
   \   00000C   0E           INC     R6
   \   00000D   EE           MOV     A,R6
   \   00000E   C3           CLR     C
   \   00000F   947F         SUBB    A,#0x7f
   \   000011   40F4         JC      ??osal_nv_factory_reset_0
   1503          }
   \   000013   02....       LJMP    ?Subroutine2 & 0xFFFF

   \                                 In  segment BANKED_CODE, align 1, keep-with-next
   \                     ?Subroutine27:
   \   000000   E5..         MOV     A,?V0 + 6
   \   000002   2400         ADD     A,#0x0
   \   000004   FA           MOV     R2,A
   \   000005   E5..         MOV     A,?V0 + 7
   \   000007   35..         ADDC    A,?V0 + 9
   \   000009                REQUIRE ??Subroutine44_0
   \   000009                ; // Fall through to label ??Subroutine44_0

   \                                 In  segment BANKED_CODE, align 1, keep-with-next
   \                     ??Subroutine44_0:
   \   000000   FB           MOV     R3,A
   \   000001                REQUIRE ??Subroutine45_0
   \   000001                ; // Fall through to label ??Subroutine45_0

   \                                 In  segment BANKED_CODE, align 1, keep-with-next
   \                     ??Subroutine45_0:
   \   000000   12....       LCALL   ??HalFlashWrite?relay
   \   000003   7402         MOV     A,#0x2
   \   000005   22           RET

   \                                 In  segment BANKED_CODE, align 1, keep-with-next
   \                     ?Subroutine9:
   \   000000   E4           CLR     A
   \   000001   F0           MOVX    @DPTR,A
   \   000002   A3           INC     DPTR
   \   000003   F0           MOVX    @DPTR,A
   \   000004                ; Setup parameters for call to function HalFlashWrite
   \   000004                ; Setup parameters for call to function HalFlashWrite
   \   000004   75..01       MOV     ?V0 + 0,#0x1
   \   000007   F5..         MOV     ?V0 + 1,A
   \   000009   78..         MOV     R0,#?V0 + 0
   \   00000B   22           RET

   \                                 In  segment BANKED_CODE, align 1, keep-with-next
   \                     ?Subroutine31:
   \   000000   E5..         MOV     A,?V0 + 2
   \   000002   2400         ADD     A,#0x0
   \   000004   FA           MOV     R2,A
   \   000005   E5..         MOV     A,?V0 + 3
   \   000007   22           RET

   \                                 In  segment BANK_RELAYS, align 1
   \                     ??initNV?relay:
   \   000000   12....       LCALL   ?BDISPATCH
   \   000003   ......       DC24    initNV

   \                                 In  segment BANK_RELAYS, align 1
   \                     ??initPage?relay:
   \   000000   12....       LCALL   ?BDISPATCH
   \   000003   ......       DC24    initPage

   \                                 In  segment BANK_RELAYS, align 1
   \                     ??erasePage?relay:
   \   000000   12....       LCALL   ?BDISPATCH
   \   000003   ......       DC24    erasePage

   \                                 In  segment BANK_RELAYS, align 1
   \                     ??compactPage?relay:
   \   000000   12....       LCALL   ?BDISPATCH
   \   000003   ......       DC24    compactPage

   \                                 In  segment BANK_RELAYS, align 1
   \                     ??findItem?relay:
   \   000000   12....       LCALL   ?BDISPATCH
   \   000003   ......       DC24    findItem

   \                                 In  segment BANK_RELAYS, align 1
   \                     ??initItem?relay:
   \   000000   12....       LCALL   ?BDISPATCH
   \   000003   ......       DC24    initItem

   \                                 In  segment BANK_RELAYS, align 1
   \                     ??setItem?relay:
   \   000000   12....       LCALL   ?BDISPATCH
   \   000003   ......       DC24    setItem

   \                                 In  segment BANK_RELAYS, align 1
   \                     ??calcChkF?relay:
   \   000000   12....       LCALL   ?BDISPATCH
   \   000003   ......       DC24    calcChkF

   \                                 In  segment BANK_RELAYS, align 1
   \                     ??writeBuf?relay:
   \   000000   12....       LCALL   ?BDISPATCH
   \   000003   ......       DC24    writeBuf

   \                                 In  segment BANK_RELAYS, align 1
   \                     ??xferBuf?relay:
   \   000000   12....       LCALL   ?BDISPATCH
   \   000003   ......       DC24    xferBuf

   \                                 In  segment BANK_RELAYS, align 1
   \                     ??writeItem?relay:
   \   000000   12....       LCALL   ?BDISPATCH
   \   000003   ......       DC24    writeItem

   \                                 In  segment BANK_RELAYS, align 1
   \                     ??osal_nv_init?relay:
   \   000000   12....       LCALL   ?BDISPATCH
   \   000003   ......       DC24    osal_nv_init

   \                                 In  segment BANK_RELAYS, align 1
   \                     ??osal_nv_item_init?relay:
   \   000000   12....       LCALL   ?BDISPATCH
   \   000003   ......       DC24    osal_nv_item_init

   \                                 In  segment BANK_RELAYS, align 1
   \                     ??osal_nv_item_len?relay:
   \   000000   12....       LCALL   ?BDISPATCH
   \   000003   ......       DC24    osal_nv_item_len

   \                                 In  segment BANK_RELAYS, align 1
   \                     ??osal_nv_write?relay:
   \   000000   12....       LCALL   ?BDISPATCH
   \   000003   ......       DC24    osal_nv_write

   \                                 In  segment BANK_RELAYS, align 1
   \                     ??osal_nv_read?relay:
   \   000000   12....       LCALL   ?BDISPATCH
   \   000003   ......       DC24    osal_nv_read

   \                                 In  segment BANK_RELAYS, align 1
   \                     ??osal_nv_delete?relay:
   \   000000   12....       LCALL   ?BDISPATCH
   \   000003   ......       DC24    osal_nv_delete

   \                                 In  segment BANK_RELAYS, align 1
   \                     ??osal_nv_factory_reset?relay:
   \   000000   12....       LCALL   ?BDISPATCH
   \   000003   ......       DC24    osal_nv_factory_reset
   1504          /*********************************************************************
   1505           */

   Maximum stack usage in bytes:

     Function              ISTACK PSTACK XSTACK
     --------              ------ ------ ------
     calcChkF                  0      0     71
       -> HalFlashRead         0      0     44
     compactPage               1      0     81
       -> HalFlashRead         0      0     78
       -> erasePage            0      0     74
       -> HalFlashRead         0      0     78
       -> calcChkF             0      0     74
       -> setItem              0      0     74
       -> writeItem            0      0     80
       -> xferBuf              0      0     82
       -> calcChkF             0      0     74
       -> HalFlashWrite        0      0     78
       -> HalFlashRead         0      0     78
       -> erasePage            0      0     74
       -> HalFlashWrite        0      0     78
       -> erasePage            0      0     74
     erasePage                 0      0     58
       -> HalFlashErase        0      0     18
     findItem                  0      0     61
       -> initPage             0      0     24
     initItem                  1      0     94
       -> HalFlashRead         0      0     84
       -> HalFlashWrite        0      0     84
       -> compactPage          0      0     80
       -> writeItem            0      0     86
       -> HalFlashWrite        0      0     84
       -> erasePage            0      0     80
       -> writeItem            0      0     86
     initNV                    0      0     32
       -> HalFlashRead         0      0     64
       -> HalFlashWrite        0      0     64
       -> erasePage            0      0     60
       -> compactPage          0      0     60
       -> erasePage            0      0     60
       -> erasePage            0      0     60
       -> initPage             0      0     60
       -> initPage             0      0     60
       -> erasePage            0      0     60
     initPage                  0      0     62
       -> HalFlashRead         0      0     64
       -> calcChkF             0      0     60
       -> findItem             0      0     60
       -> setItem              0      0     60
       -> setItem              0      0     60
     osal_nv_delete            0      0     14
       -> findItem             0      0     28
       -> osal_nv_item_len     0      0     28
       -> setItem              0      0     28
       -> findItem             0      0     28
     osal_nv_factory_reset     0      0      9
       -> HalFlashErase        0      0     18
     osal_nv_init              2      0      0
       -> initNV               4      0      0
     osal_nv_item_init         1      0     18
       -> HalAdcCheckVdd       0      0     28
       -> findItem             0      0     28
       -> initItem             0      0     32
     osal_nv_item_len          0      0     34
       -> HalFlashRead         0      0     40
       -> findItem             0      0     36
     osal_nv_read              0      0     20
       -> HalFlashRead         0      0     32
       -> findItem             0      0     28
       -> HalFlashRead         0      0     32
     osal_nv_write             1      0     57
       -> HalAdcCheckVdd       0      0     98
       -> findItem             0      0     98
       -> HalFlashRead         0      0    102
       -> HalFlashRead         0      0    102
       -> initItem             0      0    102
       -> setItem              0      0     98
       -> xferBuf              0      0    106
       -> writeBuf             0      0    102
       -> xferBuf              0      0    106
       -> calcChkF             0      0     98
       -> HalFlashWrite        0      0    102
       -> HalFlashRead         0      0    102
       -> erasePage            0      0     98
       -> HalFlashWrite        0      0    102
       -> erasePage            0      0     98
       -> setItem              0      0     98
     setItem                   0      0     73
       -> HalFlashRead         0      0     48
       -> HalFlashWrite        0      0     48
       -> HalFlashWrite        0      0     48
     writeBuf                  1      0     75
       -> HalFlashRead         0      0     48
       -> HalFlashWrite        0      0     48
       -> HalFlashWrite        0      0     48
       -> HalFlashRead         0      0     48
       -> HalFlashWrite        0      0     48
     writeItem                 1      0     85
       -> HalFlashWrite        0      0     84
       -> HalFlashRead         0      0     84
       -> writeBuf             0      0     84
       -> calcChkF             0      0     80
       -> HalFlashWrite        0      0     84
       -> HalFlashRead         0      0     84
     xferBuf                   0      0     79
       -> HalFlashRead         0      0     52
       -> HalFlashRead         0      0     52
       -> HalFlashWrite        0      0     52
       -> HalFlashRead         0      0     52
       -> HalFlashWrite        0      0     52
       -> HalFlashRead         0      0     52
       -> HalFlashRead         0      0     52
       -> HalFlashWrite        0      0     52


   Segment part sizes:

     Function/Label                Bytes
     --------------                -----
     hotIds                            6
     _nvBuf                        12288
     pgOff                            12
     pgLost                           12
     pgRes                             1
     findPg                            1
     hotPg                             3
     hotOff                            6
     initNV                          361
     ?Subroutine12                     6
     ??Subroutine51_0                  6
     ?Subroutine28                     4
     ?Subroutine43                    10
     ?Subroutine0                      3
     ??Subroutine53_0                  5
     initPage                        441
     ?Subroutine1                      8
     ??Subroutine46_0                 17
     ?Subroutine7                     12
     ?Subroutine30                     9
     ?Subroutine40                     7
     ?Subroutine11                    13
     ??Subroutine50_0                  2
     ?Subroutine25                     4
     ?Subroutine39                     6
     erasePage                        25
     ?Subroutine2                      5
     ?Subroutine32                     1
     compactPage                     831
     ?Subroutine33                     2
     ??Subroutine47_0                  4
     ?Subroutine41                    14
     ?Subroutine21                     8
     ?Subroutine19                     3
     ??Subroutine48_0                  6
     ?Subroutine13                     6
     ?Subroutine26                     9
     ?Subroutine38                     6
     ??Subroutine54_0                  6
     ?Subroutine42                    17
     ?Subroutine16                     8
     findItem                         70
     initItem                        497
     ?Subroutine3                      8
     ?Subroutine18                    16
     ?Subroutine24                     7
     ?Subroutine22                     4
     setItem                         188
     ?Subroutine17                     2
     ??Subroutine49_0                  8
     ?Subroutine8                     12
     ??Subroutine52_0                 11
     calcChkF                        159
     ?Subroutine35                    13
     writeBuf                        393
     ?Subroutine6                     26
     xferBuf                         548
     ?Subroutine36                    13
     ?Subroutine34                    13
     ?Subroutine10                     4
     writeItem                       747
     ?Subroutine4                      8
     ?Subroutine29                     7
     ?Subroutine5                      7
     ?Subroutine14                    10
     osal_nv_init                     14
     osal_nv_item_init               148
     osal_nv_item_len                127
     osal_nv_write                   994
     ?Subroutine37                    11
     ?Subroutine20                    11
     ?Subroutine15                     9
     osal_nv_read                    137
     ?Subroutine23                    10
     osal_nv_delete                   93
     osal_nv_factory_reset            22
     ?Subroutine27                     9
     ??Subroutine44_0                  1
     ??Subroutine45_0                  6
     ?Subroutine9                     12
     ?Subroutine31                     8
     ??initNV?relay                    6
     ??initPage?relay                  6
     ??erasePage?relay                 6
     ??compactPage?relay               6
     ??findItem?relay                  6
     ??initItem?relay                  6
     ??setItem?relay                   6
     ??calcChkF?relay                  6
     ??writeBuf?relay                  6
     ??xferBuf?relay                   6
     ??writeItem?relay                 6
     ??osal_nv_init?relay              6
     ??osal_nv_item_init?relay         6
     ??osal_nv_item_len?relay          6
     ??osal_nv_write?relay             6
     ??osal_nv_read?relay              6
     ??osal_nv_delete?relay            6
     ??osal_nv_factory_reset?relay     6

 
  6 248 bytes in segment BANKED_CODE
    108 bytes in segment BANK_RELAYS
      6 bytes in segment XDATA_ROM_C
     35 bytes in segment XDATA_Z
 12 288 bytes in segment ZIGNV_ADDRESS_SPACE
 
  6 356 bytes of CODE  memory
      6 bytes of CONST memory
 12 323 bytes of XDATA memory

Errors: none
Warnings: none
