###############################################################################
#                                                                             #
# IAR C/C++ Compiler V8.10.1.10194/W32 for 8051         08/Aug/2017  09:57:19 #
# Copyright 2004-2011 IAR Systems AB.                                         #
#                                                                             #
#    Core               =  plain                                              #
#    Code model         =  banked                                             #
#    Data model         =  large                                              #
#    Calling convention =  xdata reentrant                                    #
#    Constant location  =  data_rom                                           #
#    Dptr setup         =  1,16                                               #
#    Source file        =  D:\work space\Smart Product\Two YHY\Door\v1.03.0   #
#                          Green\ZStack-CC2530-2.5.1a\COMPONENTS\osal\common\ #
#                          OSAL_Timers.c                                      #
#    Command line       =  -f "D:\work space\Smart Product\Two                #
#                          YHY\Door\v1.03.0  Green\ZStack-CC2530-2.5.1a\Proje #
#                          cts\zstack\HomeAutomation\SmartDoor\CC2530DB\..\To #
#                          ols\CC2530DB\f8wEndev.cfg" (-DCPU32MHZ             #
#                          -DROOT=__near_func -DMAC_CFG_TX_DATA_MAX=3         #
#                          -DMAC_CFG_TX_MAX=6 -DMAC_CFG_RX_MAX=3              #
#                          -DHAL_KEY=FALSE -DHAL_LED=FALSE -DHAL_LCD=FALSE    #
#                          -DHAL_ADC=FALSE -DNV_RESTORE -DNV_INIT             #
#                          -DPOWER_SAVING -DTC_LINKKEY_JOIN) -f "D:\work      #
#                          space\Smart Product\Two YHY\Door\v1.03.0           #
#                          Green\ZStack-CC2530-2.5.1a\Projects\zstack\HomeAut #
#                          omation\SmartDoor\CC2530DB\..\Tools\CC2530DB\f8wCo #
#                          nfig.cfg" (-DZIGBEEPRO -DSECURE=1                  #
#                          -DZG_SECURE_DYNAMIC=0 -DREFLECTOR                  #
#                          -DDEFAULT_CHANLIST=0x06108800                      #
#                          -DZDAPP_CONFIG_PAN_ID=0xFFFF                       #
#                          -DNWK_START_DELAY=100 -DEXTENDED_JOINING_RANDOM_MA #
#                          SK=0x007F -DBEACON_REQUEST_DELAY=100               #
#                          -DBEACON_REQ_DELAY_MASK=0x00FF                     #
#                          -DLINK_STATUS_JITTER_MASK=0x007F                   #
#                          -DROUTE_EXPIRY_TIME=30 -DAPSC_ACK_WAIT_DURATION_PO #
#                          LLED=3000 -DNWK_INDIRECT_MSG_TIMEOUT=7             #
#                          -DMAX_RREQ_ENTRIES=8 -DAPSC_MAX_FRAME_RETRIES=3    #
#                          -DNWK_MAX_DATA_RETRIES=2                           #
#                          -DMAX_POLL_FAILURE_RETRIES=2 -DMAX_BCAST=9         #
#                          -DAPS_MAX_GROUPS=16 -DMAX_RTG_ENTRIES=40           #
#                          -DNWK_MAX_BINDING_ENTRIES=4                        #
#                          -DMAX_BINDING_CLUSTER_IDS=4                        #
#                          -DDEFAULT_KEY={0x58,0x69,0x6E,0x67,0x48,0x75,0x6F, #
#                          0x59,0x75,0x61,0x6E,0x53,0x6D,0x61,0x72,0x74}      #
#                          -DMAC_MAX_FRAME_SIZE=116                           #
#                          -DZDNWKMGR_MIN_TRANSMISSIONS=20 "-DCONST=const     #
#                          __code" -DGENERIC=__generic                        #
#                          -DRFD_RCVC_ALWAYS_ON=FALSE -DPOLL_RATE=0           #
#                          -DQUEUED_POLL_RATE=0 -DRESPONSE_POLL_RATE=0        #
#                          -DREJOIN_POLL_RATE=440) -f "D:\work space\Smart    #
#                          Product\Two YHY\Door\v1.03.0                       #
#                          Green\ZStack-CC2530-2.5.1a\Projects\zstack\HomeAut #
#                          omation\SmartDoor\CC2530DB\..\Tools\CC2530DB\f8wZC #
#                          L.cfg" (-DZCL_READ -DZCL_WRITE -DZCL_REPORT        #
#                          -DZCL_BASIC -DZCL_IDENTIFY -DZCL_ON_OFF            #
#                          -DZCL_KEY_ESTABLISH -DZCL_KEY_ESTABLISHMENT_KEY_GE #
#                          NERATE_TIMEOUT=4 -DZCL_KEY_ESTABLISHMENT_MAC_GENER #
#                          ATE_TIMEOUT=10 -DZCL_KEY_ESTABLISHMENT_EKEY_GENERA #
#                          TE_TIMEOUT=10 -DZCL_LOAD_CONTROL                   #
#                          -DZCL_SIMPLE_METERING -DZCL_PRICING -DZCL_MESSAGE  #
#                          -DZCL_TUNNELING -DZCL_TOU) -DZCL_DEVICE_MGMT       #
#                          "D:\work space\Smart Product\Two YHY\Door\v1.03.0  #
#                           Green\ZStack-CC2530-2.5.1a\COMPONENTS\osal\common #
#                          \OSAL_Timers.c" -lC "D:\work space\Smart           #
#                          Product\Two YHY\Door\v1.03.0                       #
#                          Green\ZStack-CC2530-2.5.1a\Projects\zstack\HomeAut #
#                          omation\SmartDoor\CC2530DB\EndDeviceEB\List\" -lA  #
#                          "D:\work space\Smart Product\Two YHY\Door\v1.03.0  #
#                           Green\ZStack-CC2530-2.5.1a\Projects\zstack\HomeAu #
#                          tomation\SmartDoor\CC2530DB\EndDeviceEB\List\"     #
#                          --diag_suppress Pe001,Pa010 -o "D:\work            #
#                          space\Smart Product\Two YHY\Door\v1.03.0           #
#                          Green\ZStack-CC2530-2.5.1a\Projects\zstack\HomeAut #
#                          omation\SmartDoor\CC2530DB\EndDeviceEB\Obj\" -e    #
#                          --debug --core=plain --dptr=16,1                   #
#                          --data_model=large --code_model=banked             #
#                          --calling_convention=xdata_reentrant               #
#                          --place_constants=data_rom --nr_virtual_regs 16    #
#                          -I "D:\work space\Smart Product\Two                #
#                          YHY\Door\v1.03.0  Green\ZStack-CC2530-2.5.1a\Proje #
#                          cts\zstack\HomeAutomation\SmartDoor\CC2530DB\" -I  #
#                          "D:\work space\Smart Product\Two YHY\Door\v1.03.0  #
#                           Green\ZStack-CC2530-2.5.1a\Projects\zstack\HomeAu #
#                          tomation\SmartDoor\CC2530DB\..\Source\" -I         #
#                          "D:\work space\Smart Product\Two YHY\Door\v1.03.0  #
#                           Green\ZStack-CC2530-2.5.1a\Projects\zstack\HomeAu #
#                          tomation\SmartDoor\CC2530DB\..\..\Source\" -I      #
#                          "D:\work space\Smart Product\Two YHY\Door\v1.03.0  #
#                           Green\ZStack-CC2530-2.5.1a\Projects\zstack\HomeAu #
#                          tomation\SmartDoor\CC2530DB\..\..\..\ZMain\TI2530D #
#                          B\" -I "D:\work space\Smart Product\Two            #
#                          YHY\Door\v1.03.0  Green\ZStack-CC2530-2.5.1a\Proje #
#                          cts\zstack\HomeAutomation\SmartDoor\CC2530DB\..\.. #
#                          \..\..\..\Components\hal\include\" -I "D:\work     #
#                          space\Smart Product\Two YHY\Door\v1.03.0           #
#                          Green\ZStack-CC2530-2.5.1a\Projects\zstack\HomeAut #
#                          omation\SmartDoor\CC2530DB\..\..\..\..\..\Componen #
#                          ts\hal\target\CC2530EB\" -I "D:\work space\Smart   #
#                          Product\Two YHY\Door\v1.03.0                       #
#                          Green\ZStack-CC2530-2.5.1a\Projects\zstack\HomeAut #
#                          omation\SmartDoor\CC2530DB\..\..\..\..\..\Componen #
#                          ts\mac\include\" -I "D:\work space\Smart           #
#                          Product\Two YHY\Door\v1.03.0                       #
#                          Green\ZStack-CC2530-2.5.1a\Projects\zstack\HomeAut #
#                          omation\SmartDoor\CC2530DB\..\..\..\..\..\Componen #
#                          ts\mac\high_level\" -I "D:\work space\Smart        #
#                          Product\Two YHY\Door\v1.03.0                       #
#                          Green\ZStack-CC2530-2.5.1a\Projects\zstack\HomeAut #
#                          omation\SmartDoor\CC2530DB\..\..\..\..\..\Componen #
#                          ts\mac\low_level\srf04\" -I "D:\work space\Smart   #
#                          Product\Two YHY\Door\v1.03.0                       #
#                          Green\ZStack-CC2530-2.5.1a\Projects\zstack\HomeAut #
#                          omation\SmartDoor\CC2530DB\..\..\..\..\..\Componen #
#                          ts\mac\low_level\srf04\single_chip\" -I "D:\work   #
#                          space\Smart Product\Two YHY\Door\v1.03.0           #
#                          Green\ZStack-CC2530-2.5.1a\Projects\zstack\HomeAut #
#                          omation\SmartDoor\CC2530DB\..\..\..\..\..\Componen #
#                          ts\mt\" -I "D:\work space\Smart Product\Two        #
#                          YHY\Door\v1.03.0  Green\ZStack-CC2530-2.5.1a\Proje #
#                          cts\zstack\HomeAutomation\SmartDoor\CC2530DB\..\.. #
#                          \..\..\..\Components\osal\include\" -I "D:\work    #
#                          space\Smart Product\Two YHY\Door\v1.03.0           #
#                          Green\ZStack-CC2530-2.5.1a\Projects\zstack\HomeAut #
#                          omation\SmartDoor\CC2530DB\..\..\..\..\..\Componen #
#                          ts\services\saddr\" -I "D:\work space\Smart        #
#                          Product\Two YHY\Door\v1.03.0                       #
#                          Green\ZStack-CC2530-2.5.1a\Projects\zstack\HomeAut #
#                          omation\SmartDoor\CC2530DB\..\..\..\..\..\Componen #
#                          ts\services\sdata\" -I "D:\work space\Smart        #
#                          Product\Two YHY\Door\v1.03.0                       #
#                          Green\ZStack-CC2530-2.5.1a\Projects\zstack\HomeAut #
#                          omation\SmartDoor\CC2530DB\..\..\..\..\..\Componen #
#                          ts\stack\af\" -I "D:\work space\Smart Product\Two  #
#                          YHY\Door\v1.03.0  Green\ZStack-CC2530-2.5.1a\Proje #
#                          cts\zstack\HomeAutomation\SmartDoor\CC2530DB\..\.. #
#                          \..\..\..\Components\stack\nwk\" -I "D:\work       #
#                          space\Smart Product\Two YHY\Door\v1.03.0           #
#                          Green\ZStack-CC2530-2.5.1a\Projects\zstack\HomeAut #
#                          omation\SmartDoor\CC2530DB\..\..\..\..\..\Componen #
#                          ts\stack\sapi\" -I "D:\work space\Smart            #
#                          Product\Two YHY\Door\v1.03.0                       #
#                          Green\ZStack-CC2530-2.5.1a\Projects\zstack\HomeAut #
#                          omation\SmartDoor\CC2530DB\..\..\..\..\..\Componen #
#                          ts\stack\sec\" -I "D:\work space\Smart             #
#                          Product\Two YHY\Door\v1.03.0                       #
#                          Green\ZStack-CC2530-2.5.1a\Projects\zstack\HomeAut #
#                          omation\SmartDoor\CC2530DB\..\..\..\..\..\Componen #
#                          ts\stack\sys\" -I "D:\work space\Smart             #
#                          Product\Two YHY\Door\v1.03.0                       #
#                          Green\ZStack-CC2530-2.5.1a\Projects\zstack\HomeAut #
#                          omation\SmartDoor\CC2530DB\..\..\..\..\..\Componen #
#                          ts\stack\zcl\" -I "D:\work space\Smart             #
#                          Product\Two YHY\Door\v1.03.0                       #
#                          Green\ZStack-CC2530-2.5.1a\Projects\zstack\HomeAut #
#                          omation\SmartDoor\CC2530DB\..\..\..\..\..\Componen #
#                          ts\stack\zdo\" -I "D:\work space\Smart             #
#                          Product\Two YHY\Door\v1.03.0                       #
#                          Green\ZStack-CC2530-2.5.1a\Projects\zstack\HomeAut #
#                          omation\SmartDoor\CC2530DB\..\..\..\..\..\Componen #
#                          ts\zmac\" -I "D:\work space\Smart Product\Two      #
#                          YHY\Door\v1.03.0  Green\ZStack-CC2530-2.5.1a\Proje #
#                          cts\zstack\HomeAutomation\SmartDoor\CC2530DB\..\.. #
#                          \..\..\..\Components\zmac\f8w\" -Oh                #
#                          --require_prototypes                               #
#    List file          =  D:\work space\Smart Product\Two YHY\Door\v1.03.0   #
#                          Green\ZStack-CC2530-2.5.1a\Projects\zstack\HomeAut #
#                          omation\SmartDoor\CC2530DB\EndDeviceEB\List\OSAL_T #
#                          imers.lst                                          #
#    Object file        =  D:\work space\Smart Product\Two YHY\Door\v1.03.0   #
#                          Green\ZStack-CC2530-2.5.1a\Projects\zstack\HomeAut #
#                          omation\SmartDoor\CC2530DB\EndDeviceEB\Obj\OSAL_Ti #
#                          mers.r51                                           #
#                                                                             #
#                                                                             #
###############################################################################

D:\work space\Smart Product\Two YHY\Door\v1.03.0  Green\ZStack-CC2530-2.5.1a\COMPONENTS\osal\common\OSAL_Timers.c
      1          /**************************************************************************************************
      2            Filename:       OSAL_Timers.c
      3            Revised:        $Date: 2010-09-17 16:25:30 -0700 (Fri, 17 Sep 2010) $
      4            Revision:       $Revision: 23835 $
      5          
      6            Description:    OSAL Timer definition and manipulation functions.
      7          
      8          
      9            Copyright 2004-2009 Texas Instruments Incorporated. All rights reserved.
     10          
     11            IMPORTANT: Your use of this Software is limited to those specific rights
     12            granted under the terms of a software license agreement between the user
     13            who downloaded the software, his/her employer (which must be your employer)
     14            and Texas Instruments Incorporated (the "License").  You may not use this
     15            Software unless you agree to abide by the terms of the License. The License
     16            limits your use, and you acknowledge, that the Software may not be modified,
     17            copied or distributed unless embedded on a Texas Instruments microcontroller
     18            or used solely and exclusively in conjunction with a Texas Instruments radio
     19            frequency transceiver, which is integrated into your product.  Other than for
     20            the foregoing purpose, you may not use, reproduce, copy, prepare derivative
     21            works of, modify, distribute, perform, display or sell this Software and/or
     22            its documentation for any purpose.
     23          
     24            YOU FURTHER ACKNOWLEDGE AND AGREE THAT THE SOFTWARE AND DOCUMENTATION ARE
     25            PROVIDED “AS IS” WITHOUT WARRANTY OF ANY KIND, EITHER EXPRESS OR IMPLIED,
     26            INCLUDING WITHOUT LIMITATION, ANY WARRANTY OF MERCHANTABILITY, TITLE,
     27            NON-INFRINGEMENT AND FITNESS FOR A PARTICULAR PURPOSE. IN NO EVENT SHALL
     28            TEXAS INSTRUMENTS OR ITS LICENSORS BE LIABLE OR OBLIGATED UNDER CONTRACT,
     29            NEGLIGENCE, STRICT LIABILITY, CONTRIBUTION, BREACH OF WARRANTY, OR OTHER
     30            LEGAL EQUITABLE THEORY ANY DIRECT OR INDIRECT DAMAGES OR EXPENSES
     31            INCLUDING BUT NOT LIMITED TO ANY INCIDENTAL, SPECIAL, INDIRECT, PUNITIVE
     32            OR CONSEQUENTIAL DAMAGES, LOST PROFITS OR LOST DATA, COST OF PROCUREMENT
     33            OF SUBSTITUTE GOODS, TECHNOLOGY, SERVICES, OR ANY CLAIMS BY THIRD PARTIES
     34            (INCLUDING BUT NOT LIMITED TO ANY DEFENSE THEREOF), OR OTHER SIMILAR COSTS.
     35          
     36            Should you have any questions regarding your right to use this Software,
     37            contact Texas Instruments Incorporated at www.TI.com.
     38          **************************************************************************************************/
     39          
     40          /*********************************************************************
     41           * INCLUDES
     42           */
     43          
     44          #include "comdef.h"
     45          #include "OnBoard.h"

   \                                 In  segment SFR_AN, at 0xa8
   \   union <unnamed> volatile __sfr _A_IEN0
   \                     _A_IEN0:
   \   000000                DS 1
     46          #include "OSAL.h"
     47          #include "OSAL_Timers.h"
     48          #include "hal_timer.h"
     49          
     50          /*********************************************************************
     51           * MACROS
     52           */
     53          
     54          /*********************************************************************
     55           * CONSTANTS
     56           */
     57          
     58          /*********************************************************************
     59           * TYPEDEFS
     60           */
     61          
     62          typedef struct
     63          {
     64            void   *next;
     65            uint16 timeout;
     66            uint16 event_flag;
     67            uint8  task_id;
     68            uint16 reloadTimeout;
     69          } osalTimerRec_t;
     70          
     71          /*********************************************************************
     72           * GLOBAL VARIABLES
     73           */
     74          

   \                                 In  segment XDATA_Z, align 1, keep-with-next
     75          osalTimerRec_t *timerHead;
   \                     timerHead:
   \   000000                DS 2
   \   000002                REQUIRE __INIT_XDATA_Z
     76          
     77          /*********************************************************************
     78           * EXTERNAL VARIABLES
     79           */
     80          
     81          /*********************************************************************
     82           * EXTERNAL FUNCTIONS
     83           */
     84          
     85          /*********************************************************************
     86           * LOCAL VARIABLES
     87           */
     88          // Milliseconds since last reboot

   \                                 In  segment XDATA_Z, align 1, keep-with-next
     89          static uint32 osal_systemClock;
   \                     osal_systemClock:
   \   000000                DS 4
   \   000004                REQUIRE __INIT_XDATA_Z
     90          
     91          /*********************************************************************
     92           * LOCAL FUNCTION PROTOTYPES
     93           */
     94          osalTimerRec_t  *osalAddTimer( uint8 task_id, uint16 event_flag, uint16 timeout );
     95          osalTimerRec_t *osalFindTimer( uint8 task_id, uint16 event_flag );
     96          void osalDeleteTimer( osalTimerRec_t *rmTimer );
     97          
     98          /*********************************************************************
     99           * FUNCTIONS
    100           *********************************************************************/
    101          
    102          /*********************************************************************
    103           * @fn      osalTimerInit
    104           *
    105           * @brief   Initialization for the OSAL Timer System.
    106           *
    107           * @param   none
    108           *
    109           * @return
    110           */

   \                                 In  segment BANKED_CODE, align 1, keep-with-next
    111          void osalTimerInit( void )
   \                     osalTimerInit:
    112          {
   \   000000   C082         PUSH    DPL
   \   000002   C083         PUSH    DPH
   \   000004                ; Saved register size: 2
   \   000004                ; Auto size: 0
    113            osal_systemClock = 0;
   \   000004   90....       MOV     DPTR,#__Constant_0
   \   000007   12....       LCALL   ?XLOAD_R2345
   \   00000A   90....       MOV     DPTR,#osal_systemClock
   \   00000D   12....       LCALL   ?XSTORE_R2345
    114          }
   \   000010   02....       LJMP    ?Subroutine0 & 0xFFFF

   \                                 In  segment BANKED_CODE, align 1, keep-with-next
   \                     ?Subroutine0:
   \   000000   D083         POP     DPH
   \   000002   D082         POP     DPL
   \   000004   02....       LJMP    ?BRET
    115          
    116          /*********************************************************************
    117           * @fn      osalAddTimer
    118           *
    119           * @brief   Add a timer to the timer list.
    120           *          Ints must be disabled.
    121           *
    122           * @param   task_id
    123           * @param   event_flag
    124           * @param   timeout
    125           *
    126           * @return  osalTimerRec_t * - pointer to newly created timer
    127           */

   \                                 In  segment BANKED_CODE, align 1, keep-with-next
    128          osalTimerRec_t * osalAddTimer( uint8 task_id, uint16 event_flag, uint16 timeout )
   \                     osalAddTimer:
    129          {
   \   000000   74F2         MOV     A,#-0xe
   \   000002   12....       LCALL   ?BANKED_ENTER_XDATA
   \   000005                ; Saved register size: 14
   \   000005                ; Auto size: 0
   \   000005   89..         MOV     ?V0 + 0,R1
   \   000007   EA           MOV     A,R2
   \   000008   FE           MOV     R6,A
   \   000009   EB           MOV     A,R3
   \   00000A   FF           MOV     R7,A
   \   00000B   8C..         MOV     ?V0 + 2,R4
   \   00000D   8D..         MOV     ?V0 + 3,R5
    130            osalTimerRec_t *newTimer;
    131            osalTimerRec_t *srchTimer;
    132          
    133            // Look for an existing timer first
    134            newTimer = osalFindTimer( task_id, event_flag );
   \   00000F                ; Setup parameters for call to function osalFindTimer
   \   00000F   12....       LCALL   ??osalFindTimer?relay
    135            if ( newTimer )
   \   000012   EA           MOV     A,R2
   \   000013   4B           ORL     A,R3
   \   000014   600F         JZ      ??osalAddTimer_0
    136            {
    137              // Timer is found - update it.
    138              newTimer->timeout = timeout;
   \   000016   8A82         MOV     DPL,R2
   \   000018   8B83         MOV     DPH,R3
   \   00001A   A3           INC     DPTR
   \   00001B   A3           INC     DPTR
   \   00001C   E5..         MOV     A,?V0 + 2
   \   00001E   F0           MOVX    @DPTR,A
   \   00001F   A3           INC     DPTR
   \   000020   E5..         MOV     A,?V0 + 3
   \                     ??osalAddTimer_1:
   \   000022   F0           MOVX    @DPTR,A
    139          
    140              return ( newTimer );
   \   000023   8067         SJMP    ??osalAddTimer_2
    141            }
    142            else
    143            {
    144              // New Timer
    145              newTimer = osal_mem_alloc( sizeof( osalTimerRec_t ) );
   \                     ??osalAddTimer_0:
   \   000025                ; Setup parameters for call to function osal_mem_alloc
   \   000025   7A09         MOV     R2,#0x9
   \   000027   7B00         MOV     R3,#0x0
   \   000029   12....       LCALL   ??osal_mem_alloc?relay
    146          
    147              if ( newTimer )
   \   00002C   EA           MOV     A,R2
   \   00002D   4B           ORL     A,R3
   \   00002E   6058         JZ      ??osalAddTimer_3
    148              {
    149                // Fill in new timer
    150                newTimer->task_id = task_id;
   \   000030   8A82         MOV     DPL,R2
   \   000032   8B83         MOV     DPH,R3
   \   000034   A3           INC     DPTR
   \   000035   A3           INC     DPTR
   \   000036   A3           INC     DPTR
   \   000037   A3           INC     DPTR
   \   000038   A3           INC     DPTR
   \   000039   A3           INC     DPTR
   \   00003A   E5..         MOV     A,?V0 + 0
   \   00003C   12....       LCALL   ?Subroutine5 & 0xFFFF
    151                newTimer->event_flag = event_flag;
   \                     ??CrossCallReturnLabel_2:
   \   00003F   EE           MOV     A,R6
   \   000040   F0           MOVX    @DPTR,A
   \   000041   A3           INC     DPTR
   \   000042   EF           MOV     A,R7
   \   000043   F0           MOVX    @DPTR,A
    152                newTimer->timeout = timeout;
   \   000044   8A82         MOV     DPL,R2
   \   000046   8B83         MOV     DPH,R3
   \   000048   A3           INC     DPTR
   \   000049   A3           INC     DPTR
   \   00004A   E5..         MOV     A,?V0 + 2
   \   00004C   F0           MOVX    @DPTR,A
   \   00004D   A3           INC     DPTR
   \   00004E   E5..         MOV     A,?V0 + 3
   \   000050   F0           MOVX    @DPTR,A
    153                newTimer->next = (void *)NULL;
   \   000051   8A82         MOV     DPL,R2
   \   000053   8B83         MOV     DPH,R3
   \   000055   E4           CLR     A
   \   000056   F0           MOVX    @DPTR,A
   \   000057   A3           INC     DPTR
   \   000058   12....       LCALL   ?Subroutine5 & 0xFFFF
    154                newTimer->reloadTimeout = 0;
   \                     ??CrossCallReturnLabel_3:
   \   00005B   A3           INC     DPTR
   \   00005C   A3           INC     DPTR
   \   00005D   A3           INC     DPTR
   \   00005E   F0           MOVX    @DPTR,A
   \   00005F   A3           INC     DPTR
   \   000060   F0           MOVX    @DPTR,A
    155          
    156                // Does the timer list already exist
    157                if ( timerHead == NULL )
   \   000061   12....       LCALL   ?Subroutine3 & 0xFFFF
   \                     ??CrossCallReturnLabel_11:
   \   000064   90....       MOV     DPTR,#timerHead
   \   000067   7006         JNZ     ??osalAddTimer_4
    158                {
    159                  // Start task list
    160                  timerHead = newTimer;
   \                     ??osalAddTimer_5:
   \   000069   EA           MOV     A,R2
   \   00006A   F0           MOVX    @DPTR,A
   \   00006B   A3           INC     DPTR
   \   00006C   EB           MOV     A,R3
   \   00006D   80B3         SJMP    ??osalAddTimer_1
    161                }
    162                else
    163                {
    164                  // Add it to the end of the timer list
    165                  srchTimer = timerHead;
   \                     ??osalAddTimer_4:
   \   00006F   E0           MOVX    A,@DPTR
   \   000070   FC           MOV     R4,A
   \   000071   A3           INC     DPTR
   \   000072   E0           MOVX    A,@DPTR
   \   000073   8003         SJMP    ??osalAddTimer_6
    166          
    167                  // Stop at the last record
    168                  while ( srchTimer->next )
    169                    srchTimer = srchTimer->next;
   \                     ??osalAddTimer_7:
   \   000075   E8           MOV     A,R0
   \   000076   FC           MOV     R4,A
   \   000077   E9           MOV     A,R1
   \                     ??osalAddTimer_6:
   \   000078   FD           MOV     R5,A
   \   000079   8C82         MOV     DPL,R4
   \   00007B   8D83         MOV     DPH,R5
   \   00007D   12....       LCALL   ??Subroutine7_0 & 0xFFFF
   \                     ??CrossCallReturnLabel_4:
   \   000080   70F3         JNZ     ??osalAddTimer_7
    170          
    171                  // Add to the list
    172                  srchTimer->next = newTimer;
   \   000082   8C82         MOV     DPL,R4
   \   000084   8D83         MOV     DPH,R5
   \   000086   80E1         SJMP    ??osalAddTimer_5
    173                }
    174          
    175                return ( newTimer );
    176              }
    177              else
    178                return ( (osalTimerRec_t *)NULL );
   \                     ??osalAddTimer_3:
   \   000088   7A00         MOV     R2,#0x0
   \   00008A   7B00         MOV     R3,#0x0
   \                     ??osalAddTimer_2:
   \   00008C   7F06         MOV     R7,#0x6
   \   00008E   02....       LJMP    ?BANKED_LEAVE_XDATA
    179            }
    180          }

   \                                 In  segment BANKED_CODE, align 1, keep-with-next
   \                     ?Subroutine5:
   \   000000   F0           MOVX    @DPTR,A
   \   000001   8A82         MOV     DPL,R2
   \   000003   8B83         MOV     DPH,R3
   \   000005   A3           INC     DPTR
   \   000006   A3           INC     DPTR
   \   000007   A3           INC     DPTR
   \   000008   A3           INC     DPTR
   \   000009   22           RET

   \                                 In  segment BANKED_CODE, align 1, keep-with-next
   \                     ?Subroutine3:
   \   000000   90....       MOV     DPTR,#timerHead
   \   000003                REQUIRE ??Subroutine7_0
   \   000003                ; // Fall through to label ??Subroutine7_0

   \                                 In  segment BANKED_CODE, align 1, keep-with-next
   \                     ??Subroutine7_0:
   \   000000   12....       LCALL   ?Subroutine6 & 0xFFFF
   \                     ??CrossCallReturnLabel_18:
   \   000003   E8           MOV     A,R0
   \   000004   49           ORL     A,R1
   \   000005   22           RET

   \                                 In  segment BANKED_CODE, align 1, keep-with-next
   \                     ?Subroutine6:
   \   000000   E0           MOVX    A,@DPTR
   \   000001   F8           MOV     R0,A
   \   000002   A3           INC     DPTR
   \   000003   E0           MOVX    A,@DPTR
   \   000004   F9           MOV     R1,A
   \   000005   22           RET
    181          
    182          /*********************************************************************
    183           * @fn      osalFindTimer
    184           *
    185           * @brief   Find a timer in a timer list.
    186           *          Ints must be disabled.
    187           *
    188           * @param   task_id
    189           * @param   event_flag
    190           *
    191           * @return  osalTimerRec_t *
    192           */

   \                                 In  segment BANKED_CODE, align 1, keep-with-next
    193          osalTimerRec_t *osalFindTimer( uint8 task_id, uint16 event_flag )
   \                     osalFindTimer:
    194          {
   \   000000   C082         PUSH    DPL
   \   000002   C083         PUSH    DPH
   \   000004                ; Saved register size: 2
   \   000004                ; Auto size: 0
    195            osalTimerRec_t *srchTimer;
    196          
    197            // Head of the timer list
    198            srchTimer = timerHead;
   \   000004   90....       MOV     DPTR,#timerHead
   \   000007   8004         SJMP    ??osalFindTimer_0
    199          
    200            // Stop when found or at the end
    201            while ( srchTimer )
    202            {
    203              if ( srchTimer->event_flag == event_flag &&
    204                   srchTimer->task_id == task_id )
    205                break;
    206          
    207              // Not this one, check another
    208              srchTimer = srchTimer->next;
   \                     ??osalFindTimer_1:
   \   000009   8C82         MOV     DPL,R4
   \   00000B   8D83         MOV     DPH,R5
   \                     ??osalFindTimer_0:
   \   00000D   E0           MOVX    A,@DPTR
   \   00000E   FC           MOV     R4,A
   \   00000F   A3           INC     DPTR
   \   000010   E0           MOVX    A,@DPTR
   \   000011   FD           MOV     R5,A
   \   000012   EC           MOV     A,R4
   \   000013   4D           ORL     A,R5
   \   000014   601F         JZ      ??osalFindTimer_2
   \   000016   8C82         MOV     DPL,R4
   \   000018   8D83         MOV     DPH,R5
   \   00001A   A3           INC     DPTR
   \   00001B   A3           INC     DPTR
   \   00001C   A3           INC     DPTR
   \   00001D   A3           INC     DPTR
   \   00001E   E0           MOVX    A,@DPTR
   \   00001F   6A           XRL     A,R2
   \   000020   7003         JNZ     ??osalFindTimer_3
   \   000022   A3           INC     DPTR
   \   000023   E0           MOVX    A,@DPTR
   \   000024   6B           XRL     A,R3
   \                     ??osalFindTimer_3:
   \   000025   70E2         JNZ     ??osalFindTimer_1
   \   000027   8C82         MOV     DPL,R4
   \   000029   8D83         MOV     DPH,R5
   \   00002B   A3           INC     DPTR
   \   00002C   A3           INC     DPTR
   \   00002D   A3           INC     DPTR
   \   00002E   A3           INC     DPTR
   \   00002F   A3           INC     DPTR
   \   000030   A3           INC     DPTR
   \   000031   E0           MOVX    A,@DPTR
   \   000032   69           XRL     A,R1
   \   000033   70D4         JNZ     ??osalFindTimer_1
    209            }
    210          
    211            return ( srchTimer );
   \                     ??osalFindTimer_2:
   \   000035   EC           MOV     A,R4
   \   000036   FA           MOV     R2,A
   \   000037   ED           MOV     A,R5
   \   000038   FB           MOV     R3,A
   \   000039   02....       LJMP    ?Subroutine0 & 0xFFFF
    212          }
    213          
    214          /*********************************************************************
    215           * @fn      osalDeleteTimer
    216           *
    217           * @brief   Delete a timer from a timer list.
    218           *
    219           * @param   table
    220           * @param   rmTimer
    221           *
    222           * @return  none
    223           */

   \                                 In  segment BANKED_CODE, align 1, keep-with-next
    224          void osalDeleteTimer( osalTimerRec_t *rmTimer )
   \                     osalDeleteTimer:
    225          {
   \   000000   C082         PUSH    DPL
   \   000002   C083         PUSH    DPH
   \   000004                ; Saved register size: 2
   \   000004                ; Auto size: 0
    226            // Does the timer list really exist
    227            if ( rmTimer )
   \   000004   EA           MOV     A,R2
   \   000005   4B           ORL     A,R3
   \   000006   600C         JZ      ??osalDeleteTimer_0
    228            {
    229              // Clear the event flag and osalTimerUpdate() will delete 
    230              // the timer from the list.
    231              rmTimer->event_flag = 0;
   \   000008   8A82         MOV     DPL,R2
   \   00000A   8B83         MOV     DPH,R3
   \   00000C   A3           INC     DPTR
   \   00000D   A3           INC     DPTR
   \   00000E   A3           INC     DPTR
   \   00000F   A3           INC     DPTR
   \   000010   E4           CLR     A
   \   000011   F0           MOVX    @DPTR,A
   \   000012   A3           INC     DPTR
   \   000013   F0           MOVX    @DPTR,A
    232            }
    233          }
   \                     ??osalDeleteTimer_0:
   \   000014   02....       LJMP    ?Subroutine0 & 0xFFFF
    234          
    235          /*********************************************************************
    236           * @fn      osal_start_timerEx
    237           *
    238           * @brief
    239           *
    240           *   This function is called to start a timer to expire in n mSecs.
    241           *   When the timer expires, the calling task will get the specified event.
    242           *
    243           * @param   uint8 taskID - task id to set timer for
    244           * @param   uint16 event_id - event to be notified with
    245           * @param   UNINT16 timeout_value - in milliseconds.
    246           *
    247           * @return  SUCCESS, or NO_TIMER_AVAIL.
    248           */

   \                                 In  segment BANKED_CODE, align 1, keep-with-next
    249          uint8 osal_start_timerEx( uint8 taskID, uint16 event_id, uint16 timeout_value )
   \                     osal_start_timerEx:
    250          {
   \   000000   74F6         MOV     A,#-0xa
   \   000002   12....       LCALL   ?BANKED_ENTER_XDATA
   \   000005                ; Saved register size: 10
   \   000005                ; Auto size: 0
    251            halIntState_t intState;
    252            osalTimerRec_t *newTimer;
    253          
    254            HAL_ENTER_CRITICAL_SECTION( intState );  // Hold off interrupts.
   \   000005   E5A8         MOV     A,0xa8
   \   000007   FF           MOV     R7,A
   \   000008   C2AF         CLR     0xa8.7
    255          
    256            // Add timer
    257            newTimer = osalAddTimer( taskID, event_id, timeout_value );
   \   00000A                ; Setup parameters for call to function osalAddTimer
   \   00000A   12....       LCALL   ??osalAddTimer?relay
   \   00000D   8B..         MOV     ?V0 + 1,R3
   \   00000F   A9..         MOV     R1,?V0 + 1
    258          
    259            HAL_EXIT_CRITICAL_SECTION( intState );   // Re-enable interrupts.
   \   000011   EF           MOV     A,R7
   \   000012   A2E7         MOV     C,0xE0 /* A   */.7
   \   000014   92AF         MOV     0xa8.7,C
    260          
    261            return ( (newTimer != NULL) ? SUCCESS : NO_TIMER_AVAIL );
   \   000016   EA           MOV     A,R2
   \   000017   49           ORL     A,R1
   \   000018   6004         JZ      ??osal_start_timerEx_0
   \   00001A   7900         MOV     R1,#0x0
   \   00001C   8002         SJMP    ??osal_start_timerEx_1
   \                     ??osal_start_timerEx_0:
   \   00001E   7908         MOV     R1,#0x8
   \                     ??osal_start_timerEx_1:
   \   000020                REQUIRE ?Subroutine1
   \   000020                REQUIRE _A_IEN0
   \   000020                ; // Fall through to label ?Subroutine1
    262          }

   \                                 In  segment BANKED_CODE, align 1, keep-with-next
   \                     ?Subroutine1:
   \   000000   7F02         MOV     R7,#0x2
   \   000002   02....       LJMP    ?BANKED_LEAVE_XDATA
    263          
    264          /*********************************************************************
    265           * @fn      osal_start_reload_timer
    266           *
    267           * @brief
    268           *
    269           *   This function is called to start a timer to expire in n mSecs.
    270           *   When the timer expires, the calling task will get the specified event
    271           *   and the timer will be reloaded with the timeout value.
    272           *
    273           * @param   uint8 taskID - task id to set timer for
    274           * @param   uint16 event_id - event to be notified with
    275           * @param   UNINT16 timeout_value - in milliseconds.
    276           *
    277           * @return  SUCCESS, or NO_TIMER_AVAIL.
    278           */

   \                                 In  segment BANKED_CODE, align 1, keep-with-next
    279          uint8 osal_start_reload_timer( uint8 taskID, uint16 event_id, uint16 timeout_value )
   \                     osal_start_reload_timer:
    280          {
   \   000000   74F4         MOV     A,#-0xc
   \   000002   12....       LCALL   ?BANKED_ENTER_XDATA
   \   000005                ; Saved register size: 12
   \   000005                ; Auto size: 0
   \   000005   EC           MOV     A,R4
   \   000006   FE           MOV     R6,A
   \   000007   ED           MOV     A,R5
   \   000008   FF           MOV     R7,A
    281            halIntState_t intState;
    282            osalTimerRec_t *newTimer;
    283          
    284            HAL_ENTER_CRITICAL_SECTION( intState );  // Hold off interrupts.
   \   000009   A2AF         MOV     C,0xa8.7
   \   00000B   E4           CLR     A
   \   00000C   33           RLC     A
   \   00000D   F5..         MOV     ?V0 + 1,A
   \   00000F   C2AF         CLR     0xa8.7
    285          
    286            // Add timer
    287            newTimer = osalAddTimer( taskID, event_id, timeout_value );
   \   000011                ; Setup parameters for call to function osalAddTimer
   \   000011   12....       LCALL   ??osalAddTimer?relay
   \   000014   8A..         MOV     ?V0 + 2,R2
   \   000016   8B..         MOV     ?V0 + 3,R3
   \   000018   A8..         MOV     R0,?V0 + 2
   \   00001A   A9..         MOV     R1,?V0 + 3
    288            if ( newTimer )
   \   00001C   E8           MOV     A,R0
   \   00001D   49           ORL     A,R1
   \   00001E   6010         JZ      ??osal_start_reload_timer_0
    289            {
    290              // Load the reload timeout value
    291              newTimer->reloadTimeout = timeout_value;
   \   000020   8882         MOV     DPL,R0
   \   000022   8983         MOV     DPH,R1
   \   000024   A3           INC     DPTR
   \   000025   A3           INC     DPTR
   \   000026   A3           INC     DPTR
   \   000027   A3           INC     DPTR
   \   000028   A3           INC     DPTR
   \   000029   A3           INC     DPTR
   \   00002A   A3           INC     DPTR
   \   00002B   EE           MOV     A,R6
   \   00002C   F0           MOVX    @DPTR,A
   \   00002D   A3           INC     DPTR
   \   00002E   EF           MOV     A,R7
   \   00002F   F0           MOVX    @DPTR,A
    292            }
    293          
    294            HAL_EXIT_CRITICAL_SECTION( intState );   // Re-enable interrupts.
   \                     ??osal_start_reload_timer_0:
   \   000030   E5..         MOV     A,?V0 + 1
   \   000032   A2E0         MOV     C,0xE0 /* A   */.0
   \   000034   92AF         MOV     0xa8.7,C
    295          
    296            return ( (newTimer != NULL) ? SUCCESS : NO_TIMER_AVAIL );
   \   000036   E8           MOV     A,R0
   \   000037   49           ORL     A,R1
   \   000038   6004         JZ      ??osal_start_reload_timer_1
   \   00003A   7900         MOV     R1,#0x0
   \   00003C   8002         SJMP    ??osal_start_reload_timer_2
   \                     ??osal_start_reload_timer_1:
   \   00003E   7908         MOV     R1,#0x8
   \                     ??osal_start_reload_timer_2:
   \   000040                REQUIRE ?Subroutine2
   \   000040                REQUIRE _A_IEN0
   \   000040                ; // Fall through to label ?Subroutine2
    297          }

   \                                 In  segment BANKED_CODE, align 1, keep-with-next
   \                     ?Subroutine2:
   \   000000   7F04         MOV     R7,#0x4
   \   000002   02....       LJMP    ?BANKED_LEAVE_XDATA
    298          
    299          /*********************************************************************
    300           * @fn      osal_stop_timerEx
    301           *
    302           * @brief
    303           *
    304           *   This function is called to stop a timer that has already been started.
    305           *   If ZSUCCESS, the function will cancel the timer and prevent the event
    306           *   associated with the timer from being set for the calling task.
    307           *
    308           * @param   uint8 task_id - task id of timer to stop
    309           * @param   uint16 event_id - identifier of the timer that is to be stopped
    310           *
    311           * @return  SUCCESS or INVALID_EVENT_ID
    312           */

   \                                 In  segment BANKED_CODE, align 1, keep-with-next
    313          uint8 osal_stop_timerEx( uint8 task_id, uint16 event_id )
   \                     osal_stop_timerEx:
    314          {
   \   000000   74F6         MOV     A,#-0xa
   \   000002   12....       LCALL   ?BANKED_ENTER_XDATA
   \   000005                ; Saved register size: 10
   \   000005                ; Auto size: 0
    315            halIntState_t intState;
    316            osalTimerRec_t *foundTimer;
    317          
    318            HAL_ENTER_CRITICAL_SECTION( intState );  // Hold off interrupts.
   \   000005   A2AF         MOV     C,0xa8.7
   \   000007   E4           CLR     A
   \   000008   33           RLC     A
   \   000009   FF           MOV     R7,A
   \   00000A   C2AF         CLR     0xa8.7
    319          
    320            // Find the timer to stop
    321            foundTimer = osalFindTimer( task_id, event_id );
   \   00000C                ; Setup parameters for call to function osalFindTimer
   \   00000C   12....       LCALL   ??osalFindTimer?relay
   \   00000F   8A..         MOV     ?V0 + 0,R2
   \   000011   8B..         MOV     ?V0 + 1,R3
   \   000013   A8..         MOV     R0,?V0 + 0
   \   000015   A9..         MOV     R1,?V0 + 1
    322            if ( foundTimer )
   \   000017   E8           MOV     A,R0
   \   000018   49           ORL     A,R1
   \   000019   600C         JZ      ??osal_stop_timerEx_0
    323            {
    324              osalDeleteTimer( foundTimer );
   \   00001B   8882         MOV     DPL,R0
   \   00001D   8983         MOV     DPH,R1
   \   00001F   A3           INC     DPTR
   \   000020   A3           INC     DPTR
   \   000021   A3           INC     DPTR
   \   000022   A3           INC     DPTR
   \   000023   E4           CLR     A
   \   000024   F0           MOVX    @DPTR,A
   \   000025   A3           INC     DPTR
   \   000026   F0           MOVX    @DPTR,A
    325            }
    326          
    327            HAL_EXIT_CRITICAL_SECTION( intState );   // Re-enable interrupts.
   \                     ??osal_stop_timerEx_0:
   \   000027   EF           MOV     A,R7
   \   000028   A2E0         MOV     C,0xE0 /* A   */.0
   \   00002A   92AF         MOV     0xa8.7,C
    328          
    329            return ( (foundTimer != NULL) ? SUCCESS : INVALID_EVENT_ID );
   \   00002C   E8           MOV     A,R0
   \   00002D   49           ORL     A,R1
   \   00002E   6004         JZ      ??osal_stop_timerEx_1
   \   000030   7900         MOV     R1,#0x0
   \   000032   8002         SJMP    ??osal_stop_timerEx_2
   \                     ??osal_stop_timerEx_1:
   \   000034   7906         MOV     R1,#0x6
   \                     ??osal_stop_timerEx_2:
   \   000036   02....       LJMP    ?Subroutine1 & 0xFFFF
   \   000039                REQUIRE _A_IEN0
    330          }
    331          
    332          /*********************************************************************
    333           * @fn      osal_get_timeoutEx
    334           *
    335           * @brief
    336           *
    337           * @param   uint8 task_id - task id of timer to check
    338           * @param   uint16 event_id - identifier of timer to be checked
    339           *
    340           * @return  Return the timer's tick count if found, zero otherwise.
    341           */

   \                                 In  segment BANKED_CODE, align 1, keep-with-next
    342          uint16 osal_get_timeoutEx( uint8 task_id, uint16 event_id )
   \                     osal_get_timeoutEx:
    343          {
   \   000000   74F4         MOV     A,#-0xc
   \   000002   12....       LCALL   ?BANKED_ENTER_XDATA
   \   000005                ; Saved register size: 12
   \   000005                ; Auto size: 0
    344            halIntState_t intState;
    345            uint16 rtrn = 0;
   \   000005   7E00         MOV     R6,#0x0
   \   000007   7F00         MOV     R7,#0x0
    346            osalTimerRec_t *tmr;
    347          
    348            HAL_ENTER_CRITICAL_SECTION( intState );  // Hold off interrupts.
   \   000009   A2AF         MOV     C,0xa8.7
   \   00000B   E4           CLR     A
   \   00000C   33           RLC     A
   \   00000D   F5..         MOV     ?V0 + 1,A
   \   00000F   C2AF         CLR     0xa8.7
    349          
    350            tmr = osalFindTimer( task_id, event_id );
   \   000011                ; Setup parameters for call to function osalFindTimer
   \   000011   12....       LCALL   ??osalFindTimer?relay
   \   000014   8A82         MOV     DPL,R2
   \   000016   8B83         MOV     DPH,R3
    351          
    352            if ( tmr )
   \   000018   E582         MOV     A,DPL
   \   00001A   4583         ORL     A,DPH
   \   00001C   6007         JZ      ??osal_get_timeoutEx_0
    353            {
    354              rtrn = tmr->timeout;
   \   00001E   A3           INC     DPTR
   \   00001F   A3           INC     DPTR
   \   000020   E0           MOVX    A,@DPTR
   \   000021   FE           MOV     R6,A
   \   000022   A3           INC     DPTR
   \   000023   E0           MOVX    A,@DPTR
   \   000024   FF           MOV     R7,A
    355            }
    356          
    357            HAL_EXIT_CRITICAL_SECTION( intState );   // Re-enable interrupts.
   \                     ??osal_get_timeoutEx_0:
   \   000025   E5..         MOV     A,?V0 + 1
   \   000027   A2E0         MOV     C,0xE0 /* A   */.0
   \   000029   92AF         MOV     0xa8.7,C
    358          
    359            return rtrn;
   \   00002B   EE           MOV     A,R6
   \   00002C   FA           MOV     R2,A
   \   00002D   EF           MOV     A,R7
   \   00002E   FB           MOV     R3,A
   \   00002F   80..         SJMP    ?Subroutine2
   \   000031                REQUIRE _A_IEN0
    360          }
    361          
    362          /*********************************************************************
    363           * @fn      osal_timer_num_active
    364           *
    365           * @brief
    366           *
    367           *   This function counts the number of active timers.
    368           *
    369           * @return  uint8 - number of timers
    370           */

   \                                 In  segment BANKED_CODE, align 1, keep-with-next
    371          uint8 osal_timer_num_active( void )
   \                     osal_timer_num_active:
    372          {
   \   000000   C082         PUSH    DPL
   \   000002   C083         PUSH    DPH
   \   000004                ; Saved register size: 2
   \   000004                ; Auto size: 0
    373            halIntState_t intState;
    374            uint8 num_timers = 0;
   \   000004   7900         MOV     R1,#0x0
    375            osalTimerRec_t *srchTimer;
    376          
    377            HAL_ENTER_CRITICAL_SECTION( intState );  // Hold off interrupts.
   \   000006   A2AF         MOV     C,0xa8.7
   \   000008   E4           CLR     A
   \   000009   33           RLC     A
   \   00000A   F8           MOV     R0,A
   \   00000B   C2AF         CLR     0xa8.7
    378          
    379            // Head of the timer list
    380            srchTimer = timerHead;
   \   00000D   90....       MOV     DPTR,#timerHead
   \   000010   12....       LCALL   ?Subroutine4 & 0xFFFF
    381          
    382            // Count timers in the list
    383            while ( srchTimer != NULL )
   \                     ??CrossCallReturnLabel_0:
   \   000013   6006         JZ      ??osal_timer_num_active_0
    384            {
    385              num_timers++;
   \                     ??osal_timer_num_active_1:
   \   000015   09           INC     R1
    386              srchTimer = srchTimer->next;
   \   000016   12....       LCALL   ?Subroutine4 & 0xFFFF
    387            }
   \                     ??CrossCallReturnLabel_1:
   \   000019   70FA         JNZ     ??osal_timer_num_active_1
    388          
    389            HAL_EXIT_CRITICAL_SECTION( intState );   // Re-enable interrupts.
   \                     ??osal_timer_num_active_0:
   \   00001B   E8           MOV     A,R0
   \   00001C   A2E0         MOV     C,0xE0 /* A   */.0
   \   00001E   92AF         MOV     0xa8.7,C
    390          
    391            return num_timers;
   \   000020                REQUIRE ?Subroutine0
   \   000020                REQUIRE _A_IEN0
   \   000020                ; // Fall through to label ?Subroutine0
    392          }

   \                                 In  segment BANKED_CODE, align 1, keep-with-next
   \                     ?Subroutine4:
   \   000000   E0           MOVX    A,@DPTR
   \   000001   FA           MOV     R2,A
   \   000002   A3           INC     DPTR
   \   000003   E0           MOVX    A,@DPTR
   \   000004   FB           MOV     R3,A
   \   000005   8A82         MOV     DPL,R2
   \   000007   8B83         MOV     DPH,R3
   \   000009   E582         MOV     A,DPL
   \   00000B   4583         ORL     A,DPH
   \   00000D   22           RET
    393          
    394          /*********************************************************************
    395           * @fn      osalTimerUpdate
    396           *
    397           * @brief   Update the timer structures for a timer tick.
    398           *
    399           * @param   none
    400           *
    401           * @return  none
    402           *********************************************************************/

   \                                 In  segment BANKED_CODE, align 1, keep-with-next
    403          void osalTimerUpdate( uint16 updateTime )
   \                     osalTimerUpdate:
    404          {
   \   000000   74ED         MOV     A,#-0x13
   \   000002   12....       LCALL   ?BANKED_ENTER_XDATA
   \   000005                ; Saved register size: 19
   \   000005                ; Auto size: 0
   \   000005   8A..         MOV     ?V0 + 6,R2
   \   000007   8B..         MOV     ?V0 + 7,R3
    405            halIntState_t intState;
    406            osalTimerRec_t *srchTimer;
    407            osalTimerRec_t *prevTimer;
    408          
    409            HAL_ENTER_CRITICAL_SECTION( intState );  // Hold off interrupts.
   \   000009   E5A8         MOV     A,0xa8
   \   00000B   F9           MOV     R1,A
   \   00000C   C2AF         CLR     0xa8.7
    410            // Update the system time
    411            osal_systemClock += updateTime;
   \   00000E   8A..         MOV     ?V0 + 0,R2
   \   000010   8B..         MOV     ?V0 + 1,R3
   \   000012   E4           CLR     A
   \   000013   F5..         MOV     ?V0 + 2,A
   \   000015   F5..         MOV     ?V0 + 3,A
   \   000017   90....       MOV     DPTR,#osal_systemClock
   \   00001A   78..         MOV     R0,#?V0 + 0
   \   00001C   12....       LCALL   ?L_ADD_TO_X
    412            HAL_EXIT_CRITICAL_SECTION( intState );   // Re-enable interrupts.
   \   00001F   E9           MOV     A,R1
   \   000020   A2E7         MOV     C,0xE0 /* A   */.7
   \   000022   92AF         MOV     0xa8.7,C
    413          
    414            // Look for open timer slot
    415            if ( timerHead != NULL )
   \   000024   12....       LCALL   ?Subroutine3 & 0xFFFF
   \                     ??CrossCallReturnLabel_12:
   \   000027   7003         JNZ     $+5
   \   000029   02....       LJMP    ??osalTimerUpdate_0 & 0xFFFF
    416            {
    417              // Add it to the end of the timer list
    418              srchTimer = timerHead;
   \   00002C   90....       MOV     DPTR,#timerHead
   \   00002F   E0           MOVX    A,@DPTR
   \   000030   F5..         MOV     ?V0 + 0,A
   \   000032   A3           INC     DPTR
   \   000033   E0           MOVX    A,@DPTR
   \   000034   F5..         MOV     ?V0 + 1,A
    419              prevTimer = (void *)NULL;
    420          
    421              // Look for open timer slot
    422              while ( srchTimer )
    423              {
    424                osalTimerRec_t *freeTimer = NULL;
   \                     ??osalTimerUpdate_1:
   \   000036   7E00         MOV     R6,#0x0
   \   000038   7F00         MOV     R7,#0x0
    425               
    426                HAL_ENTER_CRITICAL_SECTION( intState );  // Hold off interrupts.
   \   00003A   A2AF         MOV     C,0xa8.7
   \   00003C   E4           CLR     A
   \   00003D   33           RLC     A
   \   00003E   F5..         MOV     ?V0 + 10,A
   \   000040   C2AF         CLR     0xa8.7
    427                
    428                if (srchTimer->timeout <= updateTime)
   \   000042   E5..         MOV     A,?V0 + 0
   \   000044   2402         ADD     A,#0x2
   \   000046   F5..         MOV     ?V0 + 4,A
   \   000048   E5..         MOV     A,?V0 + 1
   \   00004A   3400         ADDC    A,#0x0
   \   00004C   F5..         MOV     ?V0 + 5,A
   \   00004E   85..82       MOV     DPL,?V0 + 4
   \   000051   F583         MOV     DPH,A
   \   000053   12....       LCALL   ?Subroutine6 & 0xFFFF
   \                     ??CrossCallReturnLabel_15:
   \   000056   C3           CLR     C
   \   000057   E5..         MOV     A,?V0 + 6
   \   000059   98           SUBB    A,R0
   \   00005A   E5..         MOV     A,?V0 + 7
   \   00005C   99           SUBB    A,R1
   \   00005D   85..82       MOV     DPL,?V0 + 4
   \   000060   85..83       MOV     DPH,?V0 + 5
   \   000063   4006         JC      ??osalTimerUpdate_2
    429                {
    430                  srchTimer->timeout = 0;
   \   000065   E4           CLR     A
   \   000066   F0           MOVX    @DPTR,A
   \   000067   A3           INC     DPTR
   \   000068   F0           MOVX    @DPTR,A
   \   000069   8015         SJMP    ??osalTimerUpdate_3
    431                }
    432                else
    433                {
    434                  srchTimer->timeout = srchTimer->timeout - updateTime;
   \                     ??osalTimerUpdate_2:
   \   00006B   C3           CLR     C
   \   00006C   E0           MOVX    A,@DPTR
   \   00006D   95..         SUBB    A,?V0 + 6
   \   00006F   F0           MOVX    @DPTR,A
   \   000070   A3           INC     DPTR
   \   000071   E0           MOVX    A,@DPTR
   \   000072   95..         SUBB    A,?V0 + 7
   \   000074   F0           MOVX    @DPTR,A
    435                }
    436                
    437                // Check for reloading
    438                if ( (srchTimer->timeout == 0) && (srchTimer->reloadTimeout) && (srchTimer->event_flag) )
   \   000075   85..82       MOV     DPL,?V0 + 4
   \   000078   85..83       MOV     DPH,?V0 + 5
   \   00007B   12....       LCALL   ??Subroutine7_0 & 0xFFFF
   \                     ??CrossCallReturnLabel_5:
   \   00007E   704E         JNZ     ??osalTimerUpdate_4
   \                     ??osalTimerUpdate_3:
   \   000080   E5..         MOV     A,?V0 + 0
   \   000082   2407         ADD     A,#0x7
   \   000084   F5..         MOV     ?V0 + 8,A
   \   000086   E5..         MOV     A,?V0 + 1
   \   000088   3400         ADDC    A,#0x0
   \   00008A   F5..         MOV     ?V0 + 9,A
   \   00008C   85..82       MOV     DPL,?V0 + 8
   \   00008F   F583         MOV     DPH,A
   \   000091   12....       LCALL   ??Subroutine7_0 & 0xFFFF
   \                     ??CrossCallReturnLabel_6:
   \   000094   6052         JZ      ??osalTimerUpdate_5
   \   000096   85..82       MOV     DPL,?V0 + 0
   \   000099   85..83       MOV     DPH,?V0 + 1
   \   00009C   A3           INC     DPTR
   \   00009D   A3           INC     DPTR
   \   00009E   A3           INC     DPTR
   \   00009F   A3           INC     DPTR
   \   0000A0   E0           MOVX    A,@DPTR
   \   0000A1   FA           MOV     R2,A
   \   0000A2   A3           INC     DPTR
   \   0000A3   E0           MOVX    A,@DPTR
   \   0000A4   FB           MOV     R3,A
   \   0000A5   EA           MOV     A,R2
   \   0000A6   4B           ORL     A,R3
   \   0000A7   603F         JZ      ??osalTimerUpdate_5
    439                {
    440                  // Notify the task of a timeout
    441                  osal_set_event( srchTimer->task_id, srchTimer->event_flag );
   \   0000A9                ; Setup parameters for call to function osal_set_event
   \   0000A9   85..82       MOV     DPL,?V0 + 0
   \   0000AC   85..83       MOV     DPH,?V0 + 1
   \   0000AF   A3           INC     DPTR
   \   0000B0   A3           INC     DPTR
   \   0000B1   A3           INC     DPTR
   \   0000B2   A3           INC     DPTR
   \   0000B3   A3           INC     DPTR
   \   0000B4   A3           INC     DPTR
   \   0000B5   E0           MOVX    A,@DPTR
   \   0000B6   F9           MOV     R1,A
   \   0000B7   12....       LCALL   ??osal_set_event?relay
    442                  
    443                  // Reload the timer timeout value
    444                  srchTimer->timeout = srchTimer->reloadTimeout;
   \   0000BA   85..82       MOV     DPL,?V0 + 8
   \   0000BD   85..83       MOV     DPH,?V0 + 9
   \   0000C0   12....       LCALL   ?Subroutine6 & 0xFFFF
    445                }
   \                     ??CrossCallReturnLabel_16:
   \   0000C3   85..82       MOV     DPL,?V0 + 4
   \   0000C6   85..83       MOV     DPH,?V0 + 5
   \   0000C9   E8           MOV     A,R0
   \   0000CA   F0           MOVX    @DPTR,A
   \   0000CB   A3           INC     DPTR
   \   0000CC   E9           MOV     A,R1
   \   0000CD   F0           MOVX    @DPTR,A
    446                
    447                // When timeout or delete (event_flag == 0)
    448                if ( srchTimer->timeout == 0 || srchTimer->event_flag == 0 )
   \                     ??osalTimerUpdate_4:
   \   0000CE   85..82       MOV     DPL,?V0 + 4
   \   0000D1   85..83       MOV     DPH,?V0 + 5
   \   0000D4   12....       LCALL   ??Subroutine7_0 & 0xFFFF
   \                     ??CrossCallReturnLabel_7:
   \   0000D7   600F         JZ      ??osalTimerUpdate_5
   \   0000D9   85..82       MOV     DPL,?V0 + 0
   \   0000DC   85..83       MOV     DPH,?V0 + 1
   \   0000DF   A3           INC     DPTR
   \   0000E0   A3           INC     DPTR
   \   0000E1   A3           INC     DPTR
   \   0000E2   A3           INC     DPTR
   \   0000E3   12....       LCALL   ??Subroutine7_0 & 0xFFFF
   \                     ??CrossCallReturnLabel_8:
   \   0000E6   7029         JNZ     ??osalTimerUpdate_6
    449                {
    450                  // Take out of list
    451                  if ( prevTimer == NULL )
   \                     ??osalTimerUpdate_5:
   \   0000E8   85..82       MOV     DPL,?V0 + 0
   \   0000EB   85..83       MOV     DPH,?V0 + 1
   \   0000EE   12....       LCALL   ?Subroutine6 & 0xFFFF
   \                     ??CrossCallReturnLabel_17:
   \   0000F1   E5..         MOV     A,?V0 + 2
   \   0000F3   45..         ORL     A,?V0 + 3
   \   0000F5   7005         JNZ     ??osalTimerUpdate_7
    452                    timerHead = srchTimer->next;
   \   0000F7   90....       MOV     DPTR,#timerHead
   \   0000FA   8006         SJMP    ??osalTimerUpdate_8
    453                  else
    454                    prevTimer->next = srchTimer->next;
   \                     ??osalTimerUpdate_7:
   \   0000FC   85..82       MOV     DPL,?V0 + 2
   \   0000FF   85..83       MOV     DPH,?V0 + 3
   \                     ??osalTimerUpdate_8:
   \   000102   E8           MOV     A,R0
   \   000103   F0           MOVX    @DPTR,A
   \   000104   A3           INC     DPTR
   \   000105   E9           MOV     A,R1
   \   000106   F0           MOVX    @DPTR,A
    455          
    456                  // Setup to free memory
    457                  freeTimer = srchTimer;
   \   000107   AE..         MOV     R6,?V0 + 0
   \   000109   AF..         MOV     R7,?V0 + 1
    458          
    459                  // Next
    460                  srchTimer = srchTimer->next;
   \   00010B   8E82         MOV     DPL,R6
   \   00010D   8F83         MOV     DPH,R7
   \   00010F   800C         SJMP    ??osalTimerUpdate_9
    461                }
    462                else
    463                {
    464                  // Get next
    465                  prevTimer = srchTimer;
   \                     ??osalTimerUpdate_6:
   \   000111   85....       MOV     ?V0 + 2,?V0 + 0
   \   000114   85....       MOV     ?V0 + 3,?V0 + 1
    466                  srchTimer = srchTimer->next;
   \   000117   85..82       MOV     DPL,?V0 + 0
   \   00011A   85..83       MOV     DPH,?V0 + 1
   \                     ??osalTimerUpdate_9:
   \   00011D   E0           MOVX    A,@DPTR
   \   00011E   F5..         MOV     ?V0 + 0,A
   \   000120   A3           INC     DPTR
   \   000121   E0           MOVX    A,@DPTR
   \   000122   F5..         MOV     ?V0 + 1,A
    467                }
    468                
    469                HAL_EXIT_CRITICAL_SECTION( intState );   // Re-enable interrupts.
   \   000124   E5..         MOV     A,?V0 + 10
   \   000126   A2E0         MOV     C,0xE0 /* A   */.0
   \   000128   92AF         MOV     0xa8.7,C
    470                
    471                if ( freeTimer )
   \   00012A   EE           MOV     A,R6
   \   00012B   4F           ORL     A,R7
   \   00012C   602E         JZ      ??osalTimerUpdate_10
    472                {
    473                  if ( freeTimer->timeout == 0 )
   \   00012E   8E82         MOV     DPL,R6
   \   000130   8F83         MOV     DPH,R7
   \   000132   A3           INC     DPTR
   \   000133   A3           INC     DPTR
   \   000134   12....       LCALL   ??Subroutine7_0 & 0xFFFF
   \                     ??CrossCallReturnLabel_9:
   \   000137   701C         JNZ     ??osalTimerUpdate_11
    474                  {
    475                    osal_set_event( freeTimer->task_id, freeTimer->event_flag );
   \   000139                ; Setup parameters for call to function osal_set_event
   \   000139   8E82         MOV     DPL,R6
   \   00013B   8F83         MOV     DPH,R7
   \   00013D   A3           INC     DPTR
   \   00013E   A3           INC     DPTR
   \   00013F   A3           INC     DPTR
   \   000140   A3           INC     DPTR
   \   000141   E0           MOVX    A,@DPTR
   \   000142   FA           MOV     R2,A
   \   000143   A3           INC     DPTR
   \   000144   E0           MOVX    A,@DPTR
   \   000145   FB           MOV     R3,A
   \   000146   8E82         MOV     DPL,R6
   \   000148   8F83         MOV     DPH,R7
   \   00014A   A3           INC     DPTR
   \   00014B   A3           INC     DPTR
   \   00014C   A3           INC     DPTR
   \   00014D   A3           INC     DPTR
   \   00014E   A3           INC     DPTR
   \   00014F   A3           INC     DPTR
   \   000150   E0           MOVX    A,@DPTR
   \   000151   F9           MOV     R1,A
   \   000152   12....       LCALL   ??osal_set_event?relay
    476                  }
    477                  osal_mem_free( freeTimer );
   \                     ??osalTimerUpdate_11:
   \   000155                ; Setup parameters for call to function osal_mem_free
   \   000155   EE           MOV     A,R6
   \   000156   FA           MOV     R2,A
   \   000157   EF           MOV     A,R7
   \   000158   FB           MOV     R3,A
   \   000159   12....       LCALL   ??osal_mem_free?relay
    478                }
    479              }
   \                     ??osalTimerUpdate_10:
   \   00015C   E5..         MOV     A,?V0 + 0
   \   00015E   45..         ORL     A,?V0 + 1
   \   000160   6003         JZ      $+5
   \   000162   02....       LJMP    ??osalTimerUpdate_1 & 0xFFFF
    480            }
    481          }
   \                     ??osalTimerUpdate_0:
   \   000165   7F0B         MOV     R7,#0xb
   \   000167   02....       LJMP    ?BANKED_LEAVE_XDATA
   \   00016A                REQUIRE _A_IEN0
    482          
    483          #ifdef POWER_SAVING
    484          /*********************************************************************
    485           * @fn      osal_adjust_timers
    486           *
    487           * @brief   Update the timer structures for elapsed ticks.
    488           *
    489           * @param   none
    490           *
    491           * @return  none
    492           *********************************************************************/

   \                                 In  segment BANKED_CODE, align 1, keep-with-next
    493          void osal_adjust_timers( void )
   \                     osal_adjust_timers:
    494          {
   \   000000   74F4         MOV     A,#-0xc
   \   000002   12....       LCALL   ?BANKED_ENTER_XDATA
   \   000005                ; Saved register size: 12
   \   000005                ; Auto size: 0
    495            uint16 eTime;
    496          
    497            if ( timerHead != NULL )
   \   000005   12....       LCALL   ?Subroutine3 & 0xFFFF
   \                     ??CrossCallReturnLabel_13:
   \   000008   600A         JZ      ??osal_adjust_timers_0
    498            {
    499              // Compute elapsed time (msec)
    500              eTime = TimerElapsed() /  TICK_COUNT;
   \   00000A                ; Setup parameters for call to function TimerElapsed
   \   00000A   12....       LCALL   ??TimerElapsed?relay
    501          
    502              if ( eTime )
   \   00000D   EA           MOV     A,R2
   \   00000E   4B           ORL     A,R3
   \   00000F   6003         JZ      ??osal_adjust_timers_0
    503                osalTimerUpdate( eTime );
   \   000011                ; Setup parameters for call to function osalTimerUpdate
   \   000011   12....       LCALL   ??osalTimerUpdate?relay
    504            }
    505          }
   \                     ??osal_adjust_timers_0:
   \   000014   02....       LJMP    ?Subroutine2 & 0xFFFF
    506          
    507          /*********************************************************************
    508           * @fn      osal_next_timeout
    509           *
    510           * @brief
    511           *
    512           *   Search timer table to return the lowest timeout value. If the
    513           *   timer list is empty, then the returned timeout will be zero.
    514           *
    515           * @param   none
    516           *
    517           * @return  none
    518           *********************************************************************/

   \                                 In  segment BANKED_CODE, align 1, keep-with-next
    519          uint16 osal_next_timeout( void )
   \                     osal_next_timeout:
    520          {
   \   000000   C082         PUSH    DPL
   \   000002   C083         PUSH    DPH
   \   000004                ; Saved register size: 2
   \   000004                ; Auto size: 0
    521            uint16 nextTimeout;
    522            osalTimerRec_t *srchTimer;
    523          
    524            if ( timerHead != NULL )
   \   000004   12....       LCALL   ?Subroutine3 & 0xFFFF
   \                     ??CrossCallReturnLabel_14:
   \   000007   6025         JZ      ??osal_next_timeout_0
    525            {
    526              // Head of the timer list
    527              srchTimer = timerHead;
    528              nextTimeout = OSAL_TIMERS_MAX_TIMEOUT;
   \   000009   7AFF         MOV     R2,#-0x1
   \   00000B   7BFF         MOV     R3,#-0x1
    529          
    530              // Look for the next timeout timer
    531              while ( srchTimer != NULL )
    532              {
    533                if (srchTimer->timeout < nextTimeout)
   \                     ??osal_next_timeout_1:
   \   00000D   8882         MOV     DPL,R0
   \   00000F   8983         MOV     DPH,R1
   \   000011   A3           INC     DPTR
   \   000012   A3           INC     DPTR
   \   000013   E0           MOVX    A,@DPTR
   \   000014   FC           MOV     R4,A
   \   000015   A3           INC     DPTR
   \   000016   E0           MOVX    A,@DPTR
   \   000017   FD           MOV     R5,A
   \   000018   C3           CLR     C
   \   000019   EC           MOV     A,R4
   \   00001A   9A           SUBB    A,R2
   \   00001B   ED           MOV     A,R5
   \   00001C   9B           SUBB    A,R3
   \   00001D   5004         JNC     ??osal_next_timeout_2
    534                {
    535                  nextTimeout = srchTimer->timeout;
   \   00001F   EC           MOV     A,R4
   \   000020   FA           MOV     R2,A
   \   000021   ED           MOV     A,R5
   \   000022   FB           MOV     R3,A
    536                }
    537                // Check next timer
    538                srchTimer = srchTimer->next;
   \                     ??osal_next_timeout_2:
   \   000023   8882         MOV     DPL,R0
   \   000025   8983         MOV     DPH,R1
   \   000027   12....       LCALL   ??Subroutine7_0 & 0xFFFF
    539              }
    540            }
   \                     ??CrossCallReturnLabel_10:
   \   00002A   6006         JZ      ??osal_next_timeout_3
   \   00002C   80DF         SJMP    ??osal_next_timeout_1
    541            else
    542            {
    543              // No timers
    544              nextTimeout = 0;
   \                     ??osal_next_timeout_0:
   \   00002E   7A00         MOV     R2,#0x0
   \   000030   7B00         MOV     R3,#0x0
    545            }
    546          
    547            return ( nextTimeout );
   \                     ??osal_next_timeout_3:
   \   000032   02....       LJMP    ?Subroutine0 & 0xFFFF
    548          }
    549          #endif // POWER_SAVING
    550          
    551          /*********************************************************************
    552           * @fn      osal_GetSystemClock()
    553           *
    554           * @brief   Read the local system clock.
    555           *
    556           * @param   none
    557           *
    558           * @return  local clock in milliseconds
    559           */

   \                                 In  segment BANKED_CODE, align 1, keep-with-next
    560          uint32 osal_GetSystemClock( void )
   \                     osal_GetSystemClock:
    561          {
   \   000000   C082         PUSH    DPL
   \   000002   C083         PUSH    DPH
   \   000004                ; Saved register size: 2
   \   000004                ; Auto size: 0
    562            return ( osal_systemClock );
   \   000004   90....       MOV     DPTR,#osal_systemClock
   \   000007   12....       LCALL   ?XLOAD_R2345
   \   00000A   02....       LJMP    ?Subroutine0 & 0xFFFF
    563          }

   \                                 In  segment XDATA_ROM_C, align 1
   \                     __Constant_0:
   \   000000   00000000     DD 0

   \                                 In  segment BANK_RELAYS, align 1
   \                     ??osalTimerInit?relay:
   \   000000   12....       LCALL   ?BDISPATCH
   \   000003   ......       DC24    osalTimerInit

   \                                 In  segment BANK_RELAYS, align 1
   \                     ??osalAddTimer?relay:
   \   000000   12....       LCALL   ?BDISPATCH
   \   000003   ......       DC24    osalAddTimer

   \                                 In  segment BANK_RELAYS, align 1
   \                     ??osalFindTimer?relay:
   \   000000   12....       LCALL   ?BDISPATCH
   \   000003   ......       DC24    osalFindTimer

   \                                 In  segment BANK_RELAYS, align 1
   \                     ??osalDeleteTimer?relay:
   \   000000   12....       LCALL   ?BDISPATCH
   \   000003   ......       DC24    osalDeleteTimer

   \                                 In  segment BANK_RELAYS, align 1
   \                     ??osal_start_timerEx?relay:
   \   000000   12....       LCALL   ?BDISPATCH
   \   000003   ......       DC24    osal_start_timerEx

   \                                 In  segment BANK_RELAYS, align 1
   \                     ??osal_start_reload_timer?relay:
   \   000000   12....       LCALL   ?BDISPATCH
   \   000003   ......       DC24    osal_start_reload_timer

   \                                 In  segment BANK_RELAYS, align 1
   \                     ??osal_stop_timerEx?relay:
   \   000000   12....       LCALL   ?BDISPATCH
   \   000003   ......       DC24    osal_stop_timerEx

   \                                 In  segment BANK_RELAYS, align 1
   \                     ??osal_get_timeoutEx?relay:
   \   000000   12....       LCALL   ?BDISPATCH
   \   000003   ......       DC24    osal_get_timeoutEx

   \                                 In  segment BANK_RELAYS, align 1
   \                     ??osal_timer_num_active?relay:
   \   000000   12....       LCALL   ?BDISPATCH
   \   000003   ......       DC24    osal_timer_num_active

   \                                 In  segment BANK_RELAYS, align 1
   \                     ??osalTimerUpdate?relay:
   \   000000   12....       LCALL   ?BDISPATCH
   \   000003   ......       DC24    osalTimerUpdate

   \                                 In  segment BANK_RELAYS, align 1
   \                     ??osal_adjust_timers?relay:
   \   000000   12....       LCALL   ?BDISPATCH
   \   000003   ......       DC24    osal_adjust_timers

   \                                 In  segment BANK_RELAYS, align 1
   \                     ??osal_next_timeout?relay:
   \   000000   12....       LCALL   ?BDISPATCH
   \   000003   ......       DC24    osal_next_timeout

   \                                 In  segment BANK_RELAYS, align 1
   \                     ??osal_GetSystemClock?relay:
   \   000000   12....       LCALL   ?BDISPATCH
   \   000003   ......       DC24    osal_GetSystemClock
    564          
    565          /*********************************************************************
    566          *********************************************************************/

   Maximum stack usage in bytes:

     Function                ISTACK PSTACK XSTACK
     --------                ------ ------ ------
     osalAddTimer                1      0     26
       -> osalFindTimer          0      0     28
       -> osal_mem_alloc         0      0     28
     osalDeleteTimer             2      0      0
     osalFindTimer               2      0     14
     osalTimerInit               2      0      0
     osalTimerUpdate             0      0     31
       -> osal_set_event         0      0     38
       -> osal_set_event         0      0     38
       -> osal_mem_free          0      0     38
     osal_GetSystemClock         2      0      0
     osal_adjust_timers          0      0     12
       -> TimerElapsed           0      0     24
       -> osalTimerUpdate        0      0     24
     osal_get_timeoutEx          0      0     12
       -> osalFindTimer          0      0     24
     osal_next_timeout           2      0      0
     osal_start_reload_timer     0      0     12
       -> osalAddTimer           0      0     24
     osal_start_timerEx          0      0     10
       -> osalAddTimer           0      0     20
     osal_stop_timerEx           0      0     10
       -> osalFindTimer          0      0     20
     osal_timer_num_active       2      0      0


   Segment part sizes:

     Function/Label                  Bytes
     --------------                  -----
     _A_IEN0                            1
     timerHead                          2
     osal_systemClock                   4
     osalTimerInit                     19
     ?Subroutine0                       7
     osalAddTimer                     145
     ?Subroutine5                      10
     ?Subroutine3                       3
     ??Subroutine7_0                    6
     ?Subroutine6                       6
     osalFindTimer                     60
     osalDeleteTimer                   23
     osal_start_timerEx                32
     ?Subroutine1                       5
     osal_start_reload_timer           64
     ?Subroutine2                       5
     osal_stop_timerEx                 57
     osal_get_timeoutEx                49
     osal_timer_num_active             32
     ?Subroutine4                      14
     osalTimerUpdate                  362
     osal_adjust_timers                23
     osal_next_timeout                 53
     osal_GetSystemClock               13
     __Constant_0                       4
     ??osalTimerInit?relay              6
     ??osalAddTimer?relay               6
     ??osalFindTimer?relay              6
     ??osalDeleteTimer?relay            6
     ??osal_start_timerEx?relay         6
     ??osal_start_reload_timer?relay    6
     ??osal_stop_timerEx?relay          6
     ??osal_get_timeoutEx?relay         6
     ??osal_timer_num_active?relay      6
     ??osalTimerUpdate?relay            6
     ??osal_adjust_timers?relay         6
     ??osal_next_timeout?relay          6
     ??osal_GetSystemClock?relay        6

 
 988 bytes in segment BANKED_CODE
  78 bytes in segment BANK_RELAYS
   1 byte  in segment SFR_AN
   4 bytes in segment XDATA_ROM_C
   6 bytes in segment XDATA_Z
 
 1 066 bytes of CODE  memory
     0 bytes of CONST memory (+ 4 bytes shared)
     0 bytes of DATA  memory (+ 1 byte  shared)
     6 bytes of XDATA memory

Errors: none
Warnings: none
