///////////////////////////////////////////////////////////////////////////////
//                                                                            /
// IAR C/C++ Compiler V8.10.1.10194/W32 for 8051        08/Aug/2017  09:57:19 /
// Copyright 2004-2011 IAR Systems AB.                                        /
//                                                                            /
//    Core               =  plain                                             /
//    Code model         =  banked                                            /
//    Data model         =  large                                             /
//    Calling convention =  xdata reentrant                                   /
//    Constant location  =  data_rom                                          /
//    Dptr setup         =  1,16                                              /
//    Source file        =  D:\work space\Smart Product\Two YHY\Door\v1.03.0  /
//                           Green\ZStack-CC2530-2.5.1a\Components\osal\mcu\c /
//                          c2530\OSAL_Nv.c                                   /
//    Command line       =  -f "D:\work space\Smart Product\Two               /
//                          YHY\Door\v1.03.0  Green\ZStack-CC2530-2.5.1a\Proj /
//                          ects\zstack\HomeAutomation\SmartDoor\CC2530DB\..\ /
//                          Tools\CC2530DB\f8wEndev.cfg" (-DCPU32MHZ          /
//                          -DROOT=__near_func -DMAC_CFG_TX_DATA_MAX=3        /
//                          -DMAC_CFG_TX_MAX=6 -DMAC_CFG_RX_MAX=3             /
//                          -DHAL_KEY=FALSE -DHAL_LED=FALSE -DHAL_LCD=FALSE   /
//                          -DHAL_ADC=FALSE -DNV_RESTORE -DNV_INIT            /
//                          -DPOWER_SAVING -DTC_LINKKEY_JOIN) -f "D:\work     /
//                          space\Smart Product\Two YHY\Door\v1.03.0          /
//                          Green\ZStack-CC2530-2.5.1a\Projects\zstack\HomeAu /
//                          tomation\SmartDoor\CC2530DB\..\Tools\CC2530DB\f8w /
//                          Config.cfg" (-DZIGBEEPRO -DSECURE=1               /
//                          -DZG_SECURE_DYNAMIC=0 -DREFLECTOR                 /
//                          -DDEFAULT_CHANLIST=0x06108800                     /
//                          -DZDAPP_CONFIG_PAN_ID=0xFFFF                      /
//                          -DNWK_START_DELAY=100 -DEXTENDED_JOINING_RANDOM_M /
//                          ASK=0x007F -DBEACON_REQUEST_DELAY=100             /
//                          -DBEACON_REQ_DELAY_MASK=0x00FF                    /
//                          -DLINK_STATUS_JITTER_MASK=0x007F                  /
//                          -DROUTE_EXPIRY_TIME=30 -DAPSC_ACK_WAIT_DURATION_P /
//                          OLLED=3000 -DNWK_INDIRECT_MSG_TIMEOUT=7           /
//                          -DMAX_RREQ_ENTRIES=8 -DAPSC_MAX_FRAME_RETRIES=3   /
//                          -DNWK_MAX_DATA_RETRIES=2                          /
//                          -DMAX_POLL_FAILURE_RETRIES=2 -DMAX_BCAST=9        /
//                          -DAPS_MAX_GROUPS=16 -DMAX_RTG_ENTRIES=40          /
//                          -DNWK_MAX_BINDING_ENTRIES=4                       /
//                          -DMAX_BINDING_CLUSTER_IDS=4                       /
//                          -DDEFAULT_KEY={0x58,0x69,0x6E,0x67,0x48,0x75,     /
//                          0x6F,0x59,0x75,0x61,0x6E,0x53,0x6D,0x61,0x72,     /
//                          0x74} -DMAC_MAX_FRAME_SIZE=116                    /
//                          -DZDNWKMGR_MIN_TRANSMISSIONS=20 "-DCONST=const    /
//                          __code" -DGENERIC=__generic                       /
//                          -DRFD_RCVC_ALWAYS_ON=FALSE -DPOLL_RATE=0          /
//                          -DQUEUED_POLL_RATE=0 -DRESPONSE_POLL_RATE=0       /
//                          -DREJOIN_POLL_RATE=440) -f "D:\work space\Smart   /
//                          Product\Two YHY\Door\v1.03.0                      /
//                          Green\ZStack-CC2530-2.5.1a\Projects\zstack\HomeAu /
//                          tomation\SmartDoor\CC2530DB\..\Tools\CC2530DB\f8w /
//                          ZCL.cfg" (-DZCL_READ -DZCL_WRITE -DZCL_REPORT     /
//                          -DZCL_BASIC -DZCL_IDENTIFY -DZCL_ON_OFF           /
//                          -DZCL_KEY_ESTABLISH -DZCL_KEY_ESTABLISHMENT_KEY_G /
//                          ENERATE_TIMEOUT=4 -DZCL_KEY_ESTABLISHMENT_MAC_GEN /
//                          ERATE_TIMEOUT=10 -DZCL_KEY_ESTABLISHMENT_EKEY_GEN /
//                          ERATE_TIMEOUT=10 -DZCL_LOAD_CONTROL               /
//                          -DZCL_SIMPLE_METERING -DZCL_PRICING               /
//                          -DZCL_MESSAGE -DZCL_TUNNELING -DZCL_TOU)          /
//                          -DZCL_DEVICE_MGMT "D:\work space\Smart            /
//                          Product\Two YHY\Door\v1.03.0                      /
//                          Green\ZStack-CC2530-2.5.1a\Components\osal\mcu\cc /
//                          2530\OSAL_Nv.c" -lC "D:\work space\Smart          /
//                          Product\Two YHY\Door\v1.03.0                      /
//                          Green\ZStack-CC2530-2.5.1a\Projects\zstack\HomeAu /
//                          tomation\SmartDoor\CC2530DB\EndDeviceEB\List\"    /
//                          -lA "D:\work space\Smart Product\Two              /
//                          YHY\Door\v1.03.0  Green\ZStack-CC2530-2.5.1a\Proj /
//                          ects\zstack\HomeAutomation\SmartDoor\CC2530DB\End /
//                          DeviceEB\List\" --diag_suppress Pe001,Pa010 -o    /
//                          "D:\work space\Smart Product\Two                  /
//                          YHY\Door\v1.03.0  Green\ZStack-CC2530-2.5.1a\Proj /
//                          ects\zstack\HomeAutomation\SmartDoor\CC2530DB\End /
//                          DeviceEB\Obj\" -e --debug --core=plain            /
//                          --dptr=16,1 --data_model=large                    /
//                          --code_model=banked --calling_convention=xdata_re /
//                          entrant --place_constants=data_rom                /
//                          --nr_virtual_regs 16 -I "D:\work space\Smart      /
//                          Product\Two YHY\Door\v1.03.0                      /
//                          Green\ZStack-CC2530-2.5.1a\Projects\zstack\HomeAu /
//                          tomation\SmartDoor\CC2530DB\" -I "D:\work         /
//                          space\Smart Product\Two YHY\Door\v1.03.0          /
//                          Green\ZStack-CC2530-2.5.1a\Projects\zstack\HomeAu /
//                          tomation\SmartDoor\CC2530DB\..\Source\" -I        /
//                          "D:\work space\Smart Product\Two                  /
//                          YHY\Door\v1.03.0  Green\ZStack-CC2530-2.5.1a\Proj /
//                          ects\zstack\HomeAutomation\SmartDoor\CC2530DB\..\ /
//                          ..\Source\" -I "D:\work space\Smart Product\Two   /
//                          YHY\Door\v1.03.0  Green\ZStack-CC2530-2.5.1a\Proj /
//                          ects\zstack\HomeAutomation\SmartDoor\CC2530DB\..\ /
//                          ..\..\ZMain\TI2530DB\" -I "D:\work space\Smart    /
//                          Product\Two YHY\Door\v1.03.0                      /
//                          Green\ZStack-CC2530-2.5.1a\Projects\zstack\HomeAu /
//                          tomation\SmartDoor\CC2530DB\..\..\..\..\..\Compon /
//                          ents\hal\include\" -I "D:\work space\Smart        /
//                          Product\Two YHY\Door\v1.03.0                      /
//                          Green\ZStack-CC2530-2.5.1a\Projects\zstack\HomeAu /
//                          tomation\SmartDoor\CC2530DB\..\..\..\..\..\Compon /
//                          ents\hal\target\CC2530EB\" -I "D:\work            /
//                          space\Smart Product\Two YHY\Door\v1.03.0          /
//                          Green\ZStack-CC2530-2.5.1a\Projects\zstack\HomeAu /
//                          tomation\SmartDoor\CC2530DB\..\..\..\..\..\Compon /
//                          ents\mac\include\" -I "D:\work space\Smart        /
//                          Product\Two YHY\Door\v1.03.0                      /
//                          Green\ZStack-CC2530-2.5.1a\Projects\zstack\HomeAu /
//                          tomation\SmartDoor\CC2530DB\..\..\..\..\..\Compon /
//                          ents\mac\high_level\" -I "D:\work space\Smart     /
//                          Product\Two YHY\Door\v1.03.0                      /
//                          Green\ZStack-CC2530-2.5.1a\Projects\zstack\HomeAu /
//                          tomation\SmartDoor\CC2530DB\..\..\..\..\..\Compon /
//                          ents\mac\low_level\srf04\" -I "D:\work            /
//                          space\Smart Product\Two YHY\Door\v1.03.0          /
//                          Green\ZStack-CC2530-2.5.1a\Projects\zstack\HomeAu /
//                          tomation\SmartDoor\CC2530DB\..\..\..\..\..\Compon /
//                          ents\mac\low_level\srf04\single_chip\" -I         /
//                          "D:\work space\Smart Product\Two                  /
//                          YHY\Door\v1.03.0  Green\ZStack-CC2530-2.5.1a\Proj /
//                          ects\zstack\HomeAutomation\SmartDoor\CC2530DB\..\ /
//                          ..\..\..\..\Components\mt\" -I "D:\work           /
//                          space\Smart Product\Two YHY\Door\v1.03.0          /
//                          Green\ZStack-CC2530-2.5.1a\Projects\zstack\HomeAu /
//                          tomation\SmartDoor\CC2530DB\..\..\..\..\..\Compon /
//                          ents\osal\include\" -I "D:\work space\Smart       /
//                          Product\Two YHY\Door\v1.03.0                      /
//                          Green\ZStack-CC2530-2.5.1a\Projects\zstack\HomeAu /
//                          tomation\SmartDoor\CC2530DB\..\..\..\..\..\Compon /
//                          ents\services\saddr\" -I "D:\work space\Smart     /
//                          Product\Two YHY\Door\v1.03.0                      /
//                          Green\ZStack-CC2530-2.5.1a\Projects\zstack\HomeAu /
//                          tomation\SmartDoor\CC2530DB\..\..\..\..\..\Compon /
//                          ents\services\sdata\" -I "D:\work space\Smart     /
//                          Product\Two YHY\Door\v1.03.0                      /
//                          Green\ZStack-CC2530-2.5.1a\Projects\zstack\HomeAu /
//                          tomation\SmartDoor\CC2530DB\..\..\..\..\..\Compon /
//                          ents\stack\af\" -I "D:\work space\Smart           /
//                          Product\Two YHY\Door\v1.03.0                      /
//                          Green\ZStack-CC2530-2.5.1a\Projects\zstack\HomeAu /
//                          tomation\SmartDoor\CC2530DB\..\..\..\..\..\Compon /
//                          ents\stack\nwk\" -I "D:\work space\Smart          /
//                          Product\Two YHY\Door\v1.03.0                      /
//                          Green\ZStack-CC2530-2.5.1a\Projects\zstack\HomeAu /
//                          tomation\SmartDoor\CC2530DB\..\..\..\..\..\Compon /
//                          ents\stack\sapi\" -I "D:\work space\Smart         /
//                          Product\Two YHY\Door\v1.03.0                      /
//                          Green\ZStack-CC2530-2.5.1a\Projects\zstack\HomeAu /
//                          tomation\SmartDoor\CC2530DB\..\..\..\..\..\Compon /
//                          ents\stack\sec\" -I "D:\work space\Smart          /
//                          Product\Two YHY\Door\v1.03.0                      /
//                          Green\ZStack-CC2530-2.5.1a\Projects\zstack\HomeAu /
//                          tomation\SmartDoor\CC2530DB\..\..\..\..\..\Compon /
//                          ents\stack\sys\" -I "D:\work space\Smart          /
//                          Product\Two YHY\Door\v1.03.0                      /
//                          Green\ZStack-CC2530-2.5.1a\Projects\zstack\HomeAu /
//                          tomation\SmartDoor\CC2530DB\..\..\..\..\..\Compon /
//                          ents\stack\zcl\" -I "D:\work space\Smart          /
//                          Product\Two YHY\Door\v1.03.0                      /
//                          Green\ZStack-CC2530-2.5.1a\Projects\zstack\HomeAu /
//                          tomation\SmartDoor\CC2530DB\..\..\..\..\..\Compon /
//                          ents\stack\zdo\" -I "D:\work space\Smart          /
//                          Product\Two YHY\Door\v1.03.0                      /
//                          Green\ZStack-CC2530-2.5.1a\Projects\zstack\HomeAu /
//                          tomation\SmartDoor\CC2530DB\..\..\..\..\..\Compon /
//                          ents\zmac\" -I "D:\work space\Smart Product\Two   /
//                          YHY\Door\v1.03.0  Green\ZStack-CC2530-2.5.1a\Proj /
//                          ects\zstack\HomeAutomation\SmartDoor\CC2530DB\..\ /
//                          ..\..\..\..\Components\zmac\f8w\" -Oh             /
//                          --require_prototypes                              /
//    List file          =  D:\work space\Smart Product\Two YHY\Door\v1.03.0  /
//                           Green\ZStack-CC2530-2.5.1a\Projects\zstack\HomeA /
//                          utomation\SmartDoor\CC2530DB\EndDeviceEB\List\OSA /
//                          L_Nv.s51                                          /
//                                                                            /
//                                                                            /
///////////////////////////////////////////////////////////////////////////////

        NAME OSAL_Nv

        RTMODEL "__SystemLibrary", "CLib"
        RTMODEL "__calling_convention", "xdata_reentrant"
        RTMODEL "__code_model", "banked"
        RTMODEL "__core", "plain"
        RTMODEL "__data_model", "large"
        RTMODEL "__dptr_size", "16"
        RTMODEL "__extended_stack", "disabled"
        RTMODEL "__location_for_constants", "data"
        RTMODEL "__number_of_dptrs", "1"
        RTMODEL "__rt_version", "1"

        RSEG DOVERLAY:DATA:NOROOT(0)
        RSEG IOVERLAY:IDATA:NOROOT(0)
        RSEG ISTACK:IDATA:NOROOT(0)
        RSEG PSTACK:XDATA:NOROOT(0)
        RSEG XSTACK:XDATA:NOROOT(0)

        EXTERN ?ALLOC_XSTACK8
        EXTERN ?BANKED_ENTER_XDATA
        EXTERN ?BANKED_LEAVE_XDATA
        EXTERN ?BDISPATCH
        EXTERN ?BRET
        EXTERN ?DEALLOC_XSTACK8
        EXTERN ?PUSH_XSTACK8_X_TWO
        EXTERN ?PUSH_XSTACK_I_ONE
        EXTERN ?PUSH_XSTACK_I_TWO
        EXTERN ?S_SHL
        EXTERN ?US_SHR
        EXTERN ?V0
        EXTERN ?XSP
        EXTERN ?XSTACK_DISP0_8
        EXTERN __INIT_XDATA_Z

        FUNCTION ??calcChkF?relay,0203H
        FUNCTION ??compactPage?relay,0203H
        FUNCTION ??erasePage?relay,0203H
        FUNCTION ??findItem?relay,0203H
        FUNCTION ??initItem?relay,0203H
        FUNCTION ??initNV?relay,0203H
        FUNCTION ??initPage?relay,0203H
        PUBLIC ??osal_nv_delete?relay
        FUNCTION ??osal_nv_delete?relay,0203H
        PUBLIC ??osal_nv_factory_reset?relay
        FUNCTION ??osal_nv_factory_reset?relay,0203H
        PUBLIC ??osal_nv_init?relay
        FUNCTION ??osal_nv_init?relay,0203H
        PUBLIC ??osal_nv_item_init?relay
        FUNCTION ??osal_nv_item_init?relay,0203H
        PUBLIC ??osal_nv_item_len?relay
        FUNCTION ??osal_nv_item_len?relay,0203H
        PUBLIC ??osal_nv_read?relay
        FUNCTION ??osal_nv_read?relay,0203H
        PUBLIC ??osal_nv_write?relay
        FUNCTION ??osal_nv_write?relay,0203H
        FUNCTION ??setItem?relay,0203H
        FUNCTION ??writeBuf?relay,0203H
        FUNCTION ??writeItem?relay,0203H
        FUNCTION ??xferBuf?relay,0203H
        PUBLIC _nvBuf
        FUNCTION calcChkF,021203H
        ARGFRAME XSTACK, 49, STACK
        ARGFRAME IOVERLAY, 0, STATIC
        ARGFRAME DOVERLAY, 0, STATIC
        LOCFRAME XSTACK, 22, STACK
        FUNCTION compactPage,021203H
        ARGFRAME XSTACK, 40, STACK
        ARGFRAME IOVERLAY, 0, STATIC
        ARGFRAME DOVERLAY, 0, STATIC
        LOCFRAME ISTACK, 1, STACK
        LOCFRAME XSTACK, 41, STACK
        FUNCTION erasePage,021203H
        ARGFRAME XSTACK, 49, STACK
        ARGFRAME IOVERLAY, 0, STATIC
        ARGFRAME DOVERLAY, 0, STATIC
        LOCFRAME XSTACK, 9, STACK
        FUNCTION findItem,021203H
        ARGFRAME XSTACK, 49, STACK
        ARGFRAME IOVERLAY, 0, STATIC
        ARGFRAME DOVERLAY, 0, STATIC
        LOCFRAME XSTACK, 12, STACK
        FUNCTION initItem,021203H
        ARGFRAME XSTACK, 51, STACK
        ARGFRAME IOVERLAY, 0, STATIC
        ARGFRAME DOVERLAY, 0, STATIC
        LOCFRAME ISTACK, 1, STACK
        LOCFRAME XSTACK, 43, STACK
        FUNCTION initNV,021203H
        ARGFRAME XSTACK, 0, STACK
        ARGFRAME IOVERLAY, 0, STATIC
        ARGFRAME DOVERLAY, 0, STATIC
        LOCFRAME XSTACK, 32, STACK
        FUNCTION initPage,021203H
        ARGFRAME XSTACK, 30, STACK
        ARGFRAME IOVERLAY, 0, STATIC
        ARGFRAME DOVERLAY, 0, STATIC
        LOCFRAME XSTACK, 32, STACK
        PUBLIC osal_nv_delete
        FUNCTION osal_nv_delete,021203H
        ARGFRAME XSTACK, 0, STACK
        LOCFRAME XSTACK, 14, STACK
        PUBLIC osal_nv_factory_reset
        FUNCTION osal_nv_factory_reset,021203H
        ARGFRAME XSTACK, 0, STACK
        LOCFRAME XSTACK, 9, STACK
        PUBLIC osal_nv_init
        FUNCTION osal_nv_init,021203H
        ARGFRAME XSTACK, 0, STACK
        LOCFRAME ISTACK, 2, STACK
        PUBLIC osal_nv_item_init
        FUNCTION osal_nv_item_init,021203H
        ARGFRAME XSTACK, 2, STACK
        LOCFRAME ISTACK, 1, STACK
        LOCFRAME XSTACK, 16, STACK
        PUBLIC osal_nv_item_len
        FUNCTION osal_nv_item_len,021203H
        ARGFRAME XSTACK, 14, STACK
        ARGFRAME IOVERLAY, 0, STATIC
        ARGFRAME DOVERLAY, 0, STATIC
        LOCFRAME XSTACK, 20, STACK
        PUBLIC osal_nv_read
        FUNCTION osal_nv_read,021203H
        ARGFRAME XSTACK, 4, STACK
        LOCFRAME XSTACK, 16, STACK
        PUBLIC osal_nv_write
        FUNCTION osal_nv_write,021203H
        ARGFRAME XSTACK, 4, STACK
        LOCFRAME ISTACK, 1, STACK
        LOCFRAME XSTACK, 53, STACK
        FUNCTION setItem,021203H
        ARGFRAME XSTACK, 49, STACK
        ARGFRAME IOVERLAY, 0, STATIC
        ARGFRAME DOVERLAY, 0, STATIC
        LOCFRAME XSTACK, 24, STACK
        FUNCTION writeBuf,021203H
        ARGFRAME XSTACK, 51, STACK
        ARGFRAME IOVERLAY, 0, STATIC
        ARGFRAME DOVERLAY, 0, STATIC
        LOCFRAME ISTACK, 1, STACK
        LOCFRAME XSTACK, 24, STACK
        FUNCTION writeItem,021203H
        ARGFRAME XSTACK, 43, STACK
        ARGFRAME IOVERLAY, 0, STATIC
        ARGFRAME DOVERLAY, 0, STATIC
        LOCFRAME ISTACK, 1, STACK
        LOCFRAME XSTACK, 42, STACK
        FUNCTION xferBuf,021203H
        ARGFRAME XSTACK, 53, STACK
        ARGFRAME IOVERLAY, 0, STATIC
        ARGFRAME DOVERLAY, 0, STATIC
        LOCFRAME XSTACK, 26, STACK
        
        CFI Names cfiNames0
        CFI StackFrame CFA_SP SP IDATA
        CFI StackFrame CFA_PSP16 PSP16 XDATA
        CFI StackFrame CFA_XSP16 XSP16 XDATA
        CFI StaticOverlayFrame CFA_IOVERLAY IOVERLAY
        CFI StaticOverlayFrame CFA_DOVERLAY DOVERLAY
        CFI Resource `PSW.CY`:1, `B.BR0`:1, `B.BR1`:1, `B.BR2`:1, `B.BR3`:1
        CFI Resource `B.BR4`:1, `B.BR5`:1, `B.BR6`:1, `B.BR7`:1, `VB.BR8`:1
        CFI Resource `VB.BR9`:1, `VB.BR10`:1, `VB.BR11`:1, `VB.BR12`:1
        CFI Resource `VB.BR13`:1, `VB.BR14`:1, `VB.BR15`:1, VB:8, B:8, A:8
        CFI Resource PSW:8, DPL0:8, DPH0:8, R0:8, R1:8, R2:8, R3:8, R4:8, R5:8
        CFI Resource R6:8, R7:8, V0:8, V1:8, V2:8, V3:8, V4:8, V5:8, V6:8, V7:8
        CFI Resource V8:8, V9:8, V10:8, V11:8, V12:8, V13:8, V14:8, V15:8, SP:8
        CFI Resource PSPH:8, PSPL:8, PSP16:16, XSPH:8, XSPL:8, XSP16:16
        CFI VirtualResource ?RET:24
        CFI Resource ?BRET_EXT:8
        CFI VirtualResource ?RET_HIGH:8, ?RET_LOW:8
        CFI ResourceParts PSP16 PSPH, PSPL
        CFI ResourceParts XSP16 XSPH, XSPL
        CFI ResourceParts ?RET ?BRET_EXT, ?RET_HIGH, ?RET_LOW
        CFI EndNames cfiNames0
        
        CFI Common cfiCommon0 Using cfiNames0
        CFI CodeAlign 1
        CFI DataAlign -1
        CFI ReturnAddress ?RET CODE
        CFI CFA_DOVERLAY Used
        CFI CFA_IOVERLAY Used
        CFI CFA_SP SP+-3
        CFI CFA_PSP16 PSP16+0
        CFI CFA_XSP16 XSP16+0
        CFI `PSW.CY` SameValue
        CFI `B.BR0` SameValue
        CFI `B.BR1` SameValue
        CFI `B.BR2` SameValue
        CFI `B.BR3` SameValue
        CFI `B.BR4` SameValue
        CFI `B.BR5` SameValue
        CFI `B.BR6` SameValue
        CFI `B.BR7` SameValue
        CFI `VB.BR8` SameValue
        CFI `VB.BR9` SameValue
        CFI `VB.BR10` SameValue
        CFI `VB.BR11` SameValue
        CFI `VB.BR12` SameValue
        CFI `VB.BR13` SameValue
        CFI `VB.BR14` SameValue
        CFI `VB.BR15` SameValue
        CFI VB SameValue
        CFI B Undefined
        CFI A Undefined
        CFI PSW SameValue
        CFI DPL0 SameValue
        CFI DPH0 SameValue
        CFI R0 Undefined
        CFI R1 Undefined
        CFI R2 Undefined
        CFI R3 Undefined
        CFI R4 Undefined
        CFI R5 Undefined
        CFI R6 SameValue
        CFI R7 SameValue
        CFI V0 SameValue
        CFI V1 SameValue
        CFI V2 SameValue
        CFI V3 SameValue
        CFI V4 SameValue
        CFI V5 SameValue
        CFI V6 SameValue
        CFI V7 SameValue
        CFI V8 SameValue
        CFI V9 SameValue
        CFI V10 SameValue
        CFI V11 SameValue
        CFI V12 SameValue
        CFI V13 SameValue
        CFI V14 SameValue
        CFI V15 SameValue
        CFI PSPH Undefined
        CFI PSPL Undefined
        CFI XSPH Undefined
        CFI XSPL Undefined
        CFI ?RET Concat
        CFI ?BRET_EXT Frame(CFA_SP, 3)
        CFI ?RET_HIGH Frame(CFA_SP, 2)
        CFI ?RET_LOW Frame(CFA_SP, 1)
        CFI EndCommon cfiCommon0
        
        
        CFI Common cfiCommon1 Using cfiNames0
        CFI CodeAlign 1
        CFI DataAlign -1
        CFI ReturnAddress ?RET CODE
        CFI CFA_DOVERLAY Used
        CFI CFA_IOVERLAY Used
        CFI CFA_SP SP+-2
        CFI CFA_PSP16 PSP16+0
        CFI CFA_XSP16 XSP16+0
        CFI `PSW.CY` SameValue
        CFI `B.BR0` SameValue
        CFI `B.BR1` SameValue
        CFI `B.BR2` SameValue
        CFI `B.BR3` SameValue
        CFI `B.BR4` SameValue
        CFI `B.BR5` SameValue
        CFI `B.BR6` SameValue
        CFI `B.BR7` SameValue
        CFI `VB.BR8` SameValue
        CFI `VB.BR9` SameValue
        CFI `VB.BR10` SameValue
        CFI `VB.BR11` SameValue
        CFI `VB.BR12` SameValue
        CFI `VB.BR13` SameValue
        CFI `VB.BR14` SameValue
        CFI `VB.BR15` SameValue
        CFI VB SameValue
        CFI B SameValue
        CFI A SameValue
        CFI PSW SameValue
        CFI DPL0 SameValue
        CFI DPH0 SameValue
        CFI R0 SameValue
        CFI R1 SameValue
        CFI R2 SameValue
        CFI R3 SameValue
        CFI R4 SameValue
        CFI R5 SameValue
        CFI R6 SameValue
        CFI R7 SameValue
        CFI V0 SameValue
        CFI V1 SameValue
        CFI V2 SameValue
        CFI V3 SameValue
        CFI V4 SameValue
        CFI V5 SameValue
        CFI V6 SameValue
        CFI V7 SameValue
        CFI V8 SameValue
        CFI V9 SameValue
        CFI V10 SameValue
        CFI V11 SameValue
        CFI V12 SameValue
        CFI V13 SameValue
        CFI V14 SameValue
        CFI V15 SameValue
        CFI PSPH Undefined
        CFI PSPL Undefined
        CFI XSPH Undefined
        CFI XSPL Undefined
        CFI ?RET Concat
        CFI ?BRET_EXT SameValue
        CFI ?RET_HIGH Frame(CFA_SP, 2)
        CFI ?RET_LOW Frame(CFA_SP, 1)
        CFI EndCommon cfiCommon1
        
HalFlashRead        SYMBOL "HalFlashRead"
HalFlashWrite       SYMBOL "HalFlashWrite"
HalFlashErase       SYMBOL "HalFlashErase"
HalAdcCheckVdd      SYMBOL "HalAdcCheckVdd"
??HalAdcCheckVdd?relay SYMBOL "?relay", HalAdcCheckVdd
??HalFlashErase?relay SYMBOL "?relay", HalFlashErase
??HalFlashRead?relay SYMBOL "?relay", HalFlashRead
??HalFlashWrite?relay SYMBOL "?relay", HalFlashWrite
osal_nv_delete      SYMBOL "osal_nv_delete"
??osal_nv_delete?relay SYMBOL "?relay", osal_nv_delete
osal_nv_factory_reset SYMBOL "osal_nv_factory_reset"
??osal_nv_factory_reset?relay SYMBOL "?relay", osal_nv_factory_reset
osal_nv_init        SYMBOL "osal_nv_init"
??osal_nv_init?relay SYMBOL "?relay", osal_nv_init
osal_nv_item_init   SYMBOL "osal_nv_item_init"
??osal_nv_item_init?relay SYMBOL "?relay", osal_nv_item_init
osal_nv_item_len    SYMBOL "osal_nv_item_len"
??osal_nv_item_len?relay SYMBOL "?relay", osal_nv_item_len
osal_nv_read        SYMBOL "osal_nv_read"
??osal_nv_read?relay SYMBOL "?relay", osal_nv_read
osal_nv_write       SYMBOL "osal_nv_write"
??osal_nv_write?relay SYMBOL "?relay", osal_nv_write

        EXTERN HalFlashRead
        FUNCTION HalFlashRead,0202H
        ARGFRAME ISTACK, 0, STACK
        ARGFRAME PSTACK, 0, STACK
        ARGFRAME XSTACK, 51, STACK
        ARGFRAME IOVERLAY, 0, STATIC
        ARGFRAME DOVERLAY, 0, STATIC
        EXTERN HalFlashWrite
        FUNCTION HalFlashWrite,0202H
        ARGFRAME ISTACK, 0, STACK
        ARGFRAME PSTACK, 0, STACK
        ARGFRAME XSTACK, 51, STACK
        ARGFRAME IOVERLAY, 0, STATIC
        ARGFRAME DOVERLAY, 0, STATIC
        EXTERN HalFlashErase
        FUNCTION HalFlashErase,0202H
        ARGFRAME ISTACK, 0, STACK
        ARGFRAME PSTACK, 0, STACK
        ARGFRAME XSTACK, 9, STACK
        ARGFRAME IOVERLAY, 0, STATIC
        ARGFRAME DOVERLAY, 0, STATIC
        EXTERN HalAdcCheckVdd
        FUNCTION HalAdcCheckVdd,0202H
        ARGFRAME ISTACK, 0, STACK
        ARGFRAME PSTACK, 0, STACK
        ARGFRAME XSTACK, 49, STACK
        ARGFRAME IOVERLAY, 0, STATIC
        ARGFRAME DOVERLAY, 0, STATIC
        EXTERN ??HalAdcCheckVdd?relay
        FUNCTION ??HalAdcCheckVdd?relay,00H
        EXTERN ??HalFlashErase?relay
        FUNCTION ??HalFlashErase?relay,00H
        EXTERN ??HalFlashRead?relay
        FUNCTION ??HalFlashRead?relay,00H
        EXTERN ??HalFlashWrite?relay
        FUNCTION ??HalFlashWrite?relay,00H

// D:\work space\Smart Product\Two YHY\Door\v1.03.0  Green\ZStack-CC2530-2.5.1a\Components\osal\mcu\cc2530\OSAL_Nv.c
//    1 /******************************************************************************
//    2   Filename:       OSAL_Nv.c
//    3   Revised:        $Date: 2011-06-05 18:52:21 -0700 (Sun, 05 Jun 2011) $
//    4   Revision:       $Revision: 26212 $
//    5 
//    6   Description:    This module contains the OSAL non-volatile memory functions.
//    7 
//    8 
//    9   Copyright 2006-2011 Texas Instruments Incorporated. All rights reserved.
//   10 
//   11   IMPORTANT: Your use of this Software is limited to those specific rights
//   12   granted under the terms of a software license agreement between the user
//   13   who downloaded the software, his/her employer (which must be your employer)
//   14   and Texas Instruments Incorporated (the "License"). You may not use this
//   15   Software unless you agree to abide by the terms of the License. The License
//   16   limits your use, and you acknowledge, that the Software may not be modified,
//   17   copied or distributed unless embedded on a Texas Instruments microcontroller
//   18   or used solely and exclusively in conjunction with a Texas Instruments radio
//   19   frequency transceiver, which is integrated into your product. Other than for
//   20   the foregoing purpose, you may not use, reproduce, copy, prepare derivative
//   21   works of, modify, distribute, perform, display or sell this Software and/or
//   22   its documentation for any purpose.
//   23 
//   24   YOU FURTHER ACKNOWLEDGE AND AGREE THAT THE SOFTWARE AND DOCUMENTATION ARE
//   25   PROVIDED “AS IS?WITHOUT WARRANTY OF ANY KIND, EITHER EXPRESS OR IMPLIED,
//   26   INCLUDING WITHOUT LIMITATION, ANY WARRANTY OF MERCHANTABILITY, TITLE,
//   27   NON-INFRINGEMENT AND FITNESS FOR A PARTICULAR PURPOSE. IN NO EVENT SHALL
//   28   TEXAS INSTRUMENTS OR ITS LICENSORS BE LIABLE OR OBLIGATED UNDER CONTRACT,
//   29   NEGLIGENCE, STRICT LIABILITY, CONTRIBUTION, BREACH OF WARRANTY, OR OTHER
//   30   LEGAL EQUITABLE THEORY ANY DIRECT OR INDIRECT DAMAGES OR EXPENSES
//   31   INCLUDING BUT NOT LIMITED TO ANY INCIDENTAL, SPECIAL, INDIRECT, PUNITIVE
//   32   OR CONSEQUENTIAL DAMAGES, LOST PROFITS OR LOST DATA, COST OF PROCUREMENT
//   33   OF SUBSTITUTE GOODS, TECHNOLOGY, SERVICES, OR ANY CLAIMS BY THIRD PARTIES
//   34   (INCLUDING BUT NOT LIMITED TO ANY DEFENSE THEREOF), OR OTHER SIMILAR COSTS.
//   35 
//   36   Should you have any questions regarding your right to use this Software,
//   37   contact Texas Instruments Incorporated at www.TI.com.
//   38 ******************************************************************************/
//   39 
//   40 /******************************************************************************
//   41   Notes:
//   42     - A trick buried deep in initPage() requires that the MSB of the NV Item Id
//   43       is to be reserved for use by this module.
//   44 ******************************************************************************/
//   45 
//   46 /*********************************************************************
//   47  * INCLUDES
//   48  */
//   49 
//   50 #include "hal_adc.h"
//   51 #include "hal_flash.h"
//   52 #include "hal_types.h"
//   53 #include "OSAL_Nv.h"
//   54 #include "ZComDef.h"
//   55 
//   56 /*********************************************************************
//   57  * CONSTANTS
//   58  */
//   59 
//   60 #define OSAL_NV_PAGE_SIZE       HAL_FLASH_PAGE_SIZE
//   61 #define OSAL_NV_PAGES_USED      HAL_NV_PAGE_CNT
//   62 #define OSAL_NV_PAGE_BEG        HAL_NV_PAGE_BEG
//   63 #define OSAL_NV_PAGE_END       (OSAL_NV_PAGE_BEG + OSAL_NV_PAGES_USED - 1)
//   64 
//   65 #define OSAL_NV_ACTIVE          0x00
//   66 #define OSAL_NV_ERASED          0xFF
//   67 #define OSAL_NV_ERASED_ID       0xFFFF
//   68 #define OSAL_NV_ZEROED_ID       0x0000
//   69 // Reserve MSB of Id to signal a search for the "old" source copy (new write interrupted/failed.)
//   70 #define OSAL_NV_SOURCE_ID       0x8000
//   71 
//   72 // In case pages 0-1 are ever used, define a null page value.
//   73 #define OSAL_NV_PAGE_NULL       0
//   74 
//   75 // In case item Id 0 is ever used, define a null item value.
//   76 #define OSAL_NV_ITEM_NULL       0
//   77 
//   78 #define OSAL_NV_WORD_SIZE       HAL_FLASH_WORD_SIZE
//   79 
//   80 #define OSAL_NV_PAGE_HDR_OFFSET 0
//   81 
//   82 #define OSAL_NV_MAX_HOT         3

        RSEG XDATA_ROM_C:CONST:REORDER:NOROOT(0)
        DATA8
//   83 static const uint16 hotIds[OSAL_NV_MAX_HOT] = {
hotIds:
        DATA16
        DW 130
        DW 58
        DW 59
//   84   ZCD_NV_NWKKEY,
//   85   ZCD_NV_NWK_ACTIVE_KEY_INFO,
//   86   ZCD_NV_NWK_ALTERN_KEY_INFO,
//   87 };
//   88 
//   89 /*********************************************************************
//   90  * MACROS
//   91  */
//   92 
//   93 #define OSAL_NV_CHECK_BUS_VOLTAGE  HalAdcCheckVdd(VDD_MIN_NV)
//   94 
//   95 #define OSAL_NV_DATA_SIZE( LEN )                      \ 
//   96   (((LEN) >= ((uint16)(65536UL - OSAL_NV_WORD_SIZE))) ? \ 
//   97              ((uint16)(65536UL - OSAL_NV_WORD_SIZE))  : \ 
//   98              ((((LEN) + OSAL_NV_WORD_SIZE - 1) / OSAL_NV_WORD_SIZE) * OSAL_NV_WORD_SIZE))
//   99 
//  100 #define OSAL_NV_ITEM_SIZE( LEN )                                         \ 
//  101   (((LEN) >= ((uint16)(65536UL - OSAL_NV_WORD_SIZE - OSAL_NV_HDR_SIZE))) ? \ 
//  102              ((uint16)(65536UL - OSAL_NV_WORD_SIZE))                     : \ 
//  103   (((((LEN) + OSAL_NV_WORD_SIZE - 1) / OSAL_NV_WORD_SIZE) * OSAL_NV_WORD_SIZE) + OSAL_NV_HDR_SIZE))
//  104 
//  105 #define COMPACT_PAGE_CLEANUP( COM_PG ) st ( \ 
//  106   /* In order to recover from a page compaction that is interrupted,\ 
//  107    * the logic in osal_nv_init() depends upon the following order:\ 
//  108    * 1. State of the target of compaction is changed to ePgInUse.\ 
//  109    * 2. Compacted page is erased.\ 
//  110    */\ 
//  111   setPageUse( pgRes, TRUE );  /* Mark the reserve page as being in use. */\ 
//  112   erasePage( (COM_PG) ); \ 
//  113   \ 
//  114   pgRes = (COM_PG);           /* Set the reserve page to be the newly erased page. */\ 
//  115 )
//  116 
//  117 /*********************************************************************
//  118  * TYPEDEFS
//  119  */
//  120 
//  121 typedef struct
//  122 {
//  123   uint16 id;
//  124   uint16 len;   // Enforce Flash-WORD size on len.
//  125   uint16 chk;   // Byte-wise checksum of the 'len' data bytes of the item.
//  126   uint16 stat;  // Item status.
//  127 } osalNvHdr_t;
//  128 // Struct member offsets.
//  129 #define OSAL_NV_HDR_ID    0
//  130 #define OSAL_NV_HDR_LEN   2
//  131 #define OSAL_NV_HDR_CHK   4
//  132 #define OSAL_NV_HDR_STAT  6
//  133 
//  134 #define OSAL_NV_HDR_ITEM  2  // Length of any item of a header struct.
//  135 #define OSAL_NV_HDR_SIZE  8
//  136 #define OSAL_NV_HDR_HALF (OSAL_NV_HDR_SIZE / 2)
//  137 
//  138 typedef struct
//  139 {
//  140   uint16 active;
//  141   uint16 inUse;
//  142   uint16 xfer;
//  143   uint16 spare;
//  144 } osalNvPgHdr_t;
//  145 // Struct member offsets.
//  146 #define OSAL_NV_PG_ACTIVE 0
//  147 #define OSAL_NV_PG_INUSE  2
//  148 #define OSAL_NV_PG_XFER   4
//  149 #define OSAL_NV_PG_SPARE  6
//  150 
//  151 #define OSAL_NV_PAGE_HDR_SIZE  8
//  152 #define OSAL_NV_PAGE_HDR_HALF (OSAL_NV_PAGE_HDR_SIZE / 2)
//  153 
//  154 typedef enum
//  155 {
//  156   eNvXfer,
//  157   eNvZero
//  158 } eNvHdrEnum;
//  159 
//  160 typedef enum
//  161 {
//  162   ePgActive,
//  163   ePgInUse,
//  164   ePgXfer,
//  165   ePgSpare
//  166 } ePgHdrEnum;
//  167 
//  168 /*********************************************************************
//  169  * GLOBAL VARIABLES
//  170  */
//  171 
//  172 #ifndef OAD_KEEP_NV_PAGES
//  173 // When NV pages are to remain intact during OAD download,
//  174 // the image itself should not include NV pages.
//  175 #pragma location="ZIGNV_ADDRESS_SPACE"

        RSEG ZIGNV_ADDRESS_SPACE:XDATA:REORDER:NOROOT(0)
        DATA8
//  176 __no_init uint8 _nvBuf[OSAL_NV_PAGES_USED * OSAL_NV_PAGE_SIZE];
_nvBuf:
        DS 12288
//  177 #pragma required=_nvBuf
//  178 #endif // OAD_KEEP_NV_PAGES
//  179 
//  180 /*********************************************************************
//  181  * LOCAL VARIABLES
//  182  */
//  183 
//  184 // Offset into the page of the first available erased space.

        RSEG XDATA_Z:XDATA:NOROOT(0)
        DATA8
//  185 static uint16 pgOff[OSAL_NV_PAGES_USED];
pgOff:
        DS 12
        REQUIRE __INIT_XDATA_Z
        REQUIRE _nvBuf
//  186 
//  187 // Count of the bytes lost for the zeroed-out items.

        RSEG XDATA_Z:XDATA:NOROOT(0)
        DATA8
//  188 static uint16 pgLost[OSAL_NV_PAGES_USED];
pgLost:
        DS 12
        REQUIRE __INIT_XDATA_Z
//  189 

        RSEG XDATA_Z:XDATA:NOROOT(0)
        DATA8
//  190 static uint8 pgRes;  // Page reserved for item compacting transfer.
pgRes:
        DS 1
        REQUIRE __INIT_XDATA_Z
//  191 
//  192 // Saving ~100 code bytes to move a uint8* parameter/return value from findItem() to a global.

        RSEG XDATA_Z:XDATA:NOROOT(0)
        DATA8
//  193 static uint8 findPg;
findPg:
        DS 1
        REQUIRE __INIT_XDATA_Z
//  194 
//  195 // NV page and offsets for hot items.

        RSEG XDATA_Z:XDATA:NOROOT(0)
        DATA8
//  196 static uint8 hotPg[OSAL_NV_MAX_HOT];
hotPg:
        DS 3
        REQUIRE __INIT_XDATA_Z

        RSEG XDATA_Z:XDATA:NOROOT(0)
        DATA8
//  197 static uint16 hotOff[OSAL_NV_MAX_HOT];
hotOff:
        DS 6
        REQUIRE __INIT_XDATA_Z
//  198 
//  199 /*********************************************************************
//  200  * LOCAL FUNCTIONS
//  201  */
//  202 
//  203 static uint8  initNV( void );
//  204 
//  205 static void   setPageUse( uint8 pg, uint8 inUse );
//  206 static uint16 initPage( uint8 pg, uint16 id, uint8 findDups );
//  207 static void   erasePage( uint8 pg );
//  208 static uint8  compactPage( uint8 srcPg, uint16 skipId );
//  209 
//  210 static uint16 findItem( uint16 id );
//  211 static uint8  initItem( uint8 flag, uint16 id, uint16 len, void *buf );
//  212 static void   setItem( uint8 pg, uint16 offset, eNvHdrEnum stat );
//  213 static uint16 setChk( uint8 pg, uint16 offset, uint16 chk );
//  214 
//  215 static uint16 calcChkB( uint16 len, uint8 *buf );
//  216 static uint16 calcChkF( uint8 pg, uint16 offset, uint16 len );
//  217 
//  218 static void   writeWord( uint8 pg, uint16 offset, uint8 *buf );
//  219 static void   writeWordH( uint8 pg, uint16 offset, uint8 *buf );
//  220 static void   writeWordM( uint8 pg, uint16 offset, uint8 *buf, uint16 cnt );
//  221 static void   writeBuf( uint8 pg, uint16 offset, uint16 len, uint8 *buf );
//  222 static void   xferBuf( uint8 srcPg, uint16 srcOff, uint8 dstPg, uint16 dstOff, uint16 len );
//  223 
//  224 static uint8  writeItem( uint8 pg, uint16 id, uint16 len, void *buf, uint8 flag );
//  225 static uint8  hotItem(uint16 id);
//  226 static void   hotItemUpdate(uint8 pg, uint16 off, uint16 id);
//  227 
//  228 /*********************************************************************
//  229  * @fn      initNV
//  230  *
//  231  * @brief   Initialize the NV flash pages.
//  232  *
//  233  * @param   none
//  234  *
//  235  * @return  TRUE
//  236  */

        RSEG BANKED_CODE:CODE:NOROOT(0)
//  237 static uint8 initNV( void )
initNV:
        CFI Block cfiBlock0 Using cfiCommon0
        CFI Function initNV
        CODE
//  238 {
        FUNCALL initNV, HalFlashRead
        LOCFRAME ISTACK, 0, STACK
        LOCFRAME PSTACK, 0, STACK
        LOCFRAME XSTACK, 32, STACK
        LOCFRAME IOVERLAY, 0, STATIC
        LOCFRAME DOVERLAY, 0, STATIC
        ARGFRAME ISTACK, 0, STACK
        ARGFRAME PSTACK, 0, STACK
        ARGFRAME XSTACK, 32, STACK
        ARGFRAME IOVERLAY, 0, STATIC
        ARGFRAME DOVERLAY, 0, STATIC
        FUNCALL initNV, HalFlashWrite
        LOCFRAME ISTACK, 0, STACK
        LOCFRAME PSTACK, 0, STACK
        LOCFRAME XSTACK, 32, STACK
        LOCFRAME IOVERLAY, 0, STATIC
        LOCFRAME DOVERLAY, 0, STATIC
        ARGFRAME ISTACK, 0, STACK
        ARGFRAME PSTACK, 0, STACK
        ARGFRAME XSTACK, 32, STACK
        ARGFRAME IOVERLAY, 0, STATIC
        ARGFRAME DOVERLAY, 0, STATIC
        FUNCALL initNV, erasePage
        LOCFRAME ISTACK, 0, STACK
        LOCFRAME PSTACK, 0, STACK
        LOCFRAME XSTACK, 30, STACK
        LOCFRAME IOVERLAY, 0, STATIC
        LOCFRAME DOVERLAY, 0, STATIC
        ARGFRAME ISTACK, 0, STACK
        ARGFRAME PSTACK, 0, STACK
        ARGFRAME XSTACK, 30, STACK
        ARGFRAME IOVERLAY, 0, STATIC
        ARGFRAME DOVERLAY, 0, STATIC
        FUNCALL initNV, compactPage
        LOCFRAME ISTACK, 0, STACK
        LOCFRAME PSTACK, 0, STACK
        LOCFRAME XSTACK, 30, STACK
        LOCFRAME IOVERLAY, 0, STATIC
        LOCFRAME DOVERLAY, 0, STATIC
        ARGFRAME ISTACK, 0, STACK
        ARGFRAME PSTACK, 0, STACK
        ARGFRAME XSTACK, 30, STACK
        ARGFRAME IOVERLAY, 0, STATIC
        ARGFRAME DOVERLAY, 0, STATIC
        FUNCALL initNV, erasePage
        LOCFRAME ISTACK, 0, STACK
        LOCFRAME PSTACK, 0, STACK
        LOCFRAME XSTACK, 30, STACK
        LOCFRAME IOVERLAY, 0, STATIC
        LOCFRAME DOVERLAY, 0, STATIC
        ARGFRAME ISTACK, 0, STACK
        ARGFRAME PSTACK, 0, STACK
        ARGFRAME XSTACK, 30, STACK
        ARGFRAME IOVERLAY, 0, STATIC
        ARGFRAME DOVERLAY, 0, STATIC
        FUNCALL initNV, erasePage
        LOCFRAME ISTACK, 0, STACK
        LOCFRAME PSTACK, 0, STACK
        LOCFRAME XSTACK, 30, STACK
        LOCFRAME IOVERLAY, 0, STATIC
        LOCFRAME DOVERLAY, 0, STATIC
        ARGFRAME ISTACK, 0, STACK
        ARGFRAME PSTACK, 0, STACK
        ARGFRAME XSTACK, 30, STACK
        ARGFRAME IOVERLAY, 0, STATIC
        ARGFRAME DOVERLAY, 0, STATIC
        FUNCALL initNV, initPage
        LOCFRAME ISTACK, 0, STACK
        LOCFRAME PSTACK, 0, STACK
        LOCFRAME XSTACK, 30, STACK
        LOCFRAME IOVERLAY, 0, STATIC
        LOCFRAME DOVERLAY, 0, STATIC
        ARGFRAME ISTACK, 0, STACK
        ARGFRAME PSTACK, 0, STACK
        ARGFRAME XSTACK, 30, STACK
        ARGFRAME IOVERLAY, 0, STATIC
        ARGFRAME DOVERLAY, 0, STATIC
        FUNCALL initNV, initPage
        LOCFRAME ISTACK, 0, STACK
        LOCFRAME PSTACK, 0, STACK
        LOCFRAME XSTACK, 30, STACK
        LOCFRAME IOVERLAY, 0, STATIC
        LOCFRAME DOVERLAY, 0, STATIC
        ARGFRAME ISTACK, 0, STACK
        ARGFRAME PSTACK, 0, STACK
        ARGFRAME XSTACK, 30, STACK
        ARGFRAME IOVERLAY, 0, STATIC
        ARGFRAME DOVERLAY, 0, STATIC
        FUNCALL initNV, erasePage
        LOCFRAME ISTACK, 0, STACK
        LOCFRAME PSTACK, 0, STACK
        LOCFRAME XSTACK, 30, STACK
        LOCFRAME IOVERLAY, 0, STATIC
        LOCFRAME DOVERLAY, 0, STATIC
        ARGFRAME ISTACK, 0, STACK
        ARGFRAME PSTACK, 0, STACK
        ARGFRAME XSTACK, 30, STACK
        ARGFRAME IOVERLAY, 0, STATIC
        ARGFRAME DOVERLAY, 0, STATIC
        MOV     A,#-0xe
        LCALL   ?BANKED_ENTER_XDATA
        CFI DPH0 load(1, XDATA, add(CFA_XSP16, literal(-1)))
        CFI DPL0 load(1, XDATA, add(CFA_XSP16, literal(-2)))
        CFI ?BRET_EXT load(1, XDATA, add(CFA_XSP16, literal(-3)))
        CFI ?RET_HIGH load(1, XDATA, add(CFA_XSP16, literal(-4)))
        CFI ?RET_LOW load(1, XDATA, add(CFA_XSP16, literal(-5)))
        CFI R7 load(1, XDATA, add(CFA_XSP16, literal(-6)))
        CFI V5 load(1, XDATA, add(CFA_XSP16, literal(-7)))
        CFI V4 load(1, XDATA, add(CFA_XSP16, literal(-8)))
        CFI V3 load(1, XDATA, add(CFA_XSP16, literal(-9)))
        CFI V2 load(1, XDATA, add(CFA_XSP16, literal(-10)))
        CFI V1 load(1, XDATA, add(CFA_XSP16, literal(-11)))
        CFI V0 load(1, XDATA, add(CFA_XSP16, literal(-12)))
        CFI VB load(1, XDATA, add(CFA_XSP16, literal(-13)))
        CFI R6 load(1, XDATA, add(CFA_XSP16, literal(-14)))
        CFI CFA_SP SP+0
        CFI CFA_XSP16 add(XSP16, 14)
        ; Saved register size: 14
        ; Auto size: 16
        MOV     A,#-0x10
        LCALL   ?ALLOC_XSTACK8
        CFI CFA_XSP16 add(XSP16, 30)
//  239   osalNvPgHdr_t pgHdr;
//  240   uint8 oldPg = OSAL_NV_PAGE_NULL;
        MOV     ?V0 + 0,#0x0
//  241   uint8 findDups = FALSE;
        MOV     ?V0 + 2,#0x0
//  242   uint8 pg;
//  243 
//  244   pgRes = OSAL_NV_PAGE_NULL;
        MOV     DPTR,#pgRes
        CLR     A
        MOVX    @DPTR,A
//  245 
//  246   for ( pg = OSAL_NV_PAGE_BEG; pg <= OSAL_NV_PAGE_END; pg++ )
        MOV     ?V0 + 1,#0x79
        MOV     R7,#-0xe
//  247   {
//  248     HalFlashRead(pg, OSAL_NV_PAGE_HDR_OFFSET, (uint8 *)(&pgHdr), OSAL_NV_HDR_SIZE);
??initNV_0:
        ; Setup parameters for call to function HalFlashRead
        MOV     ?V0 + 4,#0x8
        MOV     ?V0 + 5,#0x0
        MOV     R0,#?V0 + 4
        LCALL   ?PUSH_XSTACK_I_TWO
        CFI CFA_XSP16 add(XSP16, 32)
        MOV     A,#0xa
        LCALL   ?XSTACK_DISP0_8
        MOV     R4,DPL
        MOV     R5,DPH
        MOV     R2,#0x0
        MOV     R3,#0x0
        MOV     R1,?V0 + 1
        LCALL   ??Subroutine51_0 & 0xFFFF
??CrossCallReturnLabel_121:
        LCALL   ?DEALLOC_XSTACK8
        CFI CFA_XSP16 add(XSP16, 30)
//  249 
//  250     if ( pgHdr.active == OSAL_NV_ERASED_ID )
        MOV     A,#0x8
        LCALL   ?XSTACK_DISP0_8
        MOVX    A,@DPTR
        CPL     A
        JNZ     ??initNV_1
        INC     DPTR
        MOVX    A,@DPTR
        CPL     A
??initNV_1:
        JNZ     ??initNV_2
//  251     {
//  252       if ( pgRes == OSAL_NV_PAGE_NULL )
        MOV     DPTR,#pgRes
        MOVX    A,@DPTR
        JNZ     ??initNV_3
//  253       {
//  254         pgRes = pg;
        MOV     A,?V0 + 1
        MOVX    @DPTR,A
        SJMP    ??initNV_4
//  255       }
//  256       else
//  257       {
//  258         setPageUse( pg, TRUE );
??initNV_3:
        MOV     DPL,?XSP + 0
        MOV     DPH,?XSP + 1
        CLR     A
        MOVX    @DPTR,A
        INC     DPTR
        MOVX    @DPTR,A
        MOV     A,#0x2
        LCALL   ?XSTACK_DISP0_8
        CLR     A
        MOVX    @DPTR,A
        INC     DPTR
        MOVX    @DPTR,A
        ; Setup parameters for call to function HalFlashWrite
        MOV     ?V0 + 4,#0x1
        MOV     R0,#?V0 + 4
        LCALL   ?PUSH_XSTACK_I_TWO
        CFI CFA_XSP16 add(XSP16, 32)
        MOV     A,#0x2
        LCALL   ?XSTACK_DISP0_8
        MOV     R4,DPL
        MOV     R5,DPH
        MOV     R2,#0x0
        MOV     A,R7
        LCALL   ??Subroutine44_0 & 0xFFFF
??CrossCallReturnLabel_84:
        LCALL   ?DEALLOC_XSTACK8
        CFI CFA_XSP16 add(XSP16, 30)
//  259       }
//  260     }
        SJMP    ??initNV_4
//  261     // An Xfer from this page was in progress.
//  262     else if ( pgHdr.xfer != OSAL_NV_ERASED_ID )
??initNV_2:
        MOV     A,#0xc
        LCALL   ?XSTACK_DISP0_8
        MOVX    A,@DPTR
        CPL     A
        JNZ     ??initNV_5
        INC     DPTR
        MOVX    A,@DPTR
        CPL     A
??initNV_5:
        JZ      ??initNV_4
//  263     {
//  264       oldPg = pg;
        MOV     ?V0 + 0,?V0 + 1
//  265     }
//  266   }
??initNV_4:
        INC     ?V0 + 1
        INC     R7
        INC     R7
        MOV     A,?V0 + 1
        CLR     C
        SUBB    A,#0x7f
        JNC     $+5
        LJMP    ??initNV_0 & 0xFFFF
//  267 
//  268   // If a page compaction was interrupted before the old page was erased.
//  269   if ( oldPg != OSAL_NV_PAGE_NULL )
        MOV     A,?V0 + 0
        MOV     DPTR,#pgRes
        JZ      ??initNV_6
//  270   {
//  271     /* Interrupted compaction before the target of compaction was put in use;
//  272      * so erase the target of compaction and start again.
//  273      */
//  274     if ( pgRes != OSAL_NV_PAGE_NULL )
        MOVX    A,@DPTR
        JZ      ??initNV_7
//  275     {
//  276       erasePage( pgRes );
        ; Setup parameters for call to function erasePage
        MOV     R1,A
        LCALL   ??erasePage?relay
//  277       (void)compactPage( oldPg, OSAL_NV_ITEM_NULL );
        ; Setup parameters for call to function compactPage
        MOV     R2,#0x0
        MOV     R3,#0x0
        MOV     R1,?V0 + 0
        LCALL   ??compactPage?relay
        SJMP    ??initNV_8
//  278     }
//  279     /* Interrupted compaction after the target of compaction was put in use,
//  280      * but before the old page was erased; so erase it now and create a new reserve page.
//  281      */
//  282     else
//  283     {
//  284       erasePage( oldPg );
??initNV_7:
        ; Setup parameters for call to function erasePage
        MOV     R1,?V0 + 0
        LCALL   ??erasePage?relay
//  285       pgRes = oldPg;
        MOV     A,?V0 + 0
        MOV     DPTR,#pgRes
        MOVX    @DPTR,A
        SJMP    ??initNV_8
//  286     }
//  287   }
//  288   else if ( pgRes != OSAL_NV_PAGE_NULL )
??initNV_6:
        MOVX    A,@DPTR
        JZ      ??initNV_8
//  289   {
//  290     erasePage( pgRes );  // The last page erase could have been interrupted by a power-cycle.
        ; Setup parameters for call to function erasePage
        MOV     R1,A
        LCALL   ??erasePage?relay
//  291   }
//  292   /* else if there is no reserve page, COMPACT_PAGE_CLEANUP() must have succeeded to put the old
//  293    * reserve page (i.e. the target of the compacted items) into use but got interrupted by a reset
//  294    * while trying to erase the page to be compacted. Such a page should only contain duplicate items
//  295    * (i.e. all items will be marked 'Xfer') and thus should have the lost count equal to the page
//  296    * size less the page header.
//  297    */
//  298 
//  299   for ( pg = OSAL_NV_PAGE_BEG; pg <= OSAL_NV_PAGE_END; pg++ )
??initNV_8:
        MOV     ?V0 + 1,#0x79
//  300   {
//  301     // Calculate page offset and lost bytes - any "old" item triggers an N^2 re-scan from start.
//  302     if ( initPage( pg, OSAL_NV_ITEM_NULL, findDups ) != OSAL_NV_ITEM_NULL )
??initNV_9:
        ; Setup parameters for call to function initPage
        MOV     R4,?V0 + 2
        MOV     R2,#0x0
        MOV     R3,#0x0
        MOV     R1,?V0 + 1
        LCALL   ??initPage?relay
        MOV     ?V0 + 5,R3
        MOV     A,R2
        ORL     A,?V0 + 5
        JZ      ??initNV_10
//  303     {
//  304       findDups = TRUE;
        MOV     ?V0 + 2,#0x1
//  305       pg = (OSAL_NV_PAGE_BEG - 1);  // Pre-decrement so that loop increment will start over at zero.
        MOV     ?V0 + 1,#0x78
//  306       continue;
//  307     }
//  308   }
??initNV_10:
        INC     ?V0 + 1
        MOV     A,?V0 + 1
        CLR     C
        SUBB    A,#0x7f
        JC      ??initNV_9
//  309 
//  310   if (findDups)
        MOV     A,?V0 + 2
        MOV     C,0xE0 /* A   */.0
        JNC     ??initNV_11
//  311   {
//  312     // Final pass to calculate page lost after invalidating duplicate items.
//  313     for ( pg = OSAL_NV_PAGE_BEG; pg <= OSAL_NV_PAGE_END; pg++ )
        MOV     ?V0 + 1,#0x79
//  314     {
//  315       (void)initPage( pg, OSAL_NV_ITEM_NULL, FALSE );
??initNV_12:
        ; Setup parameters for call to function initPage
        MOV     R4,#0x0
        MOV     R2,#0x0
        MOV     R3,#0x0
        MOV     R1,?V0 + 1
        LCALL   ??initPage?relay
//  316     }
        INC     ?V0 + 1
        MOV     A,?V0 + 1
        CLR     C
        SUBB    A,#0x7f
        JC      ??initNV_12
//  317   }
//  318 
//  319   if ( pgRes == OSAL_NV_PAGE_NULL )
??initNV_11:
        MOV     DPTR,#pgRes
        MOVX    A,@DPTR
        JNZ     ??initNV_13
//  320   {
//  321     uint8 idx, mostLost = 0;
        MOV     R7,#0x0
//  322 
//  323     for ( idx = 0; idx < OSAL_NV_PAGES_USED; idx++ )
        MOV     R6,#0x0
        MOV     R0,#pgLost & 0xff
        MOV     R1,#(pgLost >> 8) & 0xff
//  324     {
//  325       // Is this the page that was compacted?
//  326       if (pgLost[idx] == (OSAL_NV_PAGE_SIZE - OSAL_NV_PAGE_HDR_SIZE))
??initNV_14:
        MOV     DPL,R0
        MOV     DPH,R1
        LCALL   ?Subroutine12 & 0xFFFF
??CrossCallReturnLabel_10:
        MOV     A,#-0x8
        XRL     A,R4
        JNZ     ??initNV_15
        MOV     A,#0x7
        XRL     A,R5
??initNV_15:
        JNZ     ??initNV_16
//  327       {
//  328         mostLost = idx;
        MOV     A,R6
        MOV     R7,A
//  329         break;
        SJMP    ??initNV_17
//  330       }
//  331       /* This check is not expected to be necessary because the above test should always succeed
//  332        * with an early loop exit.
//  333        */
//  334       else if (pgLost[idx] > pgLost[mostLost])
??initNV_16:
        MOV     A,R7
        CLR     C
        RLC     A
        MOV     R2,A
        CLR     A
        RLC     A
        MOV     R3,A
        MOV     A,#pgLost & 0xff
        ADD     A,R2
        MOV     DPL,A
        MOV     A,#(pgLost >> 8) & 0xff
        ADDC    A,R3
        MOV     DPH,A
        CLR     C
        MOVX    A,@DPTR
        SUBB    A,R4
        INC     DPTR
        MOVX    A,@DPTR
        SUBB    A,R5
        JNC     ??initNV_18
//  335       {
//  336         mostLost = idx;
        MOV     A,R6
        MOV     R7,A
//  337       }
//  338     }
??initNV_18:
        INC     R6
        LCALL   ?Subroutine28 & 0xFFFF
??CrossCallReturnLabel_54:
        MOV     A,R6
        CLR     C
        SUBB    A,#0x6
        JC      ??initNV_14
//  339 
//  340     pgRes = mostLost + OSAL_NV_PAGE_BEG;
??initNV_17:
        MOV     A,#0x79
        ADD     A,R7
        MOV     DPTR,#pgRes
        MOVX    @DPTR,A
//  341     erasePage( pgRes );  // The last page erase had been interrupted by a power-cycle.
        ; Setup parameters for call to function erasePage
        MOV     R1,A
        LCALL   ??erasePage?relay
//  342   }
//  343 
//  344   return TRUE;
??initNV_13:
        MOV     R1,#0x1
        MOV     A,#0x10
        LJMP    ?Subroutine0 & 0xFFFF
        CFI EndBlock cfiBlock0
//  345 }

        RSEG BANKED_CODE:CODE:NOROOT(0)
?Subroutine27:
        CFI Block cfiCond1 Using cfiCommon0
        CFI NoFunction
        CFI Conditional ??CrossCallReturnLabel_82
        CFI R6 load(1, XDATA, add(CFA_XSP16, literal(-18)))
        CFI VB load(1, XDATA, add(CFA_XSP16, literal(-17)))
        CFI V0 load(1, XDATA, add(CFA_XSP16, literal(-16)))
        CFI V1 load(1, XDATA, add(CFA_XSP16, literal(-15)))
        CFI V2 load(1, XDATA, add(CFA_XSP16, literal(-14)))
        CFI V3 load(1, XDATA, add(CFA_XSP16, literal(-13)))
        CFI V4 load(1, XDATA, add(CFA_XSP16, literal(-12)))
        CFI V5 load(1, XDATA, add(CFA_XSP16, literal(-11)))
        CFI V6 load(1, XDATA, add(CFA_XSP16, literal(-10)))
        CFI V7 load(1, XDATA, add(CFA_XSP16, literal(-9)))
        CFI V8 load(1, XDATA, add(CFA_XSP16, literal(-8)))
        CFI V9 load(1, XDATA, add(CFA_XSP16, literal(-7)))
        CFI R7 load(1, XDATA, add(CFA_XSP16, literal(-6)))
        CFI ?RET_LOW load(1, XDATA, add(CFA_XSP16, literal(-5)))
        CFI ?RET_HIGH load(1, XDATA, add(CFA_XSP16, literal(-4)))
        CFI ?BRET_EXT load(1, XDATA, add(CFA_XSP16, literal(-3)))
        CFI DPL0 load(1, XDATA, add(CFA_XSP16, literal(-2)))
        CFI DPH0 load(1, XDATA, add(CFA_XSP16, literal(-1)))
        CFI CFA_SP SP+0
        CFI CFA_XSP16 add(XSP16, 24)
        CFI Block cfiCond2 Using cfiCommon0
        CFI (cfiCond2) NoFunction
        CFI (cfiCond2) Conditional ??CrossCallReturnLabel_83
        CFI (cfiCond2) R6 load(1, XDATA, add(CFA_XSP16, literal(-18)))
        CFI (cfiCond2) VB load(1, XDATA, add(CFA_XSP16, literal(-17)))
        CFI (cfiCond2) V0 load(1, XDATA, add(CFA_XSP16, literal(-16)))
        CFI (cfiCond2) V1 load(1, XDATA, add(CFA_XSP16, literal(-15)))
        CFI (cfiCond2) V2 load(1, XDATA, add(CFA_XSP16, literal(-14)))
        CFI (cfiCond2) V3 load(1, XDATA, add(CFA_XSP16, literal(-13)))
        CFI (cfiCond2) V4 load(1, XDATA, add(CFA_XSP16, literal(-12)))
        CFI (cfiCond2) V5 load(1, XDATA, add(CFA_XSP16, literal(-11)))
        CFI (cfiCond2) V6 load(1, XDATA, add(CFA_XSP16, literal(-10)))
        CFI (cfiCond2) V7 load(1, XDATA, add(CFA_XSP16, literal(-9)))
        CFI (cfiCond2) V8 load(1, XDATA, add(CFA_XSP16, literal(-8)))
        CFI (cfiCond2) V9 load(1, XDATA, add(CFA_XSP16, literal(-7)))
        CFI (cfiCond2) R7 load(1, XDATA, add(CFA_XSP16, literal(-6)))
        CFI (cfiCond2) ?RET_LOW load(1, XDATA, add(CFA_XSP16, literal(-5)))
        CFI (cfiCond2) ?RET_HIGH load(1, XDATA, add(CFA_XSP16, literal(-4)))
        CFI (cfiCond2) ?BRET_EXT load(1, XDATA, add(CFA_XSP16, literal(-3)))
        CFI (cfiCond2) DPL0 load(1, XDATA, add(CFA_XSP16, literal(-2)))
        CFI (cfiCond2) DPH0 load(1, XDATA, add(CFA_XSP16, literal(-1)))
        CFI (cfiCond2) CFA_SP SP+0
        CFI (cfiCond2) CFA_XSP16 add(XSP16, 24)
        CFI Block cfiPicker3 Using cfiCommon1
        CFI (cfiPicker3) NoFunction
        CFI (cfiPicker3) Picker
        MOV     A,?V0 + 6
        ADD     A,#0x0
        MOV     R2,A
        MOV     A,?V0 + 7
        ADDC    A,?V0 + 9
        CFI EndBlock cfiCond1
        CFI EndBlock cfiCond2
        CFI EndBlock cfiPicker3
        REQUIRE ??Subroutine44_0
        ; // Fall through to label ??Subroutine44_0

        RSEG BANKED_CODE:CODE:NOROOT(0)
??Subroutine44_0:
        CFI Block cfiCond4 Using cfiCommon0
        CFI NoFunction
        CFI Conditional ??CrossCallReturnLabel_84
        CFI R6 load(1, XDATA, add(CFA_XSP16, literal(-14)))
        CFI VB load(1, XDATA, add(CFA_XSP16, literal(-13)))
        CFI V0 load(1, XDATA, add(CFA_XSP16, literal(-12)))
        CFI V1 load(1, XDATA, add(CFA_XSP16, literal(-11)))
        CFI V2 load(1, XDATA, add(CFA_XSP16, literal(-10)))
        CFI V3 load(1, XDATA, add(CFA_XSP16, literal(-9)))
        CFI V4 load(1, XDATA, add(CFA_XSP16, literal(-8)))
        CFI V5 load(1, XDATA, add(CFA_XSP16, literal(-7)))
        CFI R7 load(1, XDATA, add(CFA_XSP16, literal(-6)))
        CFI ?RET_LOW load(1, XDATA, add(CFA_XSP16, literal(-5)))
        CFI ?RET_HIGH load(1, XDATA, add(CFA_XSP16, literal(-4)))
        CFI ?BRET_EXT load(1, XDATA, add(CFA_XSP16, literal(-3)))
        CFI DPL0 load(1, XDATA, add(CFA_XSP16, literal(-2)))
        CFI DPH0 load(1, XDATA, add(CFA_XSP16, literal(-1)))
        CFI CFA_SP SP+0
        CFI CFA_XSP16 add(XSP16, 32)
        CFI Block cfiCond5 Using cfiCommon0
        CFI (cfiCond5) NoFunction
        CFI (cfiCond5) Conditional ??CrossCallReturnLabel_85
        CFI (cfiCond5) R6 load(1, XDATA, add(CFA_XSP16, literal(-22)))
        CFI (cfiCond5) VB load(1, XDATA, add(CFA_XSP16, literal(-21)))
        CFI (cfiCond5) V0 load(1, XDATA, add(CFA_XSP16, literal(-20)))
        CFI (cfiCond5) V1 load(1, XDATA, add(CFA_XSP16, literal(-19)))
        CFI (cfiCond5) V2 load(1, XDATA, add(CFA_XSP16, literal(-18)))
        CFI (cfiCond5) V3 load(1, XDATA, add(CFA_XSP16, literal(-17)))
        CFI (cfiCond5) V4 load(1, XDATA, add(CFA_XSP16, literal(-16)))
        CFI (cfiCond5) V5 load(1, XDATA, add(CFA_XSP16, literal(-15)))
        CFI (cfiCond5) V6 load(1, XDATA, add(CFA_XSP16, literal(-14)))
        CFI (cfiCond5) V7 load(1, XDATA, add(CFA_XSP16, literal(-13)))
        CFI (cfiCond5) V8 load(1, XDATA, add(CFA_XSP16, literal(-12)))
        CFI (cfiCond5) V9 load(1, XDATA, add(CFA_XSP16, literal(-11)))
        CFI (cfiCond5) V10 load(1, XDATA, add(CFA_XSP16, literal(-10)))
        CFI (cfiCond5) V11 load(1, XDATA, add(CFA_XSP16, literal(-9)))
        CFI (cfiCond5) V12 load(1, XDATA, add(CFA_XSP16, literal(-8)))
        CFI (cfiCond5) V13 load(1, XDATA, add(CFA_XSP16, literal(-7)))
        CFI (cfiCond5) R7 load(1, XDATA, add(CFA_XSP16, literal(-6)))
        CFI (cfiCond5) ?RET_LOW load(1, XDATA, add(CFA_XSP16, literal(-5)))
        CFI (cfiCond5) ?RET_HIGH load(1, XDATA, add(CFA_XSP16, literal(-4)))
        CFI (cfiCond5) ?BRET_EXT load(1, XDATA, add(CFA_XSP16, literal(-3)))
        CFI (cfiCond5) DPL0 load(1, XDATA, add(CFA_XSP16, literal(-2)))
        CFI (cfiCond5) DPH0 load(1, XDATA, add(CFA_XSP16, literal(-1)))
        CFI (cfiCond5) CFA_SP SP+0
        CFI (cfiCond5) CFA_XSP16 add(XSP16, 39)
        CFI Block cfiCond6 Using cfiCommon0
        CFI (cfiCond6) NoFunction
        CFI (cfiCond6) Conditional ??CrossCallReturnLabel_86
        CFI (cfiCond6) R6 load(1, XDATA, add(CFA_XSP16, literal(-14)))
        CFI (cfiCond6) VB load(1, XDATA, add(CFA_XSP16, literal(-13)))
        CFI (cfiCond6) V0 load(1, XDATA, add(CFA_XSP16, literal(-12)))
        CFI (cfiCond6) V1 load(1, XDATA, add(CFA_XSP16, literal(-11)))
        CFI (cfiCond6) V2 load(1, XDATA, add(CFA_XSP16, literal(-10)))
        CFI (cfiCond6) V3 load(1, XDATA, add(CFA_XSP16, literal(-9)))
        CFI (cfiCond6) V4 load(1, XDATA, add(CFA_XSP16, literal(-8)))
        CFI (cfiCond6) V5 load(1, XDATA, add(CFA_XSP16, literal(-7)))
        CFI (cfiCond6) R7 load(1, XDATA, add(CFA_XSP16, literal(-6)))
        CFI (cfiCond6) ?RET_LOW load(1, XDATA, add(CFA_XSP16, literal(-5)))
        CFI (cfiCond6) ?RET_HIGH load(1, XDATA, add(CFA_XSP16, literal(-4)))
        CFI (cfiCond6) ?BRET_EXT load(1, XDATA, add(CFA_XSP16, literal(-3)))
        CFI (cfiCond6) DPL0 load(1, XDATA, add(CFA_XSP16, literal(-2)))
        CFI (cfiCond6) DPH0 load(1, XDATA, add(CFA_XSP16, literal(-1)))
        CFI (cfiCond6) CFA_SP SP+0
        CFI (cfiCond6) CFA_XSP16 add(XSP16, 24)
        CFI Block cfiCond7 Using cfiCommon0
        CFI (cfiCond7) NoFunction
        CFI (cfiCond7) Conditional ??CrossCallReturnLabel_87
        CFI (cfiCond7) R6 load(1, XDATA, add(CFA_XSP16, literal(-14)))
        CFI (cfiCond7) VB load(1, XDATA, add(CFA_XSP16, literal(-13)))
        CFI (cfiCond7) V0 load(1, XDATA, add(CFA_XSP16, literal(-12)))
        CFI (cfiCond7) V1 load(1, XDATA, add(CFA_XSP16, literal(-11)))
        CFI (cfiCond7) V2 load(1, XDATA, add(CFA_XSP16, literal(-10)))
        CFI (cfiCond7) V3 load(1, XDATA, add(CFA_XSP16, literal(-9)))
        CFI (cfiCond7) V4 load(1, XDATA, add(CFA_XSP16, literal(-8)))
        CFI (cfiCond7) V5 load(1, XDATA, add(CFA_XSP16, literal(-7)))
        CFI (cfiCond7) R7 load(1, XDATA, add(CFA_XSP16, literal(-6)))
        CFI (cfiCond7) ?RET_LOW load(1, XDATA, add(CFA_XSP16, literal(-5)))
        CFI (cfiCond7) ?RET_HIGH load(1, XDATA, add(CFA_XSP16, literal(-4)))
        CFI (cfiCond7) ?BRET_EXT load(1, XDATA, add(CFA_XSP16, literal(-3)))
        CFI (cfiCond7) DPL0 load(1, XDATA, add(CFA_XSP16, literal(-2)))
        CFI (cfiCond7) DPH0 load(1, XDATA, add(CFA_XSP16, literal(-1)))
        CFI (cfiCond7) CFA_SP SP+0
        CFI (cfiCond7) CFA_XSP16 add(XSP16, 24)
        CFI Block cfiCond8 Using cfiCommon0
        CFI (cfiCond8) NoFunction
        CFI (cfiCond8) Conditional ??CrossCallReturnLabel_88
        CFI (cfiCond8) R6 load(1, XDATA, add(CFA_XSP16, literal(-18)))
        CFI (cfiCond8) VB load(1, XDATA, add(CFA_XSP16, literal(-17)))
        CFI (cfiCond8) V0 load(1, XDATA, add(CFA_XSP16, literal(-16)))
        CFI (cfiCond8) V1 load(1, XDATA, add(CFA_XSP16, literal(-15)))
        CFI (cfiCond8) V2 load(1, XDATA, add(CFA_XSP16, literal(-14)))
        CFI (cfiCond8) V3 load(1, XDATA, add(CFA_XSP16, literal(-13)))
        CFI (cfiCond8) V4 load(1, XDATA, add(CFA_XSP16, literal(-12)))
        CFI (cfiCond8) V5 load(1, XDATA, add(CFA_XSP16, literal(-11)))
        CFI (cfiCond8) V6 load(1, XDATA, add(CFA_XSP16, literal(-10)))
        CFI (cfiCond8) V7 load(1, XDATA, add(CFA_XSP16, literal(-9)))
        CFI (cfiCond8) V8 load(1, XDATA, add(CFA_XSP16, literal(-8)))
        CFI (cfiCond8) V9 load(1, XDATA, add(CFA_XSP16, literal(-7)))
        CFI (cfiCond8) R7 load(1, XDATA, add(CFA_XSP16, literal(-6)))
        CFI (cfiCond8) ?RET_LOW load(1, XDATA, add(CFA_XSP16, literal(-5)))
        CFI (cfiCond8) ?RET_HIGH load(1, XDATA, add(CFA_XSP16, literal(-4)))
        CFI (cfiCond8) ?BRET_EXT load(1, XDATA, add(CFA_XSP16, literal(-3)))
        CFI (cfiCond8) DPL0 load(1, XDATA, add(CFA_XSP16, literal(-2)))
        CFI (cfiCond8) DPH0 load(1, XDATA, add(CFA_XSP16, literal(-1)))
        CFI (cfiCond8) CFA_SP SP+0
        CFI (cfiCond8) CFA_XSP16 add(XSP16, 24)
        CFI Block cfiCond9 Using cfiCommon0
        CFI (cfiCond9) NoFunction
        CFI (cfiCond9) Conditional ??CrossCallReturnLabel_89
        CFI (cfiCond9) R6 load(1, XDATA, add(CFA_XSP16, literal(-20)))
        CFI (cfiCond9) VB load(1, XDATA, add(CFA_XSP16, literal(-19)))
        CFI (cfiCond9) V0 load(1, XDATA, add(CFA_XSP16, literal(-18)))
        CFI (cfiCond9) V1 load(1, XDATA, add(CFA_XSP16, literal(-17)))
        CFI (cfiCond9) V2 load(1, XDATA, add(CFA_XSP16, literal(-16)))
        CFI (cfiCond9) V3 load(1, XDATA, add(CFA_XSP16, literal(-15)))
        CFI (cfiCond9) V4 load(1, XDATA, add(CFA_XSP16, literal(-14)))
        CFI (cfiCond9) V5 load(1, XDATA, add(CFA_XSP16, literal(-13)))
        CFI (cfiCond9) V6 load(1, XDATA, add(CFA_XSP16, literal(-12)))
        CFI (cfiCond9) V7 load(1, XDATA, add(CFA_XSP16, literal(-11)))
        CFI (cfiCond9) V8 load(1, XDATA, add(CFA_XSP16, literal(-10)))
        CFI (cfiCond9) V9 load(1, XDATA, add(CFA_XSP16, literal(-9)))
        CFI (cfiCond9) V10 load(1, XDATA, add(CFA_XSP16, literal(-8)))
        CFI (cfiCond9) V11 load(1, XDATA, add(CFA_XSP16, literal(-7)))
        CFI (cfiCond9) R7 load(1, XDATA, add(CFA_XSP16, literal(-6)))
        CFI (cfiCond9) ?RET_LOW load(1, XDATA, add(CFA_XSP16, literal(-5)))
        CFI (cfiCond9) ?RET_HIGH load(1, XDATA, add(CFA_XSP16, literal(-4)))
        CFI (cfiCond9) ?BRET_EXT load(1, XDATA, add(CFA_XSP16, literal(-3)))
        CFI (cfiCond9) DPL0 load(1, XDATA, add(CFA_XSP16, literal(-2)))
        CFI (cfiCond9) DPH0 load(1, XDATA, add(CFA_XSP16, literal(-1)))
        CFI (cfiCond9) CFA_SP SP+0
        CFI (cfiCond9) CFA_XSP16 add(XSP16, 26)
        CFI Block cfiCond10 Using cfiCommon0
        CFI (cfiCond10) NoFunction
        CFI (cfiCond10) Conditional ??CrossCallReturnLabel_90
        CFI (cfiCond10) R6 load(1, XDATA, add(CFA_XSP16, literal(-20)))
        CFI (cfiCond10) VB load(1, XDATA, add(CFA_XSP16, literal(-19)))
        CFI (cfiCond10) V0 load(1, XDATA, add(CFA_XSP16, literal(-18)))
        CFI (cfiCond10) V1 load(1, XDATA, add(CFA_XSP16, literal(-17)))
        CFI (cfiCond10) V2 load(1, XDATA, add(CFA_XSP16, literal(-16)))
        CFI (cfiCond10) V3 load(1, XDATA, add(CFA_XSP16, literal(-15)))
        CFI (cfiCond10) V4 load(1, XDATA, add(CFA_XSP16, literal(-14)))
        CFI (cfiCond10) V5 load(1, XDATA, add(CFA_XSP16, literal(-13)))
        CFI (cfiCond10) V6 load(1, XDATA, add(CFA_XSP16, literal(-12)))
        CFI (cfiCond10) V7 load(1, XDATA, add(CFA_XSP16, literal(-11)))
        CFI (cfiCond10) V8 load(1, XDATA, add(CFA_XSP16, literal(-10)))
        CFI (cfiCond10) V9 load(1, XDATA, add(CFA_XSP16, literal(-9)))
        CFI (cfiCond10) V10 load(1, XDATA, add(CFA_XSP16, literal(-8)))
        CFI (cfiCond10) V11 load(1, XDATA, add(CFA_XSP16, literal(-7)))
        CFI (cfiCond10) R7 load(1, XDATA, add(CFA_XSP16, literal(-6)))
        CFI (cfiCond10) ?RET_LOW load(1, XDATA, add(CFA_XSP16, literal(-5)))
        CFI (cfiCond10) ?RET_HIGH load(1, XDATA, add(CFA_XSP16, literal(-4)))
        CFI (cfiCond10) ?BRET_EXT load(1, XDATA, add(CFA_XSP16, literal(-3)))
        CFI (cfiCond10) DPL0 load(1, XDATA, add(CFA_XSP16, literal(-2)))
        CFI (cfiCond10) DPH0 load(1, XDATA, add(CFA_XSP16, literal(-1)))
        CFI (cfiCond10) CFA_SP SP+0
        CFI (cfiCond10) CFA_XSP16 add(XSP16, 26)
        CFI Block cfiCond11 Using cfiCommon0
        CFI (cfiCond11) NoFunction
        CFI (cfiCond11) Conditional ??CrossCallReturnLabel_91
        CFI (cfiCond11) R6 load(1, XDATA, add(CFA_XSP16, literal(-20)))
        CFI (cfiCond11) VB load(1, XDATA, add(CFA_XSP16, literal(-19)))
        CFI (cfiCond11) V0 load(1, XDATA, add(CFA_XSP16, literal(-18)))
        CFI (cfiCond11) V1 load(1, XDATA, add(CFA_XSP16, literal(-17)))
        CFI (cfiCond11) V2 load(1, XDATA, add(CFA_XSP16, literal(-16)))
        CFI (cfiCond11) V3 load(1, XDATA, add(CFA_XSP16, literal(-15)))
        CFI (cfiCond11) V4 load(1, XDATA, add(CFA_XSP16, literal(-14)))
        CFI (cfiCond11) V5 load(1, XDATA, add(CFA_XSP16, literal(-13)))
        CFI (cfiCond11) V6 load(1, XDATA, add(CFA_XSP16, literal(-12)))
        CFI (cfiCond11) V7 load(1, XDATA, add(CFA_XSP16, literal(-11)))
        CFI (cfiCond11) V8 load(1, XDATA, add(CFA_XSP16, literal(-10)))
        CFI (cfiCond11) V9 load(1, XDATA, add(CFA_XSP16, literal(-9)))
        CFI (cfiCond11) V10 load(1, XDATA, add(CFA_XSP16, literal(-8)))
        CFI (cfiCond11) V11 load(1, XDATA, add(CFA_XSP16, literal(-7)))
        CFI (cfiCond11) R7 load(1, XDATA, add(CFA_XSP16, literal(-6)))
        CFI (cfiCond11) ?RET_LOW load(1, XDATA, add(CFA_XSP16, literal(-5)))
        CFI (cfiCond11) ?RET_HIGH load(1, XDATA, add(CFA_XSP16, literal(-4)))
        CFI (cfiCond11) ?BRET_EXT load(1, XDATA, add(CFA_XSP16, literal(-3)))
        CFI (cfiCond11) DPL0 load(1, XDATA, add(CFA_XSP16, literal(-2)))
        CFI (cfiCond11) DPH0 load(1, XDATA, add(CFA_XSP16, literal(-1)))
        CFI (cfiCond11) CFA_SP SP+0
        CFI (cfiCond11) CFA_XSP16 add(XSP16, 26)
        CFI Block cfiCond12 Using cfiCommon0
        CFI (cfiCond12) NoFunction
        CFI (cfiCond12) Conditional ??CrossCallReturnLabel_92
        CFI (cfiCond12) R6 load(1, XDATA, add(CFA_XSP16, literal(-24)))
        CFI (cfiCond12) VB load(1, XDATA, add(CFA_XSP16, literal(-23)))
        CFI (cfiCond12) V0 load(1, XDATA, add(CFA_XSP16, literal(-22)))
        CFI (cfiCond12) V1 load(1, XDATA, add(CFA_XSP16, literal(-21)))
        CFI (cfiCond12) V2 load(1, XDATA, add(CFA_XSP16, literal(-20)))
        CFI (cfiCond12) V3 load(1, XDATA, add(CFA_XSP16, literal(-19)))
        CFI (cfiCond12) V4 load(1, XDATA, add(CFA_XSP16, literal(-18)))
        CFI (cfiCond12) V5 load(1, XDATA, add(CFA_XSP16, literal(-17)))
        CFI (cfiCond12) V6 load(1, XDATA, add(CFA_XSP16, literal(-16)))
        CFI (cfiCond12) V7 load(1, XDATA, add(CFA_XSP16, literal(-15)))
        CFI (cfiCond12) V8 load(1, XDATA, add(CFA_XSP16, literal(-14)))
        CFI (cfiCond12) V9 load(1, XDATA, add(CFA_XSP16, literal(-13)))
        CFI (cfiCond12) V10 load(1, XDATA, add(CFA_XSP16, literal(-12)))
        CFI (cfiCond12) V11 load(1, XDATA, add(CFA_XSP16, literal(-11)))
        CFI (cfiCond12) V12 load(1, XDATA, add(CFA_XSP16, literal(-10)))
        CFI (cfiCond12) V13 load(1, XDATA, add(CFA_XSP16, literal(-9)))
        CFI (cfiCond12) V14 load(1, XDATA, add(CFA_XSP16, literal(-8)))
        CFI (cfiCond12) V15 load(1, XDATA, add(CFA_XSP16, literal(-7)))
        CFI (cfiCond12) R7 load(1, XDATA, add(CFA_XSP16, literal(-6)))
        CFI (cfiCond12) ?RET_LOW load(1, XDATA, add(CFA_XSP16, literal(-5)))
        CFI (cfiCond12) ?RET_HIGH load(1, XDATA, add(CFA_XSP16, literal(-4)))
        CFI (cfiCond12) ?BRET_EXT load(1, XDATA, add(CFA_XSP16, literal(-3)))
        CFI (cfiCond12) DPL0 load(1, XDATA, add(CFA_XSP16, literal(-2)))
        CFI (cfiCond12) DPH0 load(1, XDATA, add(CFA_XSP16, literal(-1)))
        CFI (cfiCond12) CFA_SP SP+0
        CFI (cfiCond12) CFA_XSP16 add(XSP16, 42)
        CFI Block cfiCond13 Using cfiCommon0
        CFI (cfiCond13) NoFunction
        CFI (cfiCond13) Conditional ??CrossCallReturnLabel_93
        CFI (cfiCond13) R6 load(1, XDATA, add(CFA_XSP16, literal(-24)))
        CFI (cfiCond13) VB load(1, XDATA, add(CFA_XSP16, literal(-23)))
        CFI (cfiCond13) V0 load(1, XDATA, add(CFA_XSP16, literal(-22)))
        CFI (cfiCond13) V1 load(1, XDATA, add(CFA_XSP16, literal(-21)))
        CFI (cfiCond13) V2 load(1, XDATA, add(CFA_XSP16, literal(-20)))
        CFI (cfiCond13) V3 load(1, XDATA, add(CFA_XSP16, literal(-19)))
        CFI (cfiCond13) V4 load(1, XDATA, add(CFA_XSP16, literal(-18)))
        CFI (cfiCond13) V5 load(1, XDATA, add(CFA_XSP16, literal(-17)))
        CFI (cfiCond13) V6 load(1, XDATA, add(CFA_XSP16, literal(-16)))
        CFI (cfiCond13) V7 load(1, XDATA, add(CFA_XSP16, literal(-15)))
        CFI (cfiCond13) V8 load(1, XDATA, add(CFA_XSP16, literal(-14)))
        CFI (cfiCond13) V9 load(1, XDATA, add(CFA_XSP16, literal(-13)))
        CFI (cfiCond13) V10 load(1, XDATA, add(CFA_XSP16, literal(-12)))
        CFI (cfiCond13) V11 load(1, XDATA, add(CFA_XSP16, literal(-11)))
        CFI (cfiCond13) V12 load(1, XDATA, add(CFA_XSP16, literal(-10)))
        CFI (cfiCond13) V13 load(1, XDATA, add(CFA_XSP16, literal(-9)))
        CFI (cfiCond13) V14 load(1, XDATA, add(CFA_XSP16, literal(-8)))
        CFI (cfiCond13) V15 load(1, XDATA, add(CFA_XSP16, literal(-7)))
        CFI (cfiCond13) R7 load(1, XDATA, add(CFA_XSP16, literal(-6)))
        CFI (cfiCond13) ?RET_LOW load(1, XDATA, add(CFA_XSP16, literal(-5)))
        CFI (cfiCond13) ?RET_HIGH load(1, XDATA, add(CFA_XSP16, literal(-4)))
        CFI (cfiCond13) ?BRET_EXT load(1, XDATA, add(CFA_XSP16, literal(-3)))
        CFI (cfiCond13) DPL0 load(1, XDATA, add(CFA_XSP16, literal(-2)))
        CFI (cfiCond13) DPH0 load(1, XDATA, add(CFA_XSP16, literal(-1)))
        CFI (cfiCond13) CFA_SP SP+0
        CFI (cfiCond13) CFA_XSP16 add(XSP16, 51)
        CFI Block cfiCond14 Using cfiCommon0
        CFI (cfiCond14) NoFunction
        CFI (cfiCond14) Conditional ??CrossCallReturnLabel_82
        CFI (cfiCond14) R6 load(1, XDATA, add(CFA_XSP16, literal(-18)))
        CFI (cfiCond14) VB load(1, XDATA, add(CFA_XSP16, literal(-17)))
        CFI (cfiCond14) V0 load(1, XDATA, add(CFA_XSP16, literal(-16)))
        CFI (cfiCond14) V1 load(1, XDATA, add(CFA_XSP16, literal(-15)))
        CFI (cfiCond14) V2 load(1, XDATA, add(CFA_XSP16, literal(-14)))
        CFI (cfiCond14) V3 load(1, XDATA, add(CFA_XSP16, literal(-13)))
        CFI (cfiCond14) V4 load(1, XDATA, add(CFA_XSP16, literal(-12)))
        CFI (cfiCond14) V5 load(1, XDATA, add(CFA_XSP16, literal(-11)))
        CFI (cfiCond14) V6 load(1, XDATA, add(CFA_XSP16, literal(-10)))
        CFI (cfiCond14) V7 load(1, XDATA, add(CFA_XSP16, literal(-9)))
        CFI (cfiCond14) V8 load(1, XDATA, add(CFA_XSP16, literal(-8)))
        CFI (cfiCond14) V9 load(1, XDATA, add(CFA_XSP16, literal(-7)))
        CFI (cfiCond14) R7 load(1, XDATA, add(CFA_XSP16, literal(-6)))
        CFI (cfiCond14) ?RET_LOW load(1, XDATA, add(CFA_XSP16, literal(-5)))
        CFI (cfiCond14) ?RET_HIGH load(1, XDATA, add(CFA_XSP16, literal(-4)))
        CFI (cfiCond14) ?BRET_EXT load(1, XDATA, add(CFA_XSP16, literal(-3)))
        CFI (cfiCond14) DPL0 load(1, XDATA, add(CFA_XSP16, literal(-2)))
        CFI (cfiCond14) DPH0 load(1, XDATA, add(CFA_XSP16, literal(-1)))
        CFI (cfiCond14) CFA_SP SP+0
        CFI (cfiCond14) CFA_XSP16 add(XSP16, 24)
        CFI Block cfiCond15 Using cfiCommon0
        CFI (cfiCond15) NoFunction
        CFI (cfiCond15) Conditional ??CrossCallReturnLabel_83
        CFI (cfiCond15) R6 load(1, XDATA, add(CFA_XSP16, literal(-18)))
        CFI (cfiCond15) VB load(1, XDATA, add(CFA_XSP16, literal(-17)))
        CFI (cfiCond15) V0 load(1, XDATA, add(CFA_XSP16, literal(-16)))
        CFI (cfiCond15) V1 load(1, XDATA, add(CFA_XSP16, literal(-15)))
        CFI (cfiCond15) V2 load(1, XDATA, add(CFA_XSP16, literal(-14)))
        CFI (cfiCond15) V3 load(1, XDATA, add(CFA_XSP16, literal(-13)))
        CFI (cfiCond15) V4 load(1, XDATA, add(CFA_XSP16, literal(-12)))
        CFI (cfiCond15) V5 load(1, XDATA, add(CFA_XSP16, literal(-11)))
        CFI (cfiCond15) V6 load(1, XDATA, add(CFA_XSP16, literal(-10)))
        CFI (cfiCond15) V7 load(1, XDATA, add(CFA_XSP16, literal(-9)))
        CFI (cfiCond15) V8 load(1, XDATA, add(CFA_XSP16, literal(-8)))
        CFI (cfiCond15) V9 load(1, XDATA, add(CFA_XSP16, literal(-7)))
        CFI (cfiCond15) R7 load(1, XDATA, add(CFA_XSP16, literal(-6)))
        CFI (cfiCond15) ?RET_LOW load(1, XDATA, add(CFA_XSP16, literal(-5)))
        CFI (cfiCond15) ?RET_HIGH load(1, XDATA, add(CFA_XSP16, literal(-4)))
        CFI (cfiCond15) ?BRET_EXT load(1, XDATA, add(CFA_XSP16, literal(-3)))
        CFI (cfiCond15) DPL0 load(1, XDATA, add(CFA_XSP16, literal(-2)))
        CFI (cfiCond15) DPH0 load(1, XDATA, add(CFA_XSP16, literal(-1)))
        CFI (cfiCond15) CFA_SP SP+0
        CFI (cfiCond15) CFA_XSP16 add(XSP16, 24)
        CFI Block cfiPicker16 Using cfiCommon1
        CFI (cfiPicker16) NoFunction
        CFI (cfiPicker16) Picker
        MOV     R3,A
        CFI EndBlock cfiCond4
        CFI EndBlock cfiCond5
        CFI EndBlock cfiCond6
        CFI EndBlock cfiCond7
        CFI EndBlock cfiCond8
        CFI EndBlock cfiCond9
        CFI EndBlock cfiCond10
        CFI EndBlock cfiCond11
        CFI EndBlock cfiCond12
        CFI EndBlock cfiCond13
        CFI EndBlock cfiCond14
        CFI EndBlock cfiCond15
        CFI EndBlock cfiPicker16
        REQUIRE ??Subroutine45_0
        ; // Fall through to label ??Subroutine45_0

        RSEG BANKED_CODE:CODE:NOROOT(0)
??Subroutine45_0:
        CFI Block cfiCond17 Using cfiCommon0
        CFI NoFunction
        CFI Conditional ??CrossCallReturnLabel_94
        CFI R6 load(1, XDATA, add(CFA_XSP16, literal(-22)))
        CFI VB load(1, XDATA, add(CFA_XSP16, literal(-21)))
        CFI V0 load(1, XDATA, add(CFA_XSP16, literal(-20)))
        CFI V1 load(1, XDATA, add(CFA_XSP16, literal(-19)))
        CFI V2 load(1, XDATA, add(CFA_XSP16, literal(-18)))
        CFI V3 load(1, XDATA, add(CFA_XSP16, literal(-17)))
        CFI V4 load(1, XDATA, add(CFA_XSP16, literal(-16)))
        CFI V5 load(1, XDATA, add(CFA_XSP16, literal(-15)))
        CFI V6 load(1, XDATA, add(CFA_XSP16, literal(-14)))
        CFI V7 load(1, XDATA, add(CFA_XSP16, literal(-13)))
        CFI V8 load(1, XDATA, add(CFA_XSP16, literal(-12)))
        CFI V9 load(1, XDATA, add(CFA_XSP16, literal(-11)))
        CFI V10 load(1, XDATA, add(CFA_XSP16, literal(-10)))
        CFI V11 load(1, XDATA, add(CFA_XSP16, literal(-9)))
        CFI V12 load(1, XDATA, add(CFA_XSP16, literal(-8)))
        CFI V13 load(1, XDATA, add(CFA_XSP16, literal(-7)))
        CFI R7 load(1, XDATA, add(CFA_XSP16, literal(-6)))
        CFI ?RET_LOW load(1, XDATA, add(CFA_XSP16, literal(-5)))
        CFI ?RET_HIGH load(1, XDATA, add(CFA_XSP16, literal(-4)))
        CFI ?BRET_EXT load(1, XDATA, add(CFA_XSP16, literal(-3)))
        CFI DPL0 load(1, XDATA, add(CFA_XSP16, literal(-2)))
        CFI DPH0 load(1, XDATA, add(CFA_XSP16, literal(-1)))
        CFI CFA_SP SP+0
        CFI CFA_XSP16 add(XSP16, 39)
        CFI Block cfiCond18 Using cfiCommon0
        CFI (cfiCond18) NoFunction
        CFI (cfiCond18) Conditional ??CrossCallReturnLabel_95
        CFI (cfiCond18) R6 load(1, XDATA, add(CFA_XSP16, literal(-18)))
        CFI (cfiCond18) VB load(1, XDATA, add(CFA_XSP16, literal(-17)))
        CFI (cfiCond18) V0 load(1, XDATA, add(CFA_XSP16, literal(-16)))
        CFI (cfiCond18) V1 load(1, XDATA, add(CFA_XSP16, literal(-15)))
        CFI (cfiCond18) V2 load(1, XDATA, add(CFA_XSP16, literal(-14)))
        CFI (cfiCond18) V3 load(1, XDATA, add(CFA_XSP16, literal(-13)))
        CFI (cfiCond18) V4 load(1, XDATA, add(CFA_XSP16, literal(-12)))
        CFI (cfiCond18) V5 load(1, XDATA, add(CFA_XSP16, literal(-11)))
        CFI (cfiCond18) V6 load(1, XDATA, add(CFA_XSP16, literal(-10)))
        CFI (cfiCond18) V7 load(1, XDATA, add(CFA_XSP16, literal(-9)))
        CFI (cfiCond18) V8 load(1, XDATA, add(CFA_XSP16, literal(-8)))
        CFI (cfiCond18) V9 load(1, XDATA, add(CFA_XSP16, literal(-7)))
        CFI (cfiCond18) R7 load(1, XDATA, add(CFA_XSP16, literal(-6)))
        CFI (cfiCond18) ?RET_LOW load(1, XDATA, add(CFA_XSP16, literal(-5)))
        CFI (cfiCond18) ?RET_HIGH load(1, XDATA, add(CFA_XSP16, literal(-4)))
        CFI (cfiCond18) ?BRET_EXT load(1, XDATA, add(CFA_XSP16, literal(-3)))
        CFI (cfiCond18) DPL0 load(1, XDATA, add(CFA_XSP16, literal(-2)))
        CFI (cfiCond18) DPH0 load(1, XDATA, add(CFA_XSP16, literal(-1)))
        CFI (cfiCond18) CFA_SP SP+0
        CFI (cfiCond18) CFA_XSP16 add(XSP16, 42)
        CFI Block cfiCond19 Using cfiCommon0
        CFI (cfiCond19) NoFunction
        CFI (cfiCond19) Conditional ??CrossCallReturnLabel_96
        CFI (cfiCond19) R6 load(1, XDATA, add(CFA_XSP16, literal(-18)))
        CFI (cfiCond19) VB load(1, XDATA, add(CFA_XSP16, literal(-17)))
        CFI (cfiCond19) V0 load(1, XDATA, add(CFA_XSP16, literal(-16)))
        CFI (cfiCond19) V1 load(1, XDATA, add(CFA_XSP16, literal(-15)))
        CFI (cfiCond19) V2 load(1, XDATA, add(CFA_XSP16, literal(-14)))
        CFI (cfiCond19) V3 load(1, XDATA, add(CFA_XSP16, literal(-13)))
        CFI (cfiCond19) V4 load(1, XDATA, add(CFA_XSP16, literal(-12)))
        CFI (cfiCond19) V5 load(1, XDATA, add(CFA_XSP16, literal(-11)))
        CFI (cfiCond19) V6 load(1, XDATA, add(CFA_XSP16, literal(-10)))
        CFI (cfiCond19) V7 load(1, XDATA, add(CFA_XSP16, literal(-9)))
        CFI (cfiCond19) V8 load(1, XDATA, add(CFA_XSP16, literal(-8)))
        CFI (cfiCond19) V9 load(1, XDATA, add(CFA_XSP16, literal(-7)))
        CFI (cfiCond19) R7 load(1, XDATA, add(CFA_XSP16, literal(-6)))
        CFI (cfiCond19) ?RET_LOW load(1, XDATA, add(CFA_XSP16, literal(-5)))
        CFI (cfiCond19) ?RET_HIGH load(1, XDATA, add(CFA_XSP16, literal(-4)))
        CFI (cfiCond19) ?BRET_EXT load(1, XDATA, add(CFA_XSP16, literal(-3)))
        CFI (cfiCond19) DPL0 load(1, XDATA, add(CFA_XSP16, literal(-2)))
        CFI (cfiCond19) DPH0 load(1, XDATA, add(CFA_XSP16, literal(-1)))
        CFI (cfiCond19) CFA_SP SP+0
        CFI (cfiCond19) CFA_XSP16 add(XSP16, 42)
        CFI Block cfiCond20 Using cfiCommon0
        CFI (cfiCond20) NoFunction
        CFI (cfiCond20) Conditional ??CrossCallReturnLabel_97
        CFI (cfiCond20) R6 load(1, XDATA, add(CFA_XSP16, literal(-24)))
        CFI (cfiCond20) VB load(1, XDATA, add(CFA_XSP16, literal(-23)))
        CFI (cfiCond20) V0 load(1, XDATA, add(CFA_XSP16, literal(-22)))
        CFI (cfiCond20) V1 load(1, XDATA, add(CFA_XSP16, literal(-21)))
        CFI (cfiCond20) V2 load(1, XDATA, add(CFA_XSP16, literal(-20)))
        CFI (cfiCond20) V3 load(1, XDATA, add(CFA_XSP16, literal(-19)))
        CFI (cfiCond20) V4 load(1, XDATA, add(CFA_XSP16, literal(-18)))
        CFI (cfiCond20) V5 load(1, XDATA, add(CFA_XSP16, literal(-17)))
        CFI (cfiCond20) V6 load(1, XDATA, add(CFA_XSP16, literal(-16)))
        CFI (cfiCond20) V7 load(1, XDATA, add(CFA_XSP16, literal(-15)))
        CFI (cfiCond20) V8 load(1, XDATA, add(CFA_XSP16, literal(-14)))
        CFI (cfiCond20) V9 load(1, XDATA, add(CFA_XSP16, literal(-13)))
        CFI (cfiCond20) V10 load(1, XDATA, add(CFA_XSP16, literal(-12)))
        CFI (cfiCond20) V11 load(1, XDATA, add(CFA_XSP16, literal(-11)))
        CFI (cfiCond20) V12 load(1, XDATA, add(CFA_XSP16, literal(-10)))
        CFI (cfiCond20) V13 load(1, XDATA, add(CFA_XSP16, literal(-9)))
        CFI (cfiCond20) V14 load(1, XDATA, add(CFA_XSP16, literal(-8)))
        CFI (cfiCond20) V15 load(1, XDATA, add(CFA_XSP16, literal(-7)))
        CFI (cfiCond20) R7 load(1, XDATA, add(CFA_XSP16, literal(-6)))
        CFI (cfiCond20) ?RET_LOW load(1, XDATA, add(CFA_XSP16, literal(-5)))
        CFI (cfiCond20) ?RET_HIGH load(1, XDATA, add(CFA_XSP16, literal(-4)))
        CFI (cfiCond20) ?BRET_EXT load(1, XDATA, add(CFA_XSP16, literal(-3)))
        CFI (cfiCond20) DPL0 load(1, XDATA, add(CFA_XSP16, literal(-2)))
        CFI (cfiCond20) DPH0 load(1, XDATA, add(CFA_XSP16, literal(-1)))
        CFI (cfiCond20) CFA_SP SP+0
        CFI (cfiCond20) CFA_XSP16 add(XSP16, 42)
        CFI Block cfiCond21 Using cfiCommon0
        CFI (cfiCond21) NoFunction
        CFI (cfiCond21) Conditional ??CrossCallReturnLabel_98
        CFI (cfiCond21) R6 load(1, XDATA, add(CFA_XSP16, literal(-24)))
        CFI (cfiCond21) VB load(1, XDATA, add(CFA_XSP16, literal(-23)))
        CFI (cfiCond21) V0 load(1, XDATA, add(CFA_XSP16, literal(-22)))
        CFI (cfiCond21) V1 load(1, XDATA, add(CFA_XSP16, literal(-21)))
        CFI (cfiCond21) V2 load(1, XDATA, add(CFA_XSP16, literal(-20)))
        CFI (cfiCond21) V3 load(1, XDATA, add(CFA_XSP16, literal(-19)))
        CFI (cfiCond21) V4 load(1, XDATA, add(CFA_XSP16, literal(-18)))
        CFI (cfiCond21) V5 load(1, XDATA, add(CFA_XSP16, literal(-17)))
        CFI (cfiCond21) V6 load(1, XDATA, add(CFA_XSP16, literal(-16)))
        CFI (cfiCond21) V7 load(1, XDATA, add(CFA_XSP16, literal(-15)))
        CFI (cfiCond21) V8 load(1, XDATA, add(CFA_XSP16, literal(-14)))
        CFI (cfiCond21) V9 load(1, XDATA, add(CFA_XSP16, literal(-13)))
        CFI (cfiCond21) V10 load(1, XDATA, add(CFA_XSP16, literal(-12)))
        CFI (cfiCond21) V11 load(1, XDATA, add(CFA_XSP16, literal(-11)))
        CFI (cfiCond21) V12 load(1, XDATA, add(CFA_XSP16, literal(-10)))
        CFI (cfiCond21) V13 load(1, XDATA, add(CFA_XSP16, literal(-9)))
        CFI (cfiCond21) V14 load(1, XDATA, add(CFA_XSP16, literal(-8)))
        CFI (cfiCond21) V15 load(1, XDATA, add(CFA_XSP16, literal(-7)))
        CFI (cfiCond21) R7 load(1, XDATA, add(CFA_XSP16, literal(-6)))
        CFI (cfiCond21) ?RET_LOW load(1, XDATA, add(CFA_XSP16, literal(-5)))
        CFI (cfiCond21) ?RET_HIGH load(1, XDATA, add(CFA_XSP16, literal(-4)))
        CFI (cfiCond21) ?BRET_EXT load(1, XDATA, add(CFA_XSP16, literal(-3)))
        CFI (cfiCond21) DPL0 load(1, XDATA, add(CFA_XSP16, literal(-2)))
        CFI (cfiCond21) DPH0 load(1, XDATA, add(CFA_XSP16, literal(-1)))
        CFI (cfiCond21) CFA_SP SP+0
        CFI (cfiCond21) CFA_XSP16 add(XSP16, 51)
        CFI Block cfiCond22 Using cfiCommon0
        CFI (cfiCond22) NoFunction
        CFI (cfiCond22) Conditional ??CrossCallReturnLabel_84
        CFI (cfiCond22) R6 load(1, XDATA, add(CFA_XSP16, literal(-14)))
        CFI (cfiCond22) VB load(1, XDATA, add(CFA_XSP16, literal(-13)))
        CFI (cfiCond22) V0 load(1, XDATA, add(CFA_XSP16, literal(-12)))
        CFI (cfiCond22) V1 load(1, XDATA, add(CFA_XSP16, literal(-11)))
        CFI (cfiCond22) V2 load(1, XDATA, add(CFA_XSP16, literal(-10)))
        CFI (cfiCond22) V3 load(1, XDATA, add(CFA_XSP16, literal(-9)))
        CFI (cfiCond22) V4 load(1, XDATA, add(CFA_XSP16, literal(-8)))
        CFI (cfiCond22) V5 load(1, XDATA, add(CFA_XSP16, literal(-7)))
        CFI (cfiCond22) R7 load(1, XDATA, add(CFA_XSP16, literal(-6)))
        CFI (cfiCond22) ?RET_LOW load(1, XDATA, add(CFA_XSP16, literal(-5)))
        CFI (cfiCond22) ?RET_HIGH load(1, XDATA, add(CFA_XSP16, literal(-4)))
        CFI (cfiCond22) ?BRET_EXT load(1, XDATA, add(CFA_XSP16, literal(-3)))
        CFI (cfiCond22) DPL0 load(1, XDATA, add(CFA_XSP16, literal(-2)))
        CFI (cfiCond22) DPH0 load(1, XDATA, add(CFA_XSP16, literal(-1)))
        CFI (cfiCond22) CFA_SP SP+0
        CFI (cfiCond22) CFA_XSP16 add(XSP16, 32)
        CFI Block cfiCond23 Using cfiCommon0
        CFI (cfiCond23) NoFunction
        CFI (cfiCond23) Conditional ??CrossCallReturnLabel_85
        CFI (cfiCond23) R6 load(1, XDATA, add(CFA_XSP16, literal(-22)))
        CFI (cfiCond23) VB load(1, XDATA, add(CFA_XSP16, literal(-21)))
        CFI (cfiCond23) V0 load(1, XDATA, add(CFA_XSP16, literal(-20)))
        CFI (cfiCond23) V1 load(1, XDATA, add(CFA_XSP16, literal(-19)))
        CFI (cfiCond23) V2 load(1, XDATA, add(CFA_XSP16, literal(-18)))
        CFI (cfiCond23) V3 load(1, XDATA, add(CFA_XSP16, literal(-17)))
        CFI (cfiCond23) V4 load(1, XDATA, add(CFA_XSP16, literal(-16)))
        CFI (cfiCond23) V5 load(1, XDATA, add(CFA_XSP16, literal(-15)))
        CFI (cfiCond23) V6 load(1, XDATA, add(CFA_XSP16, literal(-14)))
        CFI (cfiCond23) V7 load(1, XDATA, add(CFA_XSP16, literal(-13)))
        CFI (cfiCond23) V8 load(1, XDATA, add(CFA_XSP16, literal(-12)))
        CFI (cfiCond23) V9 load(1, XDATA, add(CFA_XSP16, literal(-11)))
        CFI (cfiCond23) V10 load(1, XDATA, add(CFA_XSP16, literal(-10)))
        CFI (cfiCond23) V11 load(1, XDATA, add(CFA_XSP16, literal(-9)))
        CFI (cfiCond23) V12 load(1, XDATA, add(CFA_XSP16, literal(-8)))
        CFI (cfiCond23) V13 load(1, XDATA, add(CFA_XSP16, literal(-7)))
        CFI (cfiCond23) R7 load(1, XDATA, add(CFA_XSP16, literal(-6)))
        CFI (cfiCond23) ?RET_LOW load(1, XDATA, add(CFA_XSP16, literal(-5)))
        CFI (cfiCond23) ?RET_HIGH load(1, XDATA, add(CFA_XSP16, literal(-4)))
        CFI (cfiCond23) ?BRET_EXT load(1, XDATA, add(CFA_XSP16, literal(-3)))
        CFI (cfiCond23) DPL0 load(1, XDATA, add(CFA_XSP16, literal(-2)))
        CFI (cfiCond23) DPH0 load(1, XDATA, add(CFA_XSP16, literal(-1)))
        CFI (cfiCond23) CFA_SP SP+0
        CFI (cfiCond23) CFA_XSP16 add(XSP16, 39)
        CFI Block cfiCond24 Using cfiCommon0
        CFI (cfiCond24) NoFunction
        CFI (cfiCond24) Conditional ??CrossCallReturnLabel_86
        CFI (cfiCond24) R6 load(1, XDATA, add(CFA_XSP16, literal(-14)))
        CFI (cfiCond24) VB load(1, XDATA, add(CFA_XSP16, literal(-13)))
        CFI (cfiCond24) V0 load(1, XDATA, add(CFA_XSP16, literal(-12)))
        CFI (cfiCond24) V1 load(1, XDATA, add(CFA_XSP16, literal(-11)))
        CFI (cfiCond24) V2 load(1, XDATA, add(CFA_XSP16, literal(-10)))
        CFI (cfiCond24) V3 load(1, XDATA, add(CFA_XSP16, literal(-9)))
        CFI (cfiCond24) V4 load(1, XDATA, add(CFA_XSP16, literal(-8)))
        CFI (cfiCond24) V5 load(1, XDATA, add(CFA_XSP16, literal(-7)))
        CFI (cfiCond24) R7 load(1, XDATA, add(CFA_XSP16, literal(-6)))
        CFI (cfiCond24) ?RET_LOW load(1, XDATA, add(CFA_XSP16, literal(-5)))
        CFI (cfiCond24) ?RET_HIGH load(1, XDATA, add(CFA_XSP16, literal(-4)))
        CFI (cfiCond24) ?BRET_EXT load(1, XDATA, add(CFA_XSP16, literal(-3)))
        CFI (cfiCond24) DPL0 load(1, XDATA, add(CFA_XSP16, literal(-2)))
        CFI (cfiCond24) DPH0 load(1, XDATA, add(CFA_XSP16, literal(-1)))
        CFI (cfiCond24) CFA_SP SP+0
        CFI (cfiCond24) CFA_XSP16 add(XSP16, 24)
        CFI Block cfiCond25 Using cfiCommon0
        CFI (cfiCond25) NoFunction
        CFI (cfiCond25) Conditional ??CrossCallReturnLabel_87
        CFI (cfiCond25) R6 load(1, XDATA, add(CFA_XSP16, literal(-14)))
        CFI (cfiCond25) VB load(1, XDATA, add(CFA_XSP16, literal(-13)))
        CFI (cfiCond25) V0 load(1, XDATA, add(CFA_XSP16, literal(-12)))
        CFI (cfiCond25) V1 load(1, XDATA, add(CFA_XSP16, literal(-11)))
        CFI (cfiCond25) V2 load(1, XDATA, add(CFA_XSP16, literal(-10)))
        CFI (cfiCond25) V3 load(1, XDATA, add(CFA_XSP16, literal(-9)))
        CFI (cfiCond25) V4 load(1, XDATA, add(CFA_XSP16, literal(-8)))
        CFI (cfiCond25) V5 load(1, XDATA, add(CFA_XSP16, literal(-7)))
        CFI (cfiCond25) R7 load(1, XDATA, add(CFA_XSP16, literal(-6)))
        CFI (cfiCond25) ?RET_LOW load(1, XDATA, add(CFA_XSP16, literal(-5)))
        CFI (cfiCond25) ?RET_HIGH load(1, XDATA, add(CFA_XSP16, literal(-4)))
        CFI (cfiCond25) ?BRET_EXT load(1, XDATA, add(CFA_XSP16, literal(-3)))
        CFI (cfiCond25) DPL0 load(1, XDATA, add(CFA_XSP16, literal(-2)))
        CFI (cfiCond25) DPH0 load(1, XDATA, add(CFA_XSP16, literal(-1)))
        CFI (cfiCond25) CFA_SP SP+0
        CFI (cfiCond25) CFA_XSP16 add(XSP16, 24)
        CFI Block cfiCond26 Using cfiCommon0
        CFI (cfiCond26) NoFunction
        CFI (cfiCond26) Conditional ??CrossCallReturnLabel_88
        CFI (cfiCond26) R6 load(1, XDATA, add(CFA_XSP16, literal(-18)))
        CFI (cfiCond26) VB load(1, XDATA, add(CFA_XSP16, literal(-17)))
        CFI (cfiCond26) V0 load(1, XDATA, add(CFA_XSP16, literal(-16)))
        CFI (cfiCond26) V1 load(1, XDATA, add(CFA_XSP16, literal(-15)))
        CFI (cfiCond26) V2 load(1, XDATA, add(CFA_XSP16, literal(-14)))
        CFI (cfiCond26) V3 load(1, XDATA, add(CFA_XSP16, literal(-13)))
        CFI (cfiCond26) V4 load(1, XDATA, add(CFA_XSP16, literal(-12)))
        CFI (cfiCond26) V5 load(1, XDATA, add(CFA_XSP16, literal(-11)))
        CFI (cfiCond26) V6 load(1, XDATA, add(CFA_XSP16, literal(-10)))
        CFI (cfiCond26) V7 load(1, XDATA, add(CFA_XSP16, literal(-9)))
        CFI (cfiCond26) V8 load(1, XDATA, add(CFA_XSP16, literal(-8)))
        CFI (cfiCond26) V9 load(1, XDATA, add(CFA_XSP16, literal(-7)))
        CFI (cfiCond26) R7 load(1, XDATA, add(CFA_XSP16, literal(-6)))
        CFI (cfiCond26) ?RET_LOW load(1, XDATA, add(CFA_XSP16, literal(-5)))
        CFI (cfiCond26) ?RET_HIGH load(1, XDATA, add(CFA_XSP16, literal(-4)))
        CFI (cfiCond26) ?BRET_EXT load(1, XDATA, add(CFA_XSP16, literal(-3)))
        CFI (cfiCond26) DPL0 load(1, XDATA, add(CFA_XSP16, literal(-2)))
        CFI (cfiCond26) DPH0 load(1, XDATA, add(CFA_XSP16, literal(-1)))
        CFI (cfiCond26) CFA_SP SP+0
        CFI (cfiCond26) CFA_XSP16 add(XSP16, 24)
        CFI Block cfiCond27 Using cfiCommon0
        CFI (cfiCond27) NoFunction
        CFI (cfiCond27) Conditional ??CrossCallReturnLabel_89
        CFI (cfiCond27) R6 load(1, XDATA, add(CFA_XSP16, literal(-20)))
        CFI (cfiCond27) VB load(1, XDATA, add(CFA_XSP16, literal(-19)))
        CFI (cfiCond27) V0 load(1, XDATA, add(CFA_XSP16, literal(-18)))
        CFI (cfiCond27) V1 load(1, XDATA, add(CFA_XSP16, literal(-17)))
        CFI (cfiCond27) V2 load(1, XDATA, add(CFA_XSP16, literal(-16)))
        CFI (cfiCond27) V3 load(1, XDATA, add(CFA_XSP16, literal(-15)))
        CFI (cfiCond27) V4 load(1, XDATA, add(CFA_XSP16, literal(-14)))
        CFI (cfiCond27) V5 load(1, XDATA, add(CFA_XSP16, literal(-13)))
        CFI (cfiCond27) V6 load(1, XDATA, add(CFA_XSP16, literal(-12)))
        CFI (cfiCond27) V7 load(1, XDATA, add(CFA_XSP16, literal(-11)))
        CFI (cfiCond27) V8 load(1, XDATA, add(CFA_XSP16, literal(-10)))
        CFI (cfiCond27) V9 load(1, XDATA, add(CFA_XSP16, literal(-9)))
        CFI (cfiCond27) V10 load(1, XDATA, add(CFA_XSP16, literal(-8)))
        CFI (cfiCond27) V11 load(1, XDATA, add(CFA_XSP16, literal(-7)))
        CFI (cfiCond27) R7 load(1, XDATA, add(CFA_XSP16, literal(-6)))
        CFI (cfiCond27) ?RET_LOW load(1, XDATA, add(CFA_XSP16, literal(-5)))
        CFI (cfiCond27) ?RET_HIGH load(1, XDATA, add(CFA_XSP16, literal(-4)))
        CFI (cfiCond27) ?BRET_EXT load(1, XDATA, add(CFA_XSP16, literal(-3)))
        CFI (cfiCond27) DPL0 load(1, XDATA, add(CFA_XSP16, literal(-2)))
        CFI (cfiCond27) DPH0 load(1, XDATA, add(CFA_XSP16, literal(-1)))
        CFI (cfiCond27) CFA_SP SP+0
        CFI (cfiCond27) CFA_XSP16 add(XSP16, 26)
        CFI Block cfiCond28 Using cfiCommon0
        CFI (cfiCond28) NoFunction
        CFI (cfiCond28) Conditional ??CrossCallReturnLabel_90
        CFI (cfiCond28) R6 load(1, XDATA, add(CFA_XSP16, literal(-20)))
        CFI (cfiCond28) VB load(1, XDATA, add(CFA_XSP16, literal(-19)))
        CFI (cfiCond28) V0 load(1, XDATA, add(CFA_XSP16, literal(-18)))
        CFI (cfiCond28) V1 load(1, XDATA, add(CFA_XSP16, literal(-17)))
        CFI (cfiCond28) V2 load(1, XDATA, add(CFA_XSP16, literal(-16)))
        CFI (cfiCond28) V3 load(1, XDATA, add(CFA_XSP16, literal(-15)))
        CFI (cfiCond28) V4 load(1, XDATA, add(CFA_XSP16, literal(-14)))
        CFI (cfiCond28) V5 load(1, XDATA, add(CFA_XSP16, literal(-13)))
        CFI (cfiCond28) V6 load(1, XDATA, add(CFA_XSP16, literal(-12)))
        CFI (cfiCond28) V7 load(1, XDATA, add(CFA_XSP16, literal(-11)))
        CFI (cfiCond28) V8 load(1, XDATA, add(CFA_XSP16, literal(-10)))
        CFI (cfiCond28) V9 load(1, XDATA, add(CFA_XSP16, literal(-9)))
        CFI (cfiCond28) V10 load(1, XDATA, add(CFA_XSP16, literal(-8)))
        CFI (cfiCond28) V11 load(1, XDATA, add(CFA_XSP16, literal(-7)))
        CFI (cfiCond28) R7 load(1, XDATA, add(CFA_XSP16, literal(-6)))
        CFI (cfiCond28) ?RET_LOW load(1, XDATA, add(CFA_XSP16, literal(-5)))
        CFI (cfiCond28) ?RET_HIGH load(1, XDATA, add(CFA_XSP16, literal(-4)))
        CFI (cfiCond28) ?BRET_EXT load(1, XDATA, add(CFA_XSP16, literal(-3)))
        CFI (cfiCond28) DPL0 load(1, XDATA, add(CFA_XSP16, literal(-2)))
        CFI (cfiCond28) DPH0 load(1, XDATA, add(CFA_XSP16, literal(-1)))
        CFI (cfiCond28) CFA_SP SP+0
        CFI (cfiCond28) CFA_XSP16 add(XSP16, 26)
        CFI Block cfiCond29 Using cfiCommon0
        CFI (cfiCond29) NoFunction
        CFI (cfiCond29) Conditional ??CrossCallReturnLabel_91
        CFI (cfiCond29) R6 load(1, XDATA, add(CFA_XSP16, literal(-20)))
        CFI (cfiCond29) VB load(1, XDATA, add(CFA_XSP16, literal(-19)))
        CFI (cfiCond29) V0 load(1, XDATA, add(CFA_XSP16, literal(-18)))
        CFI (cfiCond29) V1 load(1, XDATA, add(CFA_XSP16, literal(-17)))
        CFI (cfiCond29) V2 load(1, XDATA, add(CFA_XSP16, literal(-16)))
        CFI (cfiCond29) V3 load(1, XDATA, add(CFA_XSP16, literal(-15)))
        CFI (cfiCond29) V4 load(1, XDATA, add(CFA_XSP16, literal(-14)))
        CFI (cfiCond29) V5 load(1, XDATA, add(CFA_XSP16, literal(-13)))
        CFI (cfiCond29) V6 load(1, XDATA, add(CFA_XSP16, literal(-12)))
        CFI (cfiCond29) V7 load(1, XDATA, add(CFA_XSP16, literal(-11)))
        CFI (cfiCond29) V8 load(1, XDATA, add(CFA_XSP16, literal(-10)))
        CFI (cfiCond29) V9 load(1, XDATA, add(CFA_XSP16, literal(-9)))
        CFI (cfiCond29) V10 load(1, XDATA, add(CFA_XSP16, literal(-8)))
        CFI (cfiCond29) V11 load(1, XDATA, add(CFA_XSP16, literal(-7)))
        CFI (cfiCond29) R7 load(1, XDATA, add(CFA_XSP16, literal(-6)))
        CFI (cfiCond29) ?RET_LOW load(1, XDATA, add(CFA_XSP16, literal(-5)))
        CFI (cfiCond29) ?RET_HIGH load(1, XDATA, add(CFA_XSP16, literal(-4)))
        CFI (cfiCond29) ?BRET_EXT load(1, XDATA, add(CFA_XSP16, literal(-3)))
        CFI (cfiCond29) DPL0 load(1, XDATA, add(CFA_XSP16, literal(-2)))
        CFI (cfiCond29) DPH0 load(1, XDATA, add(CFA_XSP16, literal(-1)))
        CFI (cfiCond29) CFA_SP SP+0
        CFI (cfiCond29) CFA_XSP16 add(XSP16, 26)
        CFI Block cfiCond30 Using cfiCommon0
        CFI (cfiCond30) NoFunction
        CFI (cfiCond30) Conditional ??CrossCallReturnLabel_92
        CFI (cfiCond30) R6 load(1, XDATA, add(CFA_XSP16, literal(-24)))
        CFI (cfiCond30) VB load(1, XDATA, add(CFA_XSP16, literal(-23)))
        CFI (cfiCond30) V0 load(1, XDATA, add(CFA_XSP16, literal(-22)))
        CFI (cfiCond30) V1 load(1, XDATA, add(CFA_XSP16, literal(-21)))
        CFI (cfiCond30) V2 load(1, XDATA, add(CFA_XSP16, literal(-20)))
        CFI (cfiCond30) V3 load(1, XDATA, add(CFA_XSP16, literal(-19)))
        CFI (cfiCond30) V4 load(1, XDATA, add(CFA_XSP16, literal(-18)))
        CFI (cfiCond30) V5 load(1, XDATA, add(CFA_XSP16, literal(-17)))
        CFI (cfiCond30) V6 load(1, XDATA, add(CFA_XSP16, literal(-16)))
        CFI (cfiCond30) V7 load(1, XDATA, add(CFA_XSP16, literal(-15)))
        CFI (cfiCond30) V8 load(1, XDATA, add(CFA_XSP16, literal(-14)))
        CFI (cfiCond30) V9 load(1, XDATA, add(CFA_XSP16, literal(-13)))
        CFI (cfiCond30) V10 load(1, XDATA, add(CFA_XSP16, literal(-12)))
        CFI (cfiCond30) V11 load(1, XDATA, add(CFA_XSP16, literal(-11)))
        CFI (cfiCond30) V12 load(1, XDATA, add(CFA_XSP16, literal(-10)))
        CFI (cfiCond30) V13 load(1, XDATA, add(CFA_XSP16, literal(-9)))
        CFI (cfiCond30) V14 load(1, XDATA, add(CFA_XSP16, literal(-8)))
        CFI (cfiCond30) V15 load(1, XDATA, add(CFA_XSP16, literal(-7)))
        CFI (cfiCond30) R7 load(1, XDATA, add(CFA_XSP16, literal(-6)))
        CFI (cfiCond30) ?RET_LOW load(1, XDATA, add(CFA_XSP16, literal(-5)))
        CFI (cfiCond30) ?RET_HIGH load(1, XDATA, add(CFA_XSP16, literal(-4)))
        CFI (cfiCond30) ?BRET_EXT load(1, XDATA, add(CFA_XSP16, literal(-3)))
        CFI (cfiCond30) DPL0 load(1, XDATA, add(CFA_XSP16, literal(-2)))
        CFI (cfiCond30) DPH0 load(1, XDATA, add(CFA_XSP16, literal(-1)))
        CFI (cfiCond30) CFA_SP SP+0
        CFI (cfiCond30) CFA_XSP16 add(XSP16, 42)
        CFI Block cfiCond31 Using cfiCommon0
        CFI (cfiCond31) NoFunction
        CFI (cfiCond31) Conditional ??CrossCallReturnLabel_93
        CFI (cfiCond31) R6 load(1, XDATA, add(CFA_XSP16, literal(-24)))
        CFI (cfiCond31) VB load(1, XDATA, add(CFA_XSP16, literal(-23)))
        CFI (cfiCond31) V0 load(1, XDATA, add(CFA_XSP16, literal(-22)))
        CFI (cfiCond31) V1 load(1, XDATA, add(CFA_XSP16, literal(-21)))
        CFI (cfiCond31) V2 load(1, XDATA, add(CFA_XSP16, literal(-20)))
        CFI (cfiCond31) V3 load(1, XDATA, add(CFA_XSP16, literal(-19)))
        CFI (cfiCond31) V4 load(1, XDATA, add(CFA_XSP16, literal(-18)))
        CFI (cfiCond31) V5 load(1, XDATA, add(CFA_XSP16, literal(-17)))
        CFI (cfiCond31) V6 load(1, XDATA, add(CFA_XSP16, literal(-16)))
        CFI (cfiCond31) V7 load(1, XDATA, add(CFA_XSP16, literal(-15)))
        CFI (cfiCond31) V8 load(1, XDATA, add(CFA_XSP16, literal(-14)))
        CFI (cfiCond31) V9 load(1, XDATA, add(CFA_XSP16, literal(-13)))
        CFI (cfiCond31) V10 load(1, XDATA, add(CFA_XSP16, literal(-12)))
        CFI (cfiCond31) V11 load(1, XDATA, add(CFA_XSP16, literal(-11)))
        CFI (cfiCond31) V12 load(1, XDATA, add(CFA_XSP16, literal(-10)))
        CFI (cfiCond31) V13 load(1, XDATA, add(CFA_XSP16, literal(-9)))
        CFI (cfiCond31) V14 load(1, XDATA, add(CFA_XSP16, literal(-8)))
        CFI (cfiCond31) V15 load(1, XDATA, add(CFA_XSP16, literal(-7)))
        CFI (cfiCond31) R7 load(1, XDATA, add(CFA_XSP16, literal(-6)))
        CFI (cfiCond31) ?RET_LOW load(1, XDATA, add(CFA_XSP16, literal(-5)))
        CFI (cfiCond31) ?RET_HIGH load(1, XDATA, add(CFA_XSP16, literal(-4)))
        CFI (cfiCond31) ?BRET_EXT load(1, XDATA, add(CFA_XSP16, literal(-3)))
        CFI (cfiCond31) DPL0 load(1, XDATA, add(CFA_XSP16, literal(-2)))
        CFI (cfiCond31) DPH0 load(1, XDATA, add(CFA_XSP16, literal(-1)))
        CFI (cfiCond31) CFA_SP SP+0
        CFI (cfiCond31) CFA_XSP16 add(XSP16, 51)
        CFI Block cfiCond32 Using cfiCommon0
        CFI (cfiCond32) NoFunction
        CFI (cfiCond32) Conditional ??CrossCallReturnLabel_82
        CFI (cfiCond32) R6 load(1, XDATA, add(CFA_XSP16, literal(-18)))
        CFI (cfiCond32) VB load(1, XDATA, add(CFA_XSP16, literal(-17)))
        CFI (cfiCond32) V0 load(1, XDATA, add(CFA_XSP16, literal(-16)))
        CFI (cfiCond32) V1 load(1, XDATA, add(CFA_XSP16, literal(-15)))
        CFI (cfiCond32) V2 load(1, XDATA, add(CFA_XSP16, literal(-14)))
        CFI (cfiCond32) V3 load(1, XDATA, add(CFA_XSP16, literal(-13)))
        CFI (cfiCond32) V4 load(1, XDATA, add(CFA_XSP16, literal(-12)))
        CFI (cfiCond32) V5 load(1, XDATA, add(CFA_XSP16, literal(-11)))
        CFI (cfiCond32) V6 load(1, XDATA, add(CFA_XSP16, literal(-10)))
        CFI (cfiCond32) V7 load(1, XDATA, add(CFA_XSP16, literal(-9)))
        CFI (cfiCond32) V8 load(1, XDATA, add(CFA_XSP16, literal(-8)))
        CFI (cfiCond32) V9 load(1, XDATA, add(CFA_XSP16, literal(-7)))
        CFI (cfiCond32) R7 load(1, XDATA, add(CFA_XSP16, literal(-6)))
        CFI (cfiCond32) ?RET_LOW load(1, XDATA, add(CFA_XSP16, literal(-5)))
        CFI (cfiCond32) ?RET_HIGH load(1, XDATA, add(CFA_XSP16, literal(-4)))
        CFI (cfiCond32) ?BRET_EXT load(1, XDATA, add(CFA_XSP16, literal(-3)))
        CFI (cfiCond32) DPL0 load(1, XDATA, add(CFA_XSP16, literal(-2)))
        CFI (cfiCond32) DPH0 load(1, XDATA, add(CFA_XSP16, literal(-1)))
        CFI (cfiCond32) CFA_SP SP+0
        CFI (cfiCond32) CFA_XSP16 add(XSP16, 24)
        CFI Block cfiCond33 Using cfiCommon0
        CFI (cfiCond33) NoFunction
        CFI (cfiCond33) Conditional ??CrossCallReturnLabel_83
        CFI (cfiCond33) R6 load(1, XDATA, add(CFA_XSP16, literal(-18)))
        CFI (cfiCond33) VB load(1, XDATA, add(CFA_XSP16, literal(-17)))
        CFI (cfiCond33) V0 load(1, XDATA, add(CFA_XSP16, literal(-16)))
        CFI (cfiCond33) V1 load(1, XDATA, add(CFA_XSP16, literal(-15)))
        CFI (cfiCond33) V2 load(1, XDATA, add(CFA_XSP16, literal(-14)))
        CFI (cfiCond33) V3 load(1, XDATA, add(CFA_XSP16, literal(-13)))
        CFI (cfiCond33) V4 load(1, XDATA, add(CFA_XSP16, literal(-12)))
        CFI (cfiCond33) V5 load(1, XDATA, add(CFA_XSP16, literal(-11)))
        CFI (cfiCond33) V6 load(1, XDATA, add(CFA_XSP16, literal(-10)))
        CFI (cfiCond33) V7 load(1, XDATA, add(CFA_XSP16, literal(-9)))
        CFI (cfiCond33) V8 load(1, XDATA, add(CFA_XSP16, literal(-8)))
        CFI (cfiCond33) V9 load(1, XDATA, add(CFA_XSP16, literal(-7)))
        CFI (cfiCond33) R7 load(1, XDATA, add(CFA_XSP16, literal(-6)))
        CFI (cfiCond33) ?RET_LOW load(1, XDATA, add(CFA_XSP16, literal(-5)))
        CFI (cfiCond33) ?RET_HIGH load(1, XDATA, add(CFA_XSP16, literal(-4)))
        CFI (cfiCond33) ?BRET_EXT load(1, XDATA, add(CFA_XSP16, literal(-3)))
        CFI (cfiCond33) DPL0 load(1, XDATA, add(CFA_XSP16, literal(-2)))
        CFI (cfiCond33) DPH0 load(1, XDATA, add(CFA_XSP16, literal(-1)))
        CFI (cfiCond33) CFA_SP SP+0
        CFI (cfiCond33) CFA_XSP16 add(XSP16, 24)
        CFI Block cfiPicker34 Using cfiCommon1
        CFI (cfiPicker34) NoFunction
        CFI (cfiPicker34) Picker
        LCALL   ??HalFlashWrite?relay
        MOV     A,#0x2
        RET
        CFI EndBlock cfiCond17
        CFI EndBlock cfiCond18
        CFI EndBlock cfiCond19
        CFI EndBlock cfiCond20
        CFI EndBlock cfiCond21
        CFI EndBlock cfiCond22
        CFI EndBlock cfiCond23
        CFI EndBlock cfiCond24
        CFI EndBlock cfiCond25
        CFI EndBlock cfiCond26
        CFI EndBlock cfiCond27
        CFI EndBlock cfiCond28
        CFI EndBlock cfiCond29
        CFI EndBlock cfiCond30
        CFI EndBlock cfiCond31
        CFI EndBlock cfiCond32
        CFI EndBlock cfiCond33
        CFI EndBlock cfiPicker34
//  346 
//  347 /*********************************************************************
//  348  * @fn      setPageUse
//  349  *
//  350  * @brief   Set page header active/inUse state according to 'inUse'.
//  351  *
//  352  * @param   pg - Valid NV page to verify and init.
//  353  * @param   inUse - Boolean TRUE if inUse, FALSE if only active.
//  354  *
//  355  * @return  none
//  356  */
//  357 static void setPageUse( uint8 pg, uint8 inUse )
//  358 {
//  359   osalNvPgHdr_t pgHdr;
//  360 
//  361   pgHdr.active = OSAL_NV_ZEROED_ID;
//  362 
//  363   if ( inUse )
//  364   {
//  365     pgHdr.inUse = OSAL_NV_ZEROED_ID;
//  366   }
//  367   else
//  368   {
//  369     pgHdr.inUse = OSAL_NV_ERASED_ID;
//  370   }
//  371 
//  372   writeWord( pg, OSAL_NV_PAGE_HDR_OFFSET, (uint8*)(&pgHdr) );
//  373 }
//  374 
//  375 /*********************************************************************
//  376  * @fn      initPage
//  377  *
//  378  * @brief   Walk the page items; calculate checksums, lost bytes & page offset.
//  379  *
//  380  * @param   pg - Valid NV page to verify and init.
//  381  * @param   id - Valid NV item Id to use function as a "findItem".
//  382  *               If set to NULL then just perform the page initialization.
//  383  * @param   findDups - TRUE on recursive call from initNV() to find and zero-out duplicate items
//  384  *                     left from a write that is interrupted by a reset/power-cycle.
//  385  *                     FALSE otherwise.
//  386  *
//  387  * @return  If 'id' is non-NULL and good checksums are found, return the offset
//  388  *          of the data corresponding to item Id; else OSAL_NV_ITEM_NULL.
//  389  */

        RSEG BANKED_CODE:CODE:NOROOT(0)
//  390 static uint16 initPage( uint8 pg, uint16 id, uint8 findDups )
initPage:
        CFI Block cfiBlock35 Using cfiCommon0
        CFI Function initPage
        CODE
//  391 {
        FUNCALL initPage, HalFlashRead
        LOCFRAME ISTACK, 0, STACK
        LOCFRAME PSTACK, 0, STACK
        LOCFRAME XSTACK, 32, STACK
        LOCFRAME IOVERLAY, 0, STATIC
        LOCFRAME DOVERLAY, 0, STATIC
        ARGFRAME ISTACK, 0, STACK
        ARGFRAME PSTACK, 0, STACK
        ARGFRAME XSTACK, 32, STACK
        ARGFRAME IOVERLAY, 0, STATIC
        ARGFRAME DOVERLAY, 0, STATIC
        FUNCALL initPage, calcChkF
        LOCFRAME ISTACK, 0, STACK
        LOCFRAME PSTACK, 0, STACK
        LOCFRAME XSTACK, 30, STACK
        LOCFRAME IOVERLAY, 0, STATIC
        LOCFRAME DOVERLAY, 0, STATIC
        ARGFRAME ISTACK, 0, STACK
        ARGFRAME PSTACK, 0, STACK
        ARGFRAME XSTACK, 30, STACK
        ARGFRAME IOVERLAY, 0, STATIC
        ARGFRAME DOVERLAY, 0, STATIC
        FUNCALL initPage, findItem
        LOCFRAME ISTACK, 0, STACK
        LOCFRAME PSTACK, 0, STACK
        LOCFRAME XSTACK, 30, STACK
        LOCFRAME IOVERLAY, 0, STATIC
        LOCFRAME DOVERLAY, 0, STATIC
        ARGFRAME ISTACK, 0, STACK
        ARGFRAME PSTACK, 0, STACK
        ARGFRAME XSTACK, 30, STACK
        ARGFRAME IOVERLAY, 0, STATIC
        ARGFRAME DOVERLAY, 0, STATIC
        FUNCALL initPage, setItem
        LOCFRAME ISTACK, 0, STACK
        LOCFRAME PSTACK, 0, STACK
        LOCFRAME XSTACK, 30, STACK
        LOCFRAME IOVERLAY, 0, STATIC
        LOCFRAME DOVERLAY, 0, STATIC
        ARGFRAME ISTACK, 0, STACK
        ARGFRAME PSTACK, 0, STACK
        ARGFRAME XSTACK, 30, STACK
        ARGFRAME IOVERLAY, 0, STATIC
        ARGFRAME DOVERLAY, 0, STATIC
        FUNCALL initPage, setItem
        LOCFRAME ISTACK, 0, STACK
        LOCFRAME PSTACK, 0, STACK
        LOCFRAME XSTACK, 30, STACK
        LOCFRAME IOVERLAY, 0, STATIC
        LOCFRAME DOVERLAY, 0, STATIC
        ARGFRAME ISTACK, 0, STACK
        ARGFRAME PSTACK, 0, STACK
        ARGFRAME XSTACK, 30, STACK
        ARGFRAME IOVERLAY, 0, STATIC
        ARGFRAME DOVERLAY, 0, STATIC
        MOV     A,#-0x16
        LCALL   ?BANKED_ENTER_XDATA
        CFI DPH0 load(1, XDATA, add(CFA_XSP16, literal(-1)))
        CFI DPL0 load(1, XDATA, add(CFA_XSP16, literal(-2)))
        CFI ?BRET_EXT load(1, XDATA, add(CFA_XSP16, literal(-3)))
        CFI ?RET_HIGH load(1, XDATA, add(CFA_XSP16, literal(-4)))
        CFI ?RET_LOW load(1, XDATA, add(CFA_XSP16, literal(-5)))
        CFI R7 load(1, XDATA, add(CFA_XSP16, literal(-6)))
        CFI V13 load(1, XDATA, add(CFA_XSP16, literal(-7)))
        CFI V12 load(1, XDATA, add(CFA_XSP16, literal(-8)))
        CFI V11 load(1, XDATA, add(CFA_XSP16, literal(-9)))
        CFI V10 load(1, XDATA, add(CFA_XSP16, literal(-10)))
        CFI V9 load(1, XDATA, add(CFA_XSP16, literal(-11)))
        CFI V8 load(1, XDATA, add(CFA_XSP16, literal(-12)))
        CFI V7 load(1, XDATA, add(CFA_XSP16, literal(-13)))
        CFI V6 load(1, XDATA, add(CFA_XSP16, literal(-14)))
        CFI V5 load(1, XDATA, add(CFA_XSP16, literal(-15)))
        CFI V4 load(1, XDATA, add(CFA_XSP16, literal(-16)))
        CFI V3 load(1, XDATA, add(CFA_XSP16, literal(-17)))
        CFI V2 load(1, XDATA, add(CFA_XSP16, literal(-18)))
        CFI V1 load(1, XDATA, add(CFA_XSP16, literal(-19)))
        CFI V0 load(1, XDATA, add(CFA_XSP16, literal(-20)))
        CFI VB load(1, XDATA, add(CFA_XSP16, literal(-21)))
        CFI R6 load(1, XDATA, add(CFA_XSP16, literal(-22)))
        CFI CFA_SP SP+0
        CFI CFA_XSP16 add(XSP16, 22)
        ; Saved register size: 22
        ; Auto size: 8
        MOV     A,#-0x8
        LCALL   ?ALLOC_XSTACK8
        CFI CFA_XSP16 add(XSP16, 30)
        MOV     ?V0 + 8,R1
        MOV     ?V0 + 10,R2
        MOV     ?V0 + 11,R3
        MOV     ?V0 + 9,R4
//  392   uint16 offset = OSAL_NV_PAGE_HDR_SIZE;
        MOV     ?V0 + 6,#0x8
        MOV     ?V0 + 7,#0x0
//  393   uint16 sz, lost = 0;
        MOV     R6,#0x0
        MOV     R7,#0x0
        MOV     A,R3
        ANL     A,#0x80
        MOV     ?V0 + 5,A
        MOV     A,R2
        MOV     ?V0 + 2,A
        MOV     A,R3
        ANL     A,#0x7f
        MOV     ?V0 + 3,A
//  394   osalNvHdr_t hdr;
//  395 
//  396   do
//  397   {
//  398     HalFlashRead(pg, offset, (uint8 *)(&hdr), OSAL_NV_HDR_SIZE);
??initPage_0:
        ; Setup parameters for call to function HalFlashRead
        MOV     ?V0 + 0,#0x8
        MOV     ?V0 + 1,#0x0
        MOV     R0,#?V0 + 0
        LCALL   ?PUSH_XSTACK_I_TWO
        CFI CFA_XSP16 add(XSP16, 32)
        MOV     A,#0x2
        LCALL   ?XSTACK_DISP0_8
        MOV     R4,DPL
        MOV     R5,DPH
        MOV     R2,?V0 + 6
        MOV     R3,?V0 + 7
        LCALL   ??Subroutine50_0 & 0xFFFF
??CrossCallReturnLabel_118:
        LCALL   ?DEALLOC_XSTACK8
        CFI CFA_XSP16 add(XSP16, 30)
//  399 
//  400     if ( hdr.id == OSAL_NV_ERASED_ID )
        MOV     DPL,?XSP + 0
        MOV     DPH,?XSP + 1
        MOVX    A,@DPTR
        CPL     A
        JNZ     ??initPage_1
        INC     DPTR
        MOVX    A,@DPTR
        CPL     A
??initPage_1:
        JNZ     $+5
        LJMP    ??initPage_2 & 0xFFFF
//  401     {
//  402       break;
//  403     }
//  404 
//  405     // Get the actual size in bytes which is the ceiling(hdr.len)
//  406     sz = OSAL_NV_DATA_SIZE( hdr.len );
        MOV     A,#0x2
        LCALL   ?XSTACK_DISP0_8
        LCALL   ?Subroutine11 & 0xFFFF
??CrossCallReturnLabel_8:
        JC      ??initPage_3
        MOV     ?V0 + 0,#-0x4
        MOV     ?V0 + 1,#-0x1
        SJMP    ??initPage_4
??initPage_3:
        LCALL   ?Subroutine30 & 0xFFFF
??CrossCallReturnLabel_56:
        MOV     ?V0 + 0,A
        MOV     A,R1
        MOV     ?V0 + 1,A
//  407 
//  408     // A bad 'len' write has blown away the rest of the page.
//  409     if (sz > (OSAL_NV_PAGE_SIZE - OSAL_NV_HDR_SIZE - offset))
??initPage_4:
        MOV     A,#-0x8
        CLR     C
        SUBB    A,?V0 + 6
        MOV     R0,A
        MOV     A,#0x7
        SUBB    A,?V0 + 7
        MOV     R1,A
        CLR     C
        MOV     A,R0
        SUBB    A,?V0 + 0
        MOV     A,R1
        SUBB    A,?V0 + 1
        JNC     ??initPage_5
//  410     {
//  411       lost += (OSAL_NV_PAGE_SIZE - offset);
        MOV     A,R6
        ADD     A,#0x0
        MOV     R0,A
        MOV     A,R7
        ADDC    A,#0x8
        MOV     R1,A
        MOV     A,R0
        CLR     C
        SUBB    A,?V0 + 6
        MOV     R6,A
        MOV     A,R1
        SUBB    A,?V0 + 7
        MOV     R7,A
//  412       offset = OSAL_NV_PAGE_SIZE;
        MOV     ?V0 + 6,#0x0
        MOV     ?V0 + 7,#0x8
//  413       break;
        LJMP    ??initPage_2 & 0xFFFF
//  414     }
//  415 
//  416     offset += OSAL_NV_HDR_SIZE;
??initPage_5:
        MOV     A,?V0 + 6
        ADD     A,#0x8
        MOV     ?V0 + 6,A
        MOV     A,?V0 + 7
        ADDC    A,#0x0
        MOV     ?V0 + 7,A
//  417 
//  418     if ( hdr.id != OSAL_NV_ZEROED_ID )
        MOV     DPL,?XSP + 0
        MOV     DPH,?XSP + 1
        LCALL   ?Subroutine25 & 0xFFFF
??CrossCallReturnLabel_39:
        MOV     A,R0
        ORL     A,R1
        JNZ     $+5
        LJMP    ??initPage_6 & 0xFFFF
//  419     {
//  420       /* This trick allows function to do double duty for findItem() without
//  421        * compromising its essential functionality at powerup initialization.
//  422        */
//  423       if ( id != OSAL_NV_ITEM_NULL )
        MOV     A,?V0 + 10
        ORL     A,?V0 + 11
        JZ      ??initPage_7
//  424       {
//  425         /* This trick allows asking to find the old/transferred item in case
//  426          * of a successful new item write that gets interrupted before the
//  427          * old item can be zeroed out.
//  428          */
//  429         if ( (id & 0x7fff) == hdr.id )
        MOV     DPL,?XSP + 0
        MOV     DPH,?XSP + 1
        MOVX    A,@DPTR
        XRL     A,?V0 + 2
        JNZ     ??initPage_8
        INC     DPTR
        MOVX    A,@DPTR
        XRL     A,?V0 + 3
??initPage_8:
        JZ      $+5
        LJMP    ??initPage_9 & 0xFFFF
//  430         {
//  431           if ( (((id & OSAL_NV_SOURCE_ID) == 0) && (hdr.stat == OSAL_NV_ERASED_ID)) ||
//  432                (((id & OSAL_NV_SOURCE_ID) != 0) && (hdr.stat != OSAL_NV_ERASED_ID)) )
        MOV     A,#0x6
        LCALL   ?XSTACK_DISP0_8
        LCALL   ?Subroutine25 & 0xFFFF
??CrossCallReturnLabel_40:
        MOV     A,?V0 + 5
        JNZ     ??initPage_10
        MOV     A,#-0x1
        XRL     A,R0
        JNZ     ??initPage_11
        MOV     A,#-0x1
        XRL     A,R1
??initPage_11:
        JZ      $+5
        LJMP    ??initPage_9 & 0xFFFF
        SJMP    ??initPage_12
??initPage_10:
        MOV     A,#-0x1
        XRL     A,R0
        JNZ     ??initPage_13
        MOV     A,#-0x1
        XRL     A,R1
??initPage_13:
        JNZ     $+5
        LJMP    ??initPage_9 & 0xFFFF
//  433           {
//  434             return offset;
??initPage_12:
        MOV     R2,?V0 + 6
        MOV     R3,?V0 + 7
        LJMP    ??initPage_14 & 0xFFFF
//  435           }
//  436         }
//  437       }
//  438       // When invoked from the osal_nv_init(), verify checksums and find & zero any duplicates.
//  439       else
//  440       {
//  441         if ( hdr.chk == calcChkF( pg, offset, hdr.len ) )
??initPage_7:
        ; Setup parameters for call to function calcChkF
        MOV     R2,?V0 + 6
        MOV     R3,?V0 + 7
        MOV     R1,?V0 + 8
        LCALL   ??calcChkF?relay
        MOV     ?V0 + 12,R2
        MOV     ?V0 + 13,R3
        MOV     R0,?V0 + 12
        MOV     R1,?V0 + 13
        MOV     A,#0x4
        LCALL   ?XSTACK_DISP0_8
        MOVX    A,@DPTR
        XRL     A,R0
        JNZ     ??initPage_15
        INC     DPTR
        MOVX    A,@DPTR
        XRL     A,R1
??initPage_15:
        JNZ     ??initPage_16
//  442         {
//  443           if ( findDups )
        MOV     A,#0x6
        LCALL   ?XSTACK_DISP0_8
        LCALL   ?Subroutine25 & 0xFFFF
??CrossCallReturnLabel_41:
        MOV     A,?V0 + 9
        JZ      ??initPage_17
//  444           {
//  445             if ( hdr.stat == OSAL_NV_ERASED_ID )
        MOV     A,#-0x1
        XRL     A,R0
        JNZ     ??initPage_18
        MOV     A,#-0x1
        XRL     A,R1
??initPage_18:
        JNZ     ??initPage_9
//  446             {
//  447               /* The trick of setting the MSB of the item Id causes the logic
//  448                * immediately above to return a valid page only if the header 'stat'
//  449                * indicates that it was the older item being transferred.
//  450                */
//  451               uint16 off = findItem( (hdr.id | OSAL_NV_SOURCE_ID) );
        ; Setup parameters for call to function findItem
        MOV     DPL,?XSP + 0
        MOV     DPH,?XSP + 1
        MOVX    A,@DPTR
        MOV     R2,A
        INC     DPTR
        MOVX    A,@DPTR
        ORL     A,#0x80
        MOV     R3,A
        LCALL   ??findItem?relay
//  452 
//  453               if ( off != OSAL_NV_ITEM_NULL )
        MOV     A,R2
        ORL     A,R3
        JZ      ??initPage_9
//  454               {
//  455                 setItem( findPg, off, eNvZero );  // Mark old duplicate as invalid.
        ; Setup parameters for call to function setItem
        MOV     R4,#0x1
        MOV     DPTR,#findPg
        MOVX    A,@DPTR
        MOV     R1,A
        LCALL   ??setItem?relay
        SJMP    ??initPage_9
//  456               }
//  457             }
//  458           }
//  459           // Any "old" item immediately exits and triggers the N^2 exhaustive initialization.
//  460           else if ( hdr.stat != OSAL_NV_ERASED_ID )
??initPage_17:
        MOV     A,#-0x1
        XRL     A,R0
        JNZ     ??initPage_19
        MOV     A,#-0x1
        XRL     A,R1
??initPage_19:
        JZ      ??initPage_9
//  461           {
//  462             return OSAL_NV_ERASED_ID;
        MOV     R2,#-0x1
        MOV     R3,#-0x1
        SJMP    ??initPage_14
//  463           }
//  464         }
//  465         else
//  466         {
//  467           setItem( pg, offset, eNvZero );  // Mark bad checksum as invalid.
??initPage_16:
        ; Setup parameters for call to function setItem
        MOV     R4,#0x1
        MOV     R2,?V0 + 6
        MOV     R3,?V0 + 7
        MOV     R1,?V0 + 8
        LCALL   ??setItem?relay
//  468           lost += (OSAL_NV_HDR_SIZE + sz);
//  469         }
//  470       }
//  471     }
//  472     else
//  473     {
//  474       lost += (OSAL_NV_HDR_SIZE + sz);
??initPage_6:
        MOV     A,?V0 + 0
        ADD     A,#0x8
        MOV     R0,A
        MOV     A,?V0 + 1
        ADDC    A,#0x0
        MOV     R1,A
        MOV     A,R6
        ADD     A,R0
        MOV     R6,A
        MOV     A,R7
        ADDC    A,R1
        MOV     R7,A
//  475     }
//  476     offset += sz;
??initPage_9:
        MOV     A,?V0 + 6
        ADD     A,?V0 + 0
        MOV     ?V0 + 6,A
        MOV     A,?V0 + 7
        ADDC    A,?V0 + 1
        MOV     ?V0 + 7,A
//  477 
//  478   } while (offset < (OSAL_NV_PAGE_SIZE - OSAL_NV_HDR_SIZE));
        CLR     C
        MOV     A,?V0 + 6
        SUBB    A,#-0x8
        MOV     A,?V0 + 7
        SUBB    A,#0x7
        JNC     $+5
        LJMP    ??initPage_0 & 0xFFFF
//  479 
//  480   pgOff[pg - OSAL_NV_PAGE_BEG] = offset;
??initPage_2:
        MOV     A,?V0 + 8
        LCALL   ??Subroutine46_0 & 0xFFFF
??CrossCallReturnLabel_99:
        MOV     A,?V0 + 6
        MOVX    @DPTR,A
        INC     DPTR
        MOV     A,?V0 + 7
        LCALL   ?Subroutine7 & 0xFFFF
//  481   pgLost[pg - OSAL_NV_PAGE_BEG] = lost;
??CrossCallReturnLabel_2:
        MOV     A,R6
        MOVX    @DPTR,A
        INC     DPTR
        MOV     A,R7
        MOVX    @DPTR,A
//  482 
//  483   return OSAL_NV_ITEM_NULL;
        MOV     R2,#0x0
        MOV     R3,#0x0
??initPage_14:
        MOV     A,#0x8
        CFI EndBlock cfiBlock35
        REQUIRE ?Subroutine1
        ; // Fall through to label ?Subroutine1
//  484 }

        RSEG BANKED_CODE:CODE:NOROOT(0)
?Subroutine1:
        CFI Block cfiBlock36 Using cfiCommon0
        CFI NoFunction
        CFI CFA_SP SP+0
        CFI CFA_XSP16 add(XSP16, 30)
        CFI VB load(1, XDATA, add(CFA_XSP16, literal(-21)))
        CFI DPL0 load(1, XDATA, add(CFA_XSP16, literal(-2)))
        CFI DPH0 load(1, XDATA, add(CFA_XSP16, literal(-1)))
        CFI R6 load(1, XDATA, add(CFA_XSP16, literal(-22)))
        CFI R7 load(1, XDATA, add(CFA_XSP16, literal(-6)))
        CFI V0 load(1, XDATA, add(CFA_XSP16, literal(-20)))
        CFI V1 load(1, XDATA, add(CFA_XSP16, literal(-19)))
        CFI V2 load(1, XDATA, add(CFA_XSP16, literal(-18)))
        CFI V3 load(1, XDATA, add(CFA_XSP16, literal(-17)))
        CFI V4 load(1, XDATA, add(CFA_XSP16, literal(-16)))
        CFI V5 load(1, XDATA, add(CFA_XSP16, literal(-15)))
        CFI V6 load(1, XDATA, add(CFA_XSP16, literal(-14)))
        CFI V7 load(1, XDATA, add(CFA_XSP16, literal(-13)))
        CFI V8 load(1, XDATA, add(CFA_XSP16, literal(-12)))
        CFI V9 load(1, XDATA, add(CFA_XSP16, literal(-11)))
        CFI V10 load(1, XDATA, add(CFA_XSP16, literal(-10)))
        CFI V11 load(1, XDATA, add(CFA_XSP16, literal(-9)))
        CFI V12 load(1, XDATA, add(CFA_XSP16, literal(-8)))
        CFI V13 load(1, XDATA, add(CFA_XSP16, literal(-7)))
        CFI ?BRET_EXT load(1, XDATA, add(CFA_XSP16, literal(-3)))
        CFI ?RET_HIGH load(1, XDATA, add(CFA_XSP16, literal(-4)))
        CFI ?RET_LOW load(1, XDATA, add(CFA_XSP16, literal(-5)))
        CFI Invalid
        LCALL   ?DEALLOC_XSTACK8
        CFI CFA_XSP16 add(XSP16, 22)
        CFI Valid
        MOV     R7,#0xe
        LJMP    ?BANKED_LEAVE_XDATA
        CFI EndBlock cfiBlock36
//  485 
//  486 /*********************************************************************
//  487  * @fn      erasePage
//  488  *
//  489  * @brief   Erases a page in Flash.
//  490  *
//  491  * @param   pg - Valid NV page to erase.
//  492  *
//  493  * @return  none
//  494  */

        RSEG BANKED_CODE:CODE:NOROOT(0)
//  495 static void erasePage( uint8 pg )
erasePage:
        CFI Block cfiBlock37 Using cfiCommon0
        CFI Function erasePage
        CODE
//  496 {
        FUNCALL erasePage, HalFlashErase
        LOCFRAME ISTACK, 0, STACK
        LOCFRAME PSTACK, 0, STACK
        LOCFRAME XSTACK, 9, STACK
        LOCFRAME IOVERLAY, 0, STATIC
        LOCFRAME DOVERLAY, 0, STATIC
        ARGFRAME ISTACK, 0, STACK
        ARGFRAME PSTACK, 0, STACK
        ARGFRAME XSTACK, 9, STACK
        ARGFRAME IOVERLAY, 0, STATIC
        ARGFRAME DOVERLAY, 0, STATIC
        MOV     A,#-0x9
        LCALL   ?BANKED_ENTER_XDATA
        CFI DPH0 load(1, XDATA, add(CFA_XSP16, literal(-1)))
        CFI DPL0 load(1, XDATA, add(CFA_XSP16, literal(-2)))
        CFI ?BRET_EXT load(1, XDATA, add(CFA_XSP16, literal(-3)))
        CFI ?RET_HIGH load(1, XDATA, add(CFA_XSP16, literal(-4)))
        CFI ?RET_LOW load(1, XDATA, add(CFA_XSP16, literal(-5)))
        CFI R7 load(1, XDATA, add(CFA_XSP16, literal(-6)))
        CFI V0 load(1, XDATA, add(CFA_XSP16, literal(-7)))
        CFI VB load(1, XDATA, add(CFA_XSP16, literal(-8)))
        CFI R6 load(1, XDATA, add(CFA_XSP16, literal(-9)))
        CFI CFA_SP SP+0
        CFI CFA_XSP16 add(XSP16, 9)
        ; Saved register size: 9
        ; Auto size: 0
        MOV     A,R1
        MOV     R6,A
//  497   HalFlashErase(pg);
        ; Setup parameters for call to function HalFlashErase
        LCALL   ??HalFlashErase?relay
//  498 
//  499   pgOff[pg - OSAL_NV_PAGE_BEG] = OSAL_NV_PAGE_HDR_SIZE;
        LCALL   ?Subroutine32 & 0xFFFF
??CrossCallReturnLabel_101:
        MOV     A,#0x8
        MOVX    @DPTR,A
        INC     DPTR
        CLR     A
        LCALL   ?Subroutine7 & 0xFFFF
//  500   pgLost[pg - OSAL_NV_PAGE_BEG] = 0;
??CrossCallReturnLabel_3:
        CLR     A
        MOVX    @DPTR,A
        INC     DPTR
        MOVX    @DPTR,A
        CFI EndBlock cfiBlock37
//  501 }
        REQUIRE ?Subroutine2
        ; // Fall through to label ?Subroutine2

        RSEG BANKED_CODE:CODE:NOROOT(0)
?Subroutine2:
        CFI Block cfiBlock38 Using cfiCommon0
        CFI NoFunction
        CFI CFA_SP SP+0
        CFI CFA_XSP16 add(XSP16, 9)
        CFI VB load(1, XDATA, add(CFA_XSP16, literal(-8)))
        CFI DPL0 load(1, XDATA, add(CFA_XSP16, literal(-2)))
        CFI DPH0 load(1, XDATA, add(CFA_XSP16, literal(-1)))
        CFI R6 load(1, XDATA, add(CFA_XSP16, literal(-9)))
        CFI R7 load(1, XDATA, add(CFA_XSP16, literal(-6)))
        CFI V0 load(1, XDATA, add(CFA_XSP16, literal(-7)))
        CFI ?BRET_EXT load(1, XDATA, add(CFA_XSP16, literal(-3)))
        CFI ?RET_HIGH load(1, XDATA, add(CFA_XSP16, literal(-4)))
        CFI ?RET_LOW load(1, XDATA, add(CFA_XSP16, literal(-5)))
        MOV     R7,#0x1
        LJMP    ?BANKED_LEAVE_XDATA
        CFI EndBlock cfiBlock38

        RSEG BANKED_CODE:CODE:NOROOT(0)
?Subroutine32:
        CFI Block cfiCond39 Using cfiCommon0
        CFI NoFunction
        CFI Conditional ??CrossCallReturnLabel_101
        CFI R6 load(1, XDATA, add(CFA_XSP16, literal(-9)))
        CFI VB load(1, XDATA, add(CFA_XSP16, literal(-8)))
        CFI V0 load(1, XDATA, add(CFA_XSP16, literal(-7)))
        CFI R7 load(1, XDATA, add(CFA_XSP16, literal(-6)))
        CFI ?RET_LOW load(1, XDATA, add(CFA_XSP16, literal(-5)))
        CFI ?RET_HIGH load(1, XDATA, add(CFA_XSP16, literal(-4)))
        CFI ?BRET_EXT load(1, XDATA, add(CFA_XSP16, literal(-3)))
        CFI DPL0 load(1, XDATA, add(CFA_XSP16, literal(-2)))
        CFI DPH0 load(1, XDATA, add(CFA_XSP16, literal(-1)))
        CFI CFA_SP SP+0
        CFI CFA_XSP16 add(XSP16, 9)
        CFI Block cfiCond40 Using cfiCommon0
        CFI (cfiCond40) NoFunction
        CFI (cfiCond40) Conditional ??CrossCallReturnLabel_102
        CFI (cfiCond40) R6 load(1, XDATA, add(CFA_XSP16, literal(-18)))
        CFI (cfiCond40) VB load(1, XDATA, add(CFA_XSP16, literal(-17)))
        CFI (cfiCond40) V0 load(1, XDATA, add(CFA_XSP16, literal(-16)))
        CFI (cfiCond40) V1 load(1, XDATA, add(CFA_XSP16, literal(-15)))
        CFI (cfiCond40) V2 load(1, XDATA, add(CFA_XSP16, literal(-14)))
        CFI (cfiCond40) V3 load(1, XDATA, add(CFA_XSP16, literal(-13)))
        CFI (cfiCond40) V4 load(1, XDATA, add(CFA_XSP16, literal(-12)))
        CFI (cfiCond40) V5 load(1, XDATA, add(CFA_XSP16, literal(-11)))
        CFI (cfiCond40) V6 load(1, XDATA, add(CFA_XSP16, literal(-10)))
        CFI (cfiCond40) V7 load(1, XDATA, add(CFA_XSP16, literal(-9)))
        CFI (cfiCond40) V8 load(1, XDATA, add(CFA_XSP16, literal(-8)))
        CFI (cfiCond40) V9 load(1, XDATA, add(CFA_XSP16, literal(-7)))
        CFI (cfiCond40) R7 load(1, XDATA, add(CFA_XSP16, literal(-6)))
        CFI (cfiCond40) ?RET_LOW load(1, XDATA, add(CFA_XSP16, literal(-5)))
        CFI (cfiCond40) ?RET_HIGH load(1, XDATA, add(CFA_XSP16, literal(-4)))
        CFI (cfiCond40) ?BRET_EXT load(1, XDATA, add(CFA_XSP16, literal(-3)))
        CFI (cfiCond40) DPL0 load(1, XDATA, add(CFA_XSP16, literal(-2)))
        CFI (cfiCond40) DPH0 load(1, XDATA, add(CFA_XSP16, literal(-1)))
        CFI (cfiCond40) CFA_SP SP+0
        CFI (cfiCond40) CFA_XSP16 add(XSP16, 40)
        CFI Block cfiPicker41 Using cfiCommon1
        CFI (cfiPicker41) NoFunction
        CFI (cfiPicker41) Picker
        MOV     A,R6
        CFI EndBlock cfiCond39
        CFI EndBlock cfiCond40
        CFI EndBlock cfiPicker41
        REQUIRE ??Subroutine46_0
        ; // Fall through to label ??Subroutine46_0

        RSEG BANKED_CODE:CODE:NOROOT(0)
??Subroutine46_0:
        CFI Block cfiCond42 Using cfiCommon0
        CFI NoFunction
        CFI Conditional ??CrossCallReturnLabel_99
        CFI R6 load(1, XDATA, add(CFA_XSP16, literal(-22)))
        CFI VB load(1, XDATA, add(CFA_XSP16, literal(-21)))
        CFI V0 load(1, XDATA, add(CFA_XSP16, literal(-20)))
        CFI V1 load(1, XDATA, add(CFA_XSP16, literal(-19)))
        CFI V2 load(1, XDATA, add(CFA_XSP16, literal(-18)))
        CFI V3 load(1, XDATA, add(CFA_XSP16, literal(-17)))
        CFI V4 load(1, XDATA, add(CFA_XSP16, literal(-16)))
        CFI V5 load(1, XDATA, add(CFA_XSP16, literal(-15)))
        CFI V6 load(1, XDATA, add(CFA_XSP16, literal(-14)))
        CFI V7 load(1, XDATA, add(CFA_XSP16, literal(-13)))
        CFI V8 load(1, XDATA, add(CFA_XSP16, literal(-12)))
        CFI V9 load(1, XDATA, add(CFA_XSP16, literal(-11)))
        CFI V10 load(1, XDATA, add(CFA_XSP16, literal(-10)))
        CFI V11 load(1, XDATA, add(CFA_XSP16, literal(-9)))
        CFI V12 load(1, XDATA, add(CFA_XSP16, literal(-8)))
        CFI V13 load(1, XDATA, add(CFA_XSP16, literal(-7)))
        CFI R7 load(1, XDATA, add(CFA_XSP16, literal(-6)))
        CFI ?RET_LOW load(1, XDATA, add(CFA_XSP16, literal(-5)))
        CFI ?RET_HIGH load(1, XDATA, add(CFA_XSP16, literal(-4)))
        CFI ?BRET_EXT load(1, XDATA, add(CFA_XSP16, literal(-3)))
        CFI DPL0 load(1, XDATA, add(CFA_XSP16, literal(-2)))
        CFI DPH0 load(1, XDATA, add(CFA_XSP16, literal(-1)))
        CFI CFA_SP SP+0
        CFI CFA_XSP16 add(XSP16, 30)
        CFI Block cfiCond43 Using cfiCommon0
        CFI (cfiCond43) NoFunction
        CFI (cfiCond43) Conditional ??CrossCallReturnLabel_100
        CFI (cfiCond43) R6 load(1, XDATA, add(CFA_XSP16, literal(-22)))
        CFI (cfiCond43) VB load(1, XDATA, add(CFA_XSP16, literal(-21)))
        CFI (cfiCond43) V0 load(1, XDATA, add(CFA_XSP16, literal(-20)))
        CFI (cfiCond43) V1 load(1, XDATA, add(CFA_XSP16, literal(-19)))
        CFI (cfiCond43) V2 load(1, XDATA, add(CFA_XSP16, literal(-18)))
        CFI (cfiCond43) V3 load(1, XDATA, add(CFA_XSP16, literal(-17)))
        CFI (cfiCond43) V4 load(1, XDATA, add(CFA_XSP16, literal(-16)))
        CFI (cfiCond43) V5 load(1, XDATA, add(CFA_XSP16, literal(-15)))
        CFI (cfiCond43) V6 load(1, XDATA, add(CFA_XSP16, literal(-14)))
        CFI (cfiCond43) V7 load(1, XDATA, add(CFA_XSP16, literal(-13)))
        CFI (cfiCond43) V8 load(1, XDATA, add(CFA_XSP16, literal(-12)))
        CFI (cfiCond43) V9 load(1, XDATA, add(CFA_XSP16, literal(-11)))
        CFI (cfiCond43) V10 load(1, XDATA, add(CFA_XSP16, literal(-10)))
        CFI (cfiCond43) V11 load(1, XDATA, add(CFA_XSP16, literal(-9)))
        CFI (cfiCond43) V12 load(1, XDATA, add(CFA_XSP16, literal(-8)))
        CFI (cfiCond43) V13 load(1, XDATA, add(CFA_XSP16, literal(-7)))
        CFI (cfiCond43) R7 load(1, XDATA, add(CFA_XSP16, literal(-6)))
        CFI (cfiCond43) ?RET_LOW load(1, XDATA, add(CFA_XSP16, literal(-5)))
        CFI (cfiCond43) ?RET_HIGH load(1, XDATA, add(CFA_XSP16, literal(-4)))
        CFI (cfiCond43) ?BRET_EXT load(1, XDATA, add(CFA_XSP16, literal(-3)))
        CFI (cfiCond43) DPL0 load(1, XDATA, add(CFA_XSP16, literal(-2)))
        CFI (cfiCond43) DPH0 load(1, XDATA, add(CFA_XSP16, literal(-1)))
        CFI (cfiCond43) CFA_SP SP+0
        CFI (cfiCond43) CFA_XSP16 add(XSP16, 37)
        CFI Block cfiCond44 Using cfiCommon0
        CFI (cfiCond44) NoFunction
        CFI (cfiCond44) Conditional ??CrossCallReturnLabel_101
        CFI (cfiCond44) R6 load(1, XDATA, add(CFA_XSP16, literal(-9)))
        CFI (cfiCond44) VB load(1, XDATA, add(CFA_XSP16, literal(-8)))
        CFI (cfiCond44) V0 load(1, XDATA, add(CFA_XSP16, literal(-7)))
        CFI (cfiCond44) R7 load(1, XDATA, add(CFA_XSP16, literal(-6)))
        CFI (cfiCond44) ?RET_LOW load(1, XDATA, add(CFA_XSP16, literal(-5)))
        CFI (cfiCond44) ?RET_HIGH load(1, XDATA, add(CFA_XSP16, literal(-4)))
        CFI (cfiCond44) ?BRET_EXT load(1, XDATA, add(CFA_XSP16, literal(-3)))
        CFI (cfiCond44) DPL0 load(1, XDATA, add(CFA_XSP16, literal(-2)))
        CFI (cfiCond44) DPH0 load(1, XDATA, add(CFA_XSP16, literal(-1)))
        CFI (cfiCond44) CFA_SP SP+0
        CFI (cfiCond44) CFA_XSP16 add(XSP16, 9)
        CFI Block cfiCond45 Using cfiCommon0
        CFI (cfiCond45) NoFunction
        CFI (cfiCond45) Conditional ??CrossCallReturnLabel_102
        CFI (cfiCond45) R6 load(1, XDATA, add(CFA_XSP16, literal(-18)))
        CFI (cfiCond45) VB load(1, XDATA, add(CFA_XSP16, literal(-17)))
        CFI (cfiCond45) V0 load(1, XDATA, add(CFA_XSP16, literal(-16)))
        CFI (cfiCond45) V1 load(1, XDATA, add(CFA_XSP16, literal(-15)))
        CFI (cfiCond45) V2 load(1, XDATA, add(CFA_XSP16, literal(-14)))
        CFI (cfiCond45) V3 load(1, XDATA, add(CFA_XSP16, literal(-13)))
        CFI (cfiCond45) V4 load(1, XDATA, add(CFA_XSP16, literal(-12)))
        CFI (cfiCond45) V5 load(1, XDATA, add(CFA_XSP16, literal(-11)))
        CFI (cfiCond45) V6 load(1, XDATA, add(CFA_XSP16, literal(-10)))
        CFI (cfiCond45) V7 load(1, XDATA, add(CFA_XSP16, literal(-9)))
        CFI (cfiCond45) V8 load(1, XDATA, add(CFA_XSP16, literal(-8)))
        CFI (cfiCond45) V9 load(1, XDATA, add(CFA_XSP16, literal(-7)))
        CFI (cfiCond45) R7 load(1, XDATA, add(CFA_XSP16, literal(-6)))
        CFI (cfiCond45) ?RET_LOW load(1, XDATA, add(CFA_XSP16, literal(-5)))
        CFI (cfiCond45) ?RET_HIGH load(1, XDATA, add(CFA_XSP16, literal(-4)))
        CFI (cfiCond45) ?BRET_EXT load(1, XDATA, add(CFA_XSP16, literal(-3)))
        CFI (cfiCond45) DPL0 load(1, XDATA, add(CFA_XSP16, literal(-2)))
        CFI (cfiCond45) DPH0 load(1, XDATA, add(CFA_XSP16, literal(-1)))
        CFI (cfiCond45) CFA_SP SP+0
        CFI (cfiCond45) CFA_XSP16 add(XSP16, 40)
        CFI Block cfiPicker46 Using cfiCommon1
        CFI (cfiPicker46) NoFunction
        CFI (cfiPicker46) Picker
        CLR     C
        RLC     A
        MOV     R0,A
        CLR     A
        RLC     A
        MOV     R1,A
        MOV     A,#(pgOff + 14) & 0xff
        ADD     A,R0
        MOV     DPL,A
        MOV     A,#((pgOff - 242) >> 8) & 0xff
        ADDC    A,R1
        MOV     DPH,A
        RET
        CFI EndBlock cfiCond42
        CFI EndBlock cfiCond43
        CFI EndBlock cfiCond44
        CFI EndBlock cfiCond45
        CFI EndBlock cfiPicker46

        RSEG BANKED_CODE:CODE:NOROOT(0)
?Subroutine7:
        CFI Block cfiCond47 Using cfiCommon0
        CFI NoFunction
        CFI Conditional ??CrossCallReturnLabel_2
        CFI R6 load(1, XDATA, add(CFA_XSP16, literal(-22)))
        CFI VB load(1, XDATA, add(CFA_XSP16, literal(-21)))
        CFI V0 load(1, XDATA, add(CFA_XSP16, literal(-20)))
        CFI V1 load(1, XDATA, add(CFA_XSP16, literal(-19)))
        CFI V2 load(1, XDATA, add(CFA_XSP16, literal(-18)))
        CFI V3 load(1, XDATA, add(CFA_XSP16, literal(-17)))
        CFI V4 load(1, XDATA, add(CFA_XSP16, literal(-16)))
        CFI V5 load(1, XDATA, add(CFA_XSP16, literal(-15)))
        CFI V6 load(1, XDATA, add(CFA_XSP16, literal(-14)))
        CFI V7 load(1, XDATA, add(CFA_XSP16, literal(-13)))
        CFI V8 load(1, XDATA, add(CFA_XSP16, literal(-12)))
        CFI V9 load(1, XDATA, add(CFA_XSP16, literal(-11)))
        CFI V10 load(1, XDATA, add(CFA_XSP16, literal(-10)))
        CFI V11 load(1, XDATA, add(CFA_XSP16, literal(-9)))
        CFI V12 load(1, XDATA, add(CFA_XSP16, literal(-8)))
        CFI V13 load(1, XDATA, add(CFA_XSP16, literal(-7)))
        CFI R7 load(1, XDATA, add(CFA_XSP16, literal(-6)))
        CFI ?RET_LOW load(1, XDATA, add(CFA_XSP16, literal(-5)))
        CFI ?RET_HIGH load(1, XDATA, add(CFA_XSP16, literal(-4)))
        CFI ?BRET_EXT load(1, XDATA, add(CFA_XSP16, literal(-3)))
        CFI DPL0 load(1, XDATA, add(CFA_XSP16, literal(-2)))
        CFI DPH0 load(1, XDATA, add(CFA_XSP16, literal(-1)))
        CFI CFA_SP SP+0
        CFI CFA_XSP16 add(XSP16, 30)
        CFI Block cfiCond48 Using cfiCommon0
        CFI (cfiCond48) NoFunction
        CFI (cfiCond48) Conditional ??CrossCallReturnLabel_3
        CFI (cfiCond48) R6 load(1, XDATA, add(CFA_XSP16, literal(-9)))
        CFI (cfiCond48) VB load(1, XDATA, add(CFA_XSP16, literal(-8)))
        CFI (cfiCond48) V0 load(1, XDATA, add(CFA_XSP16, literal(-7)))
        CFI (cfiCond48) R7 load(1, XDATA, add(CFA_XSP16, literal(-6)))
        CFI (cfiCond48) ?RET_LOW load(1, XDATA, add(CFA_XSP16, literal(-5)))
        CFI (cfiCond48) ?RET_HIGH load(1, XDATA, add(CFA_XSP16, literal(-4)))
        CFI (cfiCond48) ?BRET_EXT load(1, XDATA, add(CFA_XSP16, literal(-3)))
        CFI (cfiCond48) DPL0 load(1, XDATA, add(CFA_XSP16, literal(-2)))
        CFI (cfiCond48) DPH0 load(1, XDATA, add(CFA_XSP16, literal(-1)))
        CFI (cfiCond48) CFA_SP SP+0
        CFI (cfiCond48) CFA_XSP16 add(XSP16, 9)
        CFI Block cfiPicker49 Using cfiCommon1
        CFI (cfiPicker49) NoFunction
        CFI (cfiPicker49) Picker
        MOVX    @DPTR,A
        MOV     A,#(pgLost + 14) & 0xff
        ADD     A,R0
        MOV     DPL,A
        MOV     A,#((pgLost - 242) >> 8) & 0xff
        ADDC    A,R1
        MOV     DPH,A
        RET
        CFI EndBlock cfiCond47
        CFI EndBlock cfiCond48
        CFI EndBlock cfiPicker49
//  502 
//  503 /*********************************************************************
//  504  * @fn      compactPage
//  505  *
//  506  * @brief   Compacts the page specified.
//  507  *
//  508  * @param   srcPg - Valid NV page to erase.
//  509  * @param   skipId - Item Id to not compact.
//  510  *
//  511  * @return  TRUE if valid items from 'srcPg' are successully compacted onto the 'pgRes';
//  512  *          FALSE otherwise.
//  513  *          Note that on a failure, this could loop, re-erasing the 'pgRes' and re-compacting with
//  514  *          the risk of infinitely looping on HAL flash failure.
//  515  *          Worst case scenario: HAL flash starts failing in general, perhaps low Vdd?
//  516  *          All page compactions will fail which will cause all osal_nv_write() calls to return
//  517  *          NV_OPER_FAILED.
//  518  *          Eventually, all pages in use may also be in the state of "pending compaction" where
//  519  *          the page header member OSAL_NV_PG_XFER is zeroed out.
//  520  *          During this "HAL flash brown-out", the code will run and OTA should work (until low Vdd
//  521  *          causes an actual chip brown-out, of course.) Although no new NV items will be created
//  522  *          or written, the last value written with a return value of SUCCESS can continue to be
//  523  *          read successfully.
//  524  *          If eventually HAL flash starts working again, all of the pages marked as
//  525  *          "pending compaction" may or may not be eventually compacted. But, initNV() will
//  526  *          deterministically clean-up one page pending compaction per power-cycle
//  527  *          (if HAL flash is working.) Nevertheless, one erased reserve page will be maintained
//  528  *          through such a scenario.
//  529  */

        RSEG BANKED_CODE:CODE:NOROOT(0)
//  530 static uint8 compactPage( uint8 srcPg, uint16 skipId )
compactPage:
        CFI Block cfiBlock50 Using cfiCommon0
        CFI Function compactPage
        CODE
//  531 {
        FUNCALL compactPage, HalFlashRead
        LOCFRAME ISTACK, 0, STACK
        LOCFRAME PSTACK, 0, STACK
        LOCFRAME XSTACK, 39, STACK
        LOCFRAME IOVERLAY, 0, STATIC
        LOCFRAME DOVERLAY, 0, STATIC
        ARGFRAME ISTACK, 0, STACK
        ARGFRAME PSTACK, 0, STACK
        ARGFRAME XSTACK, 39, STACK
        ARGFRAME IOVERLAY, 0, STATIC
        ARGFRAME DOVERLAY, 0, STATIC
        FUNCALL compactPage, erasePage
        LOCFRAME ISTACK, 0, STACK
        LOCFRAME PSTACK, 0, STACK
        LOCFRAME XSTACK, 37, STACK
        LOCFRAME IOVERLAY, 0, STATIC
        LOCFRAME DOVERLAY, 0, STATIC
        ARGFRAME ISTACK, 0, STACK
        ARGFRAME PSTACK, 0, STACK
        ARGFRAME XSTACK, 37, STACK
        ARGFRAME IOVERLAY, 0, STATIC
        ARGFRAME DOVERLAY, 0, STATIC
        FUNCALL compactPage, HalFlashRead
        LOCFRAME ISTACK, 0, STACK
        LOCFRAME PSTACK, 0, STACK
        LOCFRAME XSTACK, 39, STACK
        LOCFRAME IOVERLAY, 0, STATIC
        LOCFRAME DOVERLAY, 0, STATIC
        ARGFRAME ISTACK, 0, STACK
        ARGFRAME PSTACK, 0, STACK
        ARGFRAME XSTACK, 39, STACK
        ARGFRAME IOVERLAY, 0, STATIC
        ARGFRAME DOVERLAY, 0, STATIC
        FUNCALL compactPage, calcChkF
        LOCFRAME ISTACK, 0, STACK
        LOCFRAME PSTACK, 0, STACK
        LOCFRAME XSTACK, 37, STACK
        LOCFRAME IOVERLAY, 0, STATIC
        LOCFRAME DOVERLAY, 0, STATIC
        ARGFRAME ISTACK, 0, STACK
        ARGFRAME PSTACK, 0, STACK
        ARGFRAME XSTACK, 37, STACK
        ARGFRAME IOVERLAY, 0, STATIC
        ARGFRAME DOVERLAY, 0, STATIC
        FUNCALL compactPage, setItem
        LOCFRAME ISTACK, 0, STACK
        LOCFRAME PSTACK, 0, STACK
        LOCFRAME XSTACK, 37, STACK
        LOCFRAME IOVERLAY, 0, STATIC
        LOCFRAME DOVERLAY, 0, STATIC
        ARGFRAME ISTACK, 0, STACK
        ARGFRAME PSTACK, 0, STACK
        ARGFRAME XSTACK, 37, STACK
        ARGFRAME IOVERLAY, 0, STATIC
        ARGFRAME DOVERLAY, 0, STATIC
        FUNCALL compactPage, writeItem
        LOCFRAME ISTACK, 0, STACK
        LOCFRAME PSTACK, 0, STACK
        LOCFRAME XSTACK, 40, STACK
        LOCFRAME IOVERLAY, 0, STATIC
        LOCFRAME DOVERLAY, 0, STATIC
        ARGFRAME ISTACK, 0, STACK
        ARGFRAME PSTACK, 0, STACK
        ARGFRAME XSTACK, 40, STACK
        ARGFRAME IOVERLAY, 0, STATIC
        ARGFRAME DOVERLAY, 0, STATIC
        FUNCALL compactPage, xferBuf
        LOCFRAME ISTACK, 0, STACK
        LOCFRAME PSTACK, 0, STACK
        LOCFRAME XSTACK, 41, STACK
        LOCFRAME IOVERLAY, 0, STATIC
        LOCFRAME DOVERLAY, 0, STATIC
        ARGFRAME ISTACK, 0, STACK
        ARGFRAME PSTACK, 0, STACK
        ARGFRAME XSTACK, 41, STACK
        ARGFRAME IOVERLAY, 0, STATIC
        ARGFRAME DOVERLAY, 0, STATIC
        FUNCALL compactPage, calcChkF
        LOCFRAME ISTACK, 0, STACK
        LOCFRAME PSTACK, 0, STACK
        LOCFRAME XSTACK, 37, STACK
        LOCFRAME IOVERLAY, 0, STATIC
        LOCFRAME DOVERLAY, 0, STATIC
        ARGFRAME ISTACK, 0, STACK
        ARGFRAME PSTACK, 0, STACK
        ARGFRAME XSTACK, 37, STACK
        ARGFRAME IOVERLAY, 0, STATIC
        ARGFRAME DOVERLAY, 0, STATIC
        FUNCALL compactPage, HalFlashWrite
        LOCFRAME ISTACK, 0, STACK
        LOCFRAME PSTACK, 0, STACK
        LOCFRAME XSTACK, 39, STACK
        LOCFRAME IOVERLAY, 0, STATIC
        LOCFRAME DOVERLAY, 0, STATIC
        ARGFRAME ISTACK, 0, STACK
        ARGFRAME PSTACK, 0, STACK
        ARGFRAME XSTACK, 39, STACK
        ARGFRAME IOVERLAY, 0, STATIC
        ARGFRAME DOVERLAY, 0, STATIC
        FUNCALL compactPage, HalFlashRead
        LOCFRAME ISTACK, 0, STACK
        LOCFRAME PSTACK, 0, STACK
        LOCFRAME XSTACK, 39, STACK
        LOCFRAME IOVERLAY, 0, STATIC
        LOCFRAME DOVERLAY, 0, STATIC
        ARGFRAME ISTACK, 0, STACK
        ARGFRAME PSTACK, 0, STACK
        ARGFRAME XSTACK, 39, STACK
        ARGFRAME IOVERLAY, 0, STATIC
        ARGFRAME DOVERLAY, 0, STATIC
        FUNCALL compactPage, erasePage
        LOCFRAME ISTACK, 0, STACK
        LOCFRAME PSTACK, 0, STACK
        LOCFRAME XSTACK, 37, STACK
        LOCFRAME IOVERLAY, 0, STATIC
        LOCFRAME DOVERLAY, 0, STATIC
        ARGFRAME ISTACK, 0, STACK
        ARGFRAME PSTACK, 0, STACK
        ARGFRAME XSTACK, 37, STACK
        ARGFRAME IOVERLAY, 0, STATIC
        ARGFRAME DOVERLAY, 0, STATIC
        FUNCALL compactPage, HalFlashWrite
        LOCFRAME ISTACK, 0, STACK
        LOCFRAME PSTACK, 0, STACK
        LOCFRAME XSTACK, 39, STACK
        LOCFRAME IOVERLAY, 0, STATIC
        LOCFRAME DOVERLAY, 0, STATIC
        ARGFRAME ISTACK, 0, STACK
        ARGFRAME PSTACK, 0, STACK
        ARGFRAME XSTACK, 39, STACK
        ARGFRAME IOVERLAY, 0, STATIC
        ARGFRAME DOVERLAY, 0, STATIC
        FUNCALL compactPage, erasePage
        LOCFRAME ISTACK, 0, STACK
        LOCFRAME PSTACK, 0, STACK
        LOCFRAME XSTACK, 37, STACK
        LOCFRAME IOVERLAY, 0, STATIC
        LOCFRAME DOVERLAY, 0, STATIC
        ARGFRAME ISTACK, 0, STACK
        ARGFRAME PSTACK, 0, STACK
        ARGFRAME XSTACK, 37, STACK
        ARGFRAME IOVERLAY, 0, STATIC
        ARGFRAME DOVERLAY, 0, STATIC
        MOV     A,#-0x16
        LCALL   ?BANKED_ENTER_XDATA
        CFI DPH0 load(1, XDATA, add(CFA_XSP16, literal(-1)))
        CFI DPL0 load(1, XDATA, add(CFA_XSP16, literal(-2)))
        CFI ?BRET_EXT load(1, XDATA, add(CFA_XSP16, literal(-3)))
        CFI ?RET_HIGH load(1, XDATA, add(CFA_XSP16, literal(-4)))
        CFI ?RET_LOW load(1, XDATA, add(CFA_XSP16, literal(-5)))
        CFI R7 load(1, XDATA, add(CFA_XSP16, literal(-6)))
        CFI V13 load(1, XDATA, add(CFA_XSP16, literal(-7)))
        CFI V12 load(1, XDATA, add(CFA_XSP16, literal(-8)))
        CFI V11 load(1, XDATA, add(CFA_XSP16, literal(-9)))
        CFI V10 load(1, XDATA, add(CFA_XSP16, literal(-10)))
        CFI V9 load(1, XDATA, add(CFA_XSP16, literal(-11)))
        CFI V8 load(1, XDATA, add(CFA_XSP16, literal(-12)))
        CFI V7 load(1, XDATA, add(CFA_XSP16, literal(-13)))
        CFI V6 load(1, XDATA, add(CFA_XSP16, literal(-14)))
        CFI V5 load(1, XDATA, add(CFA_XSP16, literal(-15)))
        CFI V4 load(1, XDATA, add(CFA_XSP16, literal(-16)))
        CFI V3 load(1, XDATA, add(CFA_XSP16, literal(-17)))
        CFI V2 load(1, XDATA, add(CFA_XSP16, literal(-18)))
        CFI V1 load(1, XDATA, add(CFA_XSP16, literal(-19)))
        CFI V0 load(1, XDATA, add(CFA_XSP16, literal(-20)))
        CFI VB load(1, XDATA, add(CFA_XSP16, literal(-21)))
        CFI R6 load(1, XDATA, add(CFA_XSP16, literal(-22)))
        CFI CFA_SP SP+0
        CFI CFA_XSP16 add(XSP16, 22)
        ; Saved register size: 22
        ; Auto size: 15
        MOV     A,#-0xf
        LCALL   ?ALLOC_XSTACK8
        CFI CFA_XSP16 add(XSP16, 37)
        MOV     ?V0 + 7,R1
        MOV     ?V0 + 12,R2
        MOV     ?V0 + 13,R3
//  532   uint16 srcOff;
//  533   uint8 rtrn;
//  534 
//  535   // To minimize code size, only check for a clean page here where it's absolutely required.
//  536   for (srcOff = 0; srcOff < OSAL_NV_PAGE_SIZE; srcOff++)
        MOV     ?V0 + 0,#0x0
        MOV     ?V0 + 1,#0x0
//  537   {
//  538     HalFlashRead(pgRes, srcOff, &rtrn, 1);
??compactPage_0:
        ; Setup parameters for call to function HalFlashRead
        MOV     ?V0 + 2,#0x1
        MOV     ?V0 + 3,#0x0
        MOV     R0,#?V0 + 2
        LCALL   ?PUSH_XSTACK_I_TWO
        CFI CFA_XSP16 add(XSP16, 39)
        MOV     A,#0x2
        LCALL   ?XSTACK_DISP0_8
        MOV     R4,DPL
        MOV     R5,DPH
        MOV     R2,?V0 + 0
        MOV     R3,?V0 + 1
        MOV     DPTR,#pgRes
        MOVX    A,@DPTR
        MOV     R1,A
        LCALL   ??Subroutine51_0 & 0xFFFF
??CrossCallReturnLabel_122:
        LCALL   ?DEALLOC_XSTACK8
        CFI CFA_XSP16 add(XSP16, 37)
//  539     if (rtrn != OSAL_NV_ERASED)
        MOV     DPL,?XSP + 0
        MOV     DPH,?XSP + 1
        MOVX    A,@DPTR
        CPL     A
        JZ      ??compactPage_1
//  540     {
//  541       erasePage(pgRes);
        ; Setup parameters for call to function erasePage
        LCALL   ?Subroutine19 & 0xFFFF
//  542       return FALSE;
??CrossCallReturnLabel_108:
        MOV     R1,#0x0
        LJMP    ??compactPage_2 & 0xFFFF
//  543     }
//  544   }
??compactPage_1:
        MOV     A,?V0 + 0
        ADD     A,#0x1
        MOV     ?V0 + 0,A
        MOV     A,?V0 + 1
        ADDC    A,#0x0
        MOV     ?V0 + 1,A
        CLR     C
        SUBB    A,#0x8
        JC      ??compactPage_0
//  545 
//  546   srcOff = OSAL_NV_PAGE_HDR_SIZE;
        MOV     ?V0 + 0,#0x8
        MOV     ?V0 + 1,#0x0
//  547   rtrn = TRUE;
        MOV     A,#0x1
        MOVX    @DPTR,A
//  548 
//  549   while ( srcOff < (OSAL_NV_PAGE_SIZE - OSAL_NV_HDR_SIZE ) )
//  550   {
//  551     osalNvHdr_t hdr;
//  552     uint16 sz, dstOff = pgOff[pgRes-OSAL_NV_PAGE_BEG];
??compactPage_3:
        MOV     DPTR,#pgRes
        MOVX    A,@DPTR
        LCALL   ??Subroutine46_0 & 0xFFFF
??CrossCallReturnLabel_100:
        LCALL   ?Subroutine16 & 0xFFFF
//  553 
//  554     HalFlashRead(srcPg, srcOff, (uint8 *)(&hdr), OSAL_NV_HDR_SIZE);
??CrossCallReturnLabel_22:
        ; Setup parameters for call to function HalFlashRead
        MOV     ?V0 + 2,#0x8
        MOV     ?V0 + 3,#0x0
        MOV     R0,#?V0 + 2
        LCALL   ?PUSH_XSTACK_I_TWO
        CFI CFA_XSP16 add(XSP16, 39)
        MOV     A,#0x5
        LCALL   ?XSTACK_DISP0_8
        MOV     R4,DPL
        MOV     R5,DPH
        MOV     R2,?V0 + 0
        MOV     R3,?V0 + 1
        MOV     R1,?V0 + 7
        LCALL   ??Subroutine51_0 & 0xFFFF
??CrossCallReturnLabel_123:
        LCALL   ?DEALLOC_XSTACK8
        CFI CFA_XSP16 add(XSP16, 37)
//  555 
//  556     if ( hdr.id == OSAL_NV_ERASED_ID )
        MOV     A,#0x3
        LCALL   ?XSTACK_DISP0_8
        MOVX    A,@DPTR
        CPL     A
        JNZ     ??compactPage_4
        INC     DPTR
        MOVX    A,@DPTR
        CPL     A
??compactPage_4:
        JNZ     $+5
        LJMP    ??compactPage_5 & 0xFFFF
//  557     {
//  558       break;
//  559     }
//  560 
//  561     // Get the actual size in bytes which is the ceiling(hdr.len)
//  562     sz = OSAL_NV_DATA_SIZE( hdr.len );
        MOV     A,#0x5
        LCALL   ?XSTACK_DISP0_8
        LCALL   ?Subroutine11 & 0xFFFF
??CrossCallReturnLabel_9:
        JC      ??compactPage_6
        MOV     R6,#-0x4
        MOV     R7,#-0x1
        SJMP    ??compactPage_7
??compactPage_6:
        LCALL   ?Subroutine30 & 0xFFFF
??CrossCallReturnLabel_57:
        MOV     R6,A
        MOV     A,R1
        MOV     R7,A
//  563 
//  564     if ( sz > (OSAL_NV_PAGE_SIZE - OSAL_NV_HDR_SIZE - srcOff) )
??compactPage_7:
        MOV     A,#-0x8
        CLR     C
        SUBB    A,?V0 + 0
        MOV     R0,A
        MOV     A,#0x7
        SUBB    A,?V0 + 1
        MOV     R1,A
        CLR     C
        MOV     A,R0
        SUBB    A,R6
        MOV     A,R1
        SUBB    A,R7
        JNC     $+5
        LJMP    ??compactPage_5 & 0xFFFF
//  565     {
//  566       break;
//  567     }
//  568 
//  569     if ( sz > (OSAL_NV_PAGE_SIZE - OSAL_NV_HDR_SIZE - dstOff) )
        MOV     A,#-0x8
        CLR     C
        SUBB    A,?V0 + 4
        MOV     R0,A
        MOV     A,#0x7
        SUBB    A,?V0 + 5
        MOV     R1,A
        CLR     C
        MOV     A,R0
        SUBB    A,R6
        MOV     A,R1
        SUBB    A,R7
        JNC     ??compactPage_8
//  570     {
//  571       rtrn = FALSE;
??compactPage_9:
        MOV     DPL,?XSP + 0
        MOV     DPH,?XSP + 1
        CLR     A
        MOVX    @DPTR,A
//  572       break;
        LJMP    ??compactPage_10 & 0xFFFF
//  573     }
//  574 
//  575     srcOff += OSAL_NV_HDR_SIZE;
??compactPage_8:
        MOV     A,?V0 + 0
        ADD     A,#0x8
        MOV     ?V0 + 0,A
        MOV     A,?V0 + 1
        ADDC    A,#0x0
        MOV     ?V0 + 1,A
//  576 
//  577     if ( (hdr.id != OSAL_NV_ZEROED_ID) && (hdr.id != skipId) )
        MOV     A,#0x3
        LCALL   ?XSTACK_DISP0_8
        LCALL   ?Subroutine25 & 0xFFFF
??CrossCallReturnLabel_42:
        MOV     A,R0
        ORL     A,R1
        JNZ     $+5
        LJMP    ??compactPage_11 & 0xFFFF
        MOV     A,#0x3
        LCALL   ?XSTACK_DISP0_8
        MOVX    A,@DPTR
        XRL     A,?V0 + 12
        JNZ     ??compactPage_12
        INC     DPTR
        MOVX    A,@DPTR
        XRL     A,?V0 + 13
??compactPage_12:
        JNZ     $+5
        LJMP    ??compactPage_11 & 0xFFFF
//  578     {
//  579       if ( hdr.chk == calcChkF( srcPg, srcOff, hdr.len ) )
        ; Setup parameters for call to function calcChkF
        MOV     R2,?V0 + 0
        MOV     R3,?V0 + 1
        MOV     R1,?V0 + 7
        LCALL   ??calcChkF?relay
        MOV     ?V0 + 2,R2
        MOV     ?V0 + 3,R3
        MOV     R0,?V0 + 2
        MOV     R1,?V0 + 3
        MOV     A,#0x7
        LCALL   ?XSTACK_DISP0_8
        MOVX    A,@DPTR
        XRL     A,R0
        JNZ     ??compactPage_13
        INC     DPTR
        MOVX    A,@DPTR
        XRL     A,R1
??compactPage_13:
        JZ      $+5
        LJMP    ??compactPage_11 & 0xFFFF
//  580       {
//  581         /* Prevent excessive re-writes to item header caused by numerous, rapid, & successive
//  582          * OSAL_Nv interruptions caused by resets.
//  583          */
//  584         if ( hdr.stat == OSAL_NV_ERASED_ID )
        MOV     A,#0x9
        LCALL   ?XSTACK_DISP0_8
        MOVX    A,@DPTR
        CPL     A
        JNZ     ??compactPage_14
        INC     DPTR
        MOVX    A,@DPTR
        CPL     A
??compactPage_14:
        JNZ     ??compactPage_15
//  585         {
//  586           setItem( srcPg, srcOff, eNvXfer );
        ; Setup parameters for call to function setItem
        MOV     R4,#0x0
        MOV     R2,?V0 + 0
        MOV     R3,?V0 + 1
        MOV     R1,?V0 + 7
        LCALL   ??setItem?relay
//  587         }
//  588 
//  589         if ( writeItem( pgRes, hdr.id, hdr.len, NULL, FALSE ) )
??compactPage_15:
        ; Setup parameters for call to function writeItem
        MOV     ?V0 + 2,#0x0
        MOV     R0,#?V0 + 2
        LCALL   ?PUSH_XSTACK_I_ONE
        CFI CFA_XSP16 add(XSP16, 38)
        CLR     A
        MOV     ?V0 + 3,A
        MOV     R0,#?V0 + 2
        LCALL   ?PUSH_XSTACK_I_TWO
        CFI CFA_XSP16 add(XSP16, 40)
        MOV     A,#0x8
        LCALL   ?XSTACK_DISP0_8
        LCALL   ?Subroutine12 & 0xFFFF
??CrossCallReturnLabel_11:
        MOV     A,#0x6
        LCALL   ?XSTACK_DISP0_8
        LCALL   ?Subroutine21 & 0xFFFF
??CrossCallReturnLabel_29:
        MOV     R1,A
        LCALL   ??writeItem?relay
        MOV     A,#0x3
        LCALL   ?DEALLOC_XSTACK8
        CFI CFA_XSP16 add(XSP16, 37)
        MOV     A,R1
        JNZ     $+5
        LJMP    ??compactPage_9 & 0xFFFF
//  590         {
//  591           dstOff += OSAL_NV_HDR_SIZE;
        MOV     A,?V0 + 4
        ADD     A,#0x8
        MOV     ?V0 + 4,A
        MOV     A,?V0 + 5
        ADDC    A,#0x0
        MOV     ?V0 + 5,A
//  592           xferBuf( srcPg, srcOff, pgRes, dstOff, sz );
        ; Setup parameters for call to function xferBuf
        MOV     ?V0 + 2,R6
        MOV     ?V0 + 3,R7
        MOV     R0,#?V0 + 2
        LCALL   ?PUSH_XSTACK_I_TWO
        CFI CFA_XSP16 add(XSP16, 39)
        MOV     R0,#?V0 + 4
        LCALL   ?PUSH_XSTACK_I_TWO
        CFI CFA_XSP16 add(XSP16, 41)
        MOV     DPTR,#pgRes
        MOVX    A,@DPTR
        MOV     R4,A
        MOV     R2,?V0 + 0
        MOV     R3,?V0 + 1
        MOV     R1,?V0 + 7
        LCALL   ??xferBuf?relay
        MOV     A,#0x4
        LCALL   ?DEALLOC_XSTACK8
        CFI CFA_XSP16 add(XSP16, 37)
//  593           // Calculate and write the new checksum.
//  594           if (hdr.chk == calcChkF(pgRes, dstOff, hdr.len))
        ; Setup parameters for call to function calcChkF
        MOV     A,#0x5
        LCALL   ?XSTACK_DISP0_8
        LCALL   ?Subroutine12 & 0xFFFF
??CrossCallReturnLabel_12:
        MOV     R2,?V0 + 4
        MOV     R3,?V0 + 5
        MOV     DPTR,#pgRes
        MOVX    A,@DPTR
        MOV     R1,A
        LCALL   ??calcChkF?relay
        MOV     A,#0x7
        LCALL   ?XSTACK_DISP0_8
        LCALL   ?Subroutine13 & 0xFFFF
??CrossCallReturnLabel_15:
        JNZ     ??compactPage_16
        MOV     A,R3
        XRL     A,R1
??compactPage_16:
        JZ      $+5
        LJMP    ??compactPage_9 & 0xFFFF
//  595           {
//  596             if ( hdr.chk != setChk( pgRes, dstOff, hdr.chk ) )
        MOV     A,#0x1
        LCALL   ?XSTACK_DISP0_8
        MOV     A,R0
        MOVX    @DPTR,A
        INC     DPTR
        MOV     A,R1
        MOVX    @DPTR,A
        MOV     DPTR,#pgRes
        MOVX    A,@DPTR
        MOV     ?V0 + 6,A
        MOV     A,?V0 + 4
        ADD     A,#-0x4
        MOV     ?V0 + 2,A
        MOV     A,?V0 + 5
        ADDC    A,#-0x1
        MOV     ?V0 + 3,A
        MOV     A,#0x1
        LCALL   ?XSTACK_DISP0_8
        MOVX    A,@DPTR
        PUSH    A
        CFI CFA_SP SP+-1
        MOV     A,#0xb
        LCALL   ?XSTACK_DISP0_8
        POP     A
        CFI CFA_SP SP+0
        MOVX    @DPTR,A
        MOV     A,#0x2
        LCALL   ?XSTACK_DISP0_8
        MOVX    A,@DPTR
        PUSH    A
        CFI CFA_SP SP+-1
        MOV     A,#0xc
        LCALL   ?XSTACK_DISP0_8
        POP     A
        CFI CFA_SP SP+0
        MOVX    @DPTR,A
        MOV     A,#0xd
        LCALL   ?XSTACK_DISP0_8
        MOV     A,#-0x1
        MOVX    @DPTR,A
        MOV     A,#0xe
        LCALL   ?XSTACK_DISP0_8
        MOV     A,#-0x1
        MOVX    @DPTR,A
        ; Setup parameters for call to function HalFlashWrite
        MOV     ?V0 + 8,#0x1
        MOV     ?V0 + 9,#0x0
        MOV     R0,#?V0 + 8
        LCALL   ?PUSH_XSTACK_I_TWO
        CFI CFA_XSP16 add(XSP16, 39)
        MOV     A,#0xd
        LCALL   ?XSTACK_DISP0_8
        MOV     R4,DPL
        MOV     R5,DPH
        MOV     ?V0 + 8,?V0 + 2
        MOV     ?V0 + 9,?V0 + 3
        MOV     A,#0x2
        MOV     R0,#?V0 + 8
        LCALL   ?US_SHR
        MOV     ?V0 + 10,?V0 + 6
        MOV     ?V0 + 11,A
        MOV     A,#0x9
        MOV     R0,#?V0 + 10
        LCALL   ?S_SHL
        MOV     A,?V0 + 8
        ADD     A,#0x0
        MOV     R2,A
        MOV     A,?V0 + 9
        ADDC    A,?V0 + 11
        LCALL   ??Subroutine44_0 & 0xFFFF
??CrossCallReturnLabel_85:
        LCALL   ?DEALLOC_XSTACK8
        CFI CFA_XSP16 add(XSP16, 37)
        ; Setup parameters for call to function HalFlashRead
        MOV     ?V0 + 8,#0x2
        MOV     ?V0 + 9,#0x0
        MOV     R0,#?V0 + 8
        LCALL   ?PUSH_XSTACK_I_TWO
        CFI CFA_XSP16 add(XSP16, 39)
        MOV     A,#0x3
        LCALL   ?XSTACK_DISP0_8
        MOV     R4,DPL
        MOV     R5,DPH
        MOV     R2,?V0 + 2
        MOV     R3,?V0 + 3
        MOV     R1,?V0 + 6
        LCALL   ??Subroutine51_0 & 0xFFFF
??CrossCallReturnLabel_124:
        LCALL   ?DEALLOC_XSTACK8
        CFI CFA_XSP16 add(XSP16, 37)
        MOV     A,#0x7
        LCALL   ?XSTACK_DISP0_8
        LCALL   ?Subroutine25 & 0xFFFF
??CrossCallReturnLabel_43:
        MOV     A,#0x1
        LCALL   ?XSTACK_DISP0_8
        MOVX    A,@DPTR
        XRL     A,R0
        JNZ     ??compactPage_17
        INC     DPTR
        MOVX    A,@DPTR
        XRL     A,R1
??compactPage_17:
        JZ      $+5
        LJMP    ??compactPage_9 & 0xFFFF
//  597             {
//  598               rtrn = FALSE;
//  599               break;
//  600             }
//  601             else
//  602             {
//  603               hotItemUpdate(pgRes, dstOff, hdr.id);
        MOV     A,#0x3
        LCALL   ?XSTACK_DISP0_8
        LCALL   ?Subroutine21 & 0xFFFF
//  604             }
//  605           }
//  606           else
//  607           {
//  608             rtrn = FALSE;
//  609             break;
//  610           }
//  611         }
//  612         else
//  613         {
//  614           rtrn = FALSE;
//  615           break;
//  616         }
//  617       }
//  618     }
??CrossCallReturnLabel_30:
        MOV     R5,A
        MOV     R4,#0x0
        MOV     R0,#hotIds & 0xff
        MOV     R1,#(hotIds >> 8) & 0xff
??compactPage_18:
        MOV     DPL,R0
        MOV     DPH,R1
        MOVX    A,@DPTR
        XRL     A,R2
        JNZ     ??compactPage_19
        INC     DPTR
        MOVX    A,@DPTR
        XRL     A,R3
??compactPage_19:
        JZ      ??compactPage_20
        LCALL   ?Subroutine26 & 0xFFFF
??CrossCallReturnLabel_51:
        JC      ??compactPage_18
??compactPage_20:
        MOV     A,R4
        CLR     C
        SUBB    A,#0x3
        JNC     ??compactPage_11
        LCALL   ?Subroutine33 & 0xFFFF
??CrossCallReturnLabel_104:
        MOV     A,R5
        LCALL   ??Subroutine54_0 & 0xFFFF
??CrossCallReturnLabel_145:
        MOV     A,?V0 + 4
        MOVX    @DPTR,A
        INC     DPTR
        MOV     A,?V0 + 5
        MOVX    @DPTR,A
//  619 
//  620     srcOff += sz;
??compactPage_11:
        MOV     A,?V0 + 0
        ADD     A,R6
        MOV     ?V0 + 0,A
        MOV     A,?V0 + 1
        ADDC    A,R7
        MOV     ?V0 + 1,A
//  621   }
        CLR     C
        MOV     A,?V0 + 0
        SUBB    A,#-0x8
        MOV     A,?V0 + 1
        SUBB    A,#0x7
        JNC     $+5
        LJMP    ??compactPage_3 & 0xFFFF
//  622 
//  623   if (rtrn == FALSE)
??compactPage_5:
        MOV     DPL,?XSP + 0
        MOV     DPH,?XSP + 1
        MOVX    A,@DPTR
        JNZ     ??compactPage_21
//  624   {
//  625     erasePage(pgRes);
??compactPage_10:
        ; Setup parameters for call to function erasePage
        LCALL   ?Subroutine19 & 0xFFFF
//  626   }
??CrossCallReturnLabel_109:
        SJMP    ??compactPage_22
//  627   else if (skipId == OSAL_NV_ITEM_NULL)
??compactPage_21:
        MOV     A,?V0 + 12
        ORL     A,?V0 + 13
        JNZ     ??compactPage_22
//  628   {
//  629     COMPACT_PAGE_CLEANUP(srcPg);
        MOV     A,#0x3
        LCALL   ?XSTACK_DISP0_8
        CLR     A
        MOVX    @DPTR,A
        INC     DPTR
        MOVX    @DPTR,A
        MOV     A,#0x5
        LCALL   ?XSTACK_DISP0_8
        LCALL   ?Subroutine9 & 0xFFFF
??CrossCallReturnLabel_6:
        LCALL   ?PUSH_XSTACK_I_TWO
        CFI CFA_XSP16 add(XSP16, 39)
        MOV     A,#0x5
        LCALL   ?XSTACK_DISP0_8
        MOV     R4,DPL
        MOV     R5,DPH
        MOV     DPTR,#pgRes
        MOVX    A,@DPTR
        MOV     ?V0 + 0,A
        MOV     A,#0x9
        MOV     R0,#?V0 + 0
        LCALL   ?S_SHL
        MOV     R2,A
        MOV     R3,?V0 + 1
        LCALL   ??Subroutine45_0 & 0xFFFF
??CrossCallReturnLabel_94:
        LCALL   ?DEALLOC_XSTACK8
        CFI CFA_XSP16 add(XSP16, 37)
        ; Setup parameters for call to function erasePage
        MOV     R1,?V0 + 7
        LCALL   ??erasePage?relay
        MOV     A,?V0 + 7
        MOV     DPTR,#pgRes
        MOVX    @DPTR,A
//  630   }
//  631   // else invoking function must cleanup.
//  632 
//  633   return rtrn;
??compactPage_22:
        MOV     DPL,?XSP + 0
        MOV     DPH,?XSP + 1
        MOVX    A,@DPTR
        MOV     R1,A
??compactPage_2:
        MOV     A,#0xf
        LJMP    ?Subroutine1 & 0xFFFF
        CFI EndBlock cfiBlock50
//  634 }

        RSEG BANKED_CODE:CODE:NOROOT(0)
?Subroutine33:
        CFI Block cfiCond51 Using cfiCommon0
        CFI NoFunction
        CFI Conditional ??CrossCallReturnLabel_104
        CFI R6 load(1, XDATA, add(CFA_XSP16, literal(-22)))
        CFI VB load(1, XDATA, add(CFA_XSP16, literal(-21)))
        CFI V0 load(1, XDATA, add(CFA_XSP16, literal(-20)))
        CFI V1 load(1, XDATA, add(CFA_XSP16, literal(-19)))
        CFI V2 load(1, XDATA, add(CFA_XSP16, literal(-18)))
        CFI V3 load(1, XDATA, add(CFA_XSP16, literal(-17)))
        CFI V4 load(1, XDATA, add(CFA_XSP16, literal(-16)))
        CFI V5 load(1, XDATA, add(CFA_XSP16, literal(-15)))
        CFI V6 load(1, XDATA, add(CFA_XSP16, literal(-14)))
        CFI V7 load(1, XDATA, add(CFA_XSP16, literal(-13)))
        CFI V8 load(1, XDATA, add(CFA_XSP16, literal(-12)))
        CFI V9 load(1, XDATA, add(CFA_XSP16, literal(-11)))
        CFI V10 load(1, XDATA, add(CFA_XSP16, literal(-10)))
        CFI V11 load(1, XDATA, add(CFA_XSP16, literal(-9)))
        CFI V12 load(1, XDATA, add(CFA_XSP16, literal(-8)))
        CFI V13 load(1, XDATA, add(CFA_XSP16, literal(-7)))
        CFI R7 load(1, XDATA, add(CFA_XSP16, literal(-6)))
        CFI ?RET_LOW load(1, XDATA, add(CFA_XSP16, literal(-5)))
        CFI ?RET_HIGH load(1, XDATA, add(CFA_XSP16, literal(-4)))
        CFI ?BRET_EXT load(1, XDATA, add(CFA_XSP16, literal(-3)))
        CFI DPL0 load(1, XDATA, add(CFA_XSP16, literal(-2)))
        CFI DPH0 load(1, XDATA, add(CFA_XSP16, literal(-1)))
        CFI CFA_SP SP+0
        CFI CFA_XSP16 add(XSP16, 37)
        CFI Block cfiCond52 Using cfiCommon0
        CFI (cfiCond52) NoFunction
        CFI (cfiCond52) Conditional ??CrossCallReturnLabel_105
        CFI (cfiCond52) R6 load(1, XDATA, add(CFA_XSP16, literal(-10)))
        CFI (cfiCond52) VB load(1, XDATA, add(CFA_XSP16, literal(-9)))
        CFI (cfiCond52) V0 load(1, XDATA, add(CFA_XSP16, literal(-8)))
        CFI (cfiCond52) V1 load(1, XDATA, add(CFA_XSP16, literal(-7)))
        CFI (cfiCond52) R7 load(1, XDATA, add(CFA_XSP16, literal(-6)))
        CFI (cfiCond52) ?RET_LOW load(1, XDATA, add(CFA_XSP16, literal(-5)))
        CFI (cfiCond52) ?RET_HIGH load(1, XDATA, add(CFA_XSP16, literal(-4)))
        CFI (cfiCond52) ?BRET_EXT load(1, XDATA, add(CFA_XSP16, literal(-3)))
        CFI (cfiCond52) DPL0 load(1, XDATA, add(CFA_XSP16, literal(-2)))
        CFI (cfiCond52) DPH0 load(1, XDATA, add(CFA_XSP16, literal(-1)))
        CFI (cfiCond52) CFA_SP SP+0
        CFI (cfiCond52) CFA_XSP16 add(XSP16, 18)
        CFI Block cfiPicker53 Using cfiCommon1
        CFI (cfiPicker53) NoFunction
        CFI (cfiPicker53) Picker
        MOV     DPL,R4
        CFI EndBlock cfiCond51
        CFI EndBlock cfiCond52
        CFI EndBlock cfiPicker53
        REQUIRE ??Subroutine47_0
        ; // Fall through to label ??Subroutine47_0

        RSEG BANKED_CODE:CODE:NOROOT(0)
??Subroutine47_0:
        CFI Block cfiCond54 Using cfiCommon0
        CFI NoFunction
        CFI Conditional ??CrossCallReturnLabel_103
        CFI R6 load(1, XDATA, add(CFA_XSP16, literal(-14)))
        CFI VB load(1, XDATA, add(CFA_XSP16, literal(-13)))
        CFI V0 load(1, XDATA, add(CFA_XSP16, literal(-12)))
        CFI V1 load(1, XDATA, add(CFA_XSP16, literal(-11)))
        CFI V2 load(1, XDATA, add(CFA_XSP16, literal(-10)))
        CFI V3 load(1, XDATA, add(CFA_XSP16, literal(-9)))
        CFI V4 load(1, XDATA, add(CFA_XSP16, literal(-8)))
        CFI V5 load(1, XDATA, add(CFA_XSP16, literal(-7)))
        CFI R7 load(1, XDATA, add(CFA_XSP16, literal(-6)))
        CFI ?RET_LOW load(1, XDATA, add(CFA_XSP16, literal(-5)))
        CFI ?RET_HIGH load(1, XDATA, add(CFA_XSP16, literal(-4)))
        CFI ?BRET_EXT load(1, XDATA, add(CFA_XSP16, literal(-3)))
        CFI DPL0 load(1, XDATA, add(CFA_XSP16, literal(-2)))
        CFI DPH0 load(1, XDATA, add(CFA_XSP16, literal(-1)))
        CFI CFA_SP SP+0
        CFI CFA_XSP16 add(XSP16, 14)
        CFI Block cfiCond55 Using cfiCommon0
        CFI (cfiCond55) NoFunction
        CFI (cfiCond55) Conditional ??CrossCallReturnLabel_104
        CFI (cfiCond55) R6 load(1, XDATA, add(CFA_XSP16, literal(-22)))
        CFI (cfiCond55) VB load(1, XDATA, add(CFA_XSP16, literal(-21)))
        CFI (cfiCond55) V0 load(1, XDATA, add(CFA_XSP16, literal(-20)))
        CFI (cfiCond55) V1 load(1, XDATA, add(CFA_XSP16, literal(-19)))
        CFI (cfiCond55) V2 load(1, XDATA, add(CFA_XSP16, literal(-18)))
        CFI (cfiCond55) V3 load(1, XDATA, add(CFA_XSP16, literal(-17)))
        CFI (cfiCond55) V4 load(1, XDATA, add(CFA_XSP16, literal(-16)))
        CFI (cfiCond55) V5 load(1, XDATA, add(CFA_XSP16, literal(-15)))
        CFI (cfiCond55) V6 load(1, XDATA, add(CFA_XSP16, literal(-14)))
        CFI (cfiCond55) V7 load(1, XDATA, add(CFA_XSP16, literal(-13)))
        CFI (cfiCond55) V8 load(1, XDATA, add(CFA_XSP16, literal(-12)))
        CFI (cfiCond55) V9 load(1, XDATA, add(CFA_XSP16, literal(-11)))
        CFI (cfiCond55) V10 load(1, XDATA, add(CFA_XSP16, literal(-10)))
        CFI (cfiCond55) V11 load(1, XDATA, add(CFA_XSP16, literal(-9)))
        CFI (cfiCond55) V12 load(1, XDATA, add(CFA_XSP16, literal(-8)))
        CFI (cfiCond55) V13 load(1, XDATA, add(CFA_XSP16, literal(-7)))
        CFI (cfiCond55) R7 load(1, XDATA, add(CFA_XSP16, literal(-6)))
        CFI (cfiCond55) ?RET_LOW load(1, XDATA, add(CFA_XSP16, literal(-5)))
        CFI (cfiCond55) ?RET_HIGH load(1, XDATA, add(CFA_XSP16, literal(-4)))
        CFI (cfiCond55) ?BRET_EXT load(1, XDATA, add(CFA_XSP16, literal(-3)))
        CFI (cfiCond55) DPL0 load(1, XDATA, add(CFA_XSP16, literal(-2)))
        CFI (cfiCond55) DPH0 load(1, XDATA, add(CFA_XSP16, literal(-1)))
        CFI (cfiCond55) CFA_SP SP+0
        CFI (cfiCond55) CFA_XSP16 add(XSP16, 37)
        CFI Block cfiCond56 Using cfiCommon0
        CFI (cfiCond56) NoFunction
        CFI (cfiCond56) Conditional ??CrossCallReturnLabel_105
        CFI (cfiCond56) R6 load(1, XDATA, add(CFA_XSP16, literal(-10)))
        CFI (cfiCond56) VB load(1, XDATA, add(CFA_XSP16, literal(-9)))
        CFI (cfiCond56) V0 load(1, XDATA, add(CFA_XSP16, literal(-8)))
        CFI (cfiCond56) V1 load(1, XDATA, add(CFA_XSP16, literal(-7)))
        CFI (cfiCond56) R7 load(1, XDATA, add(CFA_XSP16, literal(-6)))
        CFI (cfiCond56) ?RET_LOW load(1, XDATA, add(CFA_XSP16, literal(-5)))
        CFI (cfiCond56) ?RET_HIGH load(1, XDATA, add(CFA_XSP16, literal(-4)))
        CFI (cfiCond56) ?BRET_EXT load(1, XDATA, add(CFA_XSP16, literal(-3)))
        CFI (cfiCond56) DPL0 load(1, XDATA, add(CFA_XSP16, literal(-2)))
        CFI (cfiCond56) DPH0 load(1, XDATA, add(CFA_XSP16, literal(-1)))
        CFI (cfiCond56) CFA_SP SP+0
        CFI (cfiCond56) CFA_XSP16 add(XSP16, 18)
        CFI Block cfiPicker57 Using cfiCommon1
        CFI (cfiPicker57) NoFunction
        CFI (cfiPicker57) Picker
        LCALL   ?Subroutine41 & 0xFFFF
??CrossCallReturnLabel_107:
        RET
        CFI EndBlock cfiCond54
        CFI EndBlock cfiCond55
        CFI EndBlock cfiCond56
        CFI EndBlock cfiPicker57

        RSEG BANKED_CODE:CODE:NOROOT(0)
?Subroutine41:
        CFI Block cfiCond58 Using cfiCommon0
        CFI NoFunction
        CFI Conditional ??CrossCallReturnLabel_107, ??CrossCallReturnLabel_104
        CFI R6 load(1, XDATA, add(CFA_XSP16, literal(-22)))
        CFI VB load(1, XDATA, add(CFA_XSP16, literal(-21)))
        CFI V0 load(1, XDATA, add(CFA_XSP16, literal(-20)))
        CFI V1 load(1, XDATA, add(CFA_XSP16, literal(-19)))
        CFI V2 load(1, XDATA, add(CFA_XSP16, literal(-18)))
        CFI V3 load(1, XDATA, add(CFA_XSP16, literal(-17)))
        CFI V4 load(1, XDATA, add(CFA_XSP16, literal(-16)))
        CFI V5 load(1, XDATA, add(CFA_XSP16, literal(-15)))
        CFI V6 load(1, XDATA, add(CFA_XSP16, literal(-14)))
        CFI V7 load(1, XDATA, add(CFA_XSP16, literal(-13)))
        CFI V8 load(1, XDATA, add(CFA_XSP16, literal(-12)))
        CFI V9 load(1, XDATA, add(CFA_XSP16, literal(-11)))
        CFI V10 load(1, XDATA, add(CFA_XSP16, literal(-10)))
        CFI V11 load(1, XDATA, add(CFA_XSP16, literal(-9)))
        CFI V12 load(1, XDATA, add(CFA_XSP16, literal(-8)))
        CFI V13 load(1, XDATA, add(CFA_XSP16, literal(-7)))
        CFI R7 load(1, XDATA, add(CFA_XSP16, literal(-6)))
        CFI ?RET_LOW load(1, XDATA, add(CFA_XSP16, literal(-5)))
        CFI ?RET_HIGH load(1, XDATA, add(CFA_XSP16, literal(-4)))
        CFI ?BRET_EXT load(1, XDATA, add(CFA_XSP16, literal(-3)))
        CFI DPL0 load(1, XDATA, add(CFA_XSP16, literal(-2)))
        CFI DPH0 load(1, XDATA, add(CFA_XSP16, literal(-1)))
        CFI CFA_SP SP+0
        CFI CFA_XSP16 add(XSP16, 37)
        CFI Block cfiCond59 Using cfiCommon0
        CFI (cfiCond59) NoFunction
        CFI (cfiCond59) Conditional ??CrossCallReturnLabel_107, ??CrossCallReturnLabel_105
        CFI (cfiCond59) R6 load(1, XDATA, add(CFA_XSP16, literal(-10)))
        CFI (cfiCond59) VB load(1, XDATA, add(CFA_XSP16, literal(-9)))
        CFI (cfiCond59) V0 load(1, XDATA, add(CFA_XSP16, literal(-8)))
        CFI (cfiCond59) V1 load(1, XDATA, add(CFA_XSP16, literal(-7)))
        CFI (cfiCond59) R7 load(1, XDATA, add(CFA_XSP16, literal(-6)))
        CFI (cfiCond59) ?RET_LOW load(1, XDATA, add(CFA_XSP16, literal(-5)))
        CFI (cfiCond59) ?RET_HIGH load(1, XDATA, add(CFA_XSP16, literal(-4)))
        CFI (cfiCond59) ?BRET_EXT load(1, XDATA, add(CFA_XSP16, literal(-3)))
        CFI (cfiCond59) DPL0 load(1, XDATA, add(CFA_XSP16, literal(-2)))
        CFI (cfiCond59) DPH0 load(1, XDATA, add(CFA_XSP16, literal(-1)))
        CFI (cfiCond59) CFA_SP SP+0
        CFI (cfiCond59) CFA_XSP16 add(XSP16, 18)
        CFI Block cfiCond60 Using cfiCommon0
        CFI (cfiCond60) NoFunction
        CFI (cfiCond60) Conditional ??CrossCallReturnLabel_107, ??CrossCallReturnLabel_103
        CFI (cfiCond60) R6 load(1, XDATA, add(CFA_XSP16, literal(-14)))
        CFI (cfiCond60) VB load(1, XDATA, add(CFA_XSP16, literal(-13)))
        CFI (cfiCond60) V0 load(1, XDATA, add(CFA_XSP16, literal(-12)))
        CFI (cfiCond60) V1 load(1, XDATA, add(CFA_XSP16, literal(-11)))
        CFI (cfiCond60) V2 load(1, XDATA, add(CFA_XSP16, literal(-10)))
        CFI (cfiCond60) V3 load(1, XDATA, add(CFA_XSP16, literal(-9)))
        CFI (cfiCond60) V4 load(1, XDATA, add(CFA_XSP16, literal(-8)))
        CFI (cfiCond60) V5 load(1, XDATA, add(CFA_XSP16, literal(-7)))
        CFI (cfiCond60) R7 load(1, XDATA, add(CFA_XSP16, literal(-6)))
        CFI (cfiCond60) ?RET_LOW load(1, XDATA, add(CFA_XSP16, literal(-5)))
        CFI (cfiCond60) ?RET_HIGH load(1, XDATA, add(CFA_XSP16, literal(-4)))
        CFI (cfiCond60) ?BRET_EXT load(1, XDATA, add(CFA_XSP16, literal(-3)))
        CFI (cfiCond60) DPL0 load(1, XDATA, add(CFA_XSP16, literal(-2)))
        CFI (cfiCond60) DPH0 load(1, XDATA, add(CFA_XSP16, literal(-1)))
        CFI (cfiCond60) CFA_SP SP+0
        CFI (cfiCond60) CFA_XSP16 add(XSP16, 14)
        CFI Block cfiCond61 Using cfiCommon0
        CFI (cfiCond61) NoFunction
        CFI (cfiCond61) Conditional ??CrossCallReturnLabel_106, ??CrossCallReturnLabel_146
        CFI (cfiCond61) R6 load(1, XDATA, add(CFA_XSP16, literal(-24)))
        CFI (cfiCond61) VB load(1, XDATA, add(CFA_XSP16, literal(-23)))
        CFI (cfiCond61) V0 load(1, XDATA, add(CFA_XSP16, literal(-22)))
        CFI (cfiCond61) V1 load(1, XDATA, add(CFA_XSP16, literal(-21)))
        CFI (cfiCond61) V2 load(1, XDATA, add(CFA_XSP16, literal(-20)))
        CFI (cfiCond61) V3 load(1, XDATA, add(CFA_XSP16, literal(-19)))
        CFI (cfiCond61) V4 load(1, XDATA, add(CFA_XSP16, literal(-18)))
        CFI (cfiCond61) V5 load(1, XDATA, add(CFA_XSP16, literal(-17)))
        CFI (cfiCond61) V6 load(1, XDATA, add(CFA_XSP16, literal(-16)))
        CFI (cfiCond61) V7 load(1, XDATA, add(CFA_XSP16, literal(-15)))
        CFI (cfiCond61) V8 load(1, XDATA, add(CFA_XSP16, literal(-14)))
        CFI (cfiCond61) V9 load(1, XDATA, add(CFA_XSP16, literal(-13)))
        CFI (cfiCond61) V10 load(1, XDATA, add(CFA_XSP16, literal(-12)))
        CFI (cfiCond61) V11 load(1, XDATA, add(CFA_XSP16, literal(-11)))
        CFI (cfiCond61) V12 load(1, XDATA, add(CFA_XSP16, literal(-10)))
        CFI (cfiCond61) V13 load(1, XDATA, add(CFA_XSP16, literal(-9)))
        CFI (cfiCond61) V14 load(1, XDATA, add(CFA_XSP16, literal(-8)))
        CFI (cfiCond61) V15 load(1, XDATA, add(CFA_XSP16, literal(-7)))
        CFI (cfiCond61) R7 load(1, XDATA, add(CFA_XSP16, literal(-6)))
        CFI (cfiCond61) ?RET_LOW load(1, XDATA, add(CFA_XSP16, literal(-5)))
        CFI (cfiCond61) ?RET_HIGH load(1, XDATA, add(CFA_XSP16, literal(-4)))
        CFI (cfiCond61) ?BRET_EXT load(1, XDATA, add(CFA_XSP16, literal(-3)))
        CFI (cfiCond61) DPL0 load(1, XDATA, add(CFA_XSP16, literal(-2)))
        CFI (cfiCond61) DPH0 load(1, XDATA, add(CFA_XSP16, literal(-1)))
        CFI (cfiCond61) CFA_SP SP+0
        CFI (cfiCond61) CFA_XSP16 add(XSP16, 40)
        CFI Block cfiCond62 Using cfiCommon0
        CFI (cfiCond62) NoFunction
        CFI (cfiCond62) Conditional ??CrossCallReturnLabel_106, ??CrossCallReturnLabel_147
        CFI (cfiCond62) R6 load(1, XDATA, add(CFA_XSP16, literal(-24)))
        CFI (cfiCond62) VB load(1, XDATA, add(CFA_XSP16, literal(-23)))
        CFI (cfiCond62) V0 load(1, XDATA, add(CFA_XSP16, literal(-22)))
        CFI (cfiCond62) V1 load(1, XDATA, add(CFA_XSP16, literal(-21)))
        CFI (cfiCond62) V2 load(1, XDATA, add(CFA_XSP16, literal(-20)))
        CFI (cfiCond62) V3 load(1, XDATA, add(CFA_XSP16, literal(-19)))
        CFI (cfiCond62) V4 load(1, XDATA, add(CFA_XSP16, literal(-18)))
        CFI (cfiCond62) V5 load(1, XDATA, add(CFA_XSP16, literal(-17)))
        CFI (cfiCond62) V6 load(1, XDATA, add(CFA_XSP16, literal(-16)))
        CFI (cfiCond62) V7 load(1, XDATA, add(CFA_XSP16, literal(-15)))
        CFI (cfiCond62) V8 load(1, XDATA, add(CFA_XSP16, literal(-14)))
        CFI (cfiCond62) V9 load(1, XDATA, add(CFA_XSP16, literal(-13)))
        CFI (cfiCond62) V10 load(1, XDATA, add(CFA_XSP16, literal(-12)))
        CFI (cfiCond62) V11 load(1, XDATA, add(CFA_XSP16, literal(-11)))
        CFI (cfiCond62) V12 load(1, XDATA, add(CFA_XSP16, literal(-10)))
        CFI (cfiCond62) V13 load(1, XDATA, add(CFA_XSP16, literal(-9)))
        CFI (cfiCond62) V14 load(1, XDATA, add(CFA_XSP16, literal(-8)))
        CFI (cfiCond62) V15 load(1, XDATA, add(CFA_XSP16, literal(-7)))
        CFI (cfiCond62) R7 load(1, XDATA, add(CFA_XSP16, literal(-6)))
        CFI (cfiCond62) ?RET_LOW load(1, XDATA, add(CFA_XSP16, literal(-5)))
        CFI (cfiCond62) ?RET_HIGH load(1, XDATA, add(CFA_XSP16, literal(-4)))
        CFI (cfiCond62) ?BRET_EXT load(1, XDATA, add(CFA_XSP16, literal(-3)))
        CFI (cfiCond62) DPL0 load(1, XDATA, add(CFA_XSP16, literal(-2)))
        CFI (cfiCond62) DPH0 load(1, XDATA, add(CFA_XSP16, literal(-1)))
        CFI (cfiCond62) CFA_SP SP+0
        CFI (cfiCond62) CFA_XSP16 add(XSP16, 49)
        CFI Block cfiPicker63 Using cfiCommon1
        CFI (cfiPicker63) NoFunction
        CFI (cfiPicker63) Picker
        MOV     R0,DPL
        MOV     A,#hotPg & 0xff
        ADD     A,R0
        MOV     DPL,A
        MOV     A,#(hotPg >> 8) & 0xff
        ADDC    A,#0x0
        MOV     DPH,A
        RET
        CFI EndBlock cfiCond58
        CFI EndBlock cfiCond59
        CFI EndBlock cfiCond60
        CFI EndBlock cfiCond61
        CFI EndBlock cfiCond62
        CFI EndBlock cfiPicker63

        RSEG BANKED_CODE:CODE:NOROOT(0)
?Subroutine30:
        CFI Block cfiCond64 Using cfiCommon0
        CFI NoFunction
        CFI Conditional ??CrossCallReturnLabel_56
        CFI R6 load(1, XDATA, add(CFA_XSP16, literal(-22)))
        CFI VB load(1, XDATA, add(CFA_XSP16, literal(-21)))
        CFI V0 load(1, XDATA, add(CFA_XSP16, literal(-20)))
        CFI V1 load(1, XDATA, add(CFA_XSP16, literal(-19)))
        CFI V2 load(1, XDATA, add(CFA_XSP16, literal(-18)))
        CFI V3 load(1, XDATA, add(CFA_XSP16, literal(-17)))
        CFI V4 load(1, XDATA, add(CFA_XSP16, literal(-16)))
        CFI V5 load(1, XDATA, add(CFA_XSP16, literal(-15)))
        CFI V6 load(1, XDATA, add(CFA_XSP16, literal(-14)))
        CFI V7 load(1, XDATA, add(CFA_XSP16, literal(-13)))
        CFI V8 load(1, XDATA, add(CFA_XSP16, literal(-12)))
        CFI V9 load(1, XDATA, add(CFA_XSP16, literal(-11)))
        CFI V10 load(1, XDATA, add(CFA_XSP16, literal(-10)))
        CFI V11 load(1, XDATA, add(CFA_XSP16, literal(-9)))
        CFI V12 load(1, XDATA, add(CFA_XSP16, literal(-8)))
        CFI V13 load(1, XDATA, add(CFA_XSP16, literal(-7)))
        CFI R7 load(1, XDATA, add(CFA_XSP16, literal(-6)))
        CFI ?RET_LOW load(1, XDATA, add(CFA_XSP16, literal(-5)))
        CFI ?RET_HIGH load(1, XDATA, add(CFA_XSP16, literal(-4)))
        CFI ?BRET_EXT load(1, XDATA, add(CFA_XSP16, literal(-3)))
        CFI DPL0 load(1, XDATA, add(CFA_XSP16, literal(-2)))
        CFI DPH0 load(1, XDATA, add(CFA_XSP16, literal(-1)))
        CFI CFA_SP SP+0
        CFI CFA_XSP16 add(XSP16, 30)
        CFI Block cfiCond65 Using cfiCommon0
        CFI (cfiCond65) NoFunction
        CFI (cfiCond65) Conditional ??CrossCallReturnLabel_57
        CFI (cfiCond65) R6 load(1, XDATA, add(CFA_XSP16, literal(-22)))
        CFI (cfiCond65) VB load(1, XDATA, add(CFA_XSP16, literal(-21)))
        CFI (cfiCond65) V0 load(1, XDATA, add(CFA_XSP16, literal(-20)))
        CFI (cfiCond65) V1 load(1, XDATA, add(CFA_XSP16, literal(-19)))
        CFI (cfiCond65) V2 load(1, XDATA, add(CFA_XSP16, literal(-18)))
        CFI (cfiCond65) V3 load(1, XDATA, add(CFA_XSP16, literal(-17)))
        CFI (cfiCond65) V4 load(1, XDATA, add(CFA_XSP16, literal(-16)))
        CFI (cfiCond65) V5 load(1, XDATA, add(CFA_XSP16, literal(-15)))
        CFI (cfiCond65) V6 load(1, XDATA, add(CFA_XSP16, literal(-14)))
        CFI (cfiCond65) V7 load(1, XDATA, add(CFA_XSP16, literal(-13)))
        CFI (cfiCond65) V8 load(1, XDATA, add(CFA_XSP16, literal(-12)))
        CFI (cfiCond65) V9 load(1, XDATA, add(CFA_XSP16, literal(-11)))
        CFI (cfiCond65) V10 load(1, XDATA, add(CFA_XSP16, literal(-10)))
        CFI (cfiCond65) V11 load(1, XDATA, add(CFA_XSP16, literal(-9)))
        CFI (cfiCond65) V12 load(1, XDATA, add(CFA_XSP16, literal(-8)))
        CFI (cfiCond65) V13 load(1, XDATA, add(CFA_XSP16, literal(-7)))
        CFI (cfiCond65) R7 load(1, XDATA, add(CFA_XSP16, literal(-6)))
        CFI (cfiCond65) ?RET_LOW load(1, XDATA, add(CFA_XSP16, literal(-5)))
        CFI (cfiCond65) ?RET_HIGH load(1, XDATA, add(CFA_XSP16, literal(-4)))
        CFI (cfiCond65) ?BRET_EXT load(1, XDATA, add(CFA_XSP16, literal(-3)))
        CFI (cfiCond65) DPL0 load(1, XDATA, add(CFA_XSP16, literal(-2)))
        CFI (cfiCond65) DPH0 load(1, XDATA, add(CFA_XSP16, literal(-1)))
        CFI (cfiCond65) CFA_SP SP+0
        CFI (cfiCond65) CFA_XSP16 add(XSP16, 37)
        CFI Block cfiCond66 Using cfiCommon0
        CFI (cfiCond66) NoFunction
        CFI (cfiCond66) Conditional ??CrossCallReturnLabel_58
        CFI (cfiCond66) R6 load(1, XDATA, add(CFA_XSP16, literal(-18)))
        CFI (cfiCond66) VB load(1, XDATA, add(CFA_XSP16, literal(-17)))
        CFI (cfiCond66) V0 load(1, XDATA, add(CFA_XSP16, literal(-16)))
        CFI (cfiCond66) V1 load(1, XDATA, add(CFA_XSP16, literal(-15)))
        CFI (cfiCond66) V2 load(1, XDATA, add(CFA_XSP16, literal(-14)))
        CFI (cfiCond66) V3 load(1, XDATA, add(CFA_XSP16, literal(-13)))
        CFI (cfiCond66) V4 load(1, XDATA, add(CFA_XSP16, literal(-12)))
        CFI (cfiCond66) V5 load(1, XDATA, add(CFA_XSP16, literal(-11)))
        CFI (cfiCond66) V6 load(1, XDATA, add(CFA_XSP16, literal(-10)))
        CFI (cfiCond66) V7 load(1, XDATA, add(CFA_XSP16, literal(-9)))
        CFI (cfiCond66) V8 load(1, XDATA, add(CFA_XSP16, literal(-8)))
        CFI (cfiCond66) V9 load(1, XDATA, add(CFA_XSP16, literal(-7)))
        CFI (cfiCond66) R7 load(1, XDATA, add(CFA_XSP16, literal(-6)))
        CFI (cfiCond66) ?RET_LOW load(1, XDATA, add(CFA_XSP16, literal(-5)))
        CFI (cfiCond66) ?RET_HIGH load(1, XDATA, add(CFA_XSP16, literal(-4)))
        CFI (cfiCond66) ?BRET_EXT load(1, XDATA, add(CFA_XSP16, literal(-3)))
        CFI (cfiCond66) DPL0 load(1, XDATA, add(CFA_XSP16, literal(-2)))
        CFI (cfiCond66) DPH0 load(1, XDATA, add(CFA_XSP16, literal(-1)))
        CFI (cfiCond66) CFA_SP SP+0
        CFI (cfiCond66) CFA_XSP16 add(XSP16, 40)
        CFI Block cfiPicker67 Using cfiCommon1
        CFI (cfiPicker67) NoFunction
        CFI (cfiPicker67) Picker
        MOV     A,R4
        ADD     A,#0x3
        MOV     R0,A
        MOV     A,R5
        LCALL   ?Subroutine40 & 0xFFFF
??CrossCallReturnLabel_141:
        RET
        CFI EndBlock cfiCond64
        CFI EndBlock cfiCond65
        CFI EndBlock cfiCond66
        CFI EndBlock cfiPicker67

        RSEG BANKED_CODE:CODE:NOROOT(0)
?Subroutine40:
        CFI Block cfiCond68 Using cfiCommon0
        CFI NoFunction
        CFI Conditional ??CrossCallReturnLabel_141, ??CrossCallReturnLabel_56
        CFI R6 load(1, XDATA, add(CFA_XSP16, literal(-22)))
        CFI VB load(1, XDATA, add(CFA_XSP16, literal(-21)))
        CFI V0 load(1, XDATA, add(CFA_XSP16, literal(-20)))
        CFI V1 load(1, XDATA, add(CFA_XSP16, literal(-19)))
        CFI V2 load(1, XDATA, add(CFA_XSP16, literal(-18)))
        CFI V3 load(1, XDATA, add(CFA_XSP16, literal(-17)))
        CFI V4 load(1, XDATA, add(CFA_XSP16, literal(-16)))
        CFI V5 load(1, XDATA, add(CFA_XSP16, literal(-15)))
        CFI V6 load(1, XDATA, add(CFA_XSP16, literal(-14)))
        CFI V7 load(1, XDATA, add(CFA_XSP16, literal(-13)))
        CFI V8 load(1, XDATA, add(CFA_XSP16, literal(-12)))
        CFI V9 load(1, XDATA, add(CFA_XSP16, literal(-11)))
        CFI V10 load(1, XDATA, add(CFA_XSP16, literal(-10)))
        CFI V11 load(1, XDATA, add(CFA_XSP16, literal(-9)))
        CFI V12 load(1, XDATA, add(CFA_XSP16, literal(-8)))
        CFI V13 load(1, XDATA, add(CFA_XSP16, literal(-7)))
        CFI R7 load(1, XDATA, add(CFA_XSP16, literal(-6)))
        CFI ?RET_LOW load(1, XDATA, add(CFA_XSP16, literal(-5)))
        CFI ?RET_HIGH load(1, XDATA, add(CFA_XSP16, literal(-4)))
        CFI ?BRET_EXT load(1, XDATA, add(CFA_XSP16, literal(-3)))
        CFI DPL0 load(1, XDATA, add(CFA_XSP16, literal(-2)))
        CFI DPH0 load(1, XDATA, add(CFA_XSP16, literal(-1)))
        CFI CFA_SP SP+0
        CFI CFA_XSP16 add(XSP16, 30)
        CFI Block cfiCond69 Using cfiCommon0
        CFI (cfiCond69) NoFunction
        CFI (cfiCond69) Conditional ??CrossCallReturnLabel_141, ??CrossCallReturnLabel_57
        CFI (cfiCond69) R6 load(1, XDATA, add(CFA_XSP16, literal(-22)))
        CFI (cfiCond69) VB load(1, XDATA, add(CFA_XSP16, literal(-21)))
        CFI (cfiCond69) V0 load(1, XDATA, add(CFA_XSP16, literal(-20)))
        CFI (cfiCond69) V1 load(1, XDATA, add(CFA_XSP16, literal(-19)))
        CFI (cfiCond69) V2 load(1, XDATA, add(CFA_XSP16, literal(-18)))
        CFI (cfiCond69) V3 load(1, XDATA, add(CFA_XSP16, literal(-17)))
        CFI (cfiCond69) V4 load(1, XDATA, add(CFA_XSP16, literal(-16)))
        CFI (cfiCond69) V5 load(1, XDATA, add(CFA_XSP16, literal(-15)))
        CFI (cfiCond69) V6 load(1, XDATA, add(CFA_XSP16, literal(-14)))
        CFI (cfiCond69) V7 load(1, XDATA, add(CFA_XSP16, literal(-13)))
        CFI (cfiCond69) V8 load(1, XDATA, add(CFA_XSP16, literal(-12)))
        CFI (cfiCond69) V9 load(1, XDATA, add(CFA_XSP16, literal(-11)))
        CFI (cfiCond69) V10 load(1, XDATA, add(CFA_XSP16, literal(-10)))
        CFI (cfiCond69) V11 load(1, XDATA, add(CFA_XSP16, literal(-9)))
        CFI (cfiCond69) V12 load(1, XDATA, add(CFA_XSP16, literal(-8)))
        CFI (cfiCond69) V13 load(1, XDATA, add(CFA_XSP16, literal(-7)))
        CFI (cfiCond69) R7 load(1, XDATA, add(CFA_XSP16, literal(-6)))
        CFI (cfiCond69) ?RET_LOW load(1, XDATA, add(CFA_XSP16, literal(-5)))
        CFI (cfiCond69) ?RET_HIGH load(1, XDATA, add(CFA_XSP16, literal(-4)))
        CFI (cfiCond69) ?BRET_EXT load(1, XDATA, add(CFA_XSP16, literal(-3)))
        CFI (cfiCond69) DPL0 load(1, XDATA, add(CFA_XSP16, literal(-2)))
        CFI (cfiCond69) DPH0 load(1, XDATA, add(CFA_XSP16, literal(-1)))
        CFI (cfiCond69) CFA_SP SP+0
        CFI (cfiCond69) CFA_XSP16 add(XSP16, 37)
        CFI Block cfiCond70 Using cfiCommon0
        CFI (cfiCond70) NoFunction
        CFI (cfiCond70) Conditional ??CrossCallReturnLabel_141, ??CrossCallReturnLabel_58
        CFI (cfiCond70) R6 load(1, XDATA, add(CFA_XSP16, literal(-18)))
        CFI (cfiCond70) VB load(1, XDATA, add(CFA_XSP16, literal(-17)))
        CFI (cfiCond70) V0 load(1, XDATA, add(CFA_XSP16, literal(-16)))
        CFI (cfiCond70) V1 load(1, XDATA, add(CFA_XSP16, literal(-15)))
        CFI (cfiCond70) V2 load(1, XDATA, add(CFA_XSP16, literal(-14)))
        CFI (cfiCond70) V3 load(1, XDATA, add(CFA_XSP16, literal(-13)))
        CFI (cfiCond70) V4 load(1, XDATA, add(CFA_XSP16, literal(-12)))
        CFI (cfiCond70) V5 load(1, XDATA, add(CFA_XSP16, literal(-11)))
        CFI (cfiCond70) V6 load(1, XDATA, add(CFA_XSP16, literal(-10)))
        CFI (cfiCond70) V7 load(1, XDATA, add(CFA_XSP16, literal(-9)))
        CFI (cfiCond70) V8 load(1, XDATA, add(CFA_XSP16, literal(-8)))
        CFI (cfiCond70) V9 load(1, XDATA, add(CFA_XSP16, literal(-7)))
        CFI (cfiCond70) R7 load(1, XDATA, add(CFA_XSP16, literal(-6)))
        CFI (cfiCond70) ?RET_LOW load(1, XDATA, add(CFA_XSP16, literal(-5)))
        CFI (cfiCond70) ?RET_HIGH load(1, XDATA, add(CFA_XSP16, literal(-4)))
        CFI (cfiCond70) ?BRET_EXT load(1, XDATA, add(CFA_XSP16, literal(-3)))
        CFI (cfiCond70) DPL0 load(1, XDATA, add(CFA_XSP16, literal(-2)))
        CFI (cfiCond70) DPH0 load(1, XDATA, add(CFA_XSP16, literal(-1)))
        CFI (cfiCond70) CFA_SP SP+0
        CFI (cfiCond70) CFA_XSP16 add(XSP16, 40)
        CFI Block cfiCond71 Using cfiCommon0
        CFI (cfiCond71) NoFunction
        CFI (cfiCond71) Conditional ??CrossCallReturnLabel_142, ??CrossCallReturnLabel_138
        CFI (cfiCond71) R6 load(1, XDATA, add(CFA_XSP16, literal(-24)))
        CFI (cfiCond71) VB load(1, XDATA, add(CFA_XSP16, literal(-23)))
        CFI (cfiCond71) V0 load(1, XDATA, add(CFA_XSP16, literal(-22)))
        CFI (cfiCond71) V1 load(1, XDATA, add(CFA_XSP16, literal(-21)))
        CFI (cfiCond71) V2 load(1, XDATA, add(CFA_XSP16, literal(-20)))
        CFI (cfiCond71) V3 load(1, XDATA, add(CFA_XSP16, literal(-19)))
        CFI (cfiCond71) V4 load(1, XDATA, add(CFA_XSP16, literal(-18)))
        CFI (cfiCond71) V5 load(1, XDATA, add(CFA_XSP16, literal(-17)))
        CFI (cfiCond71) V6 load(1, XDATA, add(CFA_XSP16, literal(-16)))
        CFI (cfiCond71) V7 load(1, XDATA, add(CFA_XSP16, literal(-15)))
        CFI (cfiCond71) V8 load(1, XDATA, add(CFA_XSP16, literal(-14)))
        CFI (cfiCond71) V9 load(1, XDATA, add(CFA_XSP16, literal(-13)))
        CFI (cfiCond71) V10 load(1, XDATA, add(CFA_XSP16, literal(-12)))
        CFI (cfiCond71) V11 load(1, XDATA, add(CFA_XSP16, literal(-11)))
        CFI (cfiCond71) V12 load(1, XDATA, add(CFA_XSP16, literal(-10)))
        CFI (cfiCond71) V13 load(1, XDATA, add(CFA_XSP16, literal(-9)))
        CFI (cfiCond71) V14 load(1, XDATA, add(CFA_XSP16, literal(-8)))
        CFI (cfiCond71) V15 load(1, XDATA, add(CFA_XSP16, literal(-7)))
        CFI (cfiCond71) R7 load(1, XDATA, add(CFA_XSP16, literal(-6)))
        CFI (cfiCond71) ?RET_LOW load(1, XDATA, add(CFA_XSP16, literal(-5)))
        CFI (cfiCond71) ?RET_HIGH load(1, XDATA, add(CFA_XSP16, literal(-4)))
        CFI (cfiCond71) ?BRET_EXT load(1, XDATA, add(CFA_XSP16, literal(-3)))
        CFI (cfiCond71) DPL0 load(1, XDATA, add(CFA_XSP16, literal(-2)))
        CFI (cfiCond71) DPH0 load(1, XDATA, add(CFA_XSP16, literal(-1)))
        CFI (cfiCond71) CFA_SP SP+0
        CFI (cfiCond71) CFA_XSP16 add(XSP16, 40)
        CFI Block cfiCond72 Using cfiCommon0
        CFI (cfiCond72) NoFunction
        CFI (cfiCond72) Conditional ??CrossCallReturnLabel_142, ??CrossCallReturnLabel_139
        CFI (cfiCond72) R6 load(1, XDATA, add(CFA_XSP16, literal(-24)))
        CFI (cfiCond72) VB load(1, XDATA, add(CFA_XSP16, literal(-23)))
        CFI (cfiCond72) V0 load(1, XDATA, add(CFA_XSP16, literal(-22)))
        CFI (cfiCond72) V1 load(1, XDATA, add(CFA_XSP16, literal(-21)))
        CFI (cfiCond72) V2 load(1, XDATA, add(CFA_XSP16, literal(-20)))
        CFI (cfiCond72) V3 load(1, XDATA, add(CFA_XSP16, literal(-19)))
        CFI (cfiCond72) V4 load(1, XDATA, add(CFA_XSP16, literal(-18)))
        CFI (cfiCond72) V5 load(1, XDATA, add(CFA_XSP16, literal(-17)))
        CFI (cfiCond72) V6 load(1, XDATA, add(CFA_XSP16, literal(-16)))
        CFI (cfiCond72) V7 load(1, XDATA, add(CFA_XSP16, literal(-15)))
        CFI (cfiCond72) V8 load(1, XDATA, add(CFA_XSP16, literal(-14)))
        CFI (cfiCond72) V9 load(1, XDATA, add(CFA_XSP16, literal(-13)))
        CFI (cfiCond72) V10 load(1, XDATA, add(CFA_XSP16, literal(-12)))
        CFI (cfiCond72) V11 load(1, XDATA, add(CFA_XSP16, literal(-11)))
        CFI (cfiCond72) V12 load(1, XDATA, add(CFA_XSP16, literal(-10)))
        CFI (cfiCond72) V13 load(1, XDATA, add(CFA_XSP16, literal(-9)))
        CFI (cfiCond72) V14 load(1, XDATA, add(CFA_XSP16, literal(-8)))
        CFI (cfiCond72) V15 load(1, XDATA, add(CFA_XSP16, literal(-7)))
        CFI (cfiCond72) R7 load(1, XDATA, add(CFA_XSP16, literal(-6)))
        CFI (cfiCond72) ?RET_LOW load(1, XDATA, add(CFA_XSP16, literal(-5)))
        CFI (cfiCond72) ?RET_HIGH load(1, XDATA, add(CFA_XSP16, literal(-4)))
        CFI (cfiCond72) ?BRET_EXT load(1, XDATA, add(CFA_XSP16, literal(-3)))
        CFI (cfiCond72) DPL0 load(1, XDATA, add(CFA_XSP16, literal(-2)))
        CFI (cfiCond72) DPH0 load(1, XDATA, add(CFA_XSP16, literal(-1)))
        CFI (cfiCond72) CFA_SP SP+0
        CFI (cfiCond72) CFA_XSP16 add(XSP16, 40)
        CFI Block cfiCond73 Using cfiCommon0
        CFI (cfiCond73) NoFunction
        CFI (cfiCond73) Conditional ??CrossCallReturnLabel_142, ??CrossCallReturnLabel_137
        CFI (cfiCond73) R6 load(1, XDATA, add(CFA_XSP16, literal(-14)))
        CFI (cfiCond73) VB load(1, XDATA, add(CFA_XSP16, literal(-13)))
        CFI (cfiCond73) V0 load(1, XDATA, add(CFA_XSP16, literal(-12)))
        CFI (cfiCond73) V1 load(1, XDATA, add(CFA_XSP16, literal(-11)))
        CFI (cfiCond73) V2 load(1, XDATA, add(CFA_XSP16, literal(-10)))
        CFI (cfiCond73) V3 load(1, XDATA, add(CFA_XSP16, literal(-9)))
        CFI (cfiCond73) V4 load(1, XDATA, add(CFA_XSP16, literal(-8)))
        CFI (cfiCond73) V5 load(1, XDATA, add(CFA_XSP16, literal(-7)))
        CFI (cfiCond73) R7 load(1, XDATA, add(CFA_XSP16, literal(-6)))
        CFI (cfiCond73) ?RET_LOW load(1, XDATA, add(CFA_XSP16, literal(-5)))
        CFI (cfiCond73) ?RET_HIGH load(1, XDATA, add(CFA_XSP16, literal(-4)))
        CFI (cfiCond73) ?BRET_EXT load(1, XDATA, add(CFA_XSP16, literal(-3)))
        CFI (cfiCond73) DPL0 load(1, XDATA, add(CFA_XSP16, literal(-2)))
        CFI (cfiCond73) DPH0 load(1, XDATA, add(CFA_XSP16, literal(-1)))
        CFI (cfiCond73) CFA_SP SP+0
        CFI (cfiCond73) CFA_XSP16 add(XSP16, 22)
        CFI Block cfiCond74 Using cfiCommon0
        CFI (cfiCond74) NoFunction
        CFI (cfiCond74) Conditional ??CrossCallReturnLabel_140
        CFI (cfiCond74) R6 load(1, XDATA, add(CFA_XSP16, literal(-24)))
        CFI (cfiCond74) VB load(1, XDATA, add(CFA_XSP16, literal(-23)))
        CFI (cfiCond74) V0 load(1, XDATA, add(CFA_XSP16, literal(-22)))
        CFI (cfiCond74) V1 load(1, XDATA, add(CFA_XSP16, literal(-21)))
        CFI (cfiCond74) V2 load(1, XDATA, add(CFA_XSP16, literal(-20)))
        CFI (cfiCond74) V3 load(1, XDATA, add(CFA_XSP16, literal(-19)))
        CFI (cfiCond74) V4 load(1, XDATA, add(CFA_XSP16, literal(-18)))
        CFI (cfiCond74) V5 load(1, XDATA, add(CFA_XSP16, literal(-17)))
        CFI (cfiCond74) V6 load(1, XDATA, add(CFA_XSP16, literal(-16)))
        CFI (cfiCond74) V7 load(1, XDATA, add(CFA_XSP16, literal(-15)))
        CFI (cfiCond74) V8 load(1, XDATA, add(CFA_XSP16, literal(-14)))
        CFI (cfiCond74) V9 load(1, XDATA, add(CFA_XSP16, literal(-13)))
        CFI (cfiCond74) V10 load(1, XDATA, add(CFA_XSP16, literal(-12)))
        CFI (cfiCond74) V11 load(1, XDATA, add(CFA_XSP16, literal(-11)))
        CFI (cfiCond74) V12 load(1, XDATA, add(CFA_XSP16, literal(-10)))
        CFI (cfiCond74) V13 load(1, XDATA, add(CFA_XSP16, literal(-9)))
        CFI (cfiCond74) V14 load(1, XDATA, add(CFA_XSP16, literal(-8)))
        CFI (cfiCond74) V15 load(1, XDATA, add(CFA_XSP16, literal(-7)))
        CFI (cfiCond74) R7 load(1, XDATA, add(CFA_XSP16, literal(-6)))
        CFI (cfiCond74) ?RET_LOW load(1, XDATA, add(CFA_XSP16, literal(-5)))
        CFI (cfiCond74) ?RET_HIGH load(1, XDATA, add(CFA_XSP16, literal(-4)))
        CFI (cfiCond74) ?BRET_EXT load(1, XDATA, add(CFA_XSP16, literal(-3)))
        CFI (cfiCond74) DPL0 load(1, XDATA, add(CFA_XSP16, literal(-2)))
        CFI (cfiCond74) DPH0 load(1, XDATA, add(CFA_XSP16, literal(-1)))
        CFI (cfiCond74) CFA_SP SP+0
        CFI (cfiCond74) CFA_XSP16 add(XSP16, 49)
        CFI Block cfiPicker75 Using cfiCommon1
        CFI (cfiPicker75) NoFunction
        CFI (cfiPicker75) Picker
        ADDC    A,#0x0
        MOV     R1,A
        MOV     A,R0
        ANL     A,#0xfc
        RET
        CFI EndBlock cfiCond68
        CFI EndBlock cfiCond69
        CFI EndBlock cfiCond70
        CFI EndBlock cfiCond71
        CFI EndBlock cfiCond72
        CFI EndBlock cfiCond73
        CFI EndBlock cfiCond74
        CFI EndBlock cfiPicker75

        RSEG BANKED_CODE:CODE:NOROOT(0)
?Subroutine21:
        CFI Block cfiCond76 Using cfiCommon0
        CFI NoFunction
        CFI Conditional ??CrossCallReturnLabel_29
        CFI R6 load(1, XDATA, add(CFA_XSP16, literal(-22)))
        CFI VB load(1, XDATA, add(CFA_XSP16, literal(-21)))
        CFI V0 load(1, XDATA, add(CFA_XSP16, literal(-20)))
        CFI V1 load(1, XDATA, add(CFA_XSP16, literal(-19)))
        CFI V2 load(1, XDATA, add(CFA_XSP16, literal(-18)))
        CFI V3 load(1, XDATA, add(CFA_XSP16, literal(-17)))
        CFI V4 load(1, XDATA, add(CFA_XSP16, literal(-16)))
        CFI V5 load(1, XDATA, add(CFA_XSP16, literal(-15)))
        CFI V6 load(1, XDATA, add(CFA_XSP16, literal(-14)))
        CFI V7 load(1, XDATA, add(CFA_XSP16, literal(-13)))
        CFI V8 load(1, XDATA, add(CFA_XSP16, literal(-12)))
        CFI V9 load(1, XDATA, add(CFA_XSP16, literal(-11)))
        CFI V10 load(1, XDATA, add(CFA_XSP16, literal(-10)))
        CFI V11 load(1, XDATA, add(CFA_XSP16, literal(-9)))
        CFI V12 load(1, XDATA, add(CFA_XSP16, literal(-8)))
        CFI V13 load(1, XDATA, add(CFA_XSP16, literal(-7)))
        CFI R7 load(1, XDATA, add(CFA_XSP16, literal(-6)))
        CFI ?RET_LOW load(1, XDATA, add(CFA_XSP16, literal(-5)))
        CFI ?RET_HIGH load(1, XDATA, add(CFA_XSP16, literal(-4)))
        CFI ?BRET_EXT load(1, XDATA, add(CFA_XSP16, literal(-3)))
        CFI DPL0 load(1, XDATA, add(CFA_XSP16, literal(-2)))
        CFI DPH0 load(1, XDATA, add(CFA_XSP16, literal(-1)))
        CFI CFA_SP SP+0
        CFI CFA_XSP16 add(XSP16, 40)
        CFI Block cfiCond77 Using cfiCommon0
        CFI (cfiCond77) NoFunction
        CFI (cfiCond77) Conditional ??CrossCallReturnLabel_30
        CFI (cfiCond77) R6 load(1, XDATA, add(CFA_XSP16, literal(-22)))
        CFI (cfiCond77) VB load(1, XDATA, add(CFA_XSP16, literal(-21)))
        CFI (cfiCond77) V0 load(1, XDATA, add(CFA_XSP16, literal(-20)))
        CFI (cfiCond77) V1 load(1, XDATA, add(CFA_XSP16, literal(-19)))
        CFI (cfiCond77) V2 load(1, XDATA, add(CFA_XSP16, literal(-18)))
        CFI (cfiCond77) V3 load(1, XDATA, add(CFA_XSP16, literal(-17)))
        CFI (cfiCond77) V4 load(1, XDATA, add(CFA_XSP16, literal(-16)))
        CFI (cfiCond77) V5 load(1, XDATA, add(CFA_XSP16, literal(-15)))
        CFI (cfiCond77) V6 load(1, XDATA, add(CFA_XSP16, literal(-14)))
        CFI (cfiCond77) V7 load(1, XDATA, add(CFA_XSP16, literal(-13)))
        CFI (cfiCond77) V8 load(1, XDATA, add(CFA_XSP16, literal(-12)))
        CFI (cfiCond77) V9 load(1, XDATA, add(CFA_XSP16, literal(-11)))
        CFI (cfiCond77) V10 load(1, XDATA, add(CFA_XSP16, literal(-10)))
        CFI (cfiCond77) V11 load(1, XDATA, add(CFA_XSP16, literal(-9)))
        CFI (cfiCond77) V12 load(1, XDATA, add(CFA_XSP16, literal(-8)))
        CFI (cfiCond77) V13 load(1, XDATA, add(CFA_XSP16, literal(-7)))
        CFI (cfiCond77) R7 load(1, XDATA, add(CFA_XSP16, literal(-6)))
        CFI (cfiCond77) ?RET_LOW load(1, XDATA, add(CFA_XSP16, literal(-5)))
        CFI (cfiCond77) ?RET_HIGH load(1, XDATA, add(CFA_XSP16, literal(-4)))
        CFI (cfiCond77) ?BRET_EXT load(1, XDATA, add(CFA_XSP16, literal(-3)))
        CFI (cfiCond77) DPL0 load(1, XDATA, add(CFA_XSP16, literal(-2)))
        CFI (cfiCond77) DPH0 load(1, XDATA, add(CFA_XSP16, literal(-1)))
        CFI (cfiCond77) CFA_SP SP+0
        CFI (cfiCond77) CFA_XSP16 add(XSP16, 37)
        CFI Block cfiPicker78 Using cfiCommon1
        CFI (cfiPicker78) NoFunction
        CFI (cfiPicker78) Picker
        LCALL   ?Subroutine38 & 0xFFFF
??CrossCallReturnLabel_74:
        MOV     DPTR,#pgRes
        MOVX    A,@DPTR
        RET
        CFI EndBlock cfiCond76
        CFI EndBlock cfiCond77
        CFI EndBlock cfiPicker78

        RSEG BANKED_CODE:CODE:NOROOT(0)
?Subroutine19:
        CFI Block cfiCond79 Using cfiCommon0
        CFI NoFunction
        CFI Conditional ??CrossCallReturnLabel_108
        CFI R6 load(1, XDATA, add(CFA_XSP16, literal(-22)))
        CFI VB load(1, XDATA, add(CFA_XSP16, literal(-21)))
        CFI V0 load(1, XDATA, add(CFA_XSP16, literal(-20)))
        CFI V1 load(1, XDATA, add(CFA_XSP16, literal(-19)))
        CFI V2 load(1, XDATA, add(CFA_XSP16, literal(-18)))
        CFI V3 load(1, XDATA, add(CFA_XSP16, literal(-17)))
        CFI V4 load(1, XDATA, add(CFA_XSP16, literal(-16)))
        CFI V5 load(1, XDATA, add(CFA_XSP16, literal(-15)))
        CFI V6 load(1, XDATA, add(CFA_XSP16, literal(-14)))
        CFI V7 load(1, XDATA, add(CFA_XSP16, literal(-13)))
        CFI V8 load(1, XDATA, add(CFA_XSP16, literal(-12)))
        CFI V9 load(1, XDATA, add(CFA_XSP16, literal(-11)))
        CFI V10 load(1, XDATA, add(CFA_XSP16, literal(-10)))
        CFI V11 load(1, XDATA, add(CFA_XSP16, literal(-9)))
        CFI V12 load(1, XDATA, add(CFA_XSP16, literal(-8)))
        CFI V13 load(1, XDATA, add(CFA_XSP16, literal(-7)))
        CFI R7 load(1, XDATA, add(CFA_XSP16, literal(-6)))
        CFI ?RET_LOW load(1, XDATA, add(CFA_XSP16, literal(-5)))
        CFI ?RET_HIGH load(1, XDATA, add(CFA_XSP16, literal(-4)))
        CFI ?BRET_EXT load(1, XDATA, add(CFA_XSP16, literal(-3)))
        CFI DPL0 load(1, XDATA, add(CFA_XSP16, literal(-2)))
        CFI DPH0 load(1, XDATA, add(CFA_XSP16, literal(-1)))
        CFI CFA_SP SP+0
        CFI CFA_XSP16 add(XSP16, 37)
        CFI Block cfiCond80 Using cfiCommon0
        CFI (cfiCond80) NoFunction
        CFI (cfiCond80) Conditional ??CrossCallReturnLabel_109
        CFI (cfiCond80) R6 load(1, XDATA, add(CFA_XSP16, literal(-22)))
        CFI (cfiCond80) VB load(1, XDATA, add(CFA_XSP16, literal(-21)))
        CFI (cfiCond80) V0 load(1, XDATA, add(CFA_XSP16, literal(-20)))
        CFI (cfiCond80) V1 load(1, XDATA, add(CFA_XSP16, literal(-19)))
        CFI (cfiCond80) V2 load(1, XDATA, add(CFA_XSP16, literal(-18)))
        CFI (cfiCond80) V3 load(1, XDATA, add(CFA_XSP16, literal(-17)))
        CFI (cfiCond80) V4 load(1, XDATA, add(CFA_XSP16, literal(-16)))
        CFI (cfiCond80) V5 load(1, XDATA, add(CFA_XSP16, literal(-15)))
        CFI (cfiCond80) V6 load(1, XDATA, add(CFA_XSP16, literal(-14)))
        CFI (cfiCond80) V7 load(1, XDATA, add(CFA_XSP16, literal(-13)))
        CFI (cfiCond80) V8 load(1, XDATA, add(CFA_XSP16, literal(-12)))
        CFI (cfiCond80) V9 load(1, XDATA, add(CFA_XSP16, literal(-11)))
        CFI (cfiCond80) V10 load(1, XDATA, add(CFA_XSP16, literal(-10)))
        CFI (cfiCond80) V11 load(1, XDATA, add(CFA_XSP16, literal(-9)))
        CFI (cfiCond80) V12 load(1, XDATA, add(CFA_XSP16, literal(-8)))
        CFI (cfiCond80) V13 load(1, XDATA, add(CFA_XSP16, literal(-7)))
        CFI (cfiCond80) R7 load(1, XDATA, add(CFA_XSP16, literal(-6)))
        CFI (cfiCond80) ?RET_LOW load(1, XDATA, add(CFA_XSP16, literal(-5)))
        CFI (cfiCond80) ?RET_HIGH load(1, XDATA, add(CFA_XSP16, literal(-4)))
        CFI (cfiCond80) ?BRET_EXT load(1, XDATA, add(CFA_XSP16, literal(-3)))
        CFI (cfiCond80) DPL0 load(1, XDATA, add(CFA_XSP16, literal(-2)))
        CFI (cfiCond80) DPH0 load(1, XDATA, add(CFA_XSP16, literal(-1)))
        CFI (cfiCond80) CFA_SP SP+0
        CFI (cfiCond80) CFA_XSP16 add(XSP16, 37)
        CFI Block cfiCond81 Using cfiCommon0
        CFI (cfiCond81) NoFunction
        CFI (cfiCond81) Conditional ??CrossCallReturnLabel_110
        CFI (cfiCond81) R6 load(1, XDATA, add(CFA_XSP16, literal(-24)))
        CFI (cfiCond81) VB load(1, XDATA, add(CFA_XSP16, literal(-23)))
        CFI (cfiCond81) V0 load(1, XDATA, add(CFA_XSP16, literal(-22)))
        CFI (cfiCond81) V1 load(1, XDATA, add(CFA_XSP16, literal(-21)))
        CFI (cfiCond81) V2 load(1, XDATA, add(CFA_XSP16, literal(-20)))
        CFI (cfiCond81) V3 load(1, XDATA, add(CFA_XSP16, literal(-19)))
        CFI (cfiCond81) V4 load(1, XDATA, add(CFA_XSP16, literal(-18)))
        CFI (cfiCond81) V5 load(1, XDATA, add(CFA_XSP16, literal(-17)))
        CFI (cfiCond81) V6 load(1, XDATA, add(CFA_XSP16, literal(-16)))
        CFI (cfiCond81) V7 load(1, XDATA, add(CFA_XSP16, literal(-15)))
        CFI (cfiCond81) V8 load(1, XDATA, add(CFA_XSP16, literal(-14)))
        CFI (cfiCond81) V9 load(1, XDATA, add(CFA_XSP16, literal(-13)))
        CFI (cfiCond81) V10 load(1, XDATA, add(CFA_XSP16, literal(-12)))
        CFI (cfiCond81) V11 load(1, XDATA, add(CFA_XSP16, literal(-11)))
        CFI (cfiCond81) V12 load(1, XDATA, add(CFA_XSP16, literal(-10)))
        CFI (cfiCond81) V13 load(1, XDATA, add(CFA_XSP16, literal(-9)))
        CFI (cfiCond81) V14 load(1, XDATA, add(CFA_XSP16, literal(-8)))
        CFI (cfiCond81) V15 load(1, XDATA, add(CFA_XSP16, literal(-7)))
        CFI (cfiCond81) R7 load(1, XDATA, add(CFA_XSP16, literal(-6)))
        CFI (cfiCond81) ?RET_LOW load(1, XDATA, add(CFA_XSP16, literal(-5)))
        CFI (cfiCond81) ?RET_HIGH load(1, XDATA, add(CFA_XSP16, literal(-4)))
        CFI (cfiCond81) ?BRET_EXT load(1, XDATA, add(CFA_XSP16, literal(-3)))
        CFI (cfiCond81) DPL0 load(1, XDATA, add(CFA_XSP16, literal(-2)))
        CFI (cfiCond81) DPH0 load(1, XDATA, add(CFA_XSP16, literal(-1)))
        CFI (cfiCond81) CFA_SP SP+0
        CFI (cfiCond81) CFA_XSP16 add(XSP16, 49)
        CFI Block cfiPicker82 Using cfiCommon1
        CFI (cfiPicker82) NoFunction
        CFI (cfiPicker82) Picker
        MOV     DPTR,#pgRes
        CFI EndBlock cfiCond79
        CFI EndBlock cfiCond80
        CFI EndBlock cfiCond81
        CFI EndBlock cfiPicker82
        REQUIRE ??Subroutine48_0
        ; // Fall through to label ??Subroutine48_0

        RSEG BANKED_CODE:CODE:NOROOT(0)
??Subroutine48_0:
        CFI Block cfiCond83 Using cfiCommon0
        CFI NoFunction
        CFI Conditional ??CrossCallReturnLabel_111
        CFI R6 load(1, XDATA, add(CFA_XSP16, literal(-24)))
        CFI VB load(1, XDATA, add(CFA_XSP16, literal(-23)))
        CFI V0 load(1, XDATA, add(CFA_XSP16, literal(-22)))
        CFI V1 load(1, XDATA, add(CFA_XSP16, literal(-21)))
        CFI V2 load(1, XDATA, add(CFA_XSP16, literal(-20)))
        CFI V3 load(1, XDATA, add(CFA_XSP16, literal(-19)))
        CFI V4 load(1, XDATA, add(CFA_XSP16, literal(-18)))
        CFI V5 load(1, XDATA, add(CFA_XSP16, literal(-17)))
        CFI V6 load(1, XDATA, add(CFA_XSP16, literal(-16)))
        CFI V7 load(1, XDATA, add(CFA_XSP16, literal(-15)))
        CFI V8 load(1, XDATA, add(CFA_XSP16, literal(-14)))
        CFI V9 load(1, XDATA, add(CFA_XSP16, literal(-13)))
        CFI V10 load(1, XDATA, add(CFA_XSP16, literal(-12)))
        CFI V11 load(1, XDATA, add(CFA_XSP16, literal(-11)))
        CFI V12 load(1, XDATA, add(CFA_XSP16, literal(-10)))
        CFI V13 load(1, XDATA, add(CFA_XSP16, literal(-9)))
        CFI V14 load(1, XDATA, add(CFA_XSP16, literal(-8)))
        CFI V15 load(1, XDATA, add(CFA_XSP16, literal(-7)))
        CFI R7 load(1, XDATA, add(CFA_XSP16, literal(-6)))
        CFI ?RET_LOW load(1, XDATA, add(CFA_XSP16, literal(-5)))
        CFI ?RET_HIGH load(1, XDATA, add(CFA_XSP16, literal(-4)))
        CFI ?BRET_EXT load(1, XDATA, add(CFA_XSP16, literal(-3)))
        CFI DPL0 load(1, XDATA, add(CFA_XSP16, literal(-2)))
        CFI DPH0 load(1, XDATA, add(CFA_XSP16, literal(-1)))
        CFI CFA_SP SP+0
        CFI CFA_XSP16 add(XSP16, 49)
        CFI Block cfiCond84 Using cfiCommon0
        CFI (cfiCond84) NoFunction
        CFI (cfiCond84) Conditional ??CrossCallReturnLabel_108
        CFI (cfiCond84) R6 load(1, XDATA, add(CFA_XSP16, literal(-22)))
        CFI (cfiCond84) VB load(1, XDATA, add(CFA_XSP16, literal(-21)))
        CFI (cfiCond84) V0 load(1, XDATA, add(CFA_XSP16, literal(-20)))
        CFI (cfiCond84) V1 load(1, XDATA, add(CFA_XSP16, literal(-19)))
        CFI (cfiCond84) V2 load(1, XDATA, add(CFA_XSP16, literal(-18)))
        CFI (cfiCond84) V3 load(1, XDATA, add(CFA_XSP16, literal(-17)))
        CFI (cfiCond84) V4 load(1, XDATA, add(CFA_XSP16, literal(-16)))
        CFI (cfiCond84) V5 load(1, XDATA, add(CFA_XSP16, literal(-15)))
        CFI (cfiCond84) V6 load(1, XDATA, add(CFA_XSP16, literal(-14)))
        CFI (cfiCond84) V7 load(1, XDATA, add(CFA_XSP16, literal(-13)))
        CFI (cfiCond84) V8 load(1, XDATA, add(CFA_XSP16, literal(-12)))
        CFI (cfiCond84) V9 load(1, XDATA, add(CFA_XSP16, literal(-11)))
        CFI (cfiCond84) V10 load(1, XDATA, add(CFA_XSP16, literal(-10)))
        CFI (cfiCond84) V11 load(1, XDATA, add(CFA_XSP16, literal(-9)))
        CFI (cfiCond84) V12 load(1, XDATA, add(CFA_XSP16, literal(-8)))
        CFI (cfiCond84) V13 load(1, XDATA, add(CFA_XSP16, literal(-7)))
        CFI (cfiCond84) R7 load(1, XDATA, add(CFA_XSP16, literal(-6)))
        CFI (cfiCond84) ?RET_LOW load(1, XDATA, add(CFA_XSP16, literal(-5)))
        CFI (cfiCond84) ?RET_HIGH load(1, XDATA, add(CFA_XSP16, literal(-4)))
        CFI (cfiCond84) ?BRET_EXT load(1, XDATA, add(CFA_XSP16, literal(-3)))
        CFI (cfiCond84) DPL0 load(1, XDATA, add(CFA_XSP16, literal(-2)))
        CFI (cfiCond84) DPH0 load(1, XDATA, add(CFA_XSP16, literal(-1)))
        CFI (cfiCond84) CFA_SP SP+0
        CFI (cfiCond84) CFA_XSP16 add(XSP16, 37)
        CFI Block cfiCond85 Using cfiCommon0
        CFI (cfiCond85) NoFunction
        CFI (cfiCond85) Conditional ??CrossCallReturnLabel_109
        CFI (cfiCond85) R6 load(1, XDATA, add(CFA_XSP16, literal(-22)))
        CFI (cfiCond85) VB load(1, XDATA, add(CFA_XSP16, literal(-21)))
        CFI (cfiCond85) V0 load(1, XDATA, add(CFA_XSP16, literal(-20)))
        CFI (cfiCond85) V1 load(1, XDATA, add(CFA_XSP16, literal(-19)))
        CFI (cfiCond85) V2 load(1, XDATA, add(CFA_XSP16, literal(-18)))
        CFI (cfiCond85) V3 load(1, XDATA, add(CFA_XSP16, literal(-17)))
        CFI (cfiCond85) V4 load(1, XDATA, add(CFA_XSP16, literal(-16)))
        CFI (cfiCond85) V5 load(1, XDATA, add(CFA_XSP16, literal(-15)))
        CFI (cfiCond85) V6 load(1, XDATA, add(CFA_XSP16, literal(-14)))
        CFI (cfiCond85) V7 load(1, XDATA, add(CFA_XSP16, literal(-13)))
        CFI (cfiCond85) V8 load(1, XDATA, add(CFA_XSP16, literal(-12)))
        CFI (cfiCond85) V9 load(1, XDATA, add(CFA_XSP16, literal(-11)))
        CFI (cfiCond85) V10 load(1, XDATA, add(CFA_XSP16, literal(-10)))
        CFI (cfiCond85) V11 load(1, XDATA, add(CFA_XSP16, literal(-9)))
        CFI (cfiCond85) V12 load(1, XDATA, add(CFA_XSP16, literal(-8)))
        CFI (cfiCond85) V13 load(1, XDATA, add(CFA_XSP16, literal(-7)))
        CFI (cfiCond85) R7 load(1, XDATA, add(CFA_XSP16, literal(-6)))
        CFI (cfiCond85) ?RET_LOW load(1, XDATA, add(CFA_XSP16, literal(-5)))
        CFI (cfiCond85) ?RET_HIGH load(1, XDATA, add(CFA_XSP16, literal(-4)))
        CFI (cfiCond85) ?BRET_EXT load(1, XDATA, add(CFA_XSP16, literal(-3)))
        CFI (cfiCond85) DPL0 load(1, XDATA, add(CFA_XSP16, literal(-2)))
        CFI (cfiCond85) DPH0 load(1, XDATA, add(CFA_XSP16, literal(-1)))
        CFI (cfiCond85) CFA_SP SP+0
        CFI (cfiCond85) CFA_XSP16 add(XSP16, 37)
        CFI Block cfiCond86 Using cfiCommon0
        CFI (cfiCond86) NoFunction
        CFI (cfiCond86) Conditional ??CrossCallReturnLabel_110
        CFI (cfiCond86) R6 load(1, XDATA, add(CFA_XSP16, literal(-24)))
        CFI (cfiCond86) VB load(1, XDATA, add(CFA_XSP16, literal(-23)))
        CFI (cfiCond86) V0 load(1, XDATA, add(CFA_XSP16, literal(-22)))
        CFI (cfiCond86) V1 load(1, XDATA, add(CFA_XSP16, literal(-21)))
        CFI (cfiCond86) V2 load(1, XDATA, add(CFA_XSP16, literal(-20)))
        CFI (cfiCond86) V3 load(1, XDATA, add(CFA_XSP16, literal(-19)))
        CFI (cfiCond86) V4 load(1, XDATA, add(CFA_XSP16, literal(-18)))
        CFI (cfiCond86) V5 load(1, XDATA, add(CFA_XSP16, literal(-17)))
        CFI (cfiCond86) V6 load(1, XDATA, add(CFA_XSP16, literal(-16)))
        CFI (cfiCond86) V7 load(1, XDATA, add(CFA_XSP16, literal(-15)))
        CFI (cfiCond86) V8 load(1, XDATA, add(CFA_XSP16, literal(-14)))
        CFI (cfiCond86) V9 load(1, XDATA, add(CFA_XSP16, literal(-13)))
        CFI (cfiCond86) V10 load(1, XDATA, add(CFA_XSP16, literal(-12)))
        CFI (cfiCond86) V11 load(1, XDATA, add(CFA_XSP16, literal(-11)))
        CFI (cfiCond86) V12 load(1, XDATA, add(CFA_XSP16, literal(-10)))
        CFI (cfiCond86) V13 load(1, XDATA, add(CFA_XSP16, literal(-9)))
        CFI (cfiCond86) V14 load(1, XDATA, add(CFA_XSP16, literal(-8)))
        CFI (cfiCond86) V15 load(1, XDATA, add(CFA_XSP16, literal(-7)))
        CFI (cfiCond86) R7 load(1, XDATA, add(CFA_XSP16, literal(-6)))
        CFI (cfiCond86) ?RET_LOW load(1, XDATA, add(CFA_XSP16, literal(-5)))
        CFI (cfiCond86) ?RET_HIGH load(1, XDATA, add(CFA_XSP16, literal(-4)))
        CFI (cfiCond86) ?BRET_EXT load(1, XDATA, add(CFA_XSP16, literal(-3)))
        CFI (cfiCond86) DPL0 load(1, XDATA, add(CFA_XSP16, literal(-2)))
        CFI (cfiCond86) DPH0 load(1, XDATA, add(CFA_XSP16, literal(-1)))
        CFI (cfiCond86) CFA_SP SP+0
        CFI (cfiCond86) CFA_XSP16 add(XSP16, 49)
        CFI Block cfiPicker87 Using cfiCommon1
        CFI (cfiPicker87) NoFunction
        CFI (cfiPicker87) Picker
        MOVX    A,@DPTR
        MOV     R1,A
        LCALL   ??erasePage?relay
        RET
        CFI EndBlock cfiCond83
        CFI EndBlock cfiCond84
        CFI EndBlock cfiCond85
        CFI EndBlock cfiCond86
        CFI EndBlock cfiPicker87

        RSEG BANKED_CODE:CODE:NOROOT(0)
?Subroutine12:
        CFI Block cfiCond88 Using cfiCommon0
        CFI NoFunction
        CFI Conditional ??CrossCallReturnLabel_10
        CFI R6 load(1, XDATA, add(CFA_XSP16, literal(-14)))
        CFI VB load(1, XDATA, add(CFA_XSP16, literal(-13)))
        CFI V0 load(1, XDATA, add(CFA_XSP16, literal(-12)))
        CFI V1 load(1, XDATA, add(CFA_XSP16, literal(-11)))
        CFI V2 load(1, XDATA, add(CFA_XSP16, literal(-10)))
        CFI V3 load(1, XDATA, add(CFA_XSP16, literal(-9)))
        CFI V4 load(1, XDATA, add(CFA_XSP16, literal(-8)))
        CFI V5 load(1, XDATA, add(CFA_XSP16, literal(-7)))
        CFI R7 load(1, XDATA, add(CFA_XSP16, literal(-6)))
        CFI ?RET_LOW load(1, XDATA, add(CFA_XSP16, literal(-5)))
        CFI ?RET_HIGH load(1, XDATA, add(CFA_XSP16, literal(-4)))
        CFI ?BRET_EXT load(1, XDATA, add(CFA_XSP16, literal(-3)))
        CFI DPL0 load(1, XDATA, add(CFA_XSP16, literal(-2)))
        CFI DPH0 load(1, XDATA, add(CFA_XSP16, literal(-1)))
        CFI CFA_SP SP+0
        CFI CFA_XSP16 add(XSP16, 30)
        CFI Block cfiCond89 Using cfiCommon0
        CFI (cfiCond89) NoFunction
        CFI (cfiCond89) Conditional ??CrossCallReturnLabel_11
        CFI (cfiCond89) R6 load(1, XDATA, add(CFA_XSP16, literal(-22)))
        CFI (cfiCond89) VB load(1, XDATA, add(CFA_XSP16, literal(-21)))
        CFI (cfiCond89) V0 load(1, XDATA, add(CFA_XSP16, literal(-20)))
        CFI (cfiCond89) V1 load(1, XDATA, add(CFA_XSP16, literal(-19)))
        CFI (cfiCond89) V2 load(1, XDATA, add(CFA_XSP16, literal(-18)))
        CFI (cfiCond89) V3 load(1, XDATA, add(CFA_XSP16, literal(-17)))
        CFI (cfiCond89) V4 load(1, XDATA, add(CFA_XSP16, literal(-16)))
        CFI (cfiCond89) V5 load(1, XDATA, add(CFA_XSP16, literal(-15)))
        CFI (cfiCond89) V6 load(1, XDATA, add(CFA_XSP16, literal(-14)))
        CFI (cfiCond89) V7 load(1, XDATA, add(CFA_XSP16, literal(-13)))
        CFI (cfiCond89) V8 load(1, XDATA, add(CFA_XSP16, literal(-12)))
        CFI (cfiCond89) V9 load(1, XDATA, add(CFA_XSP16, literal(-11)))
        CFI (cfiCond89) V10 load(1, XDATA, add(CFA_XSP16, literal(-10)))
        CFI (cfiCond89) V11 load(1, XDATA, add(CFA_XSP16, literal(-9)))
        CFI (cfiCond89) V12 load(1, XDATA, add(CFA_XSP16, literal(-8)))
        CFI (cfiCond89) V13 load(1, XDATA, add(CFA_XSP16, literal(-7)))
        CFI (cfiCond89) R7 load(1, XDATA, add(CFA_XSP16, literal(-6)))
        CFI (cfiCond89) ?RET_LOW load(1, XDATA, add(CFA_XSP16, literal(-5)))
        CFI (cfiCond89) ?RET_HIGH load(1, XDATA, add(CFA_XSP16, literal(-4)))
        CFI (cfiCond89) ?BRET_EXT load(1, XDATA, add(CFA_XSP16, literal(-3)))
        CFI (cfiCond89) DPL0 load(1, XDATA, add(CFA_XSP16, literal(-2)))
        CFI (cfiCond89) DPH0 load(1, XDATA, add(CFA_XSP16, literal(-1)))
        CFI (cfiCond89) CFA_SP SP+0
        CFI (cfiCond89) CFA_XSP16 add(XSP16, 40)
        CFI Block cfiCond90 Using cfiCommon0
        CFI (cfiCond90) NoFunction
        CFI (cfiCond90) Conditional ??CrossCallReturnLabel_12
        CFI (cfiCond90) R6 load(1, XDATA, add(CFA_XSP16, literal(-22)))
        CFI (cfiCond90) VB load(1, XDATA, add(CFA_XSP16, literal(-21)))
        CFI (cfiCond90) V0 load(1, XDATA, add(CFA_XSP16, literal(-20)))
        CFI (cfiCond90) V1 load(1, XDATA, add(CFA_XSP16, literal(-19)))
        CFI (cfiCond90) V2 load(1, XDATA, add(CFA_XSP16, literal(-18)))
        CFI (cfiCond90) V3 load(1, XDATA, add(CFA_XSP16, literal(-17)))
        CFI (cfiCond90) V4 load(1, XDATA, add(CFA_XSP16, literal(-16)))
        CFI (cfiCond90) V5 load(1, XDATA, add(CFA_XSP16, literal(-15)))
        CFI (cfiCond90) V6 load(1, XDATA, add(CFA_XSP16, literal(-14)))
        CFI (cfiCond90) V7 load(1, XDATA, add(CFA_XSP16, literal(-13)))
        CFI (cfiCond90) V8 load(1, XDATA, add(CFA_XSP16, literal(-12)))
        CFI (cfiCond90) V9 load(1, XDATA, add(CFA_XSP16, literal(-11)))
        CFI (cfiCond90) V10 load(1, XDATA, add(CFA_XSP16, literal(-10)))
        CFI (cfiCond90) V11 load(1, XDATA, add(CFA_XSP16, literal(-9)))
        CFI (cfiCond90) V12 load(1, XDATA, add(CFA_XSP16, literal(-8)))
        CFI (cfiCond90) V13 load(1, XDATA, add(CFA_XSP16, literal(-7)))
        CFI (cfiCond90) R7 load(1, XDATA, add(CFA_XSP16, literal(-6)))
        CFI (cfiCond90) ?RET_LOW load(1, XDATA, add(CFA_XSP16, literal(-5)))
        CFI (cfiCond90) ?RET_HIGH load(1, XDATA, add(CFA_XSP16, literal(-4)))
        CFI (cfiCond90) ?BRET_EXT load(1, XDATA, add(CFA_XSP16, literal(-3)))
        CFI (cfiCond90) DPL0 load(1, XDATA, add(CFA_XSP16, literal(-2)))
        CFI (cfiCond90) DPH0 load(1, XDATA, add(CFA_XSP16, literal(-1)))
        CFI (cfiCond90) CFA_SP SP+0
        CFI (cfiCond90) CFA_XSP16 add(XSP16, 37)
        CFI Block cfiCond91 Using cfiCommon0
        CFI (cfiCond91) NoFunction
        CFI (cfiCond91) Conditional ??CrossCallReturnLabel_13
        CFI (cfiCond91) R6 load(1, XDATA, add(CFA_XSP16, literal(-24)))
        CFI (cfiCond91) VB load(1, XDATA, add(CFA_XSP16, literal(-23)))
        CFI (cfiCond91) V0 load(1, XDATA, add(CFA_XSP16, literal(-22)))
        CFI (cfiCond91) V1 load(1, XDATA, add(CFA_XSP16, literal(-21)))
        CFI (cfiCond91) V2 load(1, XDATA, add(CFA_XSP16, literal(-20)))
        CFI (cfiCond91) V3 load(1, XDATA, add(CFA_XSP16, literal(-19)))
        CFI (cfiCond91) V4 load(1, XDATA, add(CFA_XSP16, literal(-18)))
        CFI (cfiCond91) V5 load(1, XDATA, add(CFA_XSP16, literal(-17)))
        CFI (cfiCond91) V6 load(1, XDATA, add(CFA_XSP16, literal(-16)))
        CFI (cfiCond91) V7 load(1, XDATA, add(CFA_XSP16, literal(-15)))
        CFI (cfiCond91) V8 load(1, XDATA, add(CFA_XSP16, literal(-14)))
        CFI (cfiCond91) V9 load(1, XDATA, add(CFA_XSP16, literal(-13)))
        CFI (cfiCond91) V10 load(1, XDATA, add(CFA_XSP16, literal(-12)))
        CFI (cfiCond91) V11 load(1, XDATA, add(CFA_XSP16, literal(-11)))
        CFI (cfiCond91) V12 load(1, XDATA, add(CFA_XSP16, literal(-10)))
        CFI (cfiCond91) V13 load(1, XDATA, add(CFA_XSP16, literal(-9)))
        CFI (cfiCond91) V14 load(1, XDATA, add(CFA_XSP16, literal(-8)))
        CFI (cfiCond91) V15 load(1, XDATA, add(CFA_XSP16, literal(-7)))
        CFI (cfiCond91) R7 load(1, XDATA, add(CFA_XSP16, literal(-6)))
        CFI (cfiCond91) ?RET_LOW load(1, XDATA, add(CFA_XSP16, literal(-5)))
        CFI (cfiCond91) ?RET_HIGH load(1, XDATA, add(CFA_XSP16, literal(-4)))
        CFI (cfiCond91) ?BRET_EXT load(1, XDATA, add(CFA_XSP16, literal(-3)))
        CFI (cfiCond91) DPL0 load(1, XDATA, add(CFA_XSP16, literal(-2)))
        CFI (cfiCond91) DPH0 load(1, XDATA, add(CFA_XSP16, literal(-1)))
        CFI (cfiCond91) CFA_SP SP+0
        CFI (cfiCond91) CFA_XSP16 add(XSP16, 51)
        CFI Block cfiCond92 Using cfiCommon0
        CFI (cfiCond92) NoFunction
        CFI (cfiCond92) Conditional ??CrossCallReturnLabel_14
        CFI (cfiCond92) R6 load(1, XDATA, add(CFA_XSP16, literal(-24)))
        CFI (cfiCond92) VB load(1, XDATA, add(CFA_XSP16, literal(-23)))
        CFI (cfiCond92) V0 load(1, XDATA, add(CFA_XSP16, literal(-22)))
        CFI (cfiCond92) V1 load(1, XDATA, add(CFA_XSP16, literal(-21)))
        CFI (cfiCond92) V2 load(1, XDATA, add(CFA_XSP16, literal(-20)))
        CFI (cfiCond92) V3 load(1, XDATA, add(CFA_XSP16, literal(-19)))
        CFI (cfiCond92) V4 load(1, XDATA, add(CFA_XSP16, literal(-18)))
        CFI (cfiCond92) V5 load(1, XDATA, add(CFA_XSP16, literal(-17)))
        CFI (cfiCond92) V6 load(1, XDATA, add(CFA_XSP16, literal(-16)))
        CFI (cfiCond92) V7 load(1, XDATA, add(CFA_XSP16, literal(-15)))
        CFI (cfiCond92) V8 load(1, XDATA, add(CFA_XSP16, literal(-14)))
        CFI (cfiCond92) V9 load(1, XDATA, add(CFA_XSP16, literal(-13)))
        CFI (cfiCond92) V10 load(1, XDATA, add(CFA_XSP16, literal(-12)))
        CFI (cfiCond92) V11 load(1, XDATA, add(CFA_XSP16, literal(-11)))
        CFI (cfiCond92) V12 load(1, XDATA, add(CFA_XSP16, literal(-10)))
        CFI (cfiCond92) V13 load(1, XDATA, add(CFA_XSP16, literal(-9)))
        CFI (cfiCond92) V14 load(1, XDATA, add(CFA_XSP16, literal(-8)))
        CFI (cfiCond92) V15 load(1, XDATA, add(CFA_XSP16, literal(-7)))
        CFI (cfiCond92) R7 load(1, XDATA, add(CFA_XSP16, literal(-6)))
        CFI (cfiCond92) ?RET_LOW load(1, XDATA, add(CFA_XSP16, literal(-5)))
        CFI (cfiCond92) ?RET_HIGH load(1, XDATA, add(CFA_XSP16, literal(-4)))
        CFI (cfiCond92) ?BRET_EXT load(1, XDATA, add(CFA_XSP16, literal(-3)))
        CFI (cfiCond92) DPL0 load(1, XDATA, add(CFA_XSP16, literal(-2)))
        CFI (cfiCond92) DPH0 load(1, XDATA, add(CFA_XSP16, literal(-1)))
        CFI (cfiCond92) CFA_SP SP+0
        CFI (cfiCond92) CFA_XSP16 add(XSP16, 49)
        CFI Block cfiPicker93 Using cfiCommon1
        CFI (cfiPicker93) NoFunction
        CFI (cfiPicker93) Picker
        MOVX    A,@DPTR
        MOV     R4,A
        INC     DPTR
        MOVX    A,@DPTR
        MOV     R5,A
        RET
        CFI EndBlock cfiCond88
        CFI EndBlock cfiCond89
        CFI EndBlock cfiCond90
        CFI EndBlock cfiCond91
        CFI EndBlock cfiCond92
        CFI EndBlock cfiPicker93

        RSEG BANKED_CODE:CODE:NOROOT(0)
?Subroutine11:
        CFI Block cfiCond94 Using cfiCommon0
        CFI NoFunction
        CFI Conditional ??CrossCallReturnLabel_8
        CFI R6 load(1, XDATA, add(CFA_XSP16, literal(-22)))
        CFI VB load(1, XDATA, add(CFA_XSP16, literal(-21)))
        CFI V0 load(1, XDATA, add(CFA_XSP16, literal(-20)))
        CFI V1 load(1, XDATA, add(CFA_XSP16, literal(-19)))
        CFI V2 load(1, XDATA, add(CFA_XSP16, literal(-18)))
        CFI V3 load(1, XDATA, add(CFA_XSP16, literal(-17)))
        CFI V4 load(1, XDATA, add(CFA_XSP16, literal(-16)))
        CFI V5 load(1, XDATA, add(CFA_XSP16, literal(-15)))
        CFI V6 load(1, XDATA, add(CFA_XSP16, literal(-14)))
        CFI V7 load(1, XDATA, add(CFA_XSP16, literal(-13)))
        CFI V8 load(1, XDATA, add(CFA_XSP16, literal(-12)))
        CFI V9 load(1, XDATA, add(CFA_XSP16, literal(-11)))
        CFI V10 load(1, XDATA, add(CFA_XSP16, literal(-10)))
        CFI V11 load(1, XDATA, add(CFA_XSP16, literal(-9)))
        CFI V12 load(1, XDATA, add(CFA_XSP16, literal(-8)))
        CFI V13 load(1, XDATA, add(CFA_XSP16, literal(-7)))
        CFI R7 load(1, XDATA, add(CFA_XSP16, literal(-6)))
        CFI ?RET_LOW load(1, XDATA, add(CFA_XSP16, literal(-5)))
        CFI ?RET_HIGH load(1, XDATA, add(CFA_XSP16, literal(-4)))
        CFI ?BRET_EXT load(1, XDATA, add(CFA_XSP16, literal(-3)))
        CFI DPL0 load(1, XDATA, add(CFA_XSP16, literal(-2)))
        CFI DPH0 load(1, XDATA, add(CFA_XSP16, literal(-1)))
        CFI CFA_SP SP+0
        CFI CFA_XSP16 add(XSP16, 30)
        CFI Block cfiCond95 Using cfiCommon0
        CFI (cfiCond95) NoFunction
        CFI (cfiCond95) Conditional ??CrossCallReturnLabel_9
        CFI (cfiCond95) R6 load(1, XDATA, add(CFA_XSP16, literal(-22)))
        CFI (cfiCond95) VB load(1, XDATA, add(CFA_XSP16, literal(-21)))
        CFI (cfiCond95) V0 load(1, XDATA, add(CFA_XSP16, literal(-20)))
        CFI (cfiCond95) V1 load(1, XDATA, add(CFA_XSP16, literal(-19)))
        CFI (cfiCond95) V2 load(1, XDATA, add(CFA_XSP16, literal(-18)))
        CFI (cfiCond95) V3 load(1, XDATA, add(CFA_XSP16, literal(-17)))
        CFI (cfiCond95) V4 load(1, XDATA, add(CFA_XSP16, literal(-16)))
        CFI (cfiCond95) V5 load(1, XDATA, add(CFA_XSP16, literal(-15)))
        CFI (cfiCond95) V6 load(1, XDATA, add(CFA_XSP16, literal(-14)))
        CFI (cfiCond95) V7 load(1, XDATA, add(CFA_XSP16, literal(-13)))
        CFI (cfiCond95) V8 load(1, XDATA, add(CFA_XSP16, literal(-12)))
        CFI (cfiCond95) V9 load(1, XDATA, add(CFA_XSP16, literal(-11)))
        CFI (cfiCond95) V10 load(1, XDATA, add(CFA_XSP16, literal(-10)))
        CFI (cfiCond95) V11 load(1, XDATA, add(CFA_XSP16, literal(-9)))
        CFI (cfiCond95) V12 load(1, XDATA, add(CFA_XSP16, literal(-8)))
        CFI (cfiCond95) V13 load(1, XDATA, add(CFA_XSP16, literal(-7)))
        CFI (cfiCond95) R7 load(1, XDATA, add(CFA_XSP16, literal(-6)))
        CFI (cfiCond95) ?RET_LOW load(1, XDATA, add(CFA_XSP16, literal(-5)))
        CFI (cfiCond95) ?RET_HIGH load(1, XDATA, add(CFA_XSP16, literal(-4)))
        CFI (cfiCond95) ?BRET_EXT load(1, XDATA, add(CFA_XSP16, literal(-3)))
        CFI (cfiCond95) DPL0 load(1, XDATA, add(CFA_XSP16, literal(-2)))
        CFI (cfiCond95) DPH0 load(1, XDATA, add(CFA_XSP16, literal(-1)))
        CFI (cfiCond95) CFA_SP SP+0
        CFI (cfiCond95) CFA_XSP16 add(XSP16, 37)
        CFI Block cfiPicker96 Using cfiCommon1
        CFI (cfiPicker96) NoFunction
        CFI (cfiPicker96) Picker
        MOVX    A,@DPTR
        MOV     R4,A
        INC     DPTR
        MOVX    A,@DPTR
        MOV     R5,A
        CLR     C
        MOV     A,R4
        SUBB    A,#-0x4
        MOV     A,R5
        SUBB    A,#-0x1
        RET
        CFI EndBlock cfiCond94
        CFI EndBlock cfiCond95
        CFI EndBlock cfiPicker96
//  635 
//  636 /*********************************************************************
//  637  * @fn      findItem
//  638  *
//  639  * @brief   Find an item Id in NV and return the page and offset to its data.
//  640  *
//  641  * @param   id - Valid NV item Id.
//  642  *
//  643  * @return  Offset of data corresponding to item Id, if found;
//  644  *          otherwise OSAL_NV_ITEM_NULL.
//  645  *
//  646  *          The page containing the item, if found;
//  647  *          otherwise no valid assignment made - left equal to item Id.
//  648  *
//  649  */

        RSEG BANKED_CODE:CODE:NOROOT(0)
//  650 static uint16 findItem( uint16 id )
findItem:
        CFI Block cfiBlock97 Using cfiCommon0
        CFI Function findItem
        CODE
//  651 {
        FUNCALL findItem, initPage
        LOCFRAME ISTACK, 0, STACK
        LOCFRAME PSTACK, 0, STACK
        LOCFRAME XSTACK, 12, STACK
        LOCFRAME IOVERLAY, 0, STATIC
        LOCFRAME DOVERLAY, 0, STATIC
        ARGFRAME ISTACK, 0, STACK
        ARGFRAME PSTACK, 0, STACK
        ARGFRAME XSTACK, 12, STACK
        ARGFRAME IOVERLAY, 0, STATIC
        ARGFRAME DOVERLAY, 0, STATIC
        MOV     A,#-0xc
        LCALL   ?BANKED_ENTER_XDATA
        CFI DPH0 load(1, XDATA, add(CFA_XSP16, literal(-1)))
        CFI DPL0 load(1, XDATA, add(CFA_XSP16, literal(-2)))
        CFI ?BRET_EXT load(1, XDATA, add(CFA_XSP16, literal(-3)))
        CFI ?RET_HIGH load(1, XDATA, add(CFA_XSP16, literal(-4)))
        CFI ?RET_LOW load(1, XDATA, add(CFA_XSP16, literal(-5)))
        CFI R7 load(1, XDATA, add(CFA_XSP16, literal(-6)))
        CFI V3 load(1, XDATA, add(CFA_XSP16, literal(-7)))
        CFI V2 load(1, XDATA, add(CFA_XSP16, literal(-8)))
        CFI V1 load(1, XDATA, add(CFA_XSP16, literal(-9)))
        CFI V0 load(1, XDATA, add(CFA_XSP16, literal(-10)))
        CFI VB load(1, XDATA, add(CFA_XSP16, literal(-11)))
        CFI R6 load(1, XDATA, add(CFA_XSP16, literal(-12)))
        CFI CFA_SP SP+0
        CFI CFA_XSP16 add(XSP16, 12)
        ; Saved register size: 12
        ; Auto size: 0
        MOV     A,R2
        MOV     R6,A
        MOV     A,R3
        SJMP    ??findItem_0
//  652   uint16 off;
//  653   uint8 pg;
//  654 
//  655   for ( pg = OSAL_NV_PAGE_BEG; pg <= OSAL_NV_PAGE_END; pg++ )
//  656   {
//  657     if ( (off = initPage( pg, id, FALSE )) != OSAL_NV_ITEM_NULL )
//  658     {
//  659       findPg = pg;
//  660       return off;
//  661     }
//  662   }
//  663 
//  664   // Now attempt to find the item as the "old" item of a failed/interrupted NV write.
//  665   if ( (id & OSAL_NV_SOURCE_ID) == 0 )
//  666   {
//  667     return findItem( id | OSAL_NV_SOURCE_ID );
??findItem_1:
        MOV     A,#-0x80
        ORL     A,R7
??findItem_0:
        MOV     R7,A
//  668   }
        MOV     ?V0 + 0,#0x79
??findItem_2:
        ; Setup parameters for call to function initPage
        MOV     R4,#0x0
        MOV     A,R6
        MOV     R2,A
        MOV     A,R7
        MOV     R3,A
        MOV     R1,?V0 + 0
        LCALL   ??initPage?relay
        MOV     ?V0 + 3,R3
        MOV     R1,?V0 + 3
        MOV     A,R2
        ORL     A,R1
        JZ      ??findItem_3
        MOV     A,?V0 + 0
        MOV     DPTR,#findPg
        MOVX    @DPTR,A
        SJMP    ??findItem_4
??findItem_3:
        INC     ?V0 + 0
        MOV     A,?V0 + 0
        CLR     C
        SUBB    A,#0x7f
        JC      ??findItem_2
        MOV     A,R7
        ANL     A,#0x80
        JZ      ??findItem_1
//  669   else
//  670   {
//  671     findPg = OSAL_NV_PAGE_NULL;
        MOV     DPTR,#findPg
        CLR     A
        MOVX    @DPTR,A
//  672     return OSAL_NV_ITEM_NULL;
        MOV     R2,A
        MOV     R3,A
??findItem_4:
        MOV     R7,#0x4
        LJMP    ?BANKED_LEAVE_XDATA
        CFI EndBlock cfiBlock97
//  673   }
//  674 }
//  675 
//  676 /*********************************************************************
//  677  * @fn      initItem
//  678  *
//  679  * @brief   An NV item is created and initialized with the data passed to the function, if any.
//  680  *
//  681  * @param   flag - TRUE if the 'buf' parameter contains data for the call to writeItem().
//  682  *                 (i.e. if invoked from osal_nv_item_init() ).
//  683  *                 FALSE if writeItem() should just write the header and the 'buf' parameter
//  684  *                 is ok to use as a return value of the page number to be cleaned with
//  685  *                 COMPACT_PAGE_CLEANUP().
//  686  *                 (i.e. if invoked from osal_nv_write() ).
//  687  * @param   id  - Valid NV item Id.
//  688  * @param   len - Item data length.
//  689  * @param  *buf - Pointer to item initalization data. Set to NULL if none.
//  690  *
//  691  * @return  The OSAL Nv page number if item write and read back checksums ok;
//  692  *          OSAL_NV_PAGE_NULL otherwise.
//  693  */

        RSEG BANKED_CODE:CODE:NOROOT(0)
//  694 static uint8 initItem( uint8 flag, uint16 id, uint16 len, void *buf )
initItem:
        CFI Block cfiBlock98 Using cfiCommon0
        CFI Function initItem
        CODE
//  695 {
        FUNCALL initItem, HalFlashRead
        LOCFRAME ISTACK, 0, STACK
        LOCFRAME PSTACK, 0, STACK
        LOCFRAME XSTACK, 42, STACK
        LOCFRAME IOVERLAY, 0, STATIC
        LOCFRAME DOVERLAY, 0, STATIC
        ARGFRAME ISTACK, 0, STACK
        ARGFRAME PSTACK, 0, STACK
        ARGFRAME XSTACK, 42, STACK
        ARGFRAME IOVERLAY, 0, STATIC
        ARGFRAME DOVERLAY, 0, STATIC
        FUNCALL initItem, HalFlashWrite
        LOCFRAME ISTACK, 0, STACK
        LOCFRAME PSTACK, 0, STACK
        LOCFRAME XSTACK, 42, STACK
        LOCFRAME IOVERLAY, 0, STATIC
        LOCFRAME DOVERLAY, 0, STATIC
        ARGFRAME ISTACK, 0, STACK
        ARGFRAME PSTACK, 0, STACK
        ARGFRAME XSTACK, 42, STACK
        ARGFRAME IOVERLAY, 0, STATIC
        ARGFRAME DOVERLAY, 0, STATIC
        FUNCALL initItem, compactPage
        LOCFRAME ISTACK, 0, STACK
        LOCFRAME PSTACK, 0, STACK
        LOCFRAME XSTACK, 40, STACK
        LOCFRAME IOVERLAY, 0, STATIC
        LOCFRAME DOVERLAY, 0, STATIC
        ARGFRAME ISTACK, 0, STACK
        ARGFRAME PSTACK, 0, STACK
        ARGFRAME XSTACK, 40, STACK
        ARGFRAME IOVERLAY, 0, STATIC
        ARGFRAME DOVERLAY, 0, STATIC
        FUNCALL initItem, writeItem
        LOCFRAME ISTACK, 0, STACK
        LOCFRAME PSTACK, 0, STACK
        LOCFRAME XSTACK, 43, STACK
        LOCFRAME IOVERLAY, 0, STATIC
        LOCFRAME DOVERLAY, 0, STATIC
        ARGFRAME ISTACK, 0, STACK
        ARGFRAME PSTACK, 0, STACK
        ARGFRAME XSTACK, 43, STACK
        ARGFRAME IOVERLAY, 0, STATIC
        ARGFRAME DOVERLAY, 0, STATIC
        FUNCALL initItem, HalFlashWrite
        LOCFRAME ISTACK, 0, STACK
        LOCFRAME PSTACK, 0, STACK
        LOCFRAME XSTACK, 42, STACK
        LOCFRAME IOVERLAY, 0, STATIC
        LOCFRAME DOVERLAY, 0, STATIC
        ARGFRAME ISTACK, 0, STACK
        ARGFRAME PSTACK, 0, STACK
        ARGFRAME XSTACK, 42, STACK
        ARGFRAME IOVERLAY, 0, STATIC
        ARGFRAME DOVERLAY, 0, STATIC
        FUNCALL initItem, erasePage
        LOCFRAME ISTACK, 0, STACK
        LOCFRAME PSTACK, 0, STACK
        LOCFRAME XSTACK, 40, STACK
        LOCFRAME IOVERLAY, 0, STATIC
        LOCFRAME DOVERLAY, 0, STATIC
        ARGFRAME ISTACK, 0, STACK
        ARGFRAME PSTACK, 0, STACK
        ARGFRAME XSTACK, 40, STACK
        ARGFRAME IOVERLAY, 0, STATIC
        ARGFRAME DOVERLAY, 0, STATIC
        FUNCALL initItem, writeItem
        LOCFRAME ISTACK, 0, STACK
        LOCFRAME PSTACK, 0, STACK
        LOCFRAME XSTACK, 43, STACK
        LOCFRAME IOVERLAY, 0, STATIC
        LOCFRAME DOVERLAY, 0, STATIC
        ARGFRAME ISTACK, 0, STACK
        ARGFRAME PSTACK, 0, STACK
        ARGFRAME XSTACK, 43, STACK
        ARGFRAME IOVERLAY, 0, STATIC
        ARGFRAME DOVERLAY, 0, STATIC
        MOV     A,#-0x12
        LCALL   ?BANKED_ENTER_XDATA
        CFI DPH0 load(1, XDATA, add(CFA_XSP16, literal(-1)))
        CFI DPL0 load(1, XDATA, add(CFA_XSP16, literal(-2)))
        CFI ?BRET_EXT load(1, XDATA, add(CFA_XSP16, literal(-3)))
        CFI ?RET_HIGH load(1, XDATA, add(CFA_XSP16, literal(-4)))
        CFI ?RET_LOW load(1, XDATA, add(CFA_XSP16, literal(-5)))
        CFI R7 load(1, XDATA, add(CFA_XSP16, literal(-6)))
        CFI V9 load(1, XDATA, add(CFA_XSP16, literal(-7)))
        CFI V8 load(1, XDATA, add(CFA_XSP16, literal(-8)))
        CFI V7 load(1, XDATA, add(CFA_XSP16, literal(-9)))
        CFI V6 load(1, XDATA, add(CFA_XSP16, literal(-10)))
        CFI V5 load(1, XDATA, add(CFA_XSP16, literal(-11)))
        CFI V4 load(1, XDATA, add(CFA_XSP16, literal(-12)))
        CFI V3 load(1, XDATA, add(CFA_XSP16, literal(-13)))
        CFI V2 load(1, XDATA, add(CFA_XSP16, literal(-14)))
        CFI V1 load(1, XDATA, add(CFA_XSP16, literal(-15)))
        CFI V0 load(1, XDATA, add(CFA_XSP16, literal(-16)))
        CFI VB load(1, XDATA, add(CFA_XSP16, literal(-17)))
        CFI R6 load(1, XDATA, add(CFA_XSP16, literal(-18)))
        CFI CFA_SP SP+0
        CFI CFA_XSP16 add(XSP16, 18)
        ; Saved register size: 18
        ; Auto size: 22
        MOV     A,#-0x16
        LCALL   ?ALLOC_XSTACK8
        CFI CFA_XSP16 add(XSP16, 40)
        MOV     ?V0 + 4,R1
        MOV     ?V0 + 2,R2
        MOV     ?V0 + 3,R3
        MOV     ?V0 + 0,R4
        MOV     ?V0 + 1,R5
        MOV     A,#0x28
        LCALL   ?XSTACK_DISP0_8
        MOVX    A,@DPTR
        MOV     ?V0 + 6,A
        INC     DPTR
        MOVX    A,@DPTR
        MOV     ?V0 + 7,A
//  696   uint16 sz = OSAL_NV_ITEM_SIZE( len );
        CLR     C
        MOV     A,R4
        SUBB    A,#-0xc
        MOV     A,R5
        SUBB    A,#-0x1
        JC      ??initItem_0
        MOV     DPL,?XSP + 0
        MOV     DPH,?XSP + 1
        MOV     A,#-0x4
        MOVX    @DPTR,A
        INC     DPTR
        MOV     A,#-0x1
        SJMP    ??initItem_1
??initItem_0:
        LCALL   ?Subroutine30 & 0xFFFF
??CrossCallReturnLabel_58:
        ADD     A,#0x8
        MOV     R0,A
        MOV     A,R1
        ADDC    A,#0x0
        MOV     R1,A
        MOV     DPL,?XSP + 0
        MOV     DPH,?XSP + 1
        MOV     A,R0
        MOVX    @DPTR,A
        INC     DPTR
        MOV     A,R1
??initItem_1:
        MOVX    @DPTR,A
//  697   uint8 rtrn = OSAL_NV_PAGE_NULL;
        MOV     R7,#0x0
//  698   uint8 cnt = OSAL_NV_PAGES_USED;
        MOV     R4,#0x6
//  699   uint8 pg = pgRes+1;  // Set to 1 after the reserve page to even wear across all available pages.
        MOV     DPTR,#pgRes
        MOVX    A,@DPTR
        INC     A
        MOV     R6,A
//  700 
//  701   do {
//  702     if (pg >= OSAL_NV_PAGE_BEG+OSAL_NV_PAGES_USED)
??initItem_2:
        MOV     A,R6
        CLR     C
        SUBB    A,#0x7f
        JC      ??initItem_3
//  703     {
//  704       pg = OSAL_NV_PAGE_BEG;
        MOV     R6,#0x79
//  705     }
//  706     if ( pg != pgRes )
??initItem_3:
        MOV     DPTR,#pgRes
        MOVX    A,@DPTR
        XRL     A,R6
        JZ      ??initItem_4
//  707     {
//  708       uint8 idx = pg - OSAL_NV_PAGE_BEG;
        MOV     A,#-0x79
        ADD     A,R6
//  709       if ( sz <= (OSAL_NV_PAGE_SIZE - pgOff[idx] + pgLost[idx]) )
        CLR     C
        RLC     A
        MOV     R0,A
        CLR     A
        RLC     A
        MOV     R1,A
        MOV     A,#pgOff & 0xff
        ADD     A,R0
        MOV     DPL,A
        MOV     A,#(pgOff >> 8) & 0xff
        ADDC    A,R1
        MOV     DPH,A
        LCALL   ?Subroutine22 & 0xFFFF
//  710       {
//  711         break;
//  712       }
//  713     }
??CrossCallReturnLabel_31:
        CLR     A
        CLR     C
        SUBB    A,R2
        MOV     R2,A
        MOV     A,#0x8
        SUBB    A,R3
        MOV     R3,A
        MOV     A,#pgLost & 0xff
        ADD     A,R0
        MOV     DPL,A
        MOV     A,#(pgLost >> 8) & 0xff
        ADDC    A,R1
        MOV     DPH,A
        MOVX    A,@DPTR
        ADD     A,R2
        MOV     R2,A
        INC     DPTR
        MOVX    A,@DPTR
        ADDC    A,R3
        LCALL   ?Subroutine18 & 0xFFFF
??CrossCallReturnLabel_25:
        JNC     ??initItem_5
//  714     pg++;
??initItem_4:
        INC     R6
//  715   } while (--cnt);
        DEC     R4
        MOV     A,R4
        JNZ     ??initItem_2
        LJMP    ??initItem_6 & 0xFFFF
//  716 
//  717   if (cnt)
??initItem_5:
        MOV     A,R4
        JNZ     $+5
        LJMP    ??initItem_6 & 0xFFFF
//  718   {
//  719     // Item fits if an old page is compacted.
//  720     if ( sz > (OSAL_NV_PAGE_SIZE - pgOff[pg - OSAL_NV_PAGE_BEG]) )
        LCALL   ?Subroutine32 & 0xFFFF
??CrossCallReturnLabel_102:
        LCALL   ?Subroutine24 & 0xFFFF
??CrossCallReturnLabel_37:
        MOV     R2,A
        MOV     A,#0x8
        SUBB    A,R1
        LCALL   ?Subroutine18 & 0xFFFF
??CrossCallReturnLabel_26:
        JC      $+5
        LJMP    ??initItem_7 & 0xFFFF
//  721     {
//  722       osalNvPgHdr_t pgHdr;
//  723 
//  724       /* Prevent excessive re-writes to page header caused by numerous, rapid, & successive
//  725        * OSAL_Nv interruptions caused by resets.
//  726        */
//  727       HalFlashRead(pg, OSAL_NV_PAGE_HDR_OFFSET, (uint8 *)(&pgHdr), OSAL_NV_PAGE_HDR_SIZE);
        ; Setup parameters for call to function HalFlashRead
        MOV     ?V0 + 8,#0x8
        MOV     ?V0 + 9,R7
        MOV     R0,#?V0 + 8
        LCALL   ?PUSH_XSTACK_I_TWO
        CFI CFA_XSP16 add(XSP16, 42)
        MOV     A,#0x10
        LCALL   ?XSTACK_DISP0_8
        MOV     R4,DPL
        MOV     R5,DPH
        MOV     R2,#0x0
        MOV     R3,#0x0
        MOV     A,R6
        MOV     R1,A
        LCALL   ??Subroutine51_0 & 0xFFFF
??CrossCallReturnLabel_125:
        LCALL   ?DEALLOC_XSTACK8
        CFI CFA_XSP16 add(XSP16, 40)
//  728       if ( pgHdr.xfer == OSAL_NV_ERASED_ID )
        MOV     A,#0x12
        LCALL   ?XSTACK_DISP0_8
        MOVX    A,@DPTR
        CPL     A
        JNZ     ??initItem_8
        INC     DPTR
        MOVX    A,@DPTR
        CPL     A
??initItem_8:
        JNZ     ??initItem_9
//  729       {
//  730         // Mark the old page as being in process of compaction.
//  731         sz = OSAL_NV_ZEROED_ID;
        MOV     DPL,?XSP + 0
        MOV     DPH,?XSP + 1
        CLR     A
        MOVX    @DPTR,A
        INC     DPTR
        MOVX    @DPTR,A
//  732         writeWordH( pg, OSAL_NV_PG_XFER, (uint8*)(&sz) );
        MOV     DPL,?XSP + 0
        MOV     DPH,?XSP + 1
        MOVX    A,@DPTR
        PUSH    A
        CFI CFA_SP SP+-1
        MOV     A,#0x2
        LCALL   ?XSTACK_DISP0_8
        POP     A
        CFI CFA_SP SP+0
        MOVX    @DPTR,A
        MOV     A,#0x1
        LCALL   ?XSTACK_DISP0_8
        MOVX    A,@DPTR
        PUSH    A
        CFI CFA_SP SP+-1
        MOV     A,#0x3
        LCALL   ?XSTACK_DISP0_8
        POP     A
        CFI CFA_SP SP+0
        MOVX    @DPTR,A
        MOV     A,#0x4
        LCALL   ?XSTACK_DISP0_8
        MOV     A,#-0x1
        MOVX    @DPTR,A
        MOV     A,#0x5
        LCALL   ?XSTACK_DISP0_8
        MOV     A,#-0x1
        MOVX    @DPTR,A
        ; Setup parameters for call to function HalFlashWrite
        MOV     ?V0 + 8,#0x1
        MOV     R0,#?V0 + 8
        LCALL   ?PUSH_XSTACK_I_TWO
        CFI CFA_XSP16 add(XSP16, 42)
        MOV     A,#0x4
        LCALL   ?XSTACK_DISP0_8
        MOV     R4,DPL
        MOV     R5,DPH
        MOV     ?V0 + 8,R6
        MOV     A,#0x9
        MOV     R0,#?V0 + 8
        LCALL   ?S_SHL
        MOV     R2,#0x1
        MOV     R3,?V0 + 9
        LCALL   ??Subroutine45_0 & 0xFFFF
??CrossCallReturnLabel_95:
        LCALL   ?DEALLOC_XSTACK8
        CFI CFA_XSP16 add(XSP16, 40)
//  733       }
//  734 
//  735       /* First the old page is compacted, then the new item will be the last one written to what
//  736        * had been the reserved page.
//  737        */
//  738       if (compactPage( pg, id ))
??initItem_9:
        ; Setup parameters for call to function compactPage
        MOV     R2,?V0 + 2
        MOV     R3,?V0 + 3
        MOV     A,R6
        MOV     R1,A
        LCALL   ??compactPage?relay
        MOV     A,R1
        JNZ     $+5
        LJMP    ??initItem_6 & 0xFFFF
//  739       {
//  740         if ( writeItem( pgRes, id, len, buf, flag ) )
        ; Setup parameters for call to function writeItem
        MOV     A,?V0 + 4
        MOV     ?V0 + 5,A
        MOV     R0,#?V0 + 5
        LCALL   ?PUSH_XSTACK_I_ONE
        CFI CFA_XSP16 add(XSP16, 41)
        MOV     R0,#?V0 + 6
        LCALL   ?PUSH_XSTACK_I_TWO
        CFI CFA_XSP16 add(XSP16, 43)
        MOV     R4,?V0 + 0
        MOV     R5,?V0 + 1
        MOV     R2,?V0 + 2
        MOV     R3,?V0 + 3
        MOV     DPTR,#pgRes
        MOVX    A,@DPTR
        MOV     R1,A
        LCALL   ??writeItem?relay
        MOV     A,#0x3
        LCALL   ?DEALLOC_XSTACK8
        CFI CFA_XSP16 add(XSP16, 40)
        MOV     A,R1
        JZ      ??initItem_10
//  741         {
//  742           rtrn = pgRes;
        MOV     DPTR,#pgRes
        MOVX    A,@DPTR
        MOV     R7,A
//  743         }
//  744 
//  745         if ( flag == FALSE )
??initItem_10:
        MOV     A,?V0 + 4
        JNZ     ??initItem_11
//  746         {
//  747           /* Overload 'buf' as an OUT parameter to pass back to the calling function
//  748            * the old page to be cleaned up.
//  749            */
//  750           *(uint8 *)buf = pg;
        MOV     A,R6
        MOV     DPL,?V0 + 6
        MOV     DPH,?V0 + 7
??initItem_12:
        MOVX    @DPTR,A
        SJMP    ??initItem_6
//  751         }
//  752         else
//  753         {
//  754           /* Safe to do the compacted page cleanup even if writeItem() above failed because the
//  755            * item does not yet exist since this call with flag==TRUE is from osal_nv_item_init().
//  756            */
//  757           COMPACT_PAGE_CLEANUP( pg );
??initItem_11:
        MOV     A,#0x6
        LCALL   ?XSTACK_DISP0_8
        CLR     A
        MOVX    @DPTR,A
        INC     DPTR
        MOVX    @DPTR,A
        MOV     A,#0x8
        LCALL   ?XSTACK_DISP0_8
        LCALL   ?Subroutine9 & 0xFFFF
??CrossCallReturnLabel_7:
        LCALL   ?PUSH_XSTACK_I_TWO
        CFI CFA_XSP16 add(XSP16, 42)
        MOV     A,#0x8
        LCALL   ?XSTACK_DISP0_8
        MOV     R4,DPL
        MOV     R5,DPH
        MOV     DPTR,#pgRes
        MOVX    A,@DPTR
        MOV     ?V0 + 0,A
        MOV     A,#0x9
        MOV     R0,#?V0 + 0
        LCALL   ?S_SHL
        MOV     R2,A
        MOV     R3,?V0 + 1
        LCALL   ??Subroutine45_0 & 0xFFFF
??CrossCallReturnLabel_96:
        LCALL   ?DEALLOC_XSTACK8
        CFI CFA_XSP16 add(XSP16, 40)
        ; Setup parameters for call to function erasePage
        MOV     A,R6
        MOV     R1,A
        LCALL   ??erasePage?relay
        MOV     A,R6
        MOV     DPTR,#pgRes
        SJMP    ??initItem_12
//  758         }
//  759       }
//  760     }
//  761     else
//  762     {
//  763       if ( writeItem( pg, id, len, buf, flag ) )
??initItem_7:
        ; Setup parameters for call to function writeItem
        MOV     A,?V0 + 4
        MOV     ?V0 + 5,A
        MOV     R0,#?V0 + 5
        LCALL   ?PUSH_XSTACK_I_ONE
        CFI CFA_XSP16 add(XSP16, 41)
        MOV     R0,#?V0 + 6
        LCALL   ?PUSH_XSTACK_I_TWO
        CFI CFA_XSP16 add(XSP16, 43)
        MOV     R4,?V0 + 0
        MOV     R2,?V0 + 2
        MOV     R3,?V0 + 3
        MOV     A,R6
        MOV     R1,A
        LCALL   ??writeItem?relay
        MOV     A,#0x3
        LCALL   ?DEALLOC_XSTACK8
        CFI CFA_XSP16 add(XSP16, 40)
        MOV     A,R1
        JZ      ??initItem_6
//  764       {
//  765         rtrn = pg;
        MOV     A,R6
        MOV     R7,A
//  766       }
//  767     }
//  768   }
//  769 
//  770   return rtrn;
??initItem_6:
        MOV     A,R7
        MOV     R1,A
        MOV     A,#0x16
        CFI EndBlock cfiBlock98
        REQUIRE ?Subroutine3
        ; // Fall through to label ?Subroutine3
//  771 }

        RSEG BANKED_CODE:CODE:NOROOT(0)
?Subroutine3:
        CFI Block cfiBlock99 Using cfiCommon0
        CFI NoFunction
        CFI CFA_SP SP+0
        CFI CFA_XSP16 add(XSP16, 40)
        CFI VB load(1, XDATA, add(CFA_XSP16, literal(-17)))
        CFI DPL0 load(1, XDATA, add(CFA_XSP16, literal(-2)))
        CFI DPH0 load(1, XDATA, add(CFA_XSP16, literal(-1)))
        CFI R6 load(1, XDATA, add(CFA_XSP16, literal(-18)))
        CFI R7 load(1, XDATA, add(CFA_XSP16, literal(-6)))
        CFI V0 load(1, XDATA, add(CFA_XSP16, literal(-16)))
        CFI V1 load(1, XDATA, add(CFA_XSP16, literal(-15)))
        CFI V2 load(1, XDATA, add(CFA_XSP16, literal(-14)))
        CFI V3 load(1, XDATA, add(CFA_XSP16, literal(-13)))
        CFI V4 load(1, XDATA, add(CFA_XSP16, literal(-12)))
        CFI V5 load(1, XDATA, add(CFA_XSP16, literal(-11)))
        CFI V6 load(1, XDATA, add(CFA_XSP16, literal(-10)))
        CFI V7 load(1, XDATA, add(CFA_XSP16, literal(-9)))
        CFI V8 load(1, XDATA, add(CFA_XSP16, literal(-8)))
        CFI V9 load(1, XDATA, add(CFA_XSP16, literal(-7)))
        CFI ?BRET_EXT load(1, XDATA, add(CFA_XSP16, literal(-3)))
        CFI ?RET_HIGH load(1, XDATA, add(CFA_XSP16, literal(-4)))
        CFI ?RET_LOW load(1, XDATA, add(CFA_XSP16, literal(-5)))
        CFI Invalid
        LCALL   ?DEALLOC_XSTACK8
        CFI CFA_XSP16 add(XSP16, 18)
        CFI Valid
        MOV     R7,#0xa
        LJMP    ?BANKED_LEAVE_XDATA
        CFI EndBlock cfiBlock99

        RSEG BANKED_CODE:CODE:NOROOT(0)
?Subroutine18:
        CFI Block cfiCond100 Using cfiCommon0
        CFI NoFunction
        CFI Conditional ??CrossCallReturnLabel_25
        CFI R6 load(1, XDATA, add(CFA_XSP16, literal(-18)))
        CFI VB load(1, XDATA, add(CFA_XSP16, literal(-17)))
        CFI V0 load(1, XDATA, add(CFA_XSP16, literal(-16)))
        CFI V1 load(1, XDATA, add(CFA_XSP16, literal(-15)))
        CFI V2 load(1, XDATA, add(CFA_XSP16, literal(-14)))
        CFI V3 load(1, XDATA, add(CFA_XSP16, literal(-13)))
        CFI V4 load(1, XDATA, add(CFA_XSP16, literal(-12)))
        CFI V5 load(1, XDATA, add(CFA_XSP16, literal(-11)))
        CFI V6 load(1, XDATA, add(CFA_XSP16, literal(-10)))
        CFI V7 load(1, XDATA, add(CFA_XSP16, literal(-9)))
        CFI V8 load(1, XDATA, add(CFA_XSP16, literal(-8)))
        CFI V9 load(1, XDATA, add(CFA_XSP16, literal(-7)))
        CFI R7 load(1, XDATA, add(CFA_XSP16, literal(-6)))
        CFI ?RET_LOW load(1, XDATA, add(CFA_XSP16, literal(-5)))
        CFI ?RET_HIGH load(1, XDATA, add(CFA_XSP16, literal(-4)))
        CFI ?BRET_EXT load(1, XDATA, add(CFA_XSP16, literal(-3)))
        CFI DPL0 load(1, XDATA, add(CFA_XSP16, literal(-2)))
        CFI DPH0 load(1, XDATA, add(CFA_XSP16, literal(-1)))
        CFI CFA_SP SP+0
        CFI CFA_XSP16 add(XSP16, 40)
        CFI Block cfiCond101 Using cfiCommon0
        CFI (cfiCond101) NoFunction
        CFI (cfiCond101) Conditional ??CrossCallReturnLabel_26
        CFI (cfiCond101) R6 load(1, XDATA, add(CFA_XSP16, literal(-18)))
        CFI (cfiCond101) VB load(1, XDATA, add(CFA_XSP16, literal(-17)))
        CFI (cfiCond101) V0 load(1, XDATA, add(CFA_XSP16, literal(-16)))
        CFI (cfiCond101) V1 load(1, XDATA, add(CFA_XSP16, literal(-15)))
        CFI (cfiCond101) V2 load(1, XDATA, add(CFA_XSP16, literal(-14)))
        CFI (cfiCond101) V3 load(1, XDATA, add(CFA_XSP16, literal(-13)))
        CFI (cfiCond101) V4 load(1, XDATA, add(CFA_XSP16, literal(-12)))
        CFI (cfiCond101) V5 load(1, XDATA, add(CFA_XSP16, literal(-11)))
        CFI (cfiCond101) V6 load(1, XDATA, add(CFA_XSP16, literal(-10)))
        CFI (cfiCond101) V7 load(1, XDATA, add(CFA_XSP16, literal(-9)))
        CFI (cfiCond101) V8 load(1, XDATA, add(CFA_XSP16, literal(-8)))
        CFI (cfiCond101) V9 load(1, XDATA, add(CFA_XSP16, literal(-7)))
        CFI (cfiCond101) R7 load(1, XDATA, add(CFA_XSP16, literal(-6)))
        CFI (cfiCond101) ?RET_LOW load(1, XDATA, add(CFA_XSP16, literal(-5)))
        CFI (cfiCond101) ?RET_HIGH load(1, XDATA, add(CFA_XSP16, literal(-4)))
        CFI (cfiCond101) ?BRET_EXT load(1, XDATA, add(CFA_XSP16, literal(-3)))
        CFI (cfiCond101) DPL0 load(1, XDATA, add(CFA_XSP16, literal(-2)))
        CFI (cfiCond101) DPH0 load(1, XDATA, add(CFA_XSP16, literal(-1)))
        CFI (cfiCond101) CFA_SP SP+0
        CFI (cfiCond101) CFA_XSP16 add(XSP16, 40)
        CFI Block cfiPicker102 Using cfiCommon1
        CFI (cfiPicker102) NoFunction
        CFI (cfiPicker102) Picker
        MOV     R3,A
        MOV     DPL,?XSP + 0
        MOV     DPH,?XSP + 1
        LCALL   ?Subroutine39 & 0xFFFF
??CrossCallReturnLabel_77:
        CLR     C
        MOV     A,R2
        SUBB    A,R0
        MOV     A,R3
        SUBB    A,R1
        RET
        CFI EndBlock cfiCond100
        CFI EndBlock cfiCond101
        CFI EndBlock cfiPicker102

        RSEG BANKED_CODE:CODE:NOROOT(0)
?Subroutine9:
        CFI Block cfiCond103 Using cfiCommon0
        CFI NoFunction
        CFI Conditional ??CrossCallReturnLabel_6
        CFI R6 load(1, XDATA, add(CFA_XSP16, literal(-22)))
        CFI VB load(1, XDATA, add(CFA_XSP16, literal(-21)))
        CFI V0 load(1, XDATA, add(CFA_XSP16, literal(-20)))
        CFI V1 load(1, XDATA, add(CFA_XSP16, literal(-19)))
        CFI V2 load(1, XDATA, add(CFA_XSP16, literal(-18)))
        CFI V3 load(1, XDATA, add(CFA_XSP16, literal(-17)))
        CFI V4 load(1, XDATA, add(CFA_XSP16, literal(-16)))
        CFI V5 load(1, XDATA, add(CFA_XSP16, literal(-15)))
        CFI V6 load(1, XDATA, add(CFA_XSP16, literal(-14)))
        CFI V7 load(1, XDATA, add(CFA_XSP16, literal(-13)))
        CFI V8 load(1, XDATA, add(CFA_XSP16, literal(-12)))
        CFI V9 load(1, XDATA, add(CFA_XSP16, literal(-11)))
        CFI V10 load(1, XDATA, add(CFA_XSP16, literal(-10)))
        CFI V11 load(1, XDATA, add(CFA_XSP16, literal(-9)))
        CFI V12 load(1, XDATA, add(CFA_XSP16, literal(-8)))
        CFI V13 load(1, XDATA, add(CFA_XSP16, literal(-7)))
        CFI R7 load(1, XDATA, add(CFA_XSP16, literal(-6)))
        CFI ?RET_LOW load(1, XDATA, add(CFA_XSP16, literal(-5)))
        CFI ?RET_HIGH load(1, XDATA, add(CFA_XSP16, literal(-4)))
        CFI ?BRET_EXT load(1, XDATA, add(CFA_XSP16, literal(-3)))
        CFI DPL0 load(1, XDATA, add(CFA_XSP16, literal(-2)))
        CFI DPH0 load(1, XDATA, add(CFA_XSP16, literal(-1)))
        CFI CFA_SP SP+0
        CFI CFA_XSP16 add(XSP16, 37)
        CFI Block cfiCond104 Using cfiCommon0
        CFI (cfiCond104) NoFunction
        CFI (cfiCond104) Conditional ??CrossCallReturnLabel_7
        CFI (cfiCond104) R6 load(1, XDATA, add(CFA_XSP16, literal(-18)))
        CFI (cfiCond104) VB load(1, XDATA, add(CFA_XSP16, literal(-17)))
        CFI (cfiCond104) V0 load(1, XDATA, add(CFA_XSP16, literal(-16)))
        CFI (cfiCond104) V1 load(1, XDATA, add(CFA_XSP16, literal(-15)))
        CFI (cfiCond104) V2 load(1, XDATA, add(CFA_XSP16, literal(-14)))
        CFI (cfiCond104) V3 load(1, XDATA, add(CFA_XSP16, literal(-13)))
        CFI (cfiCond104) V4 load(1, XDATA, add(CFA_XSP16, literal(-12)))
        CFI (cfiCond104) V5 load(1, XDATA, add(CFA_XSP16, literal(-11)))
        CFI (cfiCond104) V6 load(1, XDATA, add(CFA_XSP16, literal(-10)))
        CFI (cfiCond104) V7 load(1, XDATA, add(CFA_XSP16, literal(-9)))
        CFI (cfiCond104) V8 load(1, XDATA, add(CFA_XSP16, literal(-8)))
        CFI (cfiCond104) V9 load(1, XDATA, add(CFA_XSP16, literal(-7)))
        CFI (cfiCond104) R7 load(1, XDATA, add(CFA_XSP16, literal(-6)))
        CFI (cfiCond104) ?RET_LOW load(1, XDATA, add(CFA_XSP16, literal(-5)))
        CFI (cfiCond104) ?RET_HIGH load(1, XDATA, add(CFA_XSP16, literal(-4)))
        CFI (cfiCond104) ?BRET_EXT load(1, XDATA, add(CFA_XSP16, literal(-3)))
        CFI (cfiCond104) DPL0 load(1, XDATA, add(CFA_XSP16, literal(-2)))
        CFI (cfiCond104) DPH0 load(1, XDATA, add(CFA_XSP16, literal(-1)))
        CFI (cfiCond104) CFA_SP SP+0
        CFI (cfiCond104) CFA_XSP16 add(XSP16, 40)
        CFI Block cfiPicker105 Using cfiCommon1
        CFI (cfiPicker105) NoFunction
        CFI (cfiPicker105) Picker
        CLR     A
        MOVX    @DPTR,A
        INC     DPTR
        MOVX    @DPTR,A
        ; Setup parameters for call to function HalFlashWrite
        ; Setup parameters for call to function HalFlashWrite
        MOV     ?V0 + 0,#0x1
        MOV     ?V0 + 1,A
        MOV     R0,#?V0 + 0
        RET
        CFI EndBlock cfiCond103
        CFI EndBlock cfiCond104
        CFI EndBlock cfiPicker105
//  772 
//  773 /*********************************************************************
//  774  * @fn      setItem
//  775  *
//  776  * @brief   Set an item Id or status to mark its state.
//  777  *
//  778  * @param   pg - Valid NV page.
//  779  * @param   offset - Valid offset into the page of the item data - the header
//  780  *                   offset is calculated from this.
//  781  * @param   stat - Valid enum value for the item status.
//  782  *
//  783  * @return  none
//  784  */

        RSEG BANKED_CODE:CODE:NOROOT(0)
//  785 static void setItem( uint8 pg, uint16 offset, eNvHdrEnum stat )
setItem:
        CFI Block cfiBlock106 Using cfiCommon0
        CFI Function setItem
        CODE
//  786 {
        FUNCALL setItem, HalFlashRead
        LOCFRAME ISTACK, 0, STACK
        LOCFRAME PSTACK, 0, STACK
        LOCFRAME XSTACK, 24, STACK
        LOCFRAME IOVERLAY, 0, STATIC
        LOCFRAME DOVERLAY, 0, STATIC
        ARGFRAME ISTACK, 0, STACK
        ARGFRAME PSTACK, 0, STACK
        ARGFRAME XSTACK, 24, STACK
        ARGFRAME IOVERLAY, 0, STATIC
        ARGFRAME DOVERLAY, 0, STATIC
        FUNCALL setItem, HalFlashWrite
        LOCFRAME ISTACK, 0, STACK
        LOCFRAME PSTACK, 0, STACK
        LOCFRAME XSTACK, 24, STACK
        LOCFRAME IOVERLAY, 0, STATIC
        LOCFRAME DOVERLAY, 0, STATIC
        ARGFRAME ISTACK, 0, STACK
        ARGFRAME PSTACK, 0, STACK
        ARGFRAME XSTACK, 24, STACK
        ARGFRAME IOVERLAY, 0, STATIC
        ARGFRAME DOVERLAY, 0, STATIC
        FUNCALL setItem, HalFlashWrite
        LOCFRAME ISTACK, 0, STACK
        LOCFRAME PSTACK, 0, STACK
        LOCFRAME XSTACK, 24, STACK
        LOCFRAME IOVERLAY, 0, STATIC
        LOCFRAME DOVERLAY, 0, STATIC
        ARGFRAME ISTACK, 0, STACK
        ARGFRAME PSTACK, 0, STACK
        ARGFRAME XSTACK, 24, STACK
        ARGFRAME IOVERLAY, 0, STATIC
        ARGFRAME DOVERLAY, 0, STATIC
        MOV     A,#-0xe
        LCALL   ?BANKED_ENTER_XDATA
        CFI DPH0 load(1, XDATA, add(CFA_XSP16, literal(-1)))
        CFI DPL0 load(1, XDATA, add(CFA_XSP16, literal(-2)))
        CFI ?BRET_EXT load(1, XDATA, add(CFA_XSP16, literal(-3)))
        CFI ?RET_HIGH load(1, XDATA, add(CFA_XSP16, literal(-4)))
        CFI ?RET_LOW load(1, XDATA, add(CFA_XSP16, literal(-5)))
        CFI R7 load(1, XDATA, add(CFA_XSP16, literal(-6)))
        CFI V5 load(1, XDATA, add(CFA_XSP16, literal(-7)))
        CFI V4 load(1, XDATA, add(CFA_XSP16, literal(-8)))
        CFI V3 load(1, XDATA, add(CFA_XSP16, literal(-9)))
        CFI V2 load(1, XDATA, add(CFA_XSP16, literal(-10)))
        CFI V1 load(1, XDATA, add(CFA_XSP16, literal(-11)))
        CFI V0 load(1, XDATA, add(CFA_XSP16, literal(-12)))
        CFI VB load(1, XDATA, add(CFA_XSP16, literal(-13)))
        CFI R6 load(1, XDATA, add(CFA_XSP16, literal(-14)))
        CFI CFA_SP SP+0
        CFI CFA_XSP16 add(XSP16, 14)
        ; Saved register size: 14
        ; Auto size: 8
        MOV     A,#-0x8
        LCALL   ?ALLOC_XSTACK8
        CFI CFA_XSP16 add(XSP16, 22)
        MOV     ?V0 + 1,R1
        MOV     ?V0 + 0,R4
//  787   osalNvHdr_t hdr;
//  788 
//  789   offset -= OSAL_NV_HDR_SIZE;
        MOV     A,R2
        ADD     A,#-0x8
        MOV     ?V0 + 2,A
        MOV     A,R3
        ADDC    A,#-0x1
        MOV     ?V0 + 3,A
//  790   HalFlashRead(pg, offset, (uint8 *)(&hdr), OSAL_NV_HDR_SIZE);
        ; Setup parameters for call to function HalFlashRead
        MOV     ?V0 + 4,#0x8
        MOV     ?V0 + 5,#0x0
        MOV     R0,#?V0 + 4
        LCALL   ?PUSH_XSTACK_I_TWO
        CFI CFA_XSP16 add(XSP16, 24)
        MOV     A,#0x2
        LCALL   ?XSTACK_DISP0_8
        MOV     R4,DPL
        MOV     R5,DPH
        MOV     R2,?V0 + 2
        MOV     R3,?V0 + 3
        LCALL   ??Subroutine51_0 & 0xFFFF
??CrossCallReturnLabel_126:
        LCALL   ?DEALLOC_XSTACK8
        CFI CFA_XSP16 add(XSP16, 22)
//  791 
//  792   if ( stat == eNvXfer )
        MOV     ?V0 + 4,?V0 + 1
        MOV     A,#0x9
        MOV     R0,#?V0 + 4
        LCALL   ?S_SHL
        MOV     R3,?V0 + 5
        MOV     A,?V0 + 0
        JNZ     ??setItem_0
//  793   {
//  794     hdr.stat = OSAL_NV_ACTIVE;
        MOV     A,#0x6
        LCALL   ?XSTACK_DISP0_8
        LCALL   ?Subroutine8 & 0xFFFF
??CrossCallReturnLabel_4:
        LCALL   ?PUSH_XSTACK_I_TWO
        CFI CFA_XSP16 add(XSP16, 24)
        MOV     A,#0x6
        LCALL   ?XSTACK_DISP0_8
        MOV     R4,DPL
        MOV     R5,DPH
        LCALL   ?Subroutine35 & 0xFFFF
??CrossCallReturnLabel_65:
        MOV     A,#0x2
        MOV     R0,#?V0 + 2
        LCALL   ?US_SHR
        LCALL   ?Subroutine31 & 0xFFFF
??CrossCallReturnLabel_59:
        ADDC    A,R3
        LCALL   ??Subroutine44_0 & 0xFFFF
??CrossCallReturnLabel_86:
        LCALL   ?DEALLOC_XSTACK8
        CFI CFA_XSP16 add(XSP16, 22)
//  795     writeWord( pg, offset+OSAL_NV_HDR_CHK, (uint8*)(&(hdr.chk)) );
//  796   }
        SJMP    ??CrossCallReturnLabel_113
//  797   else // if ( stat == eNvZero )
//  798   {
//  799     uint16 sz = ((hdr.len + (OSAL_NV_WORD_SIZE-1)) / OSAL_NV_WORD_SIZE) * OSAL_NV_WORD_SIZE +
//  800                                                                           OSAL_NV_HDR_SIZE;
??setItem_0:
        MOV     A,#0x2
        LCALL   ?XSTACK_DISP0_8
        MOVX    A,@DPTR
        ADD     A,#0x3
        MOV     R0,A
        INC     DPTR
        MOVX    A,@DPTR
        LCALL   ??Subroutine52_0 & 0xFFFF
//  801     hdr.id = 0;
??CrossCallReturnLabel_137:
        MOV     DPL,?XSP + 0
        MOV     DPH,?XSP + 1
        LCALL   ?Subroutine8 & 0xFFFF
??CrossCallReturnLabel_5:
        LCALL   ?PUSH_XSTACK_I_TWO
        CFI CFA_XSP16 add(XSP16, 24)
        MOV     A,#0x2
        LCALL   ?XSTACK_DISP0_8
        MOV     R4,DPL
        MOV     R5,DPH
        MOV     A,#0x2
        MOV     R0,#?V0 + 2
        LCALL   ?US_SHR
        LCALL   ?Subroutine31 & 0xFFFF
??CrossCallReturnLabel_60:
        ADDC    A,R3
        LCALL   ??Subroutine44_0 & 0xFFFF
??CrossCallReturnLabel_87:
        LCALL   ?DEALLOC_XSTACK8
        CFI CFA_XSP16 add(XSP16, 22)
//  802     writeWord( pg, offset, (uint8 *)(&hdr) );
//  803     pgLost[pg-OSAL_NV_PAGE_BEG] += sz;
        MOV     A,?V0 + 1
        CLR     C
        RLC     A
        MOV     R0,A
        CLR     A
        RLC     A
        MOV     R1,A
        MOV     A,#(pgLost + 14) & 0xff
        ADD     A,R0
        MOV     DPL,A
        MOV     A,#((pgLost - 242) >> 8) & 0xff
        ADDC    A,R1
        LCALL   ?Subroutine17 & 0xFFFF
//  804   }
//  805 }
??CrossCallReturnLabel_113:
        MOV     A,#0x8
        LJMP    ?Subroutine0 & 0xFFFF
        CFI EndBlock cfiBlock106

        RSEG BANKED_CODE:CODE:NOROOT(0)
?Subroutine17:
        CFI Block cfiCond107 Using cfiCommon0
        CFI NoFunction
        CFI Conditional ??CrossCallReturnLabel_113
        CFI R6 load(1, XDATA, add(CFA_XSP16, literal(-14)))
        CFI VB load(1, XDATA, add(CFA_XSP16, literal(-13)))
        CFI V0 load(1, XDATA, add(CFA_XSP16, literal(-12)))
        CFI V1 load(1, XDATA, add(CFA_XSP16, literal(-11)))
        CFI V2 load(1, XDATA, add(CFA_XSP16, literal(-10)))
        CFI V3 load(1, XDATA, add(CFA_XSP16, literal(-9)))
        CFI V4 load(1, XDATA, add(CFA_XSP16, literal(-8)))
        CFI V5 load(1, XDATA, add(CFA_XSP16, literal(-7)))
        CFI R7 load(1, XDATA, add(CFA_XSP16, literal(-6)))
        CFI ?RET_LOW load(1, XDATA, add(CFA_XSP16, literal(-5)))
        CFI ?RET_HIGH load(1, XDATA, add(CFA_XSP16, literal(-4)))
        CFI ?BRET_EXT load(1, XDATA, add(CFA_XSP16, literal(-3)))
        CFI DPL0 load(1, XDATA, add(CFA_XSP16, literal(-2)))
        CFI DPH0 load(1, XDATA, add(CFA_XSP16, literal(-1)))
        CFI CFA_SP SP+0
        CFI CFA_XSP16 add(XSP16, 22)
        CFI Block cfiCond108 Using cfiCommon0
        CFI (cfiCond108) NoFunction
        CFI (cfiCond108) Conditional ??CrossCallReturnLabel_114
        CFI (cfiCond108) R6 load(1, XDATA, add(CFA_XSP16, literal(-24)))
        CFI (cfiCond108) VB load(1, XDATA, add(CFA_XSP16, literal(-23)))
        CFI (cfiCond108) V0 load(1, XDATA, add(CFA_XSP16, literal(-22)))
        CFI (cfiCond108) V1 load(1, XDATA, add(CFA_XSP16, literal(-21)))
        CFI (cfiCond108) V2 load(1, XDATA, add(CFA_XSP16, literal(-20)))
        CFI (cfiCond108) V3 load(1, XDATA, add(CFA_XSP16, literal(-19)))
        CFI (cfiCond108) V4 load(1, XDATA, add(CFA_XSP16, literal(-18)))
        CFI (cfiCond108) V5 load(1, XDATA, add(CFA_XSP16, literal(-17)))
        CFI (cfiCond108) V6 load(1, XDATA, add(CFA_XSP16, literal(-16)))
        CFI (cfiCond108) V7 load(1, XDATA, add(CFA_XSP16, literal(-15)))
        CFI (cfiCond108) V8 load(1, XDATA, add(CFA_XSP16, literal(-14)))
        CFI (cfiCond108) V9 load(1, XDATA, add(CFA_XSP16, literal(-13)))
        CFI (cfiCond108) V10 load(1, XDATA, add(CFA_XSP16, literal(-12)))
        CFI (cfiCond108) V11 load(1, XDATA, add(CFA_XSP16, literal(-11)))
        CFI (cfiCond108) V12 load(1, XDATA, add(CFA_XSP16, literal(-10)))
        CFI (cfiCond108) V13 load(1, XDATA, add(CFA_XSP16, literal(-9)))
        CFI (cfiCond108) V14 load(1, XDATA, add(CFA_XSP16, literal(-8)))
        CFI (cfiCond108) V15 load(1, XDATA, add(CFA_XSP16, literal(-7)))
        CFI (cfiCond108) R7 load(1, XDATA, add(CFA_XSP16, literal(-6)))
        CFI (cfiCond108) ?RET_LOW load(1, XDATA, add(CFA_XSP16, literal(-5)))
        CFI (cfiCond108) ?RET_HIGH load(1, XDATA, add(CFA_XSP16, literal(-4)))
        CFI (cfiCond108) ?BRET_EXT load(1, XDATA, add(CFA_XSP16, literal(-3)))
        CFI (cfiCond108) DPL0 load(1, XDATA, add(CFA_XSP16, literal(-2)))
        CFI (cfiCond108) DPH0 load(1, XDATA, add(CFA_XSP16, literal(-1)))
        CFI (cfiCond108) CFA_SP SP+0
        CFI (cfiCond108) CFA_XSP16 add(XSP16, 40)
        CFI Block cfiPicker109 Using cfiCommon1
        CFI (cfiPicker109) NoFunction
        CFI (cfiPicker109) Picker
        MOV     DPH,A
        CFI EndBlock cfiCond107
        CFI EndBlock cfiCond108
        CFI EndBlock cfiPicker109
        REQUIRE ??Subroutine49_0
        ; // Fall through to label ??Subroutine49_0

        RSEG BANKED_CODE:CODE:NOROOT(0)
??Subroutine49_0:
        CFI Block cfiCond110 Using cfiCommon0
        CFI NoFunction
        CFI Conditional ??CrossCallReturnLabel_112
        CFI R6 load(1, XDATA, add(CFA_XSP16, literal(-24)))
        CFI VB load(1, XDATA, add(CFA_XSP16, literal(-23)))
        CFI V0 load(1, XDATA, add(CFA_XSP16, literal(-22)))
        CFI V1 load(1, XDATA, add(CFA_XSP16, literal(-21)))
        CFI V2 load(1, XDATA, add(CFA_XSP16, literal(-20)))
        CFI V3 load(1, XDATA, add(CFA_XSP16, literal(-19)))
        CFI V4 load(1, XDATA, add(CFA_XSP16, literal(-18)))
        CFI V5 load(1, XDATA, add(CFA_XSP16, literal(-17)))
        CFI V6 load(1, XDATA, add(CFA_XSP16, literal(-16)))
        CFI V7 load(1, XDATA, add(CFA_XSP16, literal(-15)))
        CFI V8 load(1, XDATA, add(CFA_XSP16, literal(-14)))
        CFI V9 load(1, XDATA, add(CFA_XSP16, literal(-13)))
        CFI V10 load(1, XDATA, add(CFA_XSP16, literal(-12)))
        CFI V11 load(1, XDATA, add(CFA_XSP16, literal(-11)))
        CFI V12 load(1, XDATA, add(CFA_XSP16, literal(-10)))
        CFI V13 load(1, XDATA, add(CFA_XSP16, literal(-9)))
        CFI V14 load(1, XDATA, add(CFA_XSP16, literal(-8)))
        CFI V15 load(1, XDATA, add(CFA_XSP16, literal(-7)))
        CFI R7 load(1, XDATA, add(CFA_XSP16, literal(-6)))
        CFI ?RET_LOW load(1, XDATA, add(CFA_XSP16, literal(-5)))
        CFI ?RET_HIGH load(1, XDATA, add(CFA_XSP16, literal(-4)))
        CFI ?BRET_EXT load(1, XDATA, add(CFA_XSP16, literal(-3)))
        CFI DPL0 load(1, XDATA, add(CFA_XSP16, literal(-2)))
        CFI DPH0 load(1, XDATA, add(CFA_XSP16, literal(-1)))
        CFI CFA_SP SP+0
        CFI CFA_XSP16 add(XSP16, 40)
        CFI Block cfiCond111 Using cfiCommon0
        CFI (cfiCond111) NoFunction
        CFI (cfiCond111) Conditional ??CrossCallReturnLabel_113
        CFI (cfiCond111) R6 load(1, XDATA, add(CFA_XSP16, literal(-14)))
        CFI (cfiCond111) VB load(1, XDATA, add(CFA_XSP16, literal(-13)))
        CFI (cfiCond111) V0 load(1, XDATA, add(CFA_XSP16, literal(-12)))
        CFI (cfiCond111) V1 load(1, XDATA, add(CFA_XSP16, literal(-11)))
        CFI (cfiCond111) V2 load(1, XDATA, add(CFA_XSP16, literal(-10)))
        CFI (cfiCond111) V3 load(1, XDATA, add(CFA_XSP16, literal(-9)))
        CFI (cfiCond111) V4 load(1, XDATA, add(CFA_XSP16, literal(-8)))
        CFI (cfiCond111) V5 load(1, XDATA, add(CFA_XSP16, literal(-7)))
        CFI (cfiCond111) R7 load(1, XDATA, add(CFA_XSP16, literal(-6)))
        CFI (cfiCond111) ?RET_LOW load(1, XDATA, add(CFA_XSP16, literal(-5)))
        CFI (cfiCond111) ?RET_HIGH load(1, XDATA, add(CFA_XSP16, literal(-4)))
        CFI (cfiCond111) ?BRET_EXT load(1, XDATA, add(CFA_XSP16, literal(-3)))
        CFI (cfiCond111) DPL0 load(1, XDATA, add(CFA_XSP16, literal(-2)))
        CFI (cfiCond111) DPH0 load(1, XDATA, add(CFA_XSP16, literal(-1)))
        CFI (cfiCond111) CFA_SP SP+0
        CFI (cfiCond111) CFA_XSP16 add(XSP16, 22)
        CFI Block cfiCond112 Using cfiCommon0
        CFI (cfiCond112) NoFunction
        CFI (cfiCond112) Conditional ??CrossCallReturnLabel_114
        CFI (cfiCond112) R6 load(1, XDATA, add(CFA_XSP16, literal(-24)))
        CFI (cfiCond112) VB load(1, XDATA, add(CFA_XSP16, literal(-23)))
        CFI (cfiCond112) V0 load(1, XDATA, add(CFA_XSP16, literal(-22)))
        CFI (cfiCond112) V1 load(1, XDATA, add(CFA_XSP16, literal(-21)))
        CFI (cfiCond112) V2 load(1, XDATA, add(CFA_XSP16, literal(-20)))
        CFI (cfiCond112) V3 load(1, XDATA, add(CFA_XSP16, literal(-19)))
        CFI (cfiCond112) V4 load(1, XDATA, add(CFA_XSP16, literal(-18)))
        CFI (cfiCond112) V5 load(1, XDATA, add(CFA_XSP16, literal(-17)))
        CFI (cfiCond112) V6 load(1, XDATA, add(CFA_XSP16, literal(-16)))
        CFI (cfiCond112) V7 load(1, XDATA, add(CFA_XSP16, literal(-15)))
        CFI (cfiCond112) V8 load(1, XDATA, add(CFA_XSP16, literal(-14)))
        CFI (cfiCond112) V9 load(1, XDATA, add(CFA_XSP16, literal(-13)))
        CFI (cfiCond112) V10 load(1, XDATA, add(CFA_XSP16, literal(-12)))
        CFI (cfiCond112) V11 load(1, XDATA, add(CFA_XSP16, literal(-11)))
        CFI (cfiCond112) V12 load(1, XDATA, add(CFA_XSP16, literal(-10)))
        CFI (cfiCond112) V13 load(1, XDATA, add(CFA_XSP16, literal(-9)))
        CFI (cfiCond112) V14 load(1, XDATA, add(CFA_XSP16, literal(-8)))
        CFI (cfiCond112) V15 load(1, XDATA, add(CFA_XSP16, literal(-7)))
        CFI (cfiCond112) R7 load(1, XDATA, add(CFA_XSP16, literal(-6)))
        CFI (cfiCond112) ?RET_LOW load(1, XDATA, add(CFA_XSP16, literal(-5)))
        CFI (cfiCond112) ?RET_HIGH load(1, XDATA, add(CFA_XSP16, literal(-4)))
        CFI (cfiCond112) ?BRET_EXT load(1, XDATA, add(CFA_XSP16, literal(-3)))
        CFI (cfiCond112) DPL0 load(1, XDATA, add(CFA_XSP16, literal(-2)))
        CFI (cfiCond112) DPH0 load(1, XDATA, add(CFA_XSP16, literal(-1)))
        CFI (cfiCond112) CFA_SP SP+0
        CFI (cfiCond112) CFA_XSP16 add(XSP16, 40)
        CFI Block cfiPicker113 Using cfiCommon1
        CFI (cfiPicker113) NoFunction
        CFI (cfiPicker113) Picker
        MOVX    A,@DPTR
        ADD     A,R6
        MOVX    @DPTR,A
        INC     DPTR
        MOVX    A,@DPTR
        ADDC    A,R7
        MOVX    @DPTR,A
        RET
        CFI EndBlock cfiCond110
        CFI EndBlock cfiCond111
        CFI EndBlock cfiCond112
        CFI EndBlock cfiPicker113

        RSEG BANKED_CODE:CODE:NOROOT(0)
?Subroutine8:
        CFI Block cfiCond114 Using cfiCommon0
        CFI NoFunction
        CFI Conditional ??CrossCallReturnLabel_4
        CFI R6 load(1, XDATA, add(CFA_XSP16, literal(-14)))
        CFI VB load(1, XDATA, add(CFA_XSP16, literal(-13)))
        CFI V0 load(1, XDATA, add(CFA_XSP16, literal(-12)))
        CFI V1 load(1, XDATA, add(CFA_XSP16, literal(-11)))
        CFI V2 load(1, XDATA, add(CFA_XSP16, literal(-10)))
        CFI V3 load(1, XDATA, add(CFA_XSP16, literal(-9)))
        CFI V4 load(1, XDATA, add(CFA_XSP16, literal(-8)))
        CFI V5 load(1, XDATA, add(CFA_XSP16, literal(-7)))
        CFI R7 load(1, XDATA, add(CFA_XSP16, literal(-6)))
        CFI ?RET_LOW load(1, XDATA, add(CFA_XSP16, literal(-5)))
        CFI ?RET_HIGH load(1, XDATA, add(CFA_XSP16, literal(-4)))
        CFI ?BRET_EXT load(1, XDATA, add(CFA_XSP16, literal(-3)))
        CFI DPL0 load(1, XDATA, add(CFA_XSP16, literal(-2)))
        CFI DPH0 load(1, XDATA, add(CFA_XSP16, literal(-1)))
        CFI CFA_SP SP+0
        CFI CFA_XSP16 add(XSP16, 22)
        CFI Block cfiCond115 Using cfiCommon0
        CFI (cfiCond115) NoFunction
        CFI (cfiCond115) Conditional ??CrossCallReturnLabel_5
        CFI (cfiCond115) R6 load(1, XDATA, add(CFA_XSP16, literal(-14)))
        CFI (cfiCond115) VB load(1, XDATA, add(CFA_XSP16, literal(-13)))
        CFI (cfiCond115) V0 load(1, XDATA, add(CFA_XSP16, literal(-12)))
        CFI (cfiCond115) V1 load(1, XDATA, add(CFA_XSP16, literal(-11)))
        CFI (cfiCond115) V2 load(1, XDATA, add(CFA_XSP16, literal(-10)))
        CFI (cfiCond115) V3 load(1, XDATA, add(CFA_XSP16, literal(-9)))
        CFI (cfiCond115) V4 load(1, XDATA, add(CFA_XSP16, literal(-8)))
        CFI (cfiCond115) V5 load(1, XDATA, add(CFA_XSP16, literal(-7)))
        CFI (cfiCond115) R7 load(1, XDATA, add(CFA_XSP16, literal(-6)))
        CFI (cfiCond115) ?RET_LOW load(1, XDATA, add(CFA_XSP16, literal(-5)))
        CFI (cfiCond115) ?RET_HIGH load(1, XDATA, add(CFA_XSP16, literal(-4)))
        CFI (cfiCond115) ?BRET_EXT load(1, XDATA, add(CFA_XSP16, literal(-3)))
        CFI (cfiCond115) DPL0 load(1, XDATA, add(CFA_XSP16, literal(-2)))
        CFI (cfiCond115) DPH0 load(1, XDATA, add(CFA_XSP16, literal(-1)))
        CFI (cfiCond115) CFA_SP SP+0
        CFI (cfiCond115) CFA_XSP16 add(XSP16, 22)
        CFI Block cfiPicker116 Using cfiCommon1
        CFI (cfiPicker116) NoFunction
        CFI (cfiPicker116) Picker
        CLR     A
        MOVX    @DPTR,A
        INC     DPTR
        MOVX    @DPTR,A
        ; Setup parameters for call to function HalFlashWrite
        ; Setup parameters for call to function HalFlashWrite
        MOV     ?V0 + 4,#0x1
        MOV     ?V0 + 5,A
        MOV     R0,#?V0 + 4
        RET
        CFI EndBlock cfiCond114
        CFI EndBlock cfiCond115
        CFI EndBlock cfiPicker116
//  806 
//  807 /*********************************************************************
//  808  * @fn      setChk
//  809  *
//  810  * @brief   Set the item header checksum given the data buffer offset.
//  811  *
//  812  * @param   pg - Valid NV page.
//  813  * @param   offset - Valid offset into the page of the item data - the header
//  814  *                   offset is calculated from this.
//  815  * @param   chk - The checksum to set.
//  816  *
//  817  * @return  The checksum read back.
//  818  */
//  819 static uint16 setChk( uint8 pg, uint16 offset, uint16 chk )
//  820 {
//  821   offset -= OSAL_NV_WORD_SIZE;
//  822   writeWordH( pg, offset, (uint8 *)&chk );
//  823   HalFlashRead( pg, offset, (uint8 *)(&chk), sizeof( chk ) );
//  824 
//  825   return chk;
//  826 }
//  827 
//  828 /*********************************************************************
//  829  * @fn      calcChkB
//  830  *
//  831  * @brief   Calculates the data checksum over the 'buf' parameter.
//  832  *
//  833  * @param   len - Byte count of the data to be checksummed.
//  834  * @param   buf - Data buffer to be checksummed.
//  835  *
//  836  * @return  Calculated checksum of the data bytes.
//  837  */
//  838 static uint16 calcChkB( uint16 len, uint8 *buf )
//  839 {
//  840   uint8 fill = len % OSAL_NV_WORD_SIZE;
//  841   uint16 chk;
//  842 
//  843   if ( !buf )
//  844   {
//  845     chk = len * OSAL_NV_ERASED;
//  846   }
//  847   else
//  848   {
//  849     chk = 0;
//  850     while ( len-- )
//  851     {
//  852       chk += *buf++;
//  853     }
//  854   }
//  855 
//  856   // calcChkF() will calculate over OSAL_NV_WORD_SIZE alignment.
//  857   if ( fill )
//  858   {
//  859     chk += (OSAL_NV_WORD_SIZE - fill) * OSAL_NV_ERASED;
//  860   }
//  861 
//  862   return chk;
//  863 }
//  864 
//  865 /*********************************************************************
//  866  * @fn      calcChkF
//  867  *
//  868  * @brief   Calculates the data checksum by reading the data bytes from NV.
//  869  *
//  870  * @param   pg - A valid NV Flash page.
//  871  * @param   offset - A valid offset into the page.
//  872  * @param   len - Byte count of the data to be checksummed.
//  873  *
//  874  * @return  Calculated checksum of the data bytes.
//  875  */

        RSEG BANKED_CODE:CODE:NOROOT(0)
//  876 static uint16 calcChkF( uint8 pg, uint16 offset, uint16 len )
calcChkF:
        CFI Block cfiBlock117 Using cfiCommon0
        CFI Function calcChkF
        CODE
//  877 {
        FUNCALL calcChkF, HalFlashRead
        LOCFRAME ISTACK, 0, STACK
        LOCFRAME PSTACK, 0, STACK
        LOCFRAME XSTACK, 22, STACK
        LOCFRAME IOVERLAY, 0, STATIC
        LOCFRAME DOVERLAY, 0, STATIC
        ARGFRAME ISTACK, 0, STACK
        ARGFRAME PSTACK, 0, STACK
        ARGFRAME XSTACK, 22, STACK
        ARGFRAME IOVERLAY, 0, STATIC
        ARGFRAME DOVERLAY, 0, STATIC
        MOV     A,#-0x10
        LCALL   ?BANKED_ENTER_XDATA
        CFI DPH0 load(1, XDATA, add(CFA_XSP16, literal(-1)))
        CFI DPL0 load(1, XDATA, add(CFA_XSP16, literal(-2)))
        CFI ?BRET_EXT load(1, XDATA, add(CFA_XSP16, literal(-3)))
        CFI ?RET_HIGH load(1, XDATA, add(CFA_XSP16, literal(-4)))
        CFI ?RET_LOW load(1, XDATA, add(CFA_XSP16, literal(-5)))
        CFI R7 load(1, XDATA, add(CFA_XSP16, literal(-6)))
        CFI V7 load(1, XDATA, add(CFA_XSP16, literal(-7)))
        CFI V6 load(1, XDATA, add(CFA_XSP16, literal(-8)))
        CFI V5 load(1, XDATA, add(CFA_XSP16, literal(-9)))
        CFI V4 load(1, XDATA, add(CFA_XSP16, literal(-10)))
        CFI V3 load(1, XDATA, add(CFA_XSP16, literal(-11)))
        CFI V2 load(1, XDATA, add(CFA_XSP16, literal(-12)))
        CFI V1 load(1, XDATA, add(CFA_XSP16, literal(-13)))
        CFI V0 load(1, XDATA, add(CFA_XSP16, literal(-14)))
        CFI VB load(1, XDATA, add(CFA_XSP16, literal(-15)))
        CFI R6 load(1, XDATA, add(CFA_XSP16, literal(-16)))
        CFI CFA_SP SP+0
        CFI CFA_XSP16 add(XSP16, 16)
        ; Saved register size: 16
        ; Auto size: 4
        MOV     A,#-0x4
        LCALL   ?ALLOC_XSTACK8
        CFI CFA_XSP16 add(XSP16, 20)
        MOV     ?V0 + 4,R1
        MOV     ?V0 + 2,R2
        MOV     ?V0 + 3,R3
        MOV     A,R4
        MOV     R6,A
        MOV     A,R5
        MOV     R7,A
//  878   uint16 chk = 0;
        MOV     ?V0 + 0,#0x0
        MOV     ?V0 + 1,#0x0
//  879 
//  880   len = (len + (OSAL_NV_WORD_SIZE-1)) / OSAL_NV_WORD_SIZE;
        MOV     A,R6
        ADD     A,#0x3
        MOV     ?V0 + 6,A
        MOV     A,R7
        ADDC    A,#0x0
        MOV     ?V0 + 7,A
        MOV     A,#0x2
        MOV     R0,#?V0 + 6
        LCALL   ?US_SHR
        MOV     R6,?V0 + 6
        MOV     R7,?V0 + 7
        MOV     A,R6
        ORL     A,R7
        JZ      ??calcChkF_0
??calcChkF_1:
        MOV     A,R6
        ADD     A,#-0x1
        DEC     R6
        MOV     A,R7
        ADDC    A,#-0x1
        MOV     R7,A
//  881 
//  882   while ( len-- )
//  883   {
//  884     uint8 cnt, tmp[OSAL_NV_WORD_SIZE];
//  885 
//  886     HalFlashRead(pg, offset, tmp, OSAL_NV_WORD_SIZE);
        ; Setup parameters for call to function HalFlashRead
        MOV     ?V0 + 6,#0x4
        MOV     ?V0 + 7,#0x0
        MOV     R0,#?V0 + 6
        LCALL   ?PUSH_XSTACK_I_TWO
        CFI CFA_XSP16 add(XSP16, 22)
        MOV     A,#0x2
        LCALL   ?XSTACK_DISP0_8
        MOV     R4,DPL
        MOV     R5,DPH
        MOV     R2,?V0 + 2
        MOV     R3,?V0 + 3
        MOV     R1,?V0 + 4
        LCALL   ??Subroutine51_0 & 0xFFFF
??CrossCallReturnLabel_127:
        LCALL   ?DEALLOC_XSTACK8
        CFI CFA_XSP16 add(XSP16, 20)
//  887     offset += OSAL_NV_WORD_SIZE;
        LCALL   ?Subroutine35 & 0xFFFF
//  888 
//  889     for ( cnt = 0; cnt < OSAL_NV_WORD_SIZE; cnt++ )
??CrossCallReturnLabel_66:
        MOV     DPL,?XSP + 0
        MOV     DPH,?XSP + 1
        MOV     R0,DPL
        MOV     R1,DPH
//  890     {
//  891       chk += tmp[cnt];
??calcChkF_2:
        MOV     DPL,R0
        MOV     DPH,R1
        MOVX    A,@DPTR
        MOV     R2,A
        MOV     A,?V0 + 0
        ADD     A,R2
        MOV     ?V0 + 0,A
        MOV     A,?V0 + 1
        ADDC    A,#0x0
        MOV     ?V0 + 1,A
//  892     }
        INC     DPTR
        MOV     R0,DPL
        MOV     R1,DPH
        MOV     A,#0x4
        LCALL   ?XSTACK_DISP0_8
        MOV     A,DPL
        XRL     A,R0
        JNZ     ??calcChkF_3
        MOV     A,DPH
        XRL     A,R1
??calcChkF_3:
        JNZ     ??calcChkF_2
        MOV     A,R6
        ORL     A,R7
        JNZ     ??calcChkF_1
//  893   }
//  894 
//  895   return chk;
??calcChkF_0:
        MOV     R2,?V0 + 0
        MOV     R3,?V0 + 1
        MOV     A,#0x4
        LCALL   ?DEALLOC_XSTACK8
        CFI CFA_XSP16 add(XSP16, 16)
        MOV     R7,#0x8
        LJMP    ?BANKED_LEAVE_XDATA
        CFI EndBlock cfiBlock117
//  896 }

        RSEG BANKED_CODE:CODE:NOROOT(0)
?Subroutine35:
        CFI Block cfiCond118 Using cfiCommon0
        CFI NoFunction
        CFI Conditional ??CrossCallReturnLabel_65
        CFI R6 load(1, XDATA, add(CFA_XSP16, literal(-14)))
        CFI VB load(1, XDATA, add(CFA_XSP16, literal(-13)))
        CFI V0 load(1, XDATA, add(CFA_XSP16, literal(-12)))
        CFI V1 load(1, XDATA, add(CFA_XSP16, literal(-11)))
        CFI V2 load(1, XDATA, add(CFA_XSP16, literal(-10)))
        CFI V3 load(1, XDATA, add(CFA_XSP16, literal(-9)))
        CFI V4 load(1, XDATA, add(CFA_XSP16, literal(-8)))
        CFI V5 load(1, XDATA, add(CFA_XSP16, literal(-7)))
        CFI R7 load(1, XDATA, add(CFA_XSP16, literal(-6)))
        CFI ?RET_LOW load(1, XDATA, add(CFA_XSP16, literal(-5)))
        CFI ?RET_HIGH load(1, XDATA, add(CFA_XSP16, literal(-4)))
        CFI ?BRET_EXT load(1, XDATA, add(CFA_XSP16, literal(-3)))
        CFI DPL0 load(1, XDATA, add(CFA_XSP16, literal(-2)))
        CFI DPH0 load(1, XDATA, add(CFA_XSP16, literal(-1)))
        CFI CFA_SP SP+0
        CFI CFA_XSP16 add(XSP16, 24)
        CFI Block cfiCond119 Using cfiCommon0
        CFI (cfiCond119) NoFunction
        CFI (cfiCond119) Conditional ??CrossCallReturnLabel_66
        CFI (cfiCond119) R6 load(1, XDATA, add(CFA_XSP16, literal(-16)))
        CFI (cfiCond119) VB load(1, XDATA, add(CFA_XSP16, literal(-15)))
        CFI (cfiCond119) V0 load(1, XDATA, add(CFA_XSP16, literal(-14)))
        CFI (cfiCond119) V1 load(1, XDATA, add(CFA_XSP16, literal(-13)))
        CFI (cfiCond119) V2 load(1, XDATA, add(CFA_XSP16, literal(-12)))
        CFI (cfiCond119) V3 load(1, XDATA, add(CFA_XSP16, literal(-11)))
        CFI (cfiCond119) V4 load(1, XDATA, add(CFA_XSP16, literal(-10)))
        CFI (cfiCond119) V5 load(1, XDATA, add(CFA_XSP16, literal(-9)))
        CFI (cfiCond119) V6 load(1, XDATA, add(CFA_XSP16, literal(-8)))
        CFI (cfiCond119) V7 load(1, XDATA, add(CFA_XSP16, literal(-7)))
        CFI (cfiCond119) R7 load(1, XDATA, add(CFA_XSP16, literal(-6)))
        CFI (cfiCond119) ?RET_LOW load(1, XDATA, add(CFA_XSP16, literal(-5)))
        CFI (cfiCond119) ?RET_HIGH load(1, XDATA, add(CFA_XSP16, literal(-4)))
        CFI (cfiCond119) ?BRET_EXT load(1, XDATA, add(CFA_XSP16, literal(-3)))
        CFI (cfiCond119) DPL0 load(1, XDATA, add(CFA_XSP16, literal(-2)))
        CFI (cfiCond119) DPH0 load(1, XDATA, add(CFA_XSP16, literal(-1)))
        CFI (cfiCond119) CFA_SP SP+0
        CFI (cfiCond119) CFA_XSP16 add(XSP16, 20)
        CFI Block cfiCond120 Using cfiCommon0
        CFI (cfiCond120) NoFunction
        CFI (cfiCond120) Conditional ??CrossCallReturnLabel_67
        CFI (cfiCond120) R6 load(1, XDATA, add(CFA_XSP16, literal(-18)))
        CFI (cfiCond120) VB load(1, XDATA, add(CFA_XSP16, literal(-17)))
        CFI (cfiCond120) V0 load(1, XDATA, add(CFA_XSP16, literal(-16)))
        CFI (cfiCond120) V1 load(1, XDATA, add(CFA_XSP16, literal(-15)))
        CFI (cfiCond120) V2 load(1, XDATA, add(CFA_XSP16, literal(-14)))
        CFI (cfiCond120) V3 load(1, XDATA, add(CFA_XSP16, literal(-13)))
        CFI (cfiCond120) V4 load(1, XDATA, add(CFA_XSP16, literal(-12)))
        CFI (cfiCond120) V5 load(1, XDATA, add(CFA_XSP16, literal(-11)))
        CFI (cfiCond120) V6 load(1, XDATA, add(CFA_XSP16, literal(-10)))
        CFI (cfiCond120) V7 load(1, XDATA, add(CFA_XSP16, literal(-9)))
        CFI (cfiCond120) V8 load(1, XDATA, add(CFA_XSP16, literal(-8)))
        CFI (cfiCond120) V9 load(1, XDATA, add(CFA_XSP16, literal(-7)))
        CFI (cfiCond120) R7 load(1, XDATA, add(CFA_XSP16, literal(-6)))
        CFI (cfiCond120) ?RET_LOW load(1, XDATA, add(CFA_XSP16, literal(-5)))
        CFI (cfiCond120) ?RET_HIGH load(1, XDATA, add(CFA_XSP16, literal(-4)))
        CFI (cfiCond120) ?BRET_EXT load(1, XDATA, add(CFA_XSP16, literal(-3)))
        CFI (cfiCond120) DPL0 load(1, XDATA, add(CFA_XSP16, literal(-2)))
        CFI (cfiCond120) DPH0 load(1, XDATA, add(CFA_XSP16, literal(-1)))
        CFI (cfiCond120) CFA_SP SP+0
        CFI (cfiCond120) CFA_XSP16 add(XSP16, 22)
        CFI Block cfiPicker121 Using cfiCommon1
        CFI (cfiPicker121) NoFunction
        CFI (cfiPicker121) Picker
        MOV     A,?V0 + 2
        ADD     A,#0x4
        MOV     ?V0 + 2,A
        MOV     A,?V0 + 3
        ADDC    A,#0x0
        MOV     ?V0 + 3,A
        RET
        CFI EndBlock cfiCond118
        CFI EndBlock cfiCond119
        CFI EndBlock cfiCond120
        CFI EndBlock cfiPicker121
//  897 
//  898 /*********************************************************************
//  899  * @fn      writeWord
//  900  *
//  901  * @brief   Writes a Flash-WORD to NV.
//  902  *
//  903  * @param   pg - A valid NV Flash page.
//  904  * @param   offset - A valid offset into the page.
//  905  * @param   buf - Pointer to source buffer.
//  906  *
//  907  * @return  none
//  908  */
//  909 static void writeWord( uint8 pg, uint16 offset, uint8 *buf )
//  910 {
//  911   offset = (offset / HAL_FLASH_WORD_SIZE) +
//  912           ((uint16)pg * (HAL_FLASH_PAGE_SIZE / HAL_FLASH_WORD_SIZE));
//  913 
//  914   HalFlashWrite(offset, buf, 1);
//  915 }
//  916 
//  917 /*********************************************************************
//  918  * @fn      writeWordM
//  919  *
//  920  * @brief   Writes multiple Flash-WORDs to NV.
//  921  *
//  922  * @param   pg - A valid NV Flash page.
//  923  * @param   offset - A valid offset into the page.
//  924  * @param   buf - Pointer to source buffer.
//  925  * @param   cnt - Number of 4-byte blocks to write.
//  926  *
//  927  * @return  none
//  928  */
//  929 static void writeWordM( uint8 pg, uint16 offset, uint8 *buf, uint16 cnt )
//  930 {
//  931   offset = (offset / HAL_FLASH_WORD_SIZE) +
//  932           ((uint16)pg * (HAL_FLASH_PAGE_SIZE / HAL_FLASH_WORD_SIZE));
//  933   HalFlashWrite(offset, buf, cnt);
//  934 }
//  935 
//  936 /*********************************************************************
//  937  * @fn      writeWordH
//  938  *
//  939  * @brief   Writes the 1st half of a Flash-WORD to NV (filling 2nd half with 0xffff).
//  940  *
//  941  * @param   pg - A valid NV Flash page.
//  942  * @param   offset - A valid offset into the page.
//  943  * @param   buf - Pointer to source buffer.
//  944  *
//  945  * @return  none
//  946  */
//  947 static void writeWordH( uint8 pg, uint16 offset, uint8 *buf )
//  948 {
//  949   uint8 tmp[4];
//  950 
//  951   tmp[0] = buf[0];
//  952   tmp[1] = buf[1];
//  953   tmp[2] = OSAL_NV_ERASED;
//  954   tmp[3] = OSAL_NV_ERASED;
//  955 
//  956   writeWord( pg, offset, tmp );
//  957 }
//  958 
//  959 /*********************************************************************
//  960  * @fn      writeBuf
//  961  *
//  962  * @brief   Writes a data buffer to NV.
//  963  *
//  964  * @param   dstPg - A valid NV Flash page.
//  965  * @param   offset - A valid offset into the page.
//  966  * @param   len  - Byte count of the data to write.
//  967  * @param   buf  - The data to write.
//  968  *
//  969  * @return  TRUE if data buf checksum matches read back checksum, else FALSE.
//  970  */

        RSEG BANKED_CODE:CODE:NOROOT(0)
//  971 static void writeBuf( uint8 dstPg, uint16 dstOff, uint16 len, uint8 *buf )
writeBuf:
        CFI Block cfiBlock122 Using cfiCommon0
        CFI Function writeBuf
        CODE
//  972 {
        FUNCALL writeBuf, HalFlashRead
        LOCFRAME ISTACK, 0, STACK
        LOCFRAME PSTACK, 0, STACK
        LOCFRAME XSTACK, 24, STACK
        LOCFRAME IOVERLAY, 0, STATIC
        LOCFRAME DOVERLAY, 0, STATIC
        ARGFRAME ISTACK, 0, STACK
        ARGFRAME PSTACK, 0, STACK
        ARGFRAME XSTACK, 24, STACK
        ARGFRAME IOVERLAY, 0, STATIC
        ARGFRAME DOVERLAY, 0, STATIC
        FUNCALL writeBuf, HalFlashWrite
        LOCFRAME ISTACK, 0, STACK
        LOCFRAME PSTACK, 0, STACK
        LOCFRAME XSTACK, 24, STACK
        LOCFRAME IOVERLAY, 0, STATIC
        LOCFRAME DOVERLAY, 0, STATIC
        ARGFRAME ISTACK, 0, STACK
        ARGFRAME PSTACK, 0, STACK
        ARGFRAME XSTACK, 24, STACK
        ARGFRAME IOVERLAY, 0, STATIC
        ARGFRAME DOVERLAY, 0, STATIC
        FUNCALL writeBuf, HalFlashWrite
        LOCFRAME ISTACK, 0, STACK
        LOCFRAME PSTACK, 0, STACK
        LOCFRAME XSTACK, 24, STACK
        LOCFRAME IOVERLAY, 0, STATIC
        LOCFRAME DOVERLAY, 0, STATIC
        ARGFRAME ISTACK, 0, STACK
        ARGFRAME PSTACK, 0, STACK
        ARGFRAME XSTACK, 24, STACK
        ARGFRAME IOVERLAY, 0, STATIC
        ARGFRAME DOVERLAY, 0, STATIC
        FUNCALL writeBuf, HalFlashRead
        LOCFRAME ISTACK, 0, STACK
        LOCFRAME PSTACK, 0, STACK
        LOCFRAME XSTACK, 24, STACK
        LOCFRAME IOVERLAY, 0, STATIC
        LOCFRAME DOVERLAY, 0, STATIC
        ARGFRAME ISTACK, 0, STACK
        ARGFRAME PSTACK, 0, STACK
        ARGFRAME XSTACK, 24, STACK
        ARGFRAME IOVERLAY, 0, STATIC
        ARGFRAME DOVERLAY, 0, STATIC
        FUNCALL writeBuf, HalFlashWrite
        LOCFRAME ISTACK, 0, STACK
        LOCFRAME PSTACK, 0, STACK
        LOCFRAME XSTACK, 24, STACK
        LOCFRAME IOVERLAY, 0, STATIC
        LOCFRAME DOVERLAY, 0, STATIC
        ARGFRAME ISTACK, 0, STACK
        ARGFRAME PSTACK, 0, STACK
        ARGFRAME XSTACK, 24, STACK
        ARGFRAME IOVERLAY, 0, STATIC
        ARGFRAME DOVERLAY, 0, STATIC
        MOV     A,#-0x12
        LCALL   ?BANKED_ENTER_XDATA
        CFI DPH0 load(1, XDATA, add(CFA_XSP16, literal(-1)))
        CFI DPL0 load(1, XDATA, add(CFA_XSP16, literal(-2)))
        CFI ?BRET_EXT load(1, XDATA, add(CFA_XSP16, literal(-3)))
        CFI ?RET_HIGH load(1, XDATA, add(CFA_XSP16, literal(-4)))
        CFI ?RET_LOW load(1, XDATA, add(CFA_XSP16, literal(-5)))
        CFI R7 load(1, XDATA, add(CFA_XSP16, literal(-6)))
        CFI V9 load(1, XDATA, add(CFA_XSP16, literal(-7)))
        CFI V8 load(1, XDATA, add(CFA_XSP16, literal(-8)))
        CFI V7 load(1, XDATA, add(CFA_XSP16, literal(-9)))
        CFI V6 load(1, XDATA, add(CFA_XSP16, literal(-10)))
        CFI V5 load(1, XDATA, add(CFA_XSP16, literal(-11)))
        CFI V4 load(1, XDATA, add(CFA_XSP16, literal(-12)))
        CFI V3 load(1, XDATA, add(CFA_XSP16, literal(-13)))
        CFI V2 load(1, XDATA, add(CFA_XSP16, literal(-14)))
        CFI V1 load(1, XDATA, add(CFA_XSP16, literal(-15)))
        CFI V0 load(1, XDATA, add(CFA_XSP16, literal(-16)))
        CFI VB load(1, XDATA, add(CFA_XSP16, literal(-17)))
        CFI R6 load(1, XDATA, add(CFA_XSP16, literal(-18)))
        CFI CFA_SP SP+0
        CFI CFA_XSP16 add(XSP16, 18)
        ; Saved register size: 18
        ; Auto size: 4
        MOV     A,#-0x4
        LCALL   ?ALLOC_XSTACK8
        CFI CFA_XSP16 add(XSP16, 22)
        MOV     A,R1
        MOV     R7,A
        MOV     ?V0 + 2,R2
        MOV     ?V0 + 3,R3
        MOV     ?V0 + 4,R4
        MOV     ?V0 + 5,R5
        MOV     A,#0x16
        LCALL   ?XSTACK_DISP0_8
        MOVX    A,@DPTR
        MOV     ?V0 + 0,A
        INC     DPTR
        MOVX    A,@DPTR
        MOV     ?V0 + 1,A
//  973   uint8 rem = dstOff % OSAL_NV_WORD_SIZE;
        MOV     A,R2
        ANL     A,#0x3
        MOV     R6,A
//  974   uint8 tmp[OSAL_NV_WORD_SIZE];
//  975 
//  976   if ( rem )
        JNZ     $+5
        LJMP    ??CrossCallReturnLabel_67 & 0xFFFF
//  977   {
//  978     dstOff = (dstOff / OSAL_NV_WORD_SIZE) * OSAL_NV_WORD_SIZE;
        MOV     A,#-0x4
        ANL     A,?V0 + 2
        MOV     ?V0 + 2,A
//  979     HalFlashRead(dstPg, dstOff, tmp, OSAL_NV_WORD_SIZE);
        ; Setup parameters for call to function HalFlashRead
        MOV     ?V0 + 6,#0x4
        MOV     ?V0 + 7,#0x0
        MOV     R0,#?V0 + 6
        LCALL   ?PUSH_XSTACK_I_TWO
        CFI CFA_XSP16 add(XSP16, 24)
        MOV     A,#0x2
        LCALL   ?XSTACK_DISP0_8
        MOV     R4,DPL
        MOV     R5,DPH
        MOV     R2,?V0 + 2
        LCALL   ??Subroutine51_0 & 0xFFFF
??CrossCallReturnLabel_128:
        LCALL   ?DEALLOC_XSTACK8
        CFI CFA_XSP16 add(XSP16, 22)
        MOV     ?V0 + 6,R6
        MOV     DPL,?XSP + 0
        MOV     DPH,?XSP + 1
        MOV     A,DPL
        ADD     A,?V0 + 6
        MOV     R0,A
        MOV     A,DPH
        ADDC    A,#0x0
        MOV     R1,A
??writeBuf_0:
        MOV     A,?V0 + 4
        ORL     A,?V0 + 5
        JZ      ??writeBuf_1
//  980 
//  981     while ( (rem < OSAL_NV_WORD_SIZE) && len )
//  982     {
//  983       tmp[rem++] = *buf++;
        LCALL   ?Subroutine6 & 0xFFFF
??CrossCallReturnLabel_0:
        INC     R6
//  984       len--;
        MOV     A,?V0 + 4
        ADD     A,#-0x1
        MOV     ?V0 + 4,A
        MOV     A,?V0 + 5
        ADDC    A,#-0x1
        MOV     ?V0 + 5,A
        MOV     DPL,R0
        MOV     DPH,R1
        INC     DPTR
        MOV     R0,DPL
        MOV     R1,DPH
//  985     }
        MOV     A,R6
        CLR     C
        SUBB    A,#0x4
        JC      ??writeBuf_0
//  986 
//  987     writeWord( dstPg, dstOff, tmp );
??writeBuf_1:
        ; Setup parameters for call to function HalFlashWrite
        MOV     ?V0 + 6,#0x1
        MOV     R0,#?V0 + 6
        LCALL   ?PUSH_XSTACK_I_TWO
        CFI CFA_XSP16 add(XSP16, 24)
        MOV     A,#0x2
        LCALL   ?XSTACK_DISP0_8
        MOV     R4,DPL
        MOV     R5,DPH
        MOV     ?V0 + 6,?V0 + 2
        MOV     ?V0 + 7,?V0 + 3
        MOV     A,#0x2
        MOV     R0,#?V0 + 6
        LCALL   ?US_SHR
        MOV     ?V0 + 8,R7
        MOV     ?V0 + 9,A
        MOV     A,#0x9
        MOV     R0,#?V0 + 8
        LCALL   ?S_SHL
        LCALL   ?Subroutine27 & 0xFFFF
??CrossCallReturnLabel_82:
        LCALL   ?DEALLOC_XSTACK8
        CFI CFA_XSP16 add(XSP16, 22)
//  988     dstOff += OSAL_NV_WORD_SIZE;
        LCALL   ?Subroutine35 & 0xFFFF
//  989   }
//  990 
//  991   rem = len % OSAL_NV_WORD_SIZE;
??CrossCallReturnLabel_67:
        MOV     A,?V0 + 4
        ANL     A,#0x3
        MOV     R6,A
//  992   len /= OSAL_NV_WORD_SIZE;
        MOV     ?V0 + 6,?V0 + 4
        MOV     ?V0 + 7,?V0 + 5
        MOV     A,#0x2
        MOV     R0,#?V0 + 6
        LCALL   ?US_SHR
        MOV     ?V0 + 4,?V0 + 6
        MOV     ?V0 + 5,?V0 + 7
//  993 
//  994   if ( len )
        MOV     A,?V0 + 4
        ORL     A,?V0 + 5
        JZ      ??writeBuf_2
//  995   {
//  996     writeWordM( dstPg, dstOff, buf, len );
        ; Setup parameters for call to function HalFlashWrite
        MOV     R0,#?V0 + 4
        LCALL   ?PUSH_XSTACK_I_TWO
        CFI CFA_XSP16 add(XSP16, 24)
        MOV     R4,?V0 + 0
        MOV     R5,?V0 + 1
        MOV     ?V0 + 6,?V0 + 2
        MOV     ?V0 + 7,?V0 + 3
        MOV     A,#0x2
        MOV     R0,#?V0 + 6
        LCALL   ?US_SHR
        MOV     ?V0 + 8,R7
        MOV     ?V0 + 9,A
        MOV     A,#0x9
        MOV     R0,#?V0 + 8
        LCALL   ?S_SHL
        LCALL   ?Subroutine27 & 0xFFFF
??CrossCallReturnLabel_83:
        LCALL   ?DEALLOC_XSTACK8
        CFI CFA_XSP16 add(XSP16, 22)
//  997     dstOff += OSAL_NV_WORD_SIZE * len;
        MOV     A,#0x2
        MOV     R0,#?V0 + 4
        LCALL   ?S_SHL
        MOV     R0,?V0 + 4
        MOV     R1,?V0 + 5
        MOV     A,?V0 + 2
        ADD     A,R0
        MOV     ?V0 + 2,A
        MOV     A,?V0 + 3
        ADDC    A,R1
        MOV     ?V0 + 3,A
//  998     buf += OSAL_NV_WORD_SIZE * len;
        MOV     A,?V0 + 0
        ADD     A,R0
        MOV     ?V0 + 0,A
        MOV     A,?V0 + 1
        ADDC    A,R1
        MOV     ?V0 + 1,A
//  999   }
// 1000 
// 1001   if ( rem )
??writeBuf_2:
        MOV     A,R6
        JZ      ??writeBuf_3
// 1002   {
// 1003     uint8 idx = 0;
// 1004     HalFlashRead(dstPg, dstOff, tmp, OSAL_NV_WORD_SIZE);
        ; Setup parameters for call to function HalFlashRead
        MOV     ?V0 + 4,#0x4
        MOV     ?V0 + 5,#0x0
        MOV     R0,#?V0 + 4
        LCALL   ?PUSH_XSTACK_I_TWO
        CFI CFA_XSP16 add(XSP16, 24)
        MOV     A,#0x2
        LCALL   ?XSTACK_DISP0_8
        MOV     R4,DPL
        MOV     R5,DPH
        MOV     R2,?V0 + 2
        MOV     R3,?V0 + 3
        MOV     A,R7
        MOV     R1,A
        LCALL   ??Subroutine51_0 & 0xFFFF
??CrossCallReturnLabel_129:
        LCALL   ?DEALLOC_XSTACK8
        CFI CFA_XSP16 add(XSP16, 22)
        MOV     DPL,?XSP + 0
        MOV     DPH,?XSP + 1
        MOV     R0,DPL
        MOV     R1,DPH
// 1005     while ( rem-- )
// 1006     {
// 1007       tmp[idx++] = *buf++;
??writeBuf_4:
        LCALL   ?Subroutine6 & 0xFFFF
// 1008     }
??CrossCallReturnLabel_1:
        MOV     DPL,R0
        MOV     DPH,R1
        INC     DPTR
        MOV     R0,DPL
        MOV     R1,DPH
        DEC     R6
        MOV     A,R6
        JNZ     ??writeBuf_4
// 1009     writeWord( dstPg, dstOff, tmp );
        ; Setup parameters for call to function HalFlashWrite
        MOV     ?V0 + 0,#0x1
        MOV     ?V0 + 1,#0x0
        MOV     R0,#?V0 + 0
        LCALL   ?PUSH_XSTACK_I_TWO
        CFI CFA_XSP16 add(XSP16, 24)
        MOV     A,#0x2
        LCALL   ?XSTACK_DISP0_8
        MOV     R4,DPL
        MOV     R5,DPH
        MOV     A,#0x2
        MOV     R0,#?V0 + 2
        LCALL   ?US_SHR
        MOV     ?V0 + 0,R7
        MOV     A,#0x9
        MOV     R0,#?V0 + 0
        LCALL   ?S_SHL
        LCALL   ?Subroutine31 & 0xFFFF
??CrossCallReturnLabel_61:
        ADDC    A,?V0 + 1
        LCALL   ??Subroutine44_0 & 0xFFFF
??CrossCallReturnLabel_88:
        LCALL   ?DEALLOC_XSTACK8
        CFI CFA_XSP16 add(XSP16, 22)
// 1010   }
// 1011 }
??writeBuf_3:
        MOV     A,#0x4
        LJMP    ?Subroutine3 & 0xFFFF
        CFI EndBlock cfiBlock122

        RSEG BANKED_CODE:CODE:NOROOT(0)
?Subroutine31:
        CFI Block cfiCond123 Using cfiCommon0
        CFI NoFunction
        CFI Conditional ??CrossCallReturnLabel_59
        CFI R6 load(1, XDATA, add(CFA_XSP16, literal(-14)))
        CFI VB load(1, XDATA, add(CFA_XSP16, literal(-13)))
        CFI V0 load(1, XDATA, add(CFA_XSP16, literal(-12)))
        CFI V1 load(1, XDATA, add(CFA_XSP16, literal(-11)))
        CFI V2 load(1, XDATA, add(CFA_XSP16, literal(-10)))
        CFI V3 load(1, XDATA, add(CFA_XSP16, literal(-9)))
        CFI V4 load(1, XDATA, add(CFA_XSP16, literal(-8)))
        CFI V5 load(1, XDATA, add(CFA_XSP16, literal(-7)))
        CFI R7 load(1, XDATA, add(CFA_XSP16, literal(-6)))
        CFI ?RET_LOW load(1, XDATA, add(CFA_XSP16, literal(-5)))
        CFI ?RET_HIGH load(1, XDATA, add(CFA_XSP16, literal(-4)))
        CFI ?BRET_EXT load(1, XDATA, add(CFA_XSP16, literal(-3)))
        CFI DPL0 load(1, XDATA, add(CFA_XSP16, literal(-2)))
        CFI DPH0 load(1, XDATA, add(CFA_XSP16, literal(-1)))
        CFI CFA_SP SP+0
        CFI CFA_XSP16 add(XSP16, 24)
        CFI Block cfiCond124 Using cfiCommon0
        CFI (cfiCond124) NoFunction
        CFI (cfiCond124) Conditional ??CrossCallReturnLabel_60
        CFI (cfiCond124) R6 load(1, XDATA, add(CFA_XSP16, literal(-14)))
        CFI (cfiCond124) VB load(1, XDATA, add(CFA_XSP16, literal(-13)))
        CFI (cfiCond124) V0 load(1, XDATA, add(CFA_XSP16, literal(-12)))
        CFI (cfiCond124) V1 load(1, XDATA, add(CFA_XSP16, literal(-11)))
        CFI (cfiCond124) V2 load(1, XDATA, add(CFA_XSP16, literal(-10)))
        CFI (cfiCond124) V3 load(1, XDATA, add(CFA_XSP16, literal(-9)))
        CFI (cfiCond124) V4 load(1, XDATA, add(CFA_XSP16, literal(-8)))
        CFI (cfiCond124) V5 load(1, XDATA, add(CFA_XSP16, literal(-7)))
        CFI (cfiCond124) R7 load(1, XDATA, add(CFA_XSP16, literal(-6)))
        CFI (cfiCond124) ?RET_LOW load(1, XDATA, add(CFA_XSP16, literal(-5)))
        CFI (cfiCond124) ?RET_HIGH load(1, XDATA, add(CFA_XSP16, literal(-4)))
        CFI (cfiCond124) ?BRET_EXT load(1, XDATA, add(CFA_XSP16, literal(-3)))
        CFI (cfiCond124) DPL0 load(1, XDATA, add(CFA_XSP16, literal(-2)))
        CFI (cfiCond124) DPH0 load(1, XDATA, add(CFA_XSP16, literal(-1)))
        CFI (cfiCond124) CFA_SP SP+0
        CFI (cfiCond124) CFA_XSP16 add(XSP16, 24)
        CFI Block cfiCond125 Using cfiCommon0
        CFI (cfiCond125) NoFunction
        CFI (cfiCond125) Conditional ??CrossCallReturnLabel_61
        CFI (cfiCond125) R6 load(1, XDATA, add(CFA_XSP16, literal(-18)))
        CFI (cfiCond125) VB load(1, XDATA, add(CFA_XSP16, literal(-17)))
        CFI (cfiCond125) V0 load(1, XDATA, add(CFA_XSP16, literal(-16)))
        CFI (cfiCond125) V1 load(1, XDATA, add(CFA_XSP16, literal(-15)))
        CFI (cfiCond125) V2 load(1, XDATA, add(CFA_XSP16, literal(-14)))
        CFI (cfiCond125) V3 load(1, XDATA, add(CFA_XSP16, literal(-13)))
        CFI (cfiCond125) V4 load(1, XDATA, add(CFA_XSP16, literal(-12)))
        CFI (cfiCond125) V5 load(1, XDATA, add(CFA_XSP16, literal(-11)))
        CFI (cfiCond125) V6 load(1, XDATA, add(CFA_XSP16, literal(-10)))
        CFI (cfiCond125) V7 load(1, XDATA, add(CFA_XSP16, literal(-9)))
        CFI (cfiCond125) V8 load(1, XDATA, add(CFA_XSP16, literal(-8)))
        CFI (cfiCond125) V9 load(1, XDATA, add(CFA_XSP16, literal(-7)))
        CFI (cfiCond125) R7 load(1, XDATA, add(CFA_XSP16, literal(-6)))
        CFI (cfiCond125) ?RET_LOW load(1, XDATA, add(CFA_XSP16, literal(-5)))
        CFI (cfiCond125) ?RET_HIGH load(1, XDATA, add(CFA_XSP16, literal(-4)))
        CFI (cfiCond125) ?BRET_EXT load(1, XDATA, add(CFA_XSP16, literal(-3)))
        CFI (cfiCond125) DPL0 load(1, XDATA, add(CFA_XSP16, literal(-2)))
        CFI (cfiCond125) DPH0 load(1, XDATA, add(CFA_XSP16, literal(-1)))
        CFI (cfiCond125) CFA_SP SP+0
        CFI (cfiCond125) CFA_XSP16 add(XSP16, 24)
        CFI Block cfiCond126 Using cfiCommon0
        CFI (cfiCond126) NoFunction
        CFI (cfiCond126) Conditional ??CrossCallReturnLabel_62
        CFI (cfiCond126) R6 load(1, XDATA, add(CFA_XSP16, literal(-24)))
        CFI (cfiCond126) VB load(1, XDATA, add(CFA_XSP16, literal(-23)))
        CFI (cfiCond126) V0 load(1, XDATA, add(CFA_XSP16, literal(-22)))
        CFI (cfiCond126) V1 load(1, XDATA, add(CFA_XSP16, literal(-21)))
        CFI (cfiCond126) V2 load(1, XDATA, add(CFA_XSP16, literal(-20)))
        CFI (cfiCond126) V3 load(1, XDATA, add(CFA_XSP16, literal(-19)))
        CFI (cfiCond126) V4 load(1, XDATA, add(CFA_XSP16, literal(-18)))
        CFI (cfiCond126) V5 load(1, XDATA, add(CFA_XSP16, literal(-17)))
        CFI (cfiCond126) V6 load(1, XDATA, add(CFA_XSP16, literal(-16)))
        CFI (cfiCond126) V7 load(1, XDATA, add(CFA_XSP16, literal(-15)))
        CFI (cfiCond126) V8 load(1, XDATA, add(CFA_XSP16, literal(-14)))
        CFI (cfiCond126) V9 load(1, XDATA, add(CFA_XSP16, literal(-13)))
        CFI (cfiCond126) V10 load(1, XDATA, add(CFA_XSP16, literal(-12)))
        CFI (cfiCond126) V11 load(1, XDATA, add(CFA_XSP16, literal(-11)))
        CFI (cfiCond126) V12 load(1, XDATA, add(CFA_XSP16, literal(-10)))
        CFI (cfiCond126) V13 load(1, XDATA, add(CFA_XSP16, literal(-9)))
        CFI (cfiCond126) V14 load(1, XDATA, add(CFA_XSP16, literal(-8)))
        CFI (cfiCond126) V15 load(1, XDATA, add(CFA_XSP16, literal(-7)))
        CFI (cfiCond126) R7 load(1, XDATA, add(CFA_XSP16, literal(-6)))
        CFI (cfiCond126) ?RET_LOW load(1, XDATA, add(CFA_XSP16, literal(-5)))
        CFI (cfiCond126) ?RET_HIGH load(1, XDATA, add(CFA_XSP16, literal(-4)))
        CFI (cfiCond126) ?BRET_EXT load(1, XDATA, add(CFA_XSP16, literal(-3)))
        CFI (cfiCond126) DPL0 load(1, XDATA, add(CFA_XSP16, literal(-2)))
        CFI (cfiCond126) DPH0 load(1, XDATA, add(CFA_XSP16, literal(-1)))
        CFI (cfiCond126) CFA_SP SP+0
        CFI (cfiCond126) CFA_XSP16 add(XSP16, 51)
        CFI Block cfiPicker127 Using cfiCommon1
        CFI (cfiPicker127) NoFunction
        CFI (cfiPicker127) Picker
        MOV     A,?V0 + 2
        ADD     A,#0x0
        MOV     R2,A
        MOV     A,?V0 + 3
        RET
        CFI EndBlock cfiCond123
        CFI EndBlock cfiCond124
        CFI EndBlock cfiCond125
        CFI EndBlock cfiCond126
        CFI EndBlock cfiPicker127

        RSEG BANKED_CODE:CODE:NOROOT(0)
?Subroutine6:
        CFI Block cfiCond128 Using cfiCommon0
        CFI NoFunction
        CFI Conditional ??CrossCallReturnLabel_0
        CFI R6 load(1, XDATA, add(CFA_XSP16, literal(-18)))
        CFI VB load(1, XDATA, add(CFA_XSP16, literal(-17)))
        CFI V0 load(1, XDATA, add(CFA_XSP16, literal(-16)))
        CFI V1 load(1, XDATA, add(CFA_XSP16, literal(-15)))
        CFI V2 load(1, XDATA, add(CFA_XSP16, literal(-14)))
        CFI V3 load(1, XDATA, add(CFA_XSP16, literal(-13)))
        CFI V4 load(1, XDATA, add(CFA_XSP16, literal(-12)))
        CFI V5 load(1, XDATA, add(CFA_XSP16, literal(-11)))
        CFI V6 load(1, XDATA, add(CFA_XSP16, literal(-10)))
        CFI V7 load(1, XDATA, add(CFA_XSP16, literal(-9)))
        CFI V8 load(1, XDATA, add(CFA_XSP16, literal(-8)))
        CFI V9 load(1, XDATA, add(CFA_XSP16, literal(-7)))
        CFI R7 load(1, XDATA, add(CFA_XSP16, literal(-6)))
        CFI ?RET_LOW load(1, XDATA, add(CFA_XSP16, literal(-5)))
        CFI ?RET_HIGH load(1, XDATA, add(CFA_XSP16, literal(-4)))
        CFI ?BRET_EXT load(1, XDATA, add(CFA_XSP16, literal(-3)))
        CFI DPL0 load(1, XDATA, add(CFA_XSP16, literal(-2)))
        CFI DPH0 load(1, XDATA, add(CFA_XSP16, literal(-1)))
        CFI CFA_SP SP+0
        CFI CFA_XSP16 add(XSP16, 22)
        CFI Block cfiCond129 Using cfiCommon0
        CFI (cfiCond129) NoFunction
        CFI (cfiCond129) Conditional ??CrossCallReturnLabel_1
        CFI (cfiCond129) R6 load(1, XDATA, add(CFA_XSP16, literal(-18)))
        CFI (cfiCond129) VB load(1, XDATA, add(CFA_XSP16, literal(-17)))
        CFI (cfiCond129) V0 load(1, XDATA, add(CFA_XSP16, literal(-16)))
        CFI (cfiCond129) V1 load(1, XDATA, add(CFA_XSP16, literal(-15)))
        CFI (cfiCond129) V2 load(1, XDATA, add(CFA_XSP16, literal(-14)))
        CFI (cfiCond129) V3 load(1, XDATA, add(CFA_XSP16, literal(-13)))
        CFI (cfiCond129) V4 load(1, XDATA, add(CFA_XSP16, literal(-12)))
        CFI (cfiCond129) V5 load(1, XDATA, add(CFA_XSP16, literal(-11)))
        CFI (cfiCond129) V6 load(1, XDATA, add(CFA_XSP16, literal(-10)))
        CFI (cfiCond129) V7 load(1, XDATA, add(CFA_XSP16, literal(-9)))
        CFI (cfiCond129) V8 load(1, XDATA, add(CFA_XSP16, literal(-8)))
        CFI (cfiCond129) V9 load(1, XDATA, add(CFA_XSP16, literal(-7)))
        CFI (cfiCond129) R7 load(1, XDATA, add(CFA_XSP16, literal(-6)))
        CFI (cfiCond129) ?RET_LOW load(1, XDATA, add(CFA_XSP16, literal(-5)))
        CFI (cfiCond129) ?RET_HIGH load(1, XDATA, add(CFA_XSP16, literal(-4)))
        CFI (cfiCond129) ?BRET_EXT load(1, XDATA, add(CFA_XSP16, literal(-3)))
        CFI (cfiCond129) DPL0 load(1, XDATA, add(CFA_XSP16, literal(-2)))
        CFI (cfiCond129) DPH0 load(1, XDATA, add(CFA_XSP16, literal(-1)))
        CFI (cfiCond129) CFA_SP SP+0
        CFI (cfiCond129) CFA_XSP16 add(XSP16, 22)
        CFI Block cfiPicker130 Using cfiCommon1
        CFI (cfiPicker130) NoFunction
        CFI (cfiPicker130) Picker
        MOV     DPL,?V0 + 0
        MOV     DPH,?V0 + 1
        MOVX    A,@DPTR
        MOV     DPL,R0
        MOV     DPH,R1
        MOVX    @DPTR,A
        MOV     DPL,?V0 + 0
        MOV     DPH,?V0 + 1
        INC     DPTR
        MOV     ?V0 + 0,DPL
        MOV     ?V0 + 1,DPH
        RET
        CFI EndBlock cfiCond128
        CFI EndBlock cfiCond129
        CFI EndBlock cfiPicker130
// 1012 
// 1013 /*********************************************************************
// 1014  * @fn      xferBuf
// 1015  *
// 1016  * @brief   Xfers an NV buffer from one location to another, enforcing OSAL_NV_WORD_SIZE writes.
// 1017  *
// 1018  * @return  none
// 1019  */

        RSEG BANKED_CODE:CODE:NOROOT(0)
// 1020 static void xferBuf( uint8 srcPg, uint16 srcOff, uint8 dstPg, uint16 dstOff, uint16 len )
xferBuf:
        CFI Block cfiBlock131 Using cfiCommon0
        CFI Function xferBuf
        CODE
// 1021 {
        FUNCALL xferBuf, HalFlashRead
        LOCFRAME ISTACK, 0, STACK
        LOCFRAME PSTACK, 0, STACK
        LOCFRAME XSTACK, 26, STACK
        LOCFRAME IOVERLAY, 0, STATIC
        LOCFRAME DOVERLAY, 0, STATIC
        ARGFRAME ISTACK, 0, STACK
        ARGFRAME PSTACK, 0, STACK
        ARGFRAME XSTACK, 26, STACK
        ARGFRAME IOVERLAY, 0, STATIC
        ARGFRAME DOVERLAY, 0, STATIC
        FUNCALL xferBuf, HalFlashRead
        LOCFRAME ISTACK, 0, STACK
        LOCFRAME PSTACK, 0, STACK
        LOCFRAME XSTACK, 26, STACK
        LOCFRAME IOVERLAY, 0, STATIC
        LOCFRAME DOVERLAY, 0, STATIC
        ARGFRAME ISTACK, 0, STACK
        ARGFRAME PSTACK, 0, STACK
        ARGFRAME XSTACK, 26, STACK
        ARGFRAME IOVERLAY, 0, STATIC
        ARGFRAME DOVERLAY, 0, STATIC
        FUNCALL xferBuf, HalFlashWrite
        LOCFRAME ISTACK, 0, STACK
        LOCFRAME PSTACK, 0, STACK
        LOCFRAME XSTACK, 26, STACK
        LOCFRAME IOVERLAY, 0, STATIC
        LOCFRAME DOVERLAY, 0, STATIC
        ARGFRAME ISTACK, 0, STACK
        ARGFRAME PSTACK, 0, STACK
        ARGFRAME XSTACK, 26, STACK
        ARGFRAME IOVERLAY, 0, STATIC
        ARGFRAME DOVERLAY, 0, STATIC
        FUNCALL xferBuf, HalFlashRead
        LOCFRAME ISTACK, 0, STACK
        LOCFRAME PSTACK, 0, STACK
        LOCFRAME XSTACK, 26, STACK
        LOCFRAME IOVERLAY, 0, STATIC
        LOCFRAME DOVERLAY, 0, STATIC
        ARGFRAME ISTACK, 0, STACK
        ARGFRAME PSTACK, 0, STACK
        ARGFRAME XSTACK, 26, STACK
        ARGFRAME IOVERLAY, 0, STATIC
        ARGFRAME DOVERLAY, 0, STATIC
        FUNCALL xferBuf, HalFlashWrite
        LOCFRAME ISTACK, 0, STACK
        LOCFRAME PSTACK, 0, STACK
        LOCFRAME XSTACK, 26, STACK
        LOCFRAME IOVERLAY, 0, STATIC
        LOCFRAME DOVERLAY, 0, STATIC
        ARGFRAME ISTACK, 0, STACK
        ARGFRAME PSTACK, 0, STACK
        ARGFRAME XSTACK, 26, STACK
        ARGFRAME IOVERLAY, 0, STATIC
        ARGFRAME DOVERLAY, 0, STATIC
        FUNCALL xferBuf, HalFlashRead
        LOCFRAME ISTACK, 0, STACK
        LOCFRAME PSTACK, 0, STACK
        LOCFRAME XSTACK, 26, STACK
        LOCFRAME IOVERLAY, 0, STATIC
        LOCFRAME DOVERLAY, 0, STATIC
        ARGFRAME ISTACK, 0, STACK
        ARGFRAME PSTACK, 0, STACK
        ARGFRAME XSTACK, 26, STACK
        ARGFRAME IOVERLAY, 0, STATIC
        ARGFRAME DOVERLAY, 0, STATIC
        FUNCALL xferBuf, HalFlashRead
        LOCFRAME ISTACK, 0, STACK
        LOCFRAME PSTACK, 0, STACK
        LOCFRAME XSTACK, 26, STACK
        LOCFRAME IOVERLAY, 0, STATIC
        LOCFRAME DOVERLAY, 0, STATIC
        ARGFRAME ISTACK, 0, STACK
        ARGFRAME PSTACK, 0, STACK
        ARGFRAME XSTACK, 26, STACK
        ARGFRAME IOVERLAY, 0, STATIC
        ARGFRAME DOVERLAY, 0, STATIC
        FUNCALL xferBuf, HalFlashWrite
        LOCFRAME ISTACK, 0, STACK
        LOCFRAME PSTACK, 0, STACK
        LOCFRAME XSTACK, 26, STACK
        LOCFRAME IOVERLAY, 0, STATIC
        LOCFRAME DOVERLAY, 0, STATIC
        ARGFRAME ISTACK, 0, STACK
        ARGFRAME PSTACK, 0, STACK
        ARGFRAME XSTACK, 26, STACK
        ARGFRAME IOVERLAY, 0, STATIC
        ARGFRAME DOVERLAY, 0, STATIC
        MOV     A,#-0x14
        LCALL   ?BANKED_ENTER_XDATA
        CFI DPH0 load(1, XDATA, add(CFA_XSP16, literal(-1)))
        CFI DPL0 load(1, XDATA, add(CFA_XSP16, literal(-2)))
        CFI ?BRET_EXT load(1, XDATA, add(CFA_XSP16, literal(-3)))
        CFI ?RET_HIGH load(1, XDATA, add(CFA_XSP16, literal(-4)))
        CFI ?RET_LOW load(1, XDATA, add(CFA_XSP16, literal(-5)))
        CFI R7 load(1, XDATA, add(CFA_XSP16, literal(-6)))
        CFI V11 load(1, XDATA, add(CFA_XSP16, literal(-7)))
        CFI V10 load(1, XDATA, add(CFA_XSP16, literal(-8)))
        CFI V9 load(1, XDATA, add(CFA_XSP16, literal(-9)))
        CFI V8 load(1, XDATA, add(CFA_XSP16, literal(-10)))
        CFI V7 load(1, XDATA, add(CFA_XSP16, literal(-11)))
        CFI V6 load(1, XDATA, add(CFA_XSP16, literal(-12)))
        CFI V5 load(1, XDATA, add(CFA_XSP16, literal(-13)))
        CFI V4 load(1, XDATA, add(CFA_XSP16, literal(-14)))
        CFI V3 load(1, XDATA, add(CFA_XSP16, literal(-15)))
        CFI V2 load(1, XDATA, add(CFA_XSP16, literal(-16)))
        CFI V1 load(1, XDATA, add(CFA_XSP16, literal(-17)))
        CFI V0 load(1, XDATA, add(CFA_XSP16, literal(-18)))
        CFI VB load(1, XDATA, add(CFA_XSP16, literal(-19)))
        CFI R6 load(1, XDATA, add(CFA_XSP16, literal(-20)))
        CFI CFA_SP SP+0
        CFI CFA_XSP16 add(XSP16, 20)
        ; Saved register size: 20
        ; Auto size: 4
        MOV     A,#-0x4
        LCALL   ?ALLOC_XSTACK8
        CFI CFA_XSP16 add(XSP16, 24)
        MOV     ?V0 + 8,R1
        MOV     ?V0 + 4,R2
        MOV     ?V0 + 5,R3
        MOV     ?V0 + 3,R4
        MOV     A,#0x18
        LCALL   ?XSTACK_DISP0_8
        MOVX    A,@DPTR
        MOV     R6,A
        INC     DPTR
        MOVX    A,@DPTR
        MOV     R7,A
        MOV     A,#0x1a
        LCALL   ?XSTACK_DISP0_8
        MOVX    A,@DPTR
        MOV     ?V0 + 0,A
        INC     DPTR
        MOVX    A,@DPTR
        MOV     ?V0 + 1,A
// 1022   uint8 rem = dstOff % OSAL_NV_WORD_SIZE;
        MOV     A,R6
        ANL     A,#0x3
        MOV     ?V0 + 2,A
// 1023   uint8 tmp[OSAL_NV_WORD_SIZE];
// 1024 
// 1025   if ( rem )
        JNZ     $+5
        LJMP    ??xferBuf_0 & 0xFFFF
// 1026   {
// 1027     dstOff -= rem;
        MOV     ?V0 + 6,A
        CLR     C
        MOV     A,R6
        SUBB    A,?V0 + 6
        MOV     R6,A
        MOV     A,R7
        SUBB    A,#0x0
        MOV     R7,A
// 1028     HalFlashRead(dstPg, dstOff, tmp, OSAL_NV_WORD_SIZE);
        ; Setup parameters for call to function HalFlashRead
        MOV     ?V0 + 6,#0x4
        MOV     ?V0 + 7,#0x0
        MOV     R0,#?V0 + 6
        LCALL   ?PUSH_XSTACK_I_TWO
        CFI CFA_XSP16 add(XSP16, 26)
        MOV     A,#0x2
        LCALL   ?XSTACK_DISP0_8
        MOV     R4,DPL
        MOV     R5,DPH
        MOV     A,R6
        MOV     R2,A
        MOV     A,R7
        MOV     R3,A
        MOV     R1,?V0 + 3
        LCALL   ??Subroutine51_0 & 0xFFFF
??CrossCallReturnLabel_130:
        LCALL   ?DEALLOC_XSTACK8
        CFI CFA_XSP16 add(XSP16, 24)
        MOV     ?V0 + 6,?V0 + 2
        MOV     DPL,?XSP + 0
        MOV     DPH,?XSP + 1
        MOV     A,DPL
        ADD     A,?V0 + 6
        MOV     ?V0 + 6,A
        MOV     A,DPH
        ADDC    A,#0x0
        MOV     ?V0 + 7,A
??xferBuf_1:
        MOV     A,?V0 + 0
        ORL     A,?V0 + 1
        JZ      ??xferBuf_2
// 1029 
// 1030     while ( (rem < OSAL_NV_WORD_SIZE) && len )
// 1031     {
// 1032       HalFlashRead(srcPg, srcOff, tmp+rem, 1);
        ; Setup parameters for call to function HalFlashRead
        MOV     ?V0 + 10,#0x1
        MOV     ?V0 + 11,#0x0
        MOV     R0,#?V0 + 10
        LCALL   ?PUSH_XSTACK_I_TWO
        CFI CFA_XSP16 add(XSP16, 26)
        MOV     R4,?V0 + 6
        MOV     R5,?V0 + 7
        LCALL   ?Subroutine10 & 0xFFFF
??CrossCallReturnLabel_115:
        LCALL   ?DEALLOC_XSTACK8
        CFI CFA_XSP16 add(XSP16, 24)
// 1033       srcOff++;
        LCALL   ?Subroutine34 & 0xFFFF
// 1034       rem++;
??CrossCallReturnLabel_63:
        INC     ?V0 + 2
// 1035       len--;
        LCALL   ?Subroutine36 & 0xFFFF
// 1036     }
??CrossCallReturnLabel_68:
        MOV     DPL,?V0 + 6
        MOV     DPH,?V0 + 7
        INC     DPTR
        MOV     ?V0 + 6,DPL
        MOV     ?V0 + 7,DPH
        MOV     A,?V0 + 2
        CLR     C
        SUBB    A,#0x4
        JC      ??xferBuf_1
// 1037 
// 1038     writeWord( dstPg, dstOff, tmp );
??xferBuf_2:
        ; Setup parameters for call to function HalFlashWrite
        MOV     ?V0 + 6,#0x1
        MOV     ?V0 + 7,#0x0
        MOV     R0,#?V0 + 6
        LCALL   ?PUSH_XSTACK_I_TWO
        CFI CFA_XSP16 add(XSP16, 26)
        MOV     A,#0x2
        LCALL   ?XSTACK_DISP0_8
        MOV     R4,DPL
        MOV     R5,DPH
        MOV     ?V0 + 6,R6
        MOV     ?V0 + 7,R7
        MOV     A,#0x2
        MOV     R0,#?V0 + 6
        LCALL   ?US_SHR
        MOV     ?V0 + 2,?V0 + 3
        MOV     ?V0 + 10,?V0 + 2
        MOV     ?V0 + 11,A
        MOV     A,#0x9
        MOV     R0,#?V0 + 10
        LCALL   ?S_SHL
        MOV     A,?V0 + 6
        ADD     A,#0x0
        MOV     R2,A
        MOV     A,?V0 + 7
        ADDC    A,?V0 + 11
        LCALL   ??Subroutine44_0 & 0xFFFF
??CrossCallReturnLabel_89:
        LCALL   ?DEALLOC_XSTACK8
        CFI CFA_XSP16 add(XSP16, 24)
// 1039     dstOff += OSAL_NV_WORD_SIZE;
        MOV     A,R6
        ADD     A,#0x4
        MOV     R6,A
        MOV     A,R7
        ADDC    A,#0x0
        MOV     R7,A
// 1040   }
// 1041 
// 1042   rem = len % OSAL_NV_WORD_SIZE;
??xferBuf_0:
        MOV     A,?V0 + 0
        ANL     A,#0x3
        MOV     ?V0 + 2,A
// 1043   len /= OSAL_NV_WORD_SIZE;
        MOV     ?V0 + 6,?V0 + 0
        MOV     ?V0 + 7,?V0 + 1
        MOV     A,#0x2
        MOV     R0,#?V0 + 6
        LCALL   ?US_SHR
        MOV     ?V0 + 0,?V0 + 6
        MOV     ?V0 + 1,?V0 + 7
        MOV     A,?V0 + 0
        ORL     A,?V0 + 1
        JZ      ??xferBuf_3
        MOV     ?V0 + 10,?V0 + 3
        MOV     ?V0 + 11,#0x0
        MOV     A,#0x9
        MOV     R0,#?V0 + 10
        LCALL   ?S_SHL
        MOV     ?V0 + 7,?V0 + 11
// 1044 
// 1045   while ( len-- )
// 1046   {
// 1047     HalFlashRead(srcPg, srcOff, tmp, OSAL_NV_WORD_SIZE);
??xferBuf_4:
        ; Setup parameters for call to function HalFlashRead
        MOV     ?V0 + 10,#0x4
        MOV     ?V0 + 11,#0x0
        MOV     R0,#?V0 + 10
        LCALL   ?PUSH_XSTACK_I_TWO
        CFI CFA_XSP16 add(XSP16, 26)
        MOV     A,#0x2
        LCALL   ?XSTACK_DISP0_8
        MOV     R4,DPL
        MOV     R5,DPH
        LCALL   ?Subroutine10 & 0xFFFF
??CrossCallReturnLabel_116:
        LCALL   ?DEALLOC_XSTACK8
        CFI CFA_XSP16 add(XSP16, 24)
// 1048     srcOff += OSAL_NV_WORD_SIZE;
        MOV     A,?V0 + 4
        ADD     A,#0x4
        MOV     ?V0 + 4,A
        MOV     A,?V0 + 5
        ADDC    A,#0x0
        MOV     ?V0 + 5,A
// 1049     writeWord( dstPg, dstOff, tmp );
        ; Setup parameters for call to function HalFlashWrite
        MOV     ?V0 + 10,#0x1
        MOV     R0,#?V0 + 10
        LCALL   ?PUSH_XSTACK_I_TWO
        CFI CFA_XSP16 add(XSP16, 26)
        MOV     A,#0x2
        LCALL   ?XSTACK_DISP0_8
        MOV     R4,DPL
        MOV     R5,DPH
        MOV     ?V0 + 10,R6
        MOV     ?V0 + 11,R7
        MOV     A,#0x2
        MOV     R0,#?V0 + 10
        LCALL   ?US_SHR
        MOV     A,?V0 + 10
        ADD     A,#0x0
        MOV     R2,A
        MOV     A,?V0 + 11
        ADDC    A,?V0 + 7
        LCALL   ??Subroutine44_0 & 0xFFFF
??CrossCallReturnLabel_90:
        LCALL   ?DEALLOC_XSTACK8
        CFI CFA_XSP16 add(XSP16, 24)
// 1050     dstOff += OSAL_NV_WORD_SIZE;
        MOV     A,R6
        ADD     A,#0x4
        MOV     R6,A
        MOV     A,R7
        ADDC    A,#0x0
        MOV     R7,A
        LCALL   ?Subroutine36 & 0xFFFF
// 1051   }
??CrossCallReturnLabel_69:
        MOV     A,?V0 + 0
        ORL     A,?V0 + 1
        JNZ     ??xferBuf_4
// 1052 
// 1053   if ( rem )
??xferBuf_3:
        MOV     A,?V0 + 2
        JNZ     $+5
        LJMP    ??xferBuf_5 & 0xFFFF
// 1054   {
// 1055     uint8 idx = 0;
// 1056     HalFlashRead(dstPg, dstOff, tmp, OSAL_NV_WORD_SIZE);
        ; Setup parameters for call to function HalFlashRead
        MOV     ?V0 + 0,#0x4
        MOV     ?V0 + 1,#0x0
        MOV     R0,#?V0 + 0
        LCALL   ?PUSH_XSTACK_I_TWO
        CFI CFA_XSP16 add(XSP16, 26)
        MOV     A,#0x2
        LCALL   ?XSTACK_DISP0_8
        MOV     R4,DPL
        MOV     R5,DPH
        MOV     A,R6
        MOV     R2,A
        MOV     A,R7
        MOV     R3,A
        MOV     R1,?V0 + 3
        LCALL   ??Subroutine51_0 & 0xFFFF
??CrossCallReturnLabel_131:
        LCALL   ?DEALLOC_XSTACK8
        CFI CFA_XSP16 add(XSP16, 24)
        MOV     DPL,?XSP + 0
        MOV     DPH,?XSP + 1
        MOV     ?V0 + 0,DPL
        MOV     ?V0 + 1,DPH
// 1057     while ( rem-- )
// 1058     {
// 1059       HalFlashRead(srcPg, srcOff, tmp+idx, 1);
??xferBuf_6:
        ; Setup parameters for call to function HalFlashRead
        MOV     ?V0 + 6,#0x1
        MOV     ?V0 + 7,#0x0
        MOV     R0,#?V0 + 6
        LCALL   ?PUSH_XSTACK_I_TWO
        CFI CFA_XSP16 add(XSP16, 26)
        MOV     R4,?V0 + 0
        MOV     R5,?V0 + 1
        LCALL   ?Subroutine10 & 0xFFFF
??CrossCallReturnLabel_117:
        LCALL   ?DEALLOC_XSTACK8
        CFI CFA_XSP16 add(XSP16, 24)
// 1060       srcOff++;
        LCALL   ?Subroutine34 & 0xFFFF
// 1061       idx++;
??CrossCallReturnLabel_64:
        MOV     DPL,?V0 + 0
        MOV     DPH,?V0 + 1
        INC     DPTR
        MOV     ?V0 + 0,DPL
        MOV     ?V0 + 1,DPH
// 1062     }
        DEC     ?V0 + 2
        MOV     A,?V0 + 2
        JNZ     ??xferBuf_6
// 1063     writeWord( dstPg, dstOff, tmp );
        ; Setup parameters for call to function HalFlashWrite
        MOV     ?V0 + 0,#0x1
        MOV     ?V0 + 1,#0x0
        MOV     R0,#?V0 + 0
        LCALL   ?PUSH_XSTACK_I_TWO
        CFI CFA_XSP16 add(XSP16, 26)
        MOV     A,#0x2
        LCALL   ?XSTACK_DISP0_8
        MOV     R4,DPL
        MOV     R5,DPH
        MOV     ?V0 + 0,R6
        MOV     ?V0 + 1,R7
        MOV     A,#0x2
        MOV     R0,#?V0 + 0
        LCALL   ?US_SHR
        MOV     ?V0 + 2,?V0 + 3
        MOV     ?V0 + 4,?V0 + 2
        MOV     ?V0 + 5,A
        MOV     A,#0x9
        MOV     R0,#?V0 + 4
        LCALL   ?S_SHL
        MOV     A,?V0 + 0
        ADD     A,#0x0
        MOV     R2,A
        MOV     A,?V0 + 1
        ADDC    A,?V0 + 5
        LCALL   ??Subroutine44_0 & 0xFFFF
??CrossCallReturnLabel_91:
        LCALL   ?DEALLOC_XSTACK8
        CFI CFA_XSP16 add(XSP16, 24)
// 1064   }
// 1065 }
??xferBuf_5:
        MOV     A,#0x4
        LCALL   ?DEALLOC_XSTACK8
        CFI CFA_XSP16 add(XSP16, 20)
        MOV     R7,#0xc
        LJMP    ?BANKED_LEAVE_XDATA
        CFI EndBlock cfiBlock131

        RSEG BANKED_CODE:CODE:NOROOT(0)
?Subroutine36:
        CFI Block cfiCond132 Using cfiCommon0
        CFI NoFunction
        CFI Conditional ??CrossCallReturnLabel_68
        CFI R6 load(1, XDATA, add(CFA_XSP16, literal(-20)))
        CFI VB load(1, XDATA, add(CFA_XSP16, literal(-19)))
        CFI V0 load(1, XDATA, add(CFA_XSP16, literal(-18)))
        CFI V1 load(1, XDATA, add(CFA_XSP16, literal(-17)))
        CFI V2 load(1, XDATA, add(CFA_XSP16, literal(-16)))
        CFI V3 load(1, XDATA, add(CFA_XSP16, literal(-15)))
        CFI V4 load(1, XDATA, add(CFA_XSP16, literal(-14)))
        CFI V5 load(1, XDATA, add(CFA_XSP16, literal(-13)))
        CFI V6 load(1, XDATA, add(CFA_XSP16, literal(-12)))
        CFI V7 load(1, XDATA, add(CFA_XSP16, literal(-11)))
        CFI V8 load(1, XDATA, add(CFA_XSP16, literal(-10)))
        CFI V9 load(1, XDATA, add(CFA_XSP16, literal(-9)))
        CFI V10 load(1, XDATA, add(CFA_XSP16, literal(-8)))
        CFI V11 load(1, XDATA, add(CFA_XSP16, literal(-7)))
        CFI R7 load(1, XDATA, add(CFA_XSP16, literal(-6)))
        CFI ?RET_LOW load(1, XDATA, add(CFA_XSP16, literal(-5)))
        CFI ?RET_HIGH load(1, XDATA, add(CFA_XSP16, literal(-4)))
        CFI ?BRET_EXT load(1, XDATA, add(CFA_XSP16, literal(-3)))
        CFI DPL0 load(1, XDATA, add(CFA_XSP16, literal(-2)))
        CFI DPH0 load(1, XDATA, add(CFA_XSP16, literal(-1)))
        CFI CFA_SP SP+0
        CFI CFA_XSP16 add(XSP16, 24)
        CFI Block cfiCond133 Using cfiCommon0
        CFI (cfiCond133) NoFunction
        CFI (cfiCond133) Conditional ??CrossCallReturnLabel_69
        CFI (cfiCond133) R6 load(1, XDATA, add(CFA_XSP16, literal(-20)))
        CFI (cfiCond133) VB load(1, XDATA, add(CFA_XSP16, literal(-19)))
        CFI (cfiCond133) V0 load(1, XDATA, add(CFA_XSP16, literal(-18)))
        CFI (cfiCond133) V1 load(1, XDATA, add(CFA_XSP16, literal(-17)))
        CFI (cfiCond133) V2 load(1, XDATA, add(CFA_XSP16, literal(-16)))
        CFI (cfiCond133) V3 load(1, XDATA, add(CFA_XSP16, literal(-15)))
        CFI (cfiCond133) V4 load(1, XDATA, add(CFA_XSP16, literal(-14)))
        CFI (cfiCond133) V5 load(1, XDATA, add(CFA_XSP16, literal(-13)))
        CFI (cfiCond133) V6 load(1, XDATA, add(CFA_XSP16, literal(-12)))
        CFI (cfiCond133) V7 load(1, XDATA, add(CFA_XSP16, literal(-11)))
        CFI (cfiCond133) V8 load(1, XDATA, add(CFA_XSP16, literal(-10)))
        CFI (cfiCond133) V9 load(1, XDATA, add(CFA_XSP16, literal(-9)))
        CFI (cfiCond133) V10 load(1, XDATA, add(CFA_XSP16, literal(-8)))
        CFI (cfiCond133) V11 load(1, XDATA, add(CFA_XSP16, literal(-7)))
        CFI (cfiCond133) R7 load(1, XDATA, add(CFA_XSP16, literal(-6)))
        CFI (cfiCond133) ?RET_LOW load(1, XDATA, add(CFA_XSP16, literal(-5)))
        CFI (cfiCond133) ?RET_HIGH load(1, XDATA, add(CFA_XSP16, literal(-4)))
        CFI (cfiCond133) ?BRET_EXT load(1, XDATA, add(CFA_XSP16, literal(-3)))
        CFI (cfiCond133) DPL0 load(1, XDATA, add(CFA_XSP16, literal(-2)))
        CFI (cfiCond133) DPH0 load(1, XDATA, add(CFA_XSP16, literal(-1)))
        CFI (cfiCond133) CFA_SP SP+0
        CFI (cfiCond133) CFA_XSP16 add(XSP16, 24)
        CFI Block cfiPicker134 Using cfiCommon1
        CFI (cfiPicker134) NoFunction
        CFI (cfiPicker134) Picker
        MOV     A,?V0 + 0
        ADD     A,#-0x1
        MOV     ?V0 + 0,A
        MOV     A,?V0 + 1
        ADDC    A,#-0x1
        MOV     ?V0 + 1,A
        RET
        CFI EndBlock cfiCond132
        CFI EndBlock cfiCond133
        CFI EndBlock cfiPicker134

        RSEG BANKED_CODE:CODE:NOROOT(0)
?Subroutine34:
        CFI Block cfiCond135 Using cfiCommon0
        CFI NoFunction
        CFI Conditional ??CrossCallReturnLabel_63
        CFI R6 load(1, XDATA, add(CFA_XSP16, literal(-20)))
        CFI VB load(1, XDATA, add(CFA_XSP16, literal(-19)))
        CFI V0 load(1, XDATA, add(CFA_XSP16, literal(-18)))
        CFI V1 load(1, XDATA, add(CFA_XSP16, literal(-17)))
        CFI V2 load(1, XDATA, add(CFA_XSP16, literal(-16)))
        CFI V3 load(1, XDATA, add(CFA_XSP16, literal(-15)))
        CFI V4 load(1, XDATA, add(CFA_XSP16, literal(-14)))
        CFI V5 load(1, XDATA, add(CFA_XSP16, literal(-13)))
        CFI V6 load(1, XDATA, add(CFA_XSP16, literal(-12)))
        CFI V7 load(1, XDATA, add(CFA_XSP16, literal(-11)))
        CFI V8 load(1, XDATA, add(CFA_XSP16, literal(-10)))
        CFI V9 load(1, XDATA, add(CFA_XSP16, literal(-9)))
        CFI V10 load(1, XDATA, add(CFA_XSP16, literal(-8)))
        CFI V11 load(1, XDATA, add(CFA_XSP16, literal(-7)))
        CFI R7 load(1, XDATA, add(CFA_XSP16, literal(-6)))
        CFI ?RET_LOW load(1, XDATA, add(CFA_XSP16, literal(-5)))
        CFI ?RET_HIGH load(1, XDATA, add(CFA_XSP16, literal(-4)))
        CFI ?BRET_EXT load(1, XDATA, add(CFA_XSP16, literal(-3)))
        CFI DPL0 load(1, XDATA, add(CFA_XSP16, literal(-2)))
        CFI DPH0 load(1, XDATA, add(CFA_XSP16, literal(-1)))
        CFI CFA_SP SP+0
        CFI CFA_XSP16 add(XSP16, 24)
        CFI Block cfiCond136 Using cfiCommon0
        CFI (cfiCond136) NoFunction
        CFI (cfiCond136) Conditional ??CrossCallReturnLabel_64
        CFI (cfiCond136) R6 load(1, XDATA, add(CFA_XSP16, literal(-20)))
        CFI (cfiCond136) VB load(1, XDATA, add(CFA_XSP16, literal(-19)))
        CFI (cfiCond136) V0 load(1, XDATA, add(CFA_XSP16, literal(-18)))
        CFI (cfiCond136) V1 load(1, XDATA, add(CFA_XSP16, literal(-17)))
        CFI (cfiCond136) V2 load(1, XDATA, add(CFA_XSP16, literal(-16)))
        CFI (cfiCond136) V3 load(1, XDATA, add(CFA_XSP16, literal(-15)))
        CFI (cfiCond136) V4 load(1, XDATA, add(CFA_XSP16, literal(-14)))
        CFI (cfiCond136) V5 load(1, XDATA, add(CFA_XSP16, literal(-13)))
        CFI (cfiCond136) V6 load(1, XDATA, add(CFA_XSP16, literal(-12)))
        CFI (cfiCond136) V7 load(1, XDATA, add(CFA_XSP16, literal(-11)))
        CFI (cfiCond136) V8 load(1, XDATA, add(CFA_XSP16, literal(-10)))
        CFI (cfiCond136) V9 load(1, XDATA, add(CFA_XSP16, literal(-9)))
        CFI (cfiCond136) V10 load(1, XDATA, add(CFA_XSP16, literal(-8)))
        CFI (cfiCond136) V11 load(1, XDATA, add(CFA_XSP16, literal(-7)))
        CFI (cfiCond136) R7 load(1, XDATA, add(CFA_XSP16, literal(-6)))
        CFI (cfiCond136) ?RET_LOW load(1, XDATA, add(CFA_XSP16, literal(-5)))
        CFI (cfiCond136) ?RET_HIGH load(1, XDATA, add(CFA_XSP16, literal(-4)))
        CFI (cfiCond136) ?BRET_EXT load(1, XDATA, add(CFA_XSP16, literal(-3)))
        CFI (cfiCond136) DPL0 load(1, XDATA, add(CFA_XSP16, literal(-2)))
        CFI (cfiCond136) DPH0 load(1, XDATA, add(CFA_XSP16, literal(-1)))
        CFI (cfiCond136) CFA_SP SP+0
        CFI (cfiCond136) CFA_XSP16 add(XSP16, 24)
        CFI Block cfiPicker137 Using cfiCommon1
        CFI (cfiPicker137) NoFunction
        CFI (cfiPicker137) Picker
        MOV     A,?V0 + 4
        ADD     A,#0x1
        MOV     ?V0 + 4,A
        MOV     A,?V0 + 5
        ADDC    A,#0x0
        MOV     ?V0 + 5,A
        RET
        CFI EndBlock cfiCond135
        CFI EndBlock cfiCond136
        CFI EndBlock cfiPicker137

        RSEG BANKED_CODE:CODE:NOROOT(0)
?Subroutine10:
        CFI Block cfiCond138 Using cfiCommon0
        CFI NoFunction
        CFI Conditional ??CrossCallReturnLabel_115
        CFI R6 load(1, XDATA, add(CFA_XSP16, literal(-20)))
        CFI VB load(1, XDATA, add(CFA_XSP16, literal(-19)))
        CFI V0 load(1, XDATA, add(CFA_XSP16, literal(-18)))
        CFI V1 load(1, XDATA, add(CFA_XSP16, literal(-17)))
        CFI V2 load(1, XDATA, add(CFA_XSP16, literal(-16)))
        CFI V3 load(1, XDATA, add(CFA_XSP16, literal(-15)))
        CFI V4 load(1, XDATA, add(CFA_XSP16, literal(-14)))
        CFI V5 load(1, XDATA, add(CFA_XSP16, literal(-13)))
        CFI V6 load(1, XDATA, add(CFA_XSP16, literal(-12)))
        CFI V7 load(1, XDATA, add(CFA_XSP16, literal(-11)))
        CFI V8 load(1, XDATA, add(CFA_XSP16, literal(-10)))
        CFI V9 load(1, XDATA, add(CFA_XSP16, literal(-9)))
        CFI V10 load(1, XDATA, add(CFA_XSP16, literal(-8)))
        CFI V11 load(1, XDATA, add(CFA_XSP16, literal(-7)))
        CFI R7 load(1, XDATA, add(CFA_XSP16, literal(-6)))
        CFI ?RET_LOW load(1, XDATA, add(CFA_XSP16, literal(-5)))
        CFI ?RET_HIGH load(1, XDATA, add(CFA_XSP16, literal(-4)))
        CFI ?BRET_EXT load(1, XDATA, add(CFA_XSP16, literal(-3)))
        CFI DPL0 load(1, XDATA, add(CFA_XSP16, literal(-2)))
        CFI DPH0 load(1, XDATA, add(CFA_XSP16, literal(-1)))
        CFI CFA_SP SP+0
        CFI CFA_XSP16 add(XSP16, 26)
        CFI Block cfiCond139 Using cfiCommon0
        CFI (cfiCond139) NoFunction
        CFI (cfiCond139) Conditional ??CrossCallReturnLabel_116
        CFI (cfiCond139) R6 load(1, XDATA, add(CFA_XSP16, literal(-20)))
        CFI (cfiCond139) VB load(1, XDATA, add(CFA_XSP16, literal(-19)))
        CFI (cfiCond139) V0 load(1, XDATA, add(CFA_XSP16, literal(-18)))
        CFI (cfiCond139) V1 load(1, XDATA, add(CFA_XSP16, literal(-17)))
        CFI (cfiCond139) V2 load(1, XDATA, add(CFA_XSP16, literal(-16)))
        CFI (cfiCond139) V3 load(1, XDATA, add(CFA_XSP16, literal(-15)))
        CFI (cfiCond139) V4 load(1, XDATA, add(CFA_XSP16, literal(-14)))
        CFI (cfiCond139) V5 load(1, XDATA, add(CFA_XSP16, literal(-13)))
        CFI (cfiCond139) V6 load(1, XDATA, add(CFA_XSP16, literal(-12)))
        CFI (cfiCond139) V7 load(1, XDATA, add(CFA_XSP16, literal(-11)))
        CFI (cfiCond139) V8 load(1, XDATA, add(CFA_XSP16, literal(-10)))
        CFI (cfiCond139) V9 load(1, XDATA, add(CFA_XSP16, literal(-9)))
        CFI (cfiCond139) V10 load(1, XDATA, add(CFA_XSP16, literal(-8)))
        CFI (cfiCond139) V11 load(1, XDATA, add(CFA_XSP16, literal(-7)))
        CFI (cfiCond139) R7 load(1, XDATA, add(CFA_XSP16, literal(-6)))
        CFI (cfiCond139) ?RET_LOW load(1, XDATA, add(CFA_XSP16, literal(-5)))
        CFI (cfiCond139) ?RET_HIGH load(1, XDATA, add(CFA_XSP16, literal(-4)))
        CFI (cfiCond139) ?BRET_EXT load(1, XDATA, add(CFA_XSP16, literal(-3)))
        CFI (cfiCond139) DPL0 load(1, XDATA, add(CFA_XSP16, literal(-2)))
        CFI (cfiCond139) DPH0 load(1, XDATA, add(CFA_XSP16, literal(-1)))
        CFI (cfiCond139) CFA_SP SP+0
        CFI (cfiCond139) CFA_XSP16 add(XSP16, 26)
        CFI Block cfiCond140 Using cfiCommon0
        CFI (cfiCond140) NoFunction
        CFI (cfiCond140) Conditional ??CrossCallReturnLabel_117
        CFI (cfiCond140) R6 load(1, XDATA, add(CFA_XSP16, literal(-20)))
        CFI (cfiCond140) VB load(1, XDATA, add(CFA_XSP16, literal(-19)))
        CFI (cfiCond140) V0 load(1, XDATA, add(CFA_XSP16, literal(-18)))
        CFI (cfiCond140) V1 load(1, XDATA, add(CFA_XSP16, literal(-17)))
        CFI (cfiCond140) V2 load(1, XDATA, add(CFA_XSP16, literal(-16)))
        CFI (cfiCond140) V3 load(1, XDATA, add(CFA_XSP16, literal(-15)))
        CFI (cfiCond140) V4 load(1, XDATA, add(CFA_XSP16, literal(-14)))
        CFI (cfiCond140) V5 load(1, XDATA, add(CFA_XSP16, literal(-13)))
        CFI (cfiCond140) V6 load(1, XDATA, add(CFA_XSP16, literal(-12)))
        CFI (cfiCond140) V7 load(1, XDATA, add(CFA_XSP16, literal(-11)))
        CFI (cfiCond140) V8 load(1, XDATA, add(CFA_XSP16, literal(-10)))
        CFI (cfiCond140) V9 load(1, XDATA, add(CFA_XSP16, literal(-9)))
        CFI (cfiCond140) V10 load(1, XDATA, add(CFA_XSP16, literal(-8)))
        CFI (cfiCond140) V11 load(1, XDATA, add(CFA_XSP16, literal(-7)))
        CFI (cfiCond140) R7 load(1, XDATA, add(CFA_XSP16, literal(-6)))
        CFI (cfiCond140) ?RET_LOW load(1, XDATA, add(CFA_XSP16, literal(-5)))
        CFI (cfiCond140) ?RET_HIGH load(1, XDATA, add(CFA_XSP16, literal(-4)))
        CFI (cfiCond140) ?BRET_EXT load(1, XDATA, add(CFA_XSP16, literal(-3)))
        CFI (cfiCond140) DPL0 load(1, XDATA, add(CFA_XSP16, literal(-2)))
        CFI (cfiCond140) DPH0 load(1, XDATA, add(CFA_XSP16, literal(-1)))
        CFI (cfiCond140) CFA_SP SP+0
        CFI (cfiCond140) CFA_XSP16 add(XSP16, 26)
        CFI Block cfiPicker141 Using cfiCommon1
        CFI (cfiPicker141) NoFunction
        CFI (cfiPicker141) Picker
        MOV     R2,?V0 + 4
        MOV     R3,?V0 + 5
        CFI EndBlock cfiCond138
        CFI EndBlock cfiCond139
        CFI EndBlock cfiCond140
        CFI EndBlock cfiPicker141
        REQUIRE ??Subroutine50_0
        ; // Fall through to label ??Subroutine50_0

        RSEG BANKED_CODE:CODE:NOROOT(0)
??Subroutine50_0:
        CFI Block cfiCond142 Using cfiCommon0
        CFI NoFunction
        CFI Conditional ??CrossCallReturnLabel_118
        CFI R6 load(1, XDATA, add(CFA_XSP16, literal(-22)))
        CFI VB load(1, XDATA, add(CFA_XSP16, literal(-21)))
        CFI V0 load(1, XDATA, add(CFA_XSP16, literal(-20)))
        CFI V1 load(1, XDATA, add(CFA_XSP16, literal(-19)))
        CFI V2 load(1, XDATA, add(CFA_XSP16, literal(-18)))
        CFI V3 load(1, XDATA, add(CFA_XSP16, literal(-17)))
        CFI V4 load(1, XDATA, add(CFA_XSP16, literal(-16)))
        CFI V5 load(1, XDATA, add(CFA_XSP16, literal(-15)))
        CFI V6 load(1, XDATA, add(CFA_XSP16, literal(-14)))
        CFI V7 load(1, XDATA, add(CFA_XSP16, literal(-13)))
        CFI V8 load(1, XDATA, add(CFA_XSP16, literal(-12)))
        CFI V9 load(1, XDATA, add(CFA_XSP16, literal(-11)))
        CFI V10 load(1, XDATA, add(CFA_XSP16, literal(-10)))
        CFI V11 load(1, XDATA, add(CFA_XSP16, literal(-9)))
        CFI V12 load(1, XDATA, add(CFA_XSP16, literal(-8)))
        CFI V13 load(1, XDATA, add(CFA_XSP16, literal(-7)))
        CFI R7 load(1, XDATA, add(CFA_XSP16, literal(-6)))
        CFI ?RET_LOW load(1, XDATA, add(CFA_XSP16, literal(-5)))
        CFI ?RET_HIGH load(1, XDATA, add(CFA_XSP16, literal(-4)))
        CFI ?BRET_EXT load(1, XDATA, add(CFA_XSP16, literal(-3)))
        CFI DPL0 load(1, XDATA, add(CFA_XSP16, literal(-2)))
        CFI DPH0 load(1, XDATA, add(CFA_XSP16, literal(-1)))
        CFI CFA_SP SP+0
        CFI CFA_XSP16 add(XSP16, 32)
        CFI Block cfiCond143 Using cfiCommon0
        CFI (cfiCond143) NoFunction
        CFI (cfiCond143) Conditional ??CrossCallReturnLabel_119
        CFI (cfiCond143) R6 load(1, XDATA, add(CFA_XSP16, literal(-24)))
        CFI (cfiCond143) VB load(1, XDATA, add(CFA_XSP16, literal(-23)))
        CFI (cfiCond143) V0 load(1, XDATA, add(CFA_XSP16, literal(-22)))
        CFI (cfiCond143) V1 load(1, XDATA, add(CFA_XSP16, literal(-21)))
        CFI (cfiCond143) V2 load(1, XDATA, add(CFA_XSP16, literal(-20)))
        CFI (cfiCond143) V3 load(1, XDATA, add(CFA_XSP16, literal(-19)))
        CFI (cfiCond143) V4 load(1, XDATA, add(CFA_XSP16, literal(-18)))
        CFI (cfiCond143) V5 load(1, XDATA, add(CFA_XSP16, literal(-17)))
        CFI (cfiCond143) V6 load(1, XDATA, add(CFA_XSP16, literal(-16)))
        CFI (cfiCond143) V7 load(1, XDATA, add(CFA_XSP16, literal(-15)))
        CFI (cfiCond143) V8 load(1, XDATA, add(CFA_XSP16, literal(-14)))
        CFI (cfiCond143) V9 load(1, XDATA, add(CFA_XSP16, literal(-13)))
        CFI (cfiCond143) V10 load(1, XDATA, add(CFA_XSP16, literal(-12)))
        CFI (cfiCond143) V11 load(1, XDATA, add(CFA_XSP16, literal(-11)))
        CFI (cfiCond143) V12 load(1, XDATA, add(CFA_XSP16, literal(-10)))
        CFI (cfiCond143) V13 load(1, XDATA, add(CFA_XSP16, literal(-9)))
        CFI (cfiCond143) V14 load(1, XDATA, add(CFA_XSP16, literal(-8)))
        CFI (cfiCond143) V15 load(1, XDATA, add(CFA_XSP16, literal(-7)))
        CFI (cfiCond143) R7 load(1, XDATA, add(CFA_XSP16, literal(-6)))
        CFI (cfiCond143) ?RET_LOW load(1, XDATA, add(CFA_XSP16, literal(-5)))
        CFI (cfiCond143) ?RET_HIGH load(1, XDATA, add(CFA_XSP16, literal(-4)))
        CFI (cfiCond143) ?BRET_EXT load(1, XDATA, add(CFA_XSP16, literal(-3)))
        CFI (cfiCond143) DPL0 load(1, XDATA, add(CFA_XSP16, literal(-2)))
        CFI (cfiCond143) DPH0 load(1, XDATA, add(CFA_XSP16, literal(-1)))
        CFI (cfiCond143) CFA_SP SP+0
        CFI (cfiCond143) CFA_XSP16 add(XSP16, 51)
        CFI Block cfiCond144 Using cfiCommon0
        CFI (cfiCond144) NoFunction
        CFI (cfiCond144) Conditional ??CrossCallReturnLabel_120
        CFI (cfiCond144) R6 load(1, XDATA, add(CFA_XSP16, literal(-24)))
        CFI (cfiCond144) VB load(1, XDATA, add(CFA_XSP16, literal(-23)))
        CFI (cfiCond144) V0 load(1, XDATA, add(CFA_XSP16, literal(-22)))
        CFI (cfiCond144) V1 load(1, XDATA, add(CFA_XSP16, literal(-21)))
        CFI (cfiCond144) V2 load(1, XDATA, add(CFA_XSP16, literal(-20)))
        CFI (cfiCond144) V3 load(1, XDATA, add(CFA_XSP16, literal(-19)))
        CFI (cfiCond144) V4 load(1, XDATA, add(CFA_XSP16, literal(-18)))
        CFI (cfiCond144) V5 load(1, XDATA, add(CFA_XSP16, literal(-17)))
        CFI (cfiCond144) V6 load(1, XDATA, add(CFA_XSP16, literal(-16)))
        CFI (cfiCond144) V7 load(1, XDATA, add(CFA_XSP16, literal(-15)))
        CFI (cfiCond144) V8 load(1, XDATA, add(CFA_XSP16, literal(-14)))
        CFI (cfiCond144) V9 load(1, XDATA, add(CFA_XSP16, literal(-13)))
        CFI (cfiCond144) V10 load(1, XDATA, add(CFA_XSP16, literal(-12)))
        CFI (cfiCond144) V11 load(1, XDATA, add(CFA_XSP16, literal(-11)))
        CFI (cfiCond144) V12 load(1, XDATA, add(CFA_XSP16, literal(-10)))
        CFI (cfiCond144) V13 load(1, XDATA, add(CFA_XSP16, literal(-9)))
        CFI (cfiCond144) V14 load(1, XDATA, add(CFA_XSP16, literal(-8)))
        CFI (cfiCond144) V15 load(1, XDATA, add(CFA_XSP16, literal(-7)))
        CFI (cfiCond144) R7 load(1, XDATA, add(CFA_XSP16, literal(-6)))
        CFI (cfiCond144) ?RET_LOW load(1, XDATA, add(CFA_XSP16, literal(-5)))
        CFI (cfiCond144) ?RET_HIGH load(1, XDATA, add(CFA_XSP16, literal(-4)))
        CFI (cfiCond144) ?BRET_EXT load(1, XDATA, add(CFA_XSP16, literal(-3)))
        CFI (cfiCond144) DPL0 load(1, XDATA, add(CFA_XSP16, literal(-2)))
        CFI (cfiCond144) DPH0 load(1, XDATA, add(CFA_XSP16, literal(-1)))
        CFI (cfiCond144) CFA_SP SP+0
        CFI (cfiCond144) CFA_XSP16 add(XSP16, 51)
        CFI Block cfiCond145 Using cfiCommon0
        CFI (cfiCond145) NoFunction
        CFI (cfiCond145) Conditional ??CrossCallReturnLabel_115
        CFI (cfiCond145) R6 load(1, XDATA, add(CFA_XSP16, literal(-20)))
        CFI (cfiCond145) VB load(1, XDATA, add(CFA_XSP16, literal(-19)))
        CFI (cfiCond145) V0 load(1, XDATA, add(CFA_XSP16, literal(-18)))
        CFI (cfiCond145) V1 load(1, XDATA, add(CFA_XSP16, literal(-17)))
        CFI (cfiCond145) V2 load(1, XDATA, add(CFA_XSP16, literal(-16)))
        CFI (cfiCond145) V3 load(1, XDATA, add(CFA_XSP16, literal(-15)))
        CFI (cfiCond145) V4 load(1, XDATA, add(CFA_XSP16, literal(-14)))
        CFI (cfiCond145) V5 load(1, XDATA, add(CFA_XSP16, literal(-13)))
        CFI (cfiCond145) V6 load(1, XDATA, add(CFA_XSP16, literal(-12)))
        CFI (cfiCond145) V7 load(1, XDATA, add(CFA_XSP16, literal(-11)))
        CFI (cfiCond145) V8 load(1, XDATA, add(CFA_XSP16, literal(-10)))
        CFI (cfiCond145) V9 load(1, XDATA, add(CFA_XSP16, literal(-9)))
        CFI (cfiCond145) V10 load(1, XDATA, add(CFA_XSP16, literal(-8)))
        CFI (cfiCond145) V11 load(1, XDATA, add(CFA_XSP16, literal(-7)))
        CFI (cfiCond145) R7 load(1, XDATA, add(CFA_XSP16, literal(-6)))
        CFI (cfiCond145) ?RET_LOW load(1, XDATA, add(CFA_XSP16, literal(-5)))
        CFI (cfiCond145) ?RET_HIGH load(1, XDATA, add(CFA_XSP16, literal(-4)))
        CFI (cfiCond145) ?BRET_EXT load(1, XDATA, add(CFA_XSP16, literal(-3)))
        CFI (cfiCond145) DPL0 load(1, XDATA, add(CFA_XSP16, literal(-2)))
        CFI (cfiCond145) DPH0 load(1, XDATA, add(CFA_XSP16, literal(-1)))
        CFI (cfiCond145) CFA_SP SP+0
        CFI (cfiCond145) CFA_XSP16 add(XSP16, 26)
        CFI Block cfiCond146 Using cfiCommon0
        CFI (cfiCond146) NoFunction
        CFI (cfiCond146) Conditional ??CrossCallReturnLabel_116
        CFI (cfiCond146) R6 load(1, XDATA, add(CFA_XSP16, literal(-20)))
        CFI (cfiCond146) VB load(1, XDATA, add(CFA_XSP16, literal(-19)))
        CFI (cfiCond146) V0 load(1, XDATA, add(CFA_XSP16, literal(-18)))
        CFI (cfiCond146) V1 load(1, XDATA, add(CFA_XSP16, literal(-17)))
        CFI (cfiCond146) V2 load(1, XDATA, add(CFA_XSP16, literal(-16)))
        CFI (cfiCond146) V3 load(1, XDATA, add(CFA_XSP16, literal(-15)))
        CFI (cfiCond146) V4 load(1, XDATA, add(CFA_XSP16, literal(-14)))
        CFI (cfiCond146) V5 load(1, XDATA, add(CFA_XSP16, literal(-13)))
        CFI (cfiCond146) V6 load(1, XDATA, add(CFA_XSP16, literal(-12)))
        CFI (cfiCond146) V7 load(1, XDATA, add(CFA_XSP16, literal(-11)))
        CFI (cfiCond146) V8 load(1, XDATA, add(CFA_XSP16, literal(-10)))
        CFI (cfiCond146) V9 load(1, XDATA, add(CFA_XSP16, literal(-9)))
        CFI (cfiCond146) V10 load(1, XDATA, add(CFA_XSP16, literal(-8)))
        CFI (cfiCond146) V11 load(1, XDATA, add(CFA_XSP16, literal(-7)))
        CFI (cfiCond146) R7 load(1, XDATA, add(CFA_XSP16, literal(-6)))
        CFI (cfiCond146) ?RET_LOW load(1, XDATA, add(CFA_XSP16, literal(-5)))
        CFI (cfiCond146) ?RET_HIGH load(1, XDATA, add(CFA_XSP16, literal(-4)))
        CFI (cfiCond146) ?BRET_EXT load(1, XDATA, add(CFA_XSP16, literal(-3)))
        CFI (cfiCond146) DPL0 load(1, XDATA, add(CFA_XSP16, literal(-2)))
        CFI (cfiCond146) DPH0 load(1, XDATA, add(CFA_XSP16, literal(-1)))
        CFI (cfiCond146) CFA_SP SP+0
        CFI (cfiCond146) CFA_XSP16 add(XSP16, 26)
        CFI Block cfiCond147 Using cfiCommon0
        CFI (cfiCond147) NoFunction
        CFI (cfiCond147) Conditional ??CrossCallReturnLabel_117
        CFI (cfiCond147) R6 load(1, XDATA, add(CFA_XSP16, literal(-20)))
        CFI (cfiCond147) VB load(1, XDATA, add(CFA_XSP16, literal(-19)))
        CFI (cfiCond147) V0 load(1, XDATA, add(CFA_XSP16, literal(-18)))
        CFI (cfiCond147) V1 load(1, XDATA, add(CFA_XSP16, literal(-17)))
        CFI (cfiCond147) V2 load(1, XDATA, add(CFA_XSP16, literal(-16)))
        CFI (cfiCond147) V3 load(1, XDATA, add(CFA_XSP16, literal(-15)))
        CFI (cfiCond147) V4 load(1, XDATA, add(CFA_XSP16, literal(-14)))
        CFI (cfiCond147) V5 load(1, XDATA, add(CFA_XSP16, literal(-13)))
        CFI (cfiCond147) V6 load(1, XDATA, add(CFA_XSP16, literal(-12)))
        CFI (cfiCond147) V7 load(1, XDATA, add(CFA_XSP16, literal(-11)))
        CFI (cfiCond147) V8 load(1, XDATA, add(CFA_XSP16, literal(-10)))
        CFI (cfiCond147) V9 load(1, XDATA, add(CFA_XSP16, literal(-9)))
        CFI (cfiCond147) V10 load(1, XDATA, add(CFA_XSP16, literal(-8)))
        CFI (cfiCond147) V11 load(1, XDATA, add(CFA_XSP16, literal(-7)))
        CFI (cfiCond147) R7 load(1, XDATA, add(CFA_XSP16, literal(-6)))
        CFI (cfiCond147) ?RET_LOW load(1, XDATA, add(CFA_XSP16, literal(-5)))
        CFI (cfiCond147) ?RET_HIGH load(1, XDATA, add(CFA_XSP16, literal(-4)))
        CFI (cfiCond147) ?BRET_EXT load(1, XDATA, add(CFA_XSP16, literal(-3)))
        CFI (cfiCond147) DPL0 load(1, XDATA, add(CFA_XSP16, literal(-2)))
        CFI (cfiCond147) DPH0 load(1, XDATA, add(CFA_XSP16, literal(-1)))
        CFI (cfiCond147) CFA_SP SP+0
        CFI (cfiCond147) CFA_XSP16 add(XSP16, 26)
        CFI Block cfiPicker148 Using cfiCommon1
        CFI (cfiPicker148) NoFunction
        CFI (cfiPicker148) Picker
        MOV     R1,?V0 + 8
        CFI EndBlock cfiCond142
        CFI EndBlock cfiCond143
        CFI EndBlock cfiCond144
        CFI EndBlock cfiCond145
        CFI EndBlock cfiCond146
        CFI EndBlock cfiCond147
        CFI EndBlock cfiPicker148
        REQUIRE ??Subroutine51_0
        ; // Fall through to label ??Subroutine51_0

        RSEG BANKED_CODE:CODE:NOROOT(0)
??Subroutine51_0:
        CFI Block cfiCond149 Using cfiCommon0
        CFI NoFunction
        CFI Conditional ??CrossCallReturnLabel_121
        CFI R6 load(1, XDATA, add(CFA_XSP16, literal(-14)))
        CFI VB load(1, XDATA, add(CFA_XSP16, literal(-13)))
        CFI V0 load(1, XDATA, add(CFA_XSP16, literal(-12)))
        CFI V1 load(1, XDATA, add(CFA_XSP16, literal(-11)))
        CFI V2 load(1, XDATA, add(CFA_XSP16, literal(-10)))
        CFI V3 load(1, XDATA, add(CFA_XSP16, literal(-9)))
        CFI V4 load(1, XDATA, add(CFA_XSP16, literal(-8)))
        CFI V5 load(1, XDATA, add(CFA_XSP16, literal(-7)))
        CFI R7 load(1, XDATA, add(CFA_XSP16, literal(-6)))
        CFI ?RET_LOW load(1, XDATA, add(CFA_XSP16, literal(-5)))
        CFI ?RET_HIGH load(1, XDATA, add(CFA_XSP16, literal(-4)))
        CFI ?BRET_EXT load(1, XDATA, add(CFA_XSP16, literal(-3)))
        CFI DPL0 load(1, XDATA, add(CFA_XSP16, literal(-2)))
        CFI DPH0 load(1, XDATA, add(CFA_XSP16, literal(-1)))
        CFI CFA_SP SP+0
        CFI CFA_XSP16 add(XSP16, 32)
        CFI Block cfiCond150 Using cfiCommon0
        CFI (cfiCond150) NoFunction
        CFI (cfiCond150) Conditional ??CrossCallReturnLabel_122
        CFI (cfiCond150) R6 load(1, XDATA, add(CFA_XSP16, literal(-22)))
        CFI (cfiCond150) VB load(1, XDATA, add(CFA_XSP16, literal(-21)))
        CFI (cfiCond150) V0 load(1, XDATA, add(CFA_XSP16, literal(-20)))
        CFI (cfiCond150) V1 load(1, XDATA, add(CFA_XSP16, literal(-19)))
        CFI (cfiCond150) V2 load(1, XDATA, add(CFA_XSP16, literal(-18)))
        CFI (cfiCond150) V3 load(1, XDATA, add(CFA_XSP16, literal(-17)))
        CFI (cfiCond150) V4 load(1, XDATA, add(CFA_XSP16, literal(-16)))
        CFI (cfiCond150) V5 load(1, XDATA, add(CFA_XSP16, literal(-15)))
        CFI (cfiCond150) V6 load(1, XDATA, add(CFA_XSP16, literal(-14)))
        CFI (cfiCond150) V7 load(1, XDATA, add(CFA_XSP16, literal(-13)))
        CFI (cfiCond150) V8 load(1, XDATA, add(CFA_XSP16, literal(-12)))
        CFI (cfiCond150) V9 load(1, XDATA, add(CFA_XSP16, literal(-11)))
        CFI (cfiCond150) V10 load(1, XDATA, add(CFA_XSP16, literal(-10)))
        CFI (cfiCond150) V11 load(1, XDATA, add(CFA_XSP16, literal(-9)))
        CFI (cfiCond150) V12 load(1, XDATA, add(CFA_XSP16, literal(-8)))
        CFI (cfiCond150) V13 load(1, XDATA, add(CFA_XSP16, literal(-7)))
        CFI (cfiCond150) R7 load(1, XDATA, add(CFA_XSP16, literal(-6)))
        CFI (cfiCond150) ?RET_LOW load(1, XDATA, add(CFA_XSP16, literal(-5)))
        CFI (cfiCond150) ?RET_HIGH load(1, XDATA, add(CFA_XSP16, literal(-4)))
        CFI (cfiCond150) ?BRET_EXT load(1, XDATA, add(CFA_XSP16, literal(-3)))
        CFI (cfiCond150) DPL0 load(1, XDATA, add(CFA_XSP16, literal(-2)))
        CFI (cfiCond150) DPH0 load(1, XDATA, add(CFA_XSP16, literal(-1)))
        CFI (cfiCond150) CFA_SP SP+0
        CFI (cfiCond150) CFA_XSP16 add(XSP16, 39)
        CFI Block cfiCond151 Using cfiCommon0
        CFI (cfiCond151) NoFunction
        CFI (cfiCond151) Conditional ??CrossCallReturnLabel_123
        CFI (cfiCond151) R6 load(1, XDATA, add(CFA_XSP16, literal(-22)))
        CFI (cfiCond151) VB load(1, XDATA, add(CFA_XSP16, literal(-21)))
        CFI (cfiCond151) V0 load(1, XDATA, add(CFA_XSP16, literal(-20)))
        CFI (cfiCond151) V1 load(1, XDATA, add(CFA_XSP16, literal(-19)))
        CFI (cfiCond151) V2 load(1, XDATA, add(CFA_XSP16, literal(-18)))
        CFI (cfiCond151) V3 load(1, XDATA, add(CFA_XSP16, literal(-17)))
        CFI (cfiCond151) V4 load(1, XDATA, add(CFA_XSP16, literal(-16)))
        CFI (cfiCond151) V5 load(1, XDATA, add(CFA_XSP16, literal(-15)))
        CFI (cfiCond151) V6 load(1, XDATA, add(CFA_XSP16, literal(-14)))
        CFI (cfiCond151) V7 load(1, XDATA, add(CFA_XSP16, literal(-13)))
        CFI (cfiCond151) V8 load(1, XDATA, add(CFA_XSP16, literal(-12)))
        CFI (cfiCond151) V9 load(1, XDATA, add(CFA_XSP16, literal(-11)))
        CFI (cfiCond151) V10 load(1, XDATA, add(CFA_XSP16, literal(-10)))
        CFI (cfiCond151) V11 load(1, XDATA, add(CFA_XSP16, literal(-9)))
        CFI (cfiCond151) V12 load(1, XDATA, add(CFA_XSP16, literal(-8)))
        CFI (cfiCond151) V13 load(1, XDATA, add(CFA_XSP16, literal(-7)))
        CFI (cfiCond151) R7 load(1, XDATA, add(CFA_XSP16, literal(-6)))
        CFI (cfiCond151) ?RET_LOW load(1, XDATA, add(CFA_XSP16, literal(-5)))
        CFI (cfiCond151) ?RET_HIGH load(1, XDATA, add(CFA_XSP16, literal(-4)))
        CFI (cfiCond151) ?BRET_EXT load(1, XDATA, add(CFA_XSP16, literal(-3)))
        CFI (cfiCond151) DPL0 load(1, XDATA, add(CFA_XSP16, literal(-2)))
        CFI (cfiCond151) DPH0 load(1, XDATA, add(CFA_XSP16, literal(-1)))
        CFI (cfiCond151) CFA_SP SP+0
        CFI (cfiCond151) CFA_XSP16 add(XSP16, 39)
        CFI Block cfiCond152 Using cfiCommon0
        CFI (cfiCond152) NoFunction
        CFI (cfiCond152) Conditional ??CrossCallReturnLabel_124
        CFI (cfiCond152) R6 load(1, XDATA, add(CFA_XSP16, literal(-22)))
        CFI (cfiCond152) VB load(1, XDATA, add(CFA_XSP16, literal(-21)))
        CFI (cfiCond152) V0 load(1, XDATA, add(CFA_XSP16, literal(-20)))
        CFI (cfiCond152) V1 load(1, XDATA, add(CFA_XSP16, literal(-19)))
        CFI (cfiCond152) V2 load(1, XDATA, add(CFA_XSP16, literal(-18)))
        CFI (cfiCond152) V3 load(1, XDATA, add(CFA_XSP16, literal(-17)))
        CFI (cfiCond152) V4 load(1, XDATA, add(CFA_XSP16, literal(-16)))
        CFI (cfiCond152) V5 load(1, XDATA, add(CFA_XSP16, literal(-15)))
        CFI (cfiCond152) V6 load(1, XDATA, add(CFA_XSP16, literal(-14)))
        CFI (cfiCond152) V7 load(1, XDATA, add(CFA_XSP16, literal(-13)))
        CFI (cfiCond152) V8 load(1, XDATA, add(CFA_XSP16, literal(-12)))
        CFI (cfiCond152) V9 load(1, XDATA, add(CFA_XSP16, literal(-11)))
        CFI (cfiCond152) V10 load(1, XDATA, add(CFA_XSP16, literal(-10)))
        CFI (cfiCond152) V11 load(1, XDATA, add(CFA_XSP16, literal(-9)))
        CFI (cfiCond152) V12 load(1, XDATA, add(CFA_XSP16, literal(-8)))
        CFI (cfiCond152) V13 load(1, XDATA, add(CFA_XSP16, literal(-7)))
        CFI (cfiCond152) R7 load(1, XDATA, add(CFA_XSP16, literal(-6)))
        CFI (cfiCond152) ?RET_LOW load(1, XDATA, add(CFA_XSP16, literal(-5)))
        CFI (cfiCond152) ?RET_HIGH load(1, XDATA, add(CFA_XSP16, literal(-4)))
        CFI (cfiCond152) ?BRET_EXT load(1, XDATA, add(CFA_XSP16, literal(-3)))
        CFI (cfiCond152) DPL0 load(1, XDATA, add(CFA_XSP16, literal(-2)))
        CFI (cfiCond152) DPH0 load(1, XDATA, add(CFA_XSP16, literal(-1)))
        CFI (cfiCond152) CFA_SP SP+0
        CFI (cfiCond152) CFA_XSP16 add(XSP16, 39)
        CFI Block cfiCond153 Using cfiCommon0
        CFI (cfiCond153) NoFunction
        CFI (cfiCond153) Conditional ??CrossCallReturnLabel_125
        CFI (cfiCond153) R6 load(1, XDATA, add(CFA_XSP16, literal(-18)))
        CFI (cfiCond153) VB load(1, XDATA, add(CFA_XSP16, literal(-17)))
        CFI (cfiCond153) V0 load(1, XDATA, add(CFA_XSP16, literal(-16)))
        CFI (cfiCond153) V1 load(1, XDATA, add(CFA_XSP16, literal(-15)))
        CFI (cfiCond153) V2 load(1, XDATA, add(CFA_XSP16, literal(-14)))
        CFI (cfiCond153) V3 load(1, XDATA, add(CFA_XSP16, literal(-13)))
        CFI (cfiCond153) V4 load(1, XDATA, add(CFA_XSP16, literal(-12)))
        CFI (cfiCond153) V5 load(1, XDATA, add(CFA_XSP16, literal(-11)))
        CFI (cfiCond153) V6 load(1, XDATA, add(CFA_XSP16, literal(-10)))
        CFI (cfiCond153) V7 load(1, XDATA, add(CFA_XSP16, literal(-9)))
        CFI (cfiCond153) V8 load(1, XDATA, add(CFA_XSP16, literal(-8)))
        CFI (cfiCond153) V9 load(1, XDATA, add(CFA_XSP16, literal(-7)))
        CFI (cfiCond153) R7 load(1, XDATA, add(CFA_XSP16, literal(-6)))
        CFI (cfiCond153) ?RET_LOW load(1, XDATA, add(CFA_XSP16, literal(-5)))
        CFI (cfiCond153) ?RET_HIGH load(1, XDATA, add(CFA_XSP16, literal(-4)))
        CFI (cfiCond153) ?BRET_EXT load(1, XDATA, add(CFA_XSP16, literal(-3)))
        CFI (cfiCond153) DPL0 load(1, XDATA, add(CFA_XSP16, literal(-2)))
        CFI (cfiCond153) DPH0 load(1, XDATA, add(CFA_XSP16, literal(-1)))
        CFI (cfiCond153) CFA_SP SP+0
        CFI (cfiCond153) CFA_XSP16 add(XSP16, 42)
        CFI Block cfiCond154 Using cfiCommon0
        CFI (cfiCond154) NoFunction
        CFI (cfiCond154) Conditional ??CrossCallReturnLabel_126
        CFI (cfiCond154) R6 load(1, XDATA, add(CFA_XSP16, literal(-14)))
        CFI (cfiCond154) VB load(1, XDATA, add(CFA_XSP16, literal(-13)))
        CFI (cfiCond154) V0 load(1, XDATA, add(CFA_XSP16, literal(-12)))
        CFI (cfiCond154) V1 load(1, XDATA, add(CFA_XSP16, literal(-11)))
        CFI (cfiCond154) V2 load(1, XDATA, add(CFA_XSP16, literal(-10)))
        CFI (cfiCond154) V3 load(1, XDATA, add(CFA_XSP16, literal(-9)))
        CFI (cfiCond154) V4 load(1, XDATA, add(CFA_XSP16, literal(-8)))
        CFI (cfiCond154) V5 load(1, XDATA, add(CFA_XSP16, literal(-7)))
        CFI (cfiCond154) R7 load(1, XDATA, add(CFA_XSP16, literal(-6)))
        CFI (cfiCond154) ?RET_LOW load(1, XDATA, add(CFA_XSP16, literal(-5)))
        CFI (cfiCond154) ?RET_HIGH load(1, XDATA, add(CFA_XSP16, literal(-4)))
        CFI (cfiCond154) ?BRET_EXT load(1, XDATA, add(CFA_XSP16, literal(-3)))
        CFI (cfiCond154) DPL0 load(1, XDATA, add(CFA_XSP16, literal(-2)))
        CFI (cfiCond154) DPH0 load(1, XDATA, add(CFA_XSP16, literal(-1)))
        CFI (cfiCond154) CFA_SP SP+0
        CFI (cfiCond154) CFA_XSP16 add(XSP16, 24)
        CFI Block cfiCond155 Using cfiCommon0
        CFI (cfiCond155) NoFunction
        CFI (cfiCond155) Conditional ??CrossCallReturnLabel_127
        CFI (cfiCond155) R6 load(1, XDATA, add(CFA_XSP16, literal(-16)))
        CFI (cfiCond155) VB load(1, XDATA, add(CFA_XSP16, literal(-15)))
        CFI (cfiCond155) V0 load(1, XDATA, add(CFA_XSP16, literal(-14)))
        CFI (cfiCond155) V1 load(1, XDATA, add(CFA_XSP16, literal(-13)))
        CFI (cfiCond155) V2 load(1, XDATA, add(CFA_XSP16, literal(-12)))
        CFI (cfiCond155) V3 load(1, XDATA, add(CFA_XSP16, literal(-11)))
        CFI (cfiCond155) V4 load(1, XDATA, add(CFA_XSP16, literal(-10)))
        CFI (cfiCond155) V5 load(1, XDATA, add(CFA_XSP16, literal(-9)))
        CFI (cfiCond155) V6 load(1, XDATA, add(CFA_XSP16, literal(-8)))
        CFI (cfiCond155) V7 load(1, XDATA, add(CFA_XSP16, literal(-7)))
        CFI (cfiCond155) R7 load(1, XDATA, add(CFA_XSP16, literal(-6)))
        CFI (cfiCond155) ?RET_LOW load(1, XDATA, add(CFA_XSP16, literal(-5)))
        CFI (cfiCond155) ?RET_HIGH load(1, XDATA, add(CFA_XSP16, literal(-4)))
        CFI (cfiCond155) ?BRET_EXT load(1, XDATA, add(CFA_XSP16, literal(-3)))
        CFI (cfiCond155) DPL0 load(1, XDATA, add(CFA_XSP16, literal(-2)))
        CFI (cfiCond155) DPH0 load(1, XDATA, add(CFA_XSP16, literal(-1)))
        CFI (cfiCond155) CFA_SP SP+0
        CFI (cfiCond155) CFA_XSP16 add(XSP16, 22)
        CFI Block cfiCond156 Using cfiCommon0
        CFI (cfiCond156) NoFunction
        CFI (cfiCond156) Conditional ??CrossCallReturnLabel_128
        CFI (cfiCond156) R6 load(1, XDATA, add(CFA_XSP16, literal(-18)))
        CFI (cfiCond156) VB load(1, XDATA, add(CFA_XSP16, literal(-17)))
        CFI (cfiCond156) V0 load(1, XDATA, add(CFA_XSP16, literal(-16)))
        CFI (cfiCond156) V1 load(1, XDATA, add(CFA_XSP16, literal(-15)))
        CFI (cfiCond156) V2 load(1, XDATA, add(CFA_XSP16, literal(-14)))
        CFI (cfiCond156) V3 load(1, XDATA, add(CFA_XSP16, literal(-13)))
        CFI (cfiCond156) V4 load(1, XDATA, add(CFA_XSP16, literal(-12)))
        CFI (cfiCond156) V5 load(1, XDATA, add(CFA_XSP16, literal(-11)))
        CFI (cfiCond156) V6 load(1, XDATA, add(CFA_XSP16, literal(-10)))
        CFI (cfiCond156) V7 load(1, XDATA, add(CFA_XSP16, literal(-9)))
        CFI (cfiCond156) V8 load(1, XDATA, add(CFA_XSP16, literal(-8)))
        CFI (cfiCond156) V9 load(1, XDATA, add(CFA_XSP16, literal(-7)))
        CFI (cfiCond156) R7 load(1, XDATA, add(CFA_XSP16, literal(-6)))
        CFI (cfiCond156) ?RET_LOW load(1, XDATA, add(CFA_XSP16, literal(-5)))
        CFI (cfiCond156) ?RET_HIGH load(1, XDATA, add(CFA_XSP16, literal(-4)))
        CFI (cfiCond156) ?BRET_EXT load(1, XDATA, add(CFA_XSP16, literal(-3)))
        CFI (cfiCond156) DPL0 load(1, XDATA, add(CFA_XSP16, literal(-2)))
        CFI (cfiCond156) DPH0 load(1, XDATA, add(CFA_XSP16, literal(-1)))
        CFI (cfiCond156) CFA_SP SP+0
        CFI (cfiCond156) CFA_XSP16 add(XSP16, 24)
        CFI Block cfiCond157 Using cfiCommon0
        CFI (cfiCond157) NoFunction
        CFI (cfiCond157) Conditional ??CrossCallReturnLabel_129
        CFI (cfiCond157) R6 load(1, XDATA, add(CFA_XSP16, literal(-18)))
        CFI (cfiCond157) VB load(1, XDATA, add(CFA_XSP16, literal(-17)))
        CFI (cfiCond157) V0 load(1, XDATA, add(CFA_XSP16, literal(-16)))
        CFI (cfiCond157) V1 load(1, XDATA, add(CFA_XSP16, literal(-15)))
        CFI (cfiCond157) V2 load(1, XDATA, add(CFA_XSP16, literal(-14)))
        CFI (cfiCond157) V3 load(1, XDATA, add(CFA_XSP16, literal(-13)))
        CFI (cfiCond157) V4 load(1, XDATA, add(CFA_XSP16, literal(-12)))
        CFI (cfiCond157) V5 load(1, XDATA, add(CFA_XSP16, literal(-11)))
        CFI (cfiCond157) V6 load(1, XDATA, add(CFA_XSP16, literal(-10)))
        CFI (cfiCond157) V7 load(1, XDATA, add(CFA_XSP16, literal(-9)))
        CFI (cfiCond157) V8 load(1, XDATA, add(CFA_XSP16, literal(-8)))
        CFI (cfiCond157) V9 load(1, XDATA, add(CFA_XSP16, literal(-7)))
        CFI (cfiCond157) R7 load(1, XDATA, add(CFA_XSP16, literal(-6)))
        CFI (cfiCond157) ?RET_LOW load(1, XDATA, add(CFA_XSP16, literal(-5)))
        CFI (cfiCond157) ?RET_HIGH load(1, XDATA, add(CFA_XSP16, literal(-4)))
        CFI (cfiCond157) ?BRET_EXT load(1, XDATA, add(CFA_XSP16, literal(-3)))
        CFI (cfiCond157) DPL0 load(1, XDATA, add(CFA_XSP16, literal(-2)))
        CFI (cfiCond157) DPH0 load(1, XDATA, add(CFA_XSP16, literal(-1)))
        CFI (cfiCond157) CFA_SP SP+0
        CFI (cfiCond157) CFA_XSP16 add(XSP16, 24)
        CFI Block cfiCond158 Using cfiCommon0
        CFI (cfiCond158) NoFunction
        CFI (cfiCond158) Conditional ??CrossCallReturnLabel_130
        CFI (cfiCond158) R6 load(1, XDATA, add(CFA_XSP16, literal(-20)))
        CFI (cfiCond158) VB load(1, XDATA, add(CFA_XSP16, literal(-19)))
        CFI (cfiCond158) V0 load(1, XDATA, add(CFA_XSP16, literal(-18)))
        CFI (cfiCond158) V1 load(1, XDATA, add(CFA_XSP16, literal(-17)))
        CFI (cfiCond158) V2 load(1, XDATA, add(CFA_XSP16, literal(-16)))
        CFI (cfiCond158) V3 load(1, XDATA, add(CFA_XSP16, literal(-15)))
        CFI (cfiCond158) V4 load(1, XDATA, add(CFA_XSP16, literal(-14)))
        CFI (cfiCond158) V5 load(1, XDATA, add(CFA_XSP16, literal(-13)))
        CFI (cfiCond158) V6 load(1, XDATA, add(CFA_XSP16, literal(-12)))
        CFI (cfiCond158) V7 load(1, XDATA, add(CFA_XSP16, literal(-11)))
        CFI (cfiCond158) V8 load(1, XDATA, add(CFA_XSP16, literal(-10)))
        CFI (cfiCond158) V9 load(1, XDATA, add(CFA_XSP16, literal(-9)))
        CFI (cfiCond158) V10 load(1, XDATA, add(CFA_XSP16, literal(-8)))
        CFI (cfiCond158) V11 load(1, XDATA, add(CFA_XSP16, literal(-7)))
        CFI (cfiCond158) R7 load(1, XDATA, add(CFA_XSP16, literal(-6)))
        CFI (cfiCond158) ?RET_LOW load(1, XDATA, add(CFA_XSP16, literal(-5)))
        CFI (cfiCond158) ?RET_HIGH load(1, XDATA, add(CFA_XSP16, literal(-4)))
        CFI (cfiCond158) ?BRET_EXT load(1, XDATA, add(CFA_XSP16, literal(-3)))
        CFI (cfiCond158) DPL0 load(1, XDATA, add(CFA_XSP16, literal(-2)))
        CFI (cfiCond158) DPH0 load(1, XDATA, add(CFA_XSP16, literal(-1)))
        CFI (cfiCond158) CFA_SP SP+0
        CFI (cfiCond158) CFA_XSP16 add(XSP16, 26)
        CFI Block cfiCond159 Using cfiCommon0
        CFI (cfiCond159) NoFunction
        CFI (cfiCond159) Conditional ??CrossCallReturnLabel_131
        CFI (cfiCond159) R6 load(1, XDATA, add(CFA_XSP16, literal(-20)))
        CFI (cfiCond159) VB load(1, XDATA, add(CFA_XSP16, literal(-19)))
        CFI (cfiCond159) V0 load(1, XDATA, add(CFA_XSP16, literal(-18)))
        CFI (cfiCond159) V1 load(1, XDATA, add(CFA_XSP16, literal(-17)))
        CFI (cfiCond159) V2 load(1, XDATA, add(CFA_XSP16, literal(-16)))
        CFI (cfiCond159) V3 load(1, XDATA, add(CFA_XSP16, literal(-15)))
        CFI (cfiCond159) V4 load(1, XDATA, add(CFA_XSP16, literal(-14)))
        CFI (cfiCond159) V5 load(1, XDATA, add(CFA_XSP16, literal(-13)))
        CFI (cfiCond159) V6 load(1, XDATA, add(CFA_XSP16, literal(-12)))
        CFI (cfiCond159) V7 load(1, XDATA, add(CFA_XSP16, literal(-11)))
        CFI (cfiCond159) V8 load(1, XDATA, add(CFA_XSP16, literal(-10)))
        CFI (cfiCond159) V9 load(1, XDATA, add(CFA_XSP16, literal(-9)))
        CFI (cfiCond159) V10 load(1, XDATA, add(CFA_XSP16, literal(-8)))
        CFI (cfiCond159) V11 load(1, XDATA, add(CFA_XSP16, literal(-7)))
        CFI (cfiCond159) R7 load(1, XDATA, add(CFA_XSP16, literal(-6)))
        CFI (cfiCond159) ?RET_LOW load(1, XDATA, add(CFA_XSP16, literal(-5)))
        CFI (cfiCond159) ?RET_HIGH load(1, XDATA, add(CFA_XSP16, literal(-4)))
        CFI (cfiCond159) ?BRET_EXT load(1, XDATA, add(CFA_XSP16, literal(-3)))
        CFI (cfiCond159) DPL0 load(1, XDATA, add(CFA_XSP16, literal(-2)))
        CFI (cfiCond159) DPH0 load(1, XDATA, add(CFA_XSP16, literal(-1)))
        CFI (cfiCond159) CFA_SP SP+0
        CFI (cfiCond159) CFA_XSP16 add(XSP16, 26)
        CFI Block cfiCond160 Using cfiCommon0
        CFI (cfiCond160) NoFunction
        CFI (cfiCond160) Conditional ??CrossCallReturnLabel_132
        CFI (cfiCond160) R6 load(1, XDATA, add(CFA_XSP16, literal(-24)))
        CFI (cfiCond160) VB load(1, XDATA, add(CFA_XSP16, literal(-23)))
        CFI (cfiCond160) V0 load(1, XDATA, add(CFA_XSP16, literal(-22)))
        CFI (cfiCond160) V1 load(1, XDATA, add(CFA_XSP16, literal(-21)))
        CFI (cfiCond160) V2 load(1, XDATA, add(CFA_XSP16, literal(-20)))
        CFI (cfiCond160) V3 load(1, XDATA, add(CFA_XSP16, literal(-19)))
        CFI (cfiCond160) V4 load(1, XDATA, add(CFA_XSP16, literal(-18)))
        CFI (cfiCond160) V5 load(1, XDATA, add(CFA_XSP16, literal(-17)))
        CFI (cfiCond160) V6 load(1, XDATA, add(CFA_XSP16, literal(-16)))
        CFI (cfiCond160) V7 load(1, XDATA, add(CFA_XSP16, literal(-15)))
        CFI (cfiCond160) V8 load(1, XDATA, add(CFA_XSP16, literal(-14)))
        CFI (cfiCond160) V9 load(1, XDATA, add(CFA_XSP16, literal(-13)))
        CFI (cfiCond160) V10 load(1, XDATA, add(CFA_XSP16, literal(-12)))
        CFI (cfiCond160) V11 load(1, XDATA, add(CFA_XSP16, literal(-11)))
        CFI (cfiCond160) V12 load(1, XDATA, add(CFA_XSP16, literal(-10)))
        CFI (cfiCond160) V13 load(1, XDATA, add(CFA_XSP16, literal(-9)))
        CFI (cfiCond160) V14 load(1, XDATA, add(CFA_XSP16, literal(-8)))
        CFI (cfiCond160) V15 load(1, XDATA, add(CFA_XSP16, literal(-7)))
        CFI (cfiCond160) R7 load(1, XDATA, add(CFA_XSP16, literal(-6)))
        CFI (cfiCond160) ?RET_LOW load(1, XDATA, add(CFA_XSP16, literal(-5)))
        CFI (cfiCond160) ?RET_HIGH load(1, XDATA, add(CFA_XSP16, literal(-4)))
        CFI (cfiCond160) ?BRET_EXT load(1, XDATA, add(CFA_XSP16, literal(-3)))
        CFI (cfiCond160) DPL0 load(1, XDATA, add(CFA_XSP16, literal(-2)))
        CFI (cfiCond160) DPH0 load(1, XDATA, add(CFA_XSP16, literal(-1)))
        CFI (cfiCond160) CFA_SP SP+0
        CFI (cfiCond160) CFA_XSP16 add(XSP16, 42)
        CFI Block cfiCond161 Using cfiCommon0
        CFI (cfiCond161) NoFunction
        CFI (cfiCond161) Conditional ??CrossCallReturnLabel_133
        CFI (cfiCond161) R6 load(1, XDATA, add(CFA_XSP16, literal(-24)))
        CFI (cfiCond161) VB load(1, XDATA, add(CFA_XSP16, literal(-23)))
        CFI (cfiCond161) V0 load(1, XDATA, add(CFA_XSP16, literal(-22)))
        CFI (cfiCond161) V1 load(1, XDATA, add(CFA_XSP16, literal(-21)))
        CFI (cfiCond161) V2 load(1, XDATA, add(CFA_XSP16, literal(-20)))
        CFI (cfiCond161) V3 load(1, XDATA, add(CFA_XSP16, literal(-19)))
        CFI (cfiCond161) V4 load(1, XDATA, add(CFA_XSP16, literal(-18)))
        CFI (cfiCond161) V5 load(1, XDATA, add(CFA_XSP16, literal(-17)))
        CFI (cfiCond161) V6 load(1, XDATA, add(CFA_XSP16, literal(-16)))
        CFI (cfiCond161) V7 load(1, XDATA, add(CFA_XSP16, literal(-15)))
        CFI (cfiCond161) V8 load(1, XDATA, add(CFA_XSP16, literal(-14)))
        CFI (cfiCond161) V9 load(1, XDATA, add(CFA_XSP16, literal(-13)))
        CFI (cfiCond161) V10 load(1, XDATA, add(CFA_XSP16, literal(-12)))
        CFI (cfiCond161) V11 load(1, XDATA, add(CFA_XSP16, literal(-11)))
        CFI (cfiCond161) V12 load(1, XDATA, add(CFA_XSP16, literal(-10)))
        CFI (cfiCond161) V13 load(1, XDATA, add(CFA_XSP16, literal(-9)))
        CFI (cfiCond161) V14 load(1, XDATA, add(CFA_XSP16, literal(-8)))
        CFI (cfiCond161) V15 load(1, XDATA, add(CFA_XSP16, literal(-7)))
        CFI (cfiCond161) R7 load(1, XDATA, add(CFA_XSP16, literal(-6)))
        CFI (cfiCond161) ?RET_LOW load(1, XDATA, add(CFA_XSP16, literal(-5)))
        CFI (cfiCond161) ?RET_HIGH load(1, XDATA, add(CFA_XSP16, literal(-4)))
        CFI (cfiCond161) ?BRET_EXT load(1, XDATA, add(CFA_XSP16, literal(-3)))
        CFI (cfiCond161) DPL0 load(1, XDATA, add(CFA_XSP16, literal(-2)))
        CFI (cfiCond161) DPH0 load(1, XDATA, add(CFA_XSP16, literal(-1)))
        CFI (cfiCond161) CFA_SP SP+0
        CFI (cfiCond161) CFA_XSP16 add(XSP16, 42)
        CFI Block cfiCond162 Using cfiCommon0
        CFI (cfiCond162) NoFunction
        CFI (cfiCond162) Conditional ??CrossCallReturnLabel_134
        CFI (cfiCond162) R6 load(1, XDATA, add(CFA_XSP16, literal(-10)))
        CFI (cfiCond162) VB load(1, XDATA, add(CFA_XSP16, literal(-9)))
        CFI (cfiCond162) V0 load(1, XDATA, add(CFA_XSP16, literal(-8)))
        CFI (cfiCond162) V1 load(1, XDATA, add(CFA_XSP16, literal(-7)))
        CFI (cfiCond162) R7 load(1, XDATA, add(CFA_XSP16, literal(-6)))
        CFI (cfiCond162) ?RET_LOW load(1, XDATA, add(CFA_XSP16, literal(-5)))
        CFI (cfiCond162) ?RET_HIGH load(1, XDATA, add(CFA_XSP16, literal(-4)))
        CFI (cfiCond162) ?BRET_EXT load(1, XDATA, add(CFA_XSP16, literal(-3)))
        CFI (cfiCond162) DPL0 load(1, XDATA, add(CFA_XSP16, literal(-2)))
        CFI (cfiCond162) DPH0 load(1, XDATA, add(CFA_XSP16, literal(-1)))
        CFI (cfiCond162) CFA_SP SP+0
        CFI (cfiCond162) CFA_XSP16 add(XSP16, 20)
        CFI Block cfiCond163 Using cfiCommon0
        CFI (cfiCond163) NoFunction
        CFI (cfiCond163) Conditional ??CrossCallReturnLabel_135
        CFI (cfiCond163) R6 load(1, XDATA, add(CFA_XSP16, literal(-24)))
        CFI (cfiCond163) VB load(1, XDATA, add(CFA_XSP16, literal(-23)))
        CFI (cfiCond163) V0 load(1, XDATA, add(CFA_XSP16, literal(-22)))
        CFI (cfiCond163) V1 load(1, XDATA, add(CFA_XSP16, literal(-21)))
        CFI (cfiCond163) V2 load(1, XDATA, add(CFA_XSP16, literal(-20)))
        CFI (cfiCond163) V3 load(1, XDATA, add(CFA_XSP16, literal(-19)))
        CFI (cfiCond163) V4 load(1, XDATA, add(CFA_XSP16, literal(-18)))
        CFI (cfiCond163) V5 load(1, XDATA, add(CFA_XSP16, literal(-17)))
        CFI (cfiCond163) V6 load(1, XDATA, add(CFA_XSP16, literal(-16)))
        CFI (cfiCond163) V7 load(1, XDATA, add(CFA_XSP16, literal(-15)))
        CFI (cfiCond163) V8 load(1, XDATA, add(CFA_XSP16, literal(-14)))
        CFI (cfiCond163) V9 load(1, XDATA, add(CFA_XSP16, literal(-13)))
        CFI (cfiCond163) V10 load(1, XDATA, add(CFA_XSP16, literal(-12)))
        CFI (cfiCond163) V11 load(1, XDATA, add(CFA_XSP16, literal(-11)))
        CFI (cfiCond163) V12 load(1, XDATA, add(CFA_XSP16, literal(-10)))
        CFI (cfiCond163) V13 load(1, XDATA, add(CFA_XSP16, literal(-9)))
        CFI (cfiCond163) V14 load(1, XDATA, add(CFA_XSP16, literal(-8)))
        CFI (cfiCond163) V15 load(1, XDATA, add(CFA_XSP16, literal(-7)))
        CFI (cfiCond163) R7 load(1, XDATA, add(CFA_XSP16, literal(-6)))
        CFI (cfiCond163) ?RET_LOW load(1, XDATA, add(CFA_XSP16, literal(-5)))
        CFI (cfiCond163) ?RET_HIGH load(1, XDATA, add(CFA_XSP16, literal(-4)))
        CFI (cfiCond163) ?BRET_EXT load(1, XDATA, add(CFA_XSP16, literal(-3)))
        CFI (cfiCond163) DPL0 load(1, XDATA, add(CFA_XSP16, literal(-2)))
        CFI (cfiCond163) DPH0 load(1, XDATA, add(CFA_XSP16, literal(-1)))
        CFI (cfiCond163) CFA_SP SP+0
        CFI (cfiCond163) CFA_XSP16 add(XSP16, 51)
        CFI Block cfiCond164 Using cfiCommon0
        CFI (cfiCond164) NoFunction
        CFI (cfiCond164) Conditional ??CrossCallReturnLabel_136
        CFI (cfiCond164) R6 load(1, XDATA, add(CFA_XSP16, literal(-14)))
        CFI (cfiCond164) VB load(1, XDATA, add(CFA_XSP16, literal(-13)))
        CFI (cfiCond164) V0 load(1, XDATA, add(CFA_XSP16, literal(-12)))
        CFI (cfiCond164) V1 load(1, XDATA, add(CFA_XSP16, literal(-11)))
        CFI (cfiCond164) V2 load(1, XDATA, add(CFA_XSP16, literal(-10)))
        CFI (cfiCond164) V3 load(1, XDATA, add(CFA_XSP16, literal(-9)))
        CFI (cfiCond164) V4 load(1, XDATA, add(CFA_XSP16, literal(-8)))
        CFI (cfiCond164) V5 load(1, XDATA, add(CFA_XSP16, literal(-7)))
        CFI (cfiCond164) R7 load(1, XDATA, add(CFA_XSP16, literal(-6)))
        CFI (cfiCond164) ?RET_LOW load(1, XDATA, add(CFA_XSP16, literal(-5)))
        CFI (cfiCond164) ?RET_HIGH load(1, XDATA, add(CFA_XSP16, literal(-4)))
        CFI (cfiCond164) ?BRET_EXT load(1, XDATA, add(CFA_XSP16, literal(-3)))
        CFI (cfiCond164) DPL0 load(1, XDATA, add(CFA_XSP16, literal(-2)))
        CFI (cfiCond164) DPH0 load(1, XDATA, add(CFA_XSP16, literal(-1)))
        CFI (cfiCond164) CFA_SP SP+0
        CFI (cfiCond164) CFA_XSP16 add(XSP16, 16)
        CFI Block cfiCond165 Using cfiCommon0
        CFI (cfiCond165) NoFunction
        CFI (cfiCond165) Conditional ??CrossCallReturnLabel_118
        CFI (cfiCond165) R6 load(1, XDATA, add(CFA_XSP16, literal(-22)))
        CFI (cfiCond165) VB load(1, XDATA, add(CFA_XSP16, literal(-21)))
        CFI (cfiCond165) V0 load(1, XDATA, add(CFA_XSP16, literal(-20)))
        CFI (cfiCond165) V1 load(1, XDATA, add(CFA_XSP16, literal(-19)))
        CFI (cfiCond165) V2 load(1, XDATA, add(CFA_XSP16, literal(-18)))
        CFI (cfiCond165) V3 load(1, XDATA, add(CFA_XSP16, literal(-17)))
        CFI (cfiCond165) V4 load(1, XDATA, add(CFA_XSP16, literal(-16)))
        CFI (cfiCond165) V5 load(1, XDATA, add(CFA_XSP16, literal(-15)))
        CFI (cfiCond165) V6 load(1, XDATA, add(CFA_XSP16, literal(-14)))
        CFI (cfiCond165) V7 load(1, XDATA, add(CFA_XSP16, literal(-13)))
        CFI (cfiCond165) V8 load(1, XDATA, add(CFA_XSP16, literal(-12)))
        CFI (cfiCond165) V9 load(1, XDATA, add(CFA_XSP16, literal(-11)))
        CFI (cfiCond165) V10 load(1, XDATA, add(CFA_XSP16, literal(-10)))
        CFI (cfiCond165) V11 load(1, XDATA, add(CFA_XSP16, literal(-9)))
        CFI (cfiCond165) V12 load(1, XDATA, add(CFA_XSP16, literal(-8)))
        CFI (cfiCond165) V13 load(1, XDATA, add(CFA_XSP16, literal(-7)))
        CFI (cfiCond165) R7 load(1, XDATA, add(CFA_XSP16, literal(-6)))
        CFI (cfiCond165) ?RET_LOW load(1, XDATA, add(CFA_XSP16, literal(-5)))
        CFI (cfiCond165) ?RET_HIGH load(1, XDATA, add(CFA_XSP16, literal(-4)))
        CFI (cfiCond165) ?BRET_EXT load(1, XDATA, add(CFA_XSP16, literal(-3)))
        CFI (cfiCond165) DPL0 load(1, XDATA, add(CFA_XSP16, literal(-2)))
        CFI (cfiCond165) DPH0 load(1, XDATA, add(CFA_XSP16, literal(-1)))
        CFI (cfiCond165) CFA_SP SP+0
        CFI (cfiCond165) CFA_XSP16 add(XSP16, 32)
        CFI Block cfiCond166 Using cfiCommon0
        CFI (cfiCond166) NoFunction
        CFI (cfiCond166) Conditional ??CrossCallReturnLabel_119
        CFI (cfiCond166) R6 load(1, XDATA, add(CFA_XSP16, literal(-24)))
        CFI (cfiCond166) VB load(1, XDATA, add(CFA_XSP16, literal(-23)))
        CFI (cfiCond166) V0 load(1, XDATA, add(CFA_XSP16, literal(-22)))
        CFI (cfiCond166) V1 load(1, XDATA, add(CFA_XSP16, literal(-21)))
        CFI (cfiCond166) V2 load(1, XDATA, add(CFA_XSP16, literal(-20)))
        CFI (cfiCond166) V3 load(1, XDATA, add(CFA_XSP16, literal(-19)))
        CFI (cfiCond166) V4 load(1, XDATA, add(CFA_XSP16, literal(-18)))
        CFI (cfiCond166) V5 load(1, XDATA, add(CFA_XSP16, literal(-17)))
        CFI (cfiCond166) V6 load(1, XDATA, add(CFA_XSP16, literal(-16)))
        CFI (cfiCond166) V7 load(1, XDATA, add(CFA_XSP16, literal(-15)))
        CFI (cfiCond166) V8 load(1, XDATA, add(CFA_XSP16, literal(-14)))
        CFI (cfiCond166) V9 load(1, XDATA, add(CFA_XSP16, literal(-13)))
        CFI (cfiCond166) V10 load(1, XDATA, add(CFA_XSP16, literal(-12)))
        CFI (cfiCond166) V11 load(1, XDATA, add(CFA_XSP16, literal(-11)))
        CFI (cfiCond166) V12 load(1, XDATA, add(CFA_XSP16, literal(-10)))
        CFI (cfiCond166) V13 load(1, XDATA, add(CFA_XSP16, literal(-9)))
        CFI (cfiCond166) V14 load(1, XDATA, add(CFA_XSP16, literal(-8)))
        CFI (cfiCond166) V15 load(1, XDATA, add(CFA_XSP16, literal(-7)))
        CFI (cfiCond166) R7 load(1, XDATA, add(CFA_XSP16, literal(-6)))
        CFI (cfiCond166) ?RET_LOW load(1, XDATA, add(CFA_XSP16, literal(-5)))
        CFI (cfiCond166) ?RET_HIGH load(1, XDATA, add(CFA_XSP16, literal(-4)))
        CFI (cfiCond166) ?BRET_EXT load(1, XDATA, add(CFA_XSP16, literal(-3)))
        CFI (cfiCond166) DPL0 load(1, XDATA, add(CFA_XSP16, literal(-2)))
        CFI (cfiCond166) DPH0 load(1, XDATA, add(CFA_XSP16, literal(-1)))
        CFI (cfiCond166) CFA_SP SP+0
        CFI (cfiCond166) CFA_XSP16 add(XSP16, 51)
        CFI Block cfiCond167 Using cfiCommon0
        CFI (cfiCond167) NoFunction
        CFI (cfiCond167) Conditional ??CrossCallReturnLabel_120
        CFI (cfiCond167) R6 load(1, XDATA, add(CFA_XSP16, literal(-24)))
        CFI (cfiCond167) VB load(1, XDATA, add(CFA_XSP16, literal(-23)))
        CFI (cfiCond167) V0 load(1, XDATA, add(CFA_XSP16, literal(-22)))
        CFI (cfiCond167) V1 load(1, XDATA, add(CFA_XSP16, literal(-21)))
        CFI (cfiCond167) V2 load(1, XDATA, add(CFA_XSP16, literal(-20)))
        CFI (cfiCond167) V3 load(1, XDATA, add(CFA_XSP16, literal(-19)))
        CFI (cfiCond167) V4 load(1, XDATA, add(CFA_XSP16, literal(-18)))
        CFI (cfiCond167) V5 load(1, XDATA, add(CFA_XSP16, literal(-17)))
        CFI (cfiCond167) V6 load(1, XDATA, add(CFA_XSP16, literal(-16)))
        CFI (cfiCond167) V7 load(1, XDATA, add(CFA_XSP16, literal(-15)))
        CFI (cfiCond167) V8 load(1, XDATA, add(CFA_XSP16, literal(-14)))
        CFI (cfiCond167) V9 load(1, XDATA, add(CFA_XSP16, literal(-13)))
        CFI (cfiCond167) V10 load(1, XDATA, add(CFA_XSP16, literal(-12)))
        CFI (cfiCond167) V11 load(1, XDATA, add(CFA_XSP16, literal(-11)))
        CFI (cfiCond167) V12 load(1, XDATA, add(CFA_XSP16, literal(-10)))
        CFI (cfiCond167) V13 load(1, XDATA, add(CFA_XSP16, literal(-9)))
        CFI (cfiCond167) V14 load(1, XDATA, add(CFA_XSP16, literal(-8)))
        CFI (cfiCond167) V15 load(1, XDATA, add(CFA_XSP16, literal(-7)))
        CFI (cfiCond167) R7 load(1, XDATA, add(CFA_XSP16, literal(-6)))
        CFI (cfiCond167) ?RET_LOW load(1, XDATA, add(CFA_XSP16, literal(-5)))
        CFI (cfiCond167) ?RET_HIGH load(1, XDATA, add(CFA_XSP16, literal(-4)))
        CFI (cfiCond167) ?BRET_EXT load(1, XDATA, add(CFA_XSP16, literal(-3)))
        CFI (cfiCond167) DPL0 load(1, XDATA, add(CFA_XSP16, literal(-2)))
        CFI (cfiCond167) DPH0 load(1, XDATA, add(CFA_XSP16, literal(-1)))
        CFI (cfiCond167) CFA_SP SP+0
        CFI (cfiCond167) CFA_XSP16 add(XSP16, 51)
        CFI Block cfiCond168 Using cfiCommon0
        CFI (cfiCond168) NoFunction
        CFI (cfiCond168) Conditional ??CrossCallReturnLabel_115
        CFI (cfiCond168) R6 load(1, XDATA, add(CFA_XSP16, literal(-20)))
        CFI (cfiCond168) VB load(1, XDATA, add(CFA_XSP16, literal(-19)))
        CFI (cfiCond168) V0 load(1, XDATA, add(CFA_XSP16, literal(-18)))
        CFI (cfiCond168) V1 load(1, XDATA, add(CFA_XSP16, literal(-17)))
        CFI (cfiCond168) V2 load(1, XDATA, add(CFA_XSP16, literal(-16)))
        CFI (cfiCond168) V3 load(1, XDATA, add(CFA_XSP16, literal(-15)))
        CFI (cfiCond168) V4 load(1, XDATA, add(CFA_XSP16, literal(-14)))
        CFI (cfiCond168) V5 load(1, XDATA, add(CFA_XSP16, literal(-13)))
        CFI (cfiCond168) V6 load(1, XDATA, add(CFA_XSP16, literal(-12)))
        CFI (cfiCond168) V7 load(1, XDATA, add(CFA_XSP16, literal(-11)))
        CFI (cfiCond168) V8 load(1, XDATA, add(CFA_XSP16, literal(-10)))
        CFI (cfiCond168) V9 load(1, XDATA, add(CFA_XSP16, literal(-9)))
        CFI (cfiCond168) V10 load(1, XDATA, add(CFA_XSP16, literal(-8)))
        CFI (cfiCond168) V11 load(1, XDATA, add(CFA_XSP16, literal(-7)))
        CFI (cfiCond168) R7 load(1, XDATA, add(CFA_XSP16, literal(-6)))
        CFI (cfiCond168) ?RET_LOW load(1, XDATA, add(CFA_XSP16, literal(-5)))
        CFI (cfiCond168) ?RET_HIGH load(1, XDATA, add(CFA_XSP16, literal(-4)))
        CFI (cfiCond168) ?BRET_EXT load(1, XDATA, add(CFA_XSP16, literal(-3)))
        CFI (cfiCond168) DPL0 load(1, XDATA, add(CFA_XSP16, literal(-2)))
        CFI (cfiCond168) DPH0 load(1, XDATA, add(CFA_XSP16, literal(-1)))
        CFI (cfiCond168) CFA_SP SP+0
        CFI (cfiCond168) CFA_XSP16 add(XSP16, 26)
        CFI Block cfiCond169 Using cfiCommon0
        CFI (cfiCond169) NoFunction
        CFI (cfiCond169) Conditional ??CrossCallReturnLabel_116
        CFI (cfiCond169) R6 load(1, XDATA, add(CFA_XSP16, literal(-20)))
        CFI (cfiCond169) VB load(1, XDATA, add(CFA_XSP16, literal(-19)))
        CFI (cfiCond169) V0 load(1, XDATA, add(CFA_XSP16, literal(-18)))
        CFI (cfiCond169) V1 load(1, XDATA, add(CFA_XSP16, literal(-17)))
        CFI (cfiCond169) V2 load(1, XDATA, add(CFA_XSP16, literal(-16)))
        CFI (cfiCond169) V3 load(1, XDATA, add(CFA_XSP16, literal(-15)))
        CFI (cfiCond169) V4 load(1, XDATA, add(CFA_XSP16, literal(-14)))
        CFI (cfiCond169) V5 load(1, XDATA, add(CFA_XSP16, literal(-13)))
        CFI (cfiCond169) V6 load(1, XDATA, add(CFA_XSP16, literal(-12)))
        CFI (cfiCond169) V7 load(1, XDATA, add(CFA_XSP16, literal(-11)))
        CFI (cfiCond169) V8 load(1, XDATA, add(CFA_XSP16, literal(-10)))
        CFI (cfiCond169) V9 load(1, XDATA, add(CFA_XSP16, literal(-9)))
        CFI (cfiCond169) V10 load(1, XDATA, add(CFA_XSP16, literal(-8)))
        CFI (cfiCond169) V11 load(1, XDATA, add(CFA_XSP16, literal(-7)))
        CFI (cfiCond169) R7 load(1, XDATA, add(CFA_XSP16, literal(-6)))
        CFI (cfiCond169) ?RET_LOW load(1, XDATA, add(CFA_XSP16, literal(-5)))
        CFI (cfiCond169) ?RET_HIGH load(1, XDATA, add(CFA_XSP16, literal(-4)))
        CFI (cfiCond169) ?BRET_EXT load(1, XDATA, add(CFA_XSP16, literal(-3)))
        CFI (cfiCond169) DPL0 load(1, XDATA, add(CFA_XSP16, literal(-2)))
        CFI (cfiCond169) DPH0 load(1, XDATA, add(CFA_XSP16, literal(-1)))
        CFI (cfiCond169) CFA_SP SP+0
        CFI (cfiCond169) CFA_XSP16 add(XSP16, 26)
        CFI Block cfiCond170 Using cfiCommon0
        CFI (cfiCond170) NoFunction
        CFI (cfiCond170) Conditional ??CrossCallReturnLabel_117
        CFI (cfiCond170) R6 load(1, XDATA, add(CFA_XSP16, literal(-20)))
        CFI (cfiCond170) VB load(1, XDATA, add(CFA_XSP16, literal(-19)))
        CFI (cfiCond170) V0 load(1, XDATA, add(CFA_XSP16, literal(-18)))
        CFI (cfiCond170) V1 load(1, XDATA, add(CFA_XSP16, literal(-17)))
        CFI (cfiCond170) V2 load(1, XDATA, add(CFA_XSP16, literal(-16)))
        CFI (cfiCond170) V3 load(1, XDATA, add(CFA_XSP16, literal(-15)))
        CFI (cfiCond170) V4 load(1, XDATA, add(CFA_XSP16, literal(-14)))
        CFI (cfiCond170) V5 load(1, XDATA, add(CFA_XSP16, literal(-13)))
        CFI (cfiCond170) V6 load(1, XDATA, add(CFA_XSP16, literal(-12)))
        CFI (cfiCond170) V7 load(1, XDATA, add(CFA_XSP16, literal(-11)))
        CFI (cfiCond170) V8 load(1, XDATA, add(CFA_XSP16, literal(-10)))
        CFI (cfiCond170) V9 load(1, XDATA, add(CFA_XSP16, literal(-9)))
        CFI (cfiCond170) V10 load(1, XDATA, add(CFA_XSP16, literal(-8)))
        CFI (cfiCond170) V11 load(1, XDATA, add(CFA_XSP16, literal(-7)))
        CFI (cfiCond170) R7 load(1, XDATA, add(CFA_XSP16, literal(-6)))
        CFI (cfiCond170) ?RET_LOW load(1, XDATA, add(CFA_XSP16, literal(-5)))
        CFI (cfiCond170) ?RET_HIGH load(1, XDATA, add(CFA_XSP16, literal(-4)))
        CFI (cfiCond170) ?BRET_EXT load(1, XDATA, add(CFA_XSP16, literal(-3)))
        CFI (cfiCond170) DPL0 load(1, XDATA, add(CFA_XSP16, literal(-2)))
        CFI (cfiCond170) DPH0 load(1, XDATA, add(CFA_XSP16, literal(-1)))
        CFI (cfiCond170) CFA_SP SP+0
        CFI (cfiCond170) CFA_XSP16 add(XSP16, 26)
        CFI Block cfiPicker171 Using cfiCommon1
        CFI (cfiPicker171) NoFunction
        CFI (cfiPicker171) Picker
        LCALL   ??HalFlashRead?relay
        MOV     A,#0x2
        RET
        CFI EndBlock cfiCond149
        CFI EndBlock cfiCond150
        CFI EndBlock cfiCond151
        CFI EndBlock cfiCond152
        CFI EndBlock cfiCond153
        CFI EndBlock cfiCond154
        CFI EndBlock cfiCond155
        CFI EndBlock cfiCond156
        CFI EndBlock cfiCond157
        CFI EndBlock cfiCond158
        CFI EndBlock cfiCond159
        CFI EndBlock cfiCond160
        CFI EndBlock cfiCond161
        CFI EndBlock cfiCond162
        CFI EndBlock cfiCond163
        CFI EndBlock cfiCond164
        CFI EndBlock cfiCond165
        CFI EndBlock cfiCond166
        CFI EndBlock cfiCond167
        CFI EndBlock cfiCond168
        CFI EndBlock cfiCond169
        CFI EndBlock cfiCond170
        CFI EndBlock cfiPicker171
// 1066 
// 1067 /*********************************************************************
// 1068  * @fn      writeItem
// 1069  *
// 1070  * @brief   Writes an item header/data combo to the specified NV page.
// 1071  *
// 1072  * @param   pg - Valid NV Flash page.
// 1073  * @param   id - Valid NV item Id.
// 1074  * @param   len  - Byte count of the data to write.
// 1075  * @param   buf  - The data to write. If NULL, no data/checksum write.
// 1076  * @param   flag - TRUE if the checksum should be written, FALSE otherwise.
// 1077  *
// 1078  * @return  TRUE if header/data to write matches header/data read back, else FALSE.
// 1079  */

        RSEG BANKED_CODE:CODE:NOROOT(0)
// 1080 static uint8 writeItem( uint8 pg, uint16 id, uint16 len, void *buf, uint8 flag )
writeItem:
        CFI Block cfiBlock172 Using cfiCommon0
        CFI Function writeItem
        CODE
// 1081 {
        FUNCALL writeItem, HalFlashWrite
        LOCFRAME ISTACK, 0, STACK
        LOCFRAME PSTACK, 0, STACK
        LOCFRAME XSTACK, 42, STACK
        LOCFRAME IOVERLAY, 0, STATIC
        LOCFRAME DOVERLAY, 0, STATIC
        ARGFRAME ISTACK, 0, STACK
        ARGFRAME PSTACK, 0, STACK
        ARGFRAME XSTACK, 42, STACK
        ARGFRAME IOVERLAY, 0, STATIC
        ARGFRAME DOVERLAY, 0, STATIC
        FUNCALL writeItem, HalFlashRead
        LOCFRAME ISTACK, 0, STACK
        LOCFRAME PSTACK, 0, STACK
        LOCFRAME XSTACK, 42, STACK
        LOCFRAME IOVERLAY, 0, STATIC
        LOCFRAME DOVERLAY, 0, STATIC
        ARGFRAME ISTACK, 0, STACK
        ARGFRAME PSTACK, 0, STACK
        ARGFRAME XSTACK, 42, STACK
        ARGFRAME IOVERLAY, 0, STATIC
        ARGFRAME DOVERLAY, 0, STATIC
        FUNCALL writeItem, writeBuf
        LOCFRAME ISTACK, 0, STACK
        LOCFRAME PSTACK, 0, STACK
        LOCFRAME XSTACK, 42, STACK
        LOCFRAME IOVERLAY, 0, STATIC
        LOCFRAME DOVERLAY, 0, STATIC
        ARGFRAME ISTACK, 0, STACK
        ARGFRAME PSTACK, 0, STACK
        ARGFRAME XSTACK, 42, STACK
        ARGFRAME IOVERLAY, 0, STATIC
        ARGFRAME DOVERLAY, 0, STATIC
        FUNCALL writeItem, calcChkF
        LOCFRAME ISTACK, 0, STACK
        LOCFRAME PSTACK, 0, STACK
        LOCFRAME XSTACK, 40, STACK
        LOCFRAME IOVERLAY, 0, STATIC
        LOCFRAME DOVERLAY, 0, STATIC
        ARGFRAME ISTACK, 0, STACK
        ARGFRAME PSTACK, 0, STACK
        ARGFRAME XSTACK, 40, STACK
        ARGFRAME IOVERLAY, 0, STATIC
        ARGFRAME DOVERLAY, 0, STATIC
        FUNCALL writeItem, HalFlashWrite
        LOCFRAME ISTACK, 0, STACK
        LOCFRAME PSTACK, 0, STACK
        LOCFRAME XSTACK, 42, STACK
        LOCFRAME IOVERLAY, 0, STATIC
        LOCFRAME DOVERLAY, 0, STATIC
        ARGFRAME ISTACK, 0, STACK
        ARGFRAME PSTACK, 0, STACK
        ARGFRAME XSTACK, 42, STACK
        ARGFRAME IOVERLAY, 0, STATIC
        ARGFRAME DOVERLAY, 0, STATIC
        FUNCALL writeItem, HalFlashRead
        LOCFRAME ISTACK, 0, STACK
        LOCFRAME PSTACK, 0, STACK
        LOCFRAME XSTACK, 42, STACK
        LOCFRAME IOVERLAY, 0, STATIC
        LOCFRAME DOVERLAY, 0, STATIC
        ARGFRAME ISTACK, 0, STACK
        ARGFRAME PSTACK, 0, STACK
        ARGFRAME XSTACK, 42, STACK
        ARGFRAME IOVERLAY, 0, STATIC
        ARGFRAME DOVERLAY, 0, STATIC
        MOV     A,#-0x18
        LCALL   ?BANKED_ENTER_XDATA
        CFI DPH0 load(1, XDATA, add(CFA_XSP16, literal(-1)))
        CFI DPL0 load(1, XDATA, add(CFA_XSP16, literal(-2)))
        CFI ?BRET_EXT load(1, XDATA, add(CFA_XSP16, literal(-3)))
        CFI ?RET_HIGH load(1, XDATA, add(CFA_XSP16, literal(-4)))
        CFI ?RET_LOW load(1, XDATA, add(CFA_XSP16, literal(-5)))
        CFI R7 load(1, XDATA, add(CFA_XSP16, literal(-6)))
        CFI V15 load(1, XDATA, add(CFA_XSP16, literal(-7)))
        CFI V14 load(1, XDATA, add(CFA_XSP16, literal(-8)))
        CFI V13 load(1, XDATA, add(CFA_XSP16, literal(-9)))
        CFI V12 load(1, XDATA, add(CFA_XSP16, literal(-10)))
        CFI V11 load(1, XDATA, add(CFA_XSP16, literal(-11)))
        CFI V10 load(1, XDATA, add(CFA_XSP16, literal(-12)))
        CFI V9 load(1, XDATA, add(CFA_XSP16, literal(-13)))
        CFI V8 load(1, XDATA, add(CFA_XSP16, literal(-14)))
        CFI V7 load(1, XDATA, add(CFA_XSP16, literal(-15)))
        CFI V6 load(1, XDATA, add(CFA_XSP16, literal(-16)))
        CFI V5 load(1, XDATA, add(CFA_XSP16, literal(-17)))
        CFI V4 load(1, XDATA, add(CFA_XSP16, literal(-18)))
        CFI V3 load(1, XDATA, add(CFA_XSP16, literal(-19)))
        CFI V2 load(1, XDATA, add(CFA_XSP16, literal(-20)))
        CFI V1 load(1, XDATA, add(CFA_XSP16, literal(-21)))
        CFI V0 load(1, XDATA, add(CFA_XSP16, literal(-22)))
        CFI VB load(1, XDATA, add(CFA_XSP16, literal(-23)))
        CFI R6 load(1, XDATA, add(CFA_XSP16, literal(-24)))
        CFI CFA_SP SP+0
        CFI CFA_XSP16 add(XSP16, 24)
        ; Saved register size: 24
        ; Auto size: 16
        MOV     A,#-0x10
        LCALL   ?ALLOC_XSTACK8
        CFI CFA_XSP16 add(XSP16, 40)
        MOV     ?V0 + 4,R1
        MOV     ?V0 + 12,R2
        MOV     ?V0 + 13,R3
        MOV     A,R4
        MOV     R6,A
        MOV     A,R5
        MOV     R7,A
        MOV     A,#0x28
        LCALL   ?XSTACK_DISP0_8
        MOVX    A,@DPTR
        MOV     ?V0 + 8,A
        INC     DPTR
        MOVX    A,@DPTR
        MOV     ?V0 + 9,A
        MOV     A,#0x2a
        LCALL   ?XSTACK_DISP0_8
        MOVX    A,@DPTR
        MOV     ?V0 + 6,A
// 1082   uint16 offset = pgOff[pg-OSAL_NV_PAGE_BEG];
        MOV     A,R1
        CLR     C
        RLC     A
        MOV     ?V0 + 0,A
        CLR     A
        RLC     A
        MOV     ?V0 + 1,A
        MOV     A,#(pgOff + 14) & 0xff
        ADD     A,?V0 + 0
        MOV     ?V0 + 14,A
        MOV     A,#((pgOff - 242) >> 8) & 0xff
        ADDC    A,?V0 + 1
        MOV     ?V0 + 15,A
        MOV     DPL,?V0 + 14
        MOV     DPH,A
        MOVX    A,@DPTR
        MOV     ?V0 + 2,A
        INC     DPTR
        MOVX    A,@DPTR
        MOV     ?V0 + 3,A
// 1083   uint8 rtrn = FALSE;
        MOV     ?V0 + 5,#0x0
// 1084   osalNvHdr_t hdr;
// 1085 
// 1086   hdr.id = id;
        MOV     A,#0x8
        LCALL   ?XSTACK_DISP0_8
        MOV     A,R2
        MOVX    @DPTR,A
        INC     DPTR
        MOV     A,R3
        MOVX    @DPTR,A
// 1087   hdr.len = len;
        MOV     A,#0xa
        LCALL   ?XSTACK_DISP0_8
        MOV     A,R6
        MOVX    @DPTR,A
        INC     DPTR
        MOV     A,R7
        MOVX    @DPTR,A
// 1088 
// 1089   writeWord( pg, offset, (uint8 *)&hdr );
        MOV     ?V0 + 10,R1
        MOV     ?V0 + 11,#0x0
        MOV     A,#0x9
        MOV     R0,#?V0 + 10
        LCALL   ?S_SHL
        MOV     A,#0x6
        LCALL   ?XSTACK_DISP0_8
        CLR     A
        MOVX    @DPTR,A
        INC     DPTR
        MOV     A,?V0 + 11
        MOVX    @DPTR,A
        ; Setup parameters for call to function HalFlashWrite
        MOV     ?V0 + 10,#0x1
        MOV     ?V0 + 11,#0x0
        MOV     R0,#?V0 + 10
        LCALL   ?PUSH_XSTACK_I_TWO
        CFI CFA_XSP16 add(XSP16, 42)
        MOV     A,#0xa
        LCALL   ?XSTACK_DISP0_8
        MOV     R4,DPL
        MOV     R5,DPH
        MOV     ?V0 + 10,?V0 + 2
        MOV     ?V0 + 11,?V0 + 3
        MOV     A,#0x2
        MOV     R0,#?V0 + 10
        LCALL   ?US_SHR
        MOV     A,#0x8
        LCALL   ?XSTACK_DISP0_8
        MOVX    A,@DPTR
        ADD     A,?V0 + 10
        MOV     R2,A
        INC     DPTR
        MOVX    A,@DPTR
        ADDC    A,?V0 + 11
        LCALL   ??Subroutine44_0 & 0xFFFF
??CrossCallReturnLabel_92:
        LCALL   ?DEALLOC_XSTACK8
        CFI CFA_XSP16 add(XSP16, 40)
// 1090   HalFlashRead(pg, offset, (uint8 *)(&hdr), OSAL_NV_HDR_SIZE);
        ; Setup parameters for call to function HalFlashRead
        MOV     ?V0 + 10,#0x8
        MOV     ?V0 + 11,#0x0
        MOV     R0,#?V0 + 10
        LCALL   ?PUSH_XSTACK_I_TWO
        CFI CFA_XSP16 add(XSP16, 42)
        MOV     A,#0xa
        LCALL   ?XSTACK_DISP0_8
        MOV     R4,DPL
        MOV     R5,DPH
        MOV     R2,?V0 + 2
        MOV     R3,?V0 + 3
        MOV     R1,?V0 + 4
        LCALL   ??Subroutine51_0 & 0xFFFF
??CrossCallReturnLabel_132:
        LCALL   ?DEALLOC_XSTACK8
        CFI CFA_XSP16 add(XSP16, 40)
// 1091 
// 1092   if ( (hdr.id == id) && (hdr.len == len) )
        MOV     A,#0xa
        LCALL   ?XSTACK_DISP0_8
        LCALL   ?Subroutine25 & 0xFFFF
??CrossCallReturnLabel_44:
        MOV     A,#0x8
        LCALL   ?XSTACK_DISP0_8
        MOVX    A,@DPTR
        XRL     A,?V0 + 12
        JNZ     ??writeItem_0
        INC     DPTR
        MOVX    A,@DPTR
        XRL     A,?V0 + 13
??writeItem_0:
        JZ      $+5
        LJMP    ??writeItem_1 & 0xFFFF
        MOV     A,R6
        XRL     A,R0
        JNZ     ??writeItem_2
        MOV     A,R7
        XRL     A,R1
??writeItem_2:
        JZ      $+5
        LJMP    ??writeItem_1 & 0xFFFF
// 1093   {
// 1094     if ( flag )
        MOV     A,?V0 + 6
        JNZ     $+5
        LJMP    ??writeItem_3 & 0xFFFF
// 1095     {
// 1096       hdr.chk = calcChkB( len, buf );
        MOV     DPL,?V0 + 8
        MOV     DPH,?V0 + 9
        MOV     A,R6
        MOV     R0,A
        MOV     A,R7
        MOV     R1,A
        MOV     A,R0
        ANL     A,#0x3
        MOV     ?V0 + 0,A
        MOV     A,DPL
        ORL     A,DPH
        JNZ     ??writeItem_4
        MOV     A,R0
        MOV     B,#-0x1
        MUL     AB
        MOV     R0,A
        MOV     R2,B
        MOV     B,#-0x1
        MOV     A,R1
        MUL     AB
        ADD     A,R2
        MOV     R1,A
        MOV     A,R0
        MOV     R2,A
        MOV     A,R1
        MOV     R3,A
        SJMP    ??writeItem_5
??writeItem_4:
        MOV     R2,#0x0
        MOV     R3,#0x0
        MOV     A,R0
        ORL     A,R1
        JZ      ??writeItem_5
??writeItem_6:
        MOVX    A,@DPTR
        MOV     R4,A
        MOV     A,R2
        ADD     A,R4
        MOV     R2,A
        MOV     A,R3
        ADDC    A,#0x0
        MOV     R3,A
        INC     DPTR
        MOV     A,R0
        ADD     A,#-0x1
        DEC     R0
        MOV     A,R1
        ADDC    A,#-0x1
        MOV     R1,A
        MOV     A,R0
        ORL     A,R1
        JNZ     ??writeItem_6
??writeItem_5:
        MOV     A,?V0 + 0
        JZ      ??writeItem_7
        MOV     A,#0x4
        CLR     C
        SUBB    A,?V0 + 0
        MOV     R0,A
        SUBB    A,0xE0 /* A   */
        MOV     R1,A
        MOV     A,R0
        MOV     B,#-0x1
        MUL     AB
        MOV     R0,A
        MOV     R4,B
        MOV     B,#-0x1
        MOV     A,R1
        MUL     AB
        ADD     A,R4
        MOV     R1,A
        MOV     A,R2
        ADD     A,R0
        MOV     R2,A
        MOV     A,R3
        ADDC    A,R1
        MOV     R3,A
??writeItem_7:
        MOV     A,#0xc
        LCALL   ?XSTACK_DISP0_8
        MOV     A,R2
        MOVX    @DPTR,A
        INC     DPTR
        MOV     A,R3
        MOVX    @DPTR,A
// 1097 
// 1098       offset += OSAL_NV_HDR_SIZE;
        MOV     A,?V0 + 2
        ADD     A,#0x8
        MOV     ?V0 + 2,A
        MOV     A,?V0 + 3
        ADDC    A,#0x0
        MOV     ?V0 + 3,A
// 1099       if ( buf != NULL )
        MOV     A,?V0 + 8
        ORL     A,?V0 + 9
        JZ      ??writeItem_8
// 1100       {
// 1101         writeBuf( pg, offset, len, buf );
        ; Setup parameters for call to function writeBuf
        MOV     R0,#?V0 + 8
        LCALL   ?PUSH_XSTACK_I_TWO
        CFI CFA_XSP16 add(XSP16, 42)
        MOV     A,R6
        MOV     R4,A
        MOV     A,R7
        MOV     R5,A
        MOV     R2,?V0 + 2
        MOV     R3,?V0 + 3
        MOV     R1,?V0 + 4
        LCALL   ??writeBuf?relay
        MOV     A,#0x2
        LCALL   ?DEALLOC_XSTACK8
        CFI CFA_XSP16 add(XSP16, 40)
// 1102       }
// 1103 
// 1104       if ( hdr.chk == calcChkF( pg, offset, len ) )
??writeItem_8:
        ; Setup parameters for call to function calcChkF
        MOV     A,R6
        MOV     R4,A
        MOV     A,R7
        MOV     R5,A
        MOV     R2,?V0 + 2
        MOV     R3,?V0 + 3
        MOV     R1,?V0 + 4
        LCALL   ??calcChkF?relay
        MOV     A,#0xc
        LCALL   ?XSTACK_DISP0_8
        LCALL   ?Subroutine13 & 0xFFFF
??CrossCallReturnLabel_16:
        JNZ     ??writeItem_9
        MOV     A,R3
        XRL     A,R1
??writeItem_9:
        JZ      $+5
        LJMP    ??writeItem_10 & 0xFFFF
// 1105       {
// 1106         if ( hdr.chk == setChk( pg, offset, hdr.chk ) )
        MOV     DPL,?XSP + 0
        MOV     DPH,?XSP + 1
        MOV     A,R0
        MOVX    @DPTR,A
        INC     DPTR
        MOV     A,R1
        MOVX    @DPTR,A
        MOV     A,?V0 + 2
        ADD     A,#-0x4
        MOV     R6,A
        MOV     A,?V0 + 3
        ADDC    A,#-0x1
        MOV     R7,A
        MOV     DPL,?XSP + 0
        MOV     DPH,?XSP + 1
        MOVX    A,@DPTR
        PUSH    A
        CFI CFA_SP SP+-1
        MOV     A,#0x2
        LCALL   ?XSTACK_DISP0_8
        POP     A
        CFI CFA_SP SP+0
        MOVX    @DPTR,A
        MOV     A,#0x1
        LCALL   ?XSTACK_DISP0_8
        MOVX    A,@DPTR
        PUSH    A
        CFI CFA_SP SP+-1
        MOV     A,#0x3
        LCALL   ?XSTACK_DISP0_8
        POP     A
        CFI CFA_SP SP+0
        MOVX    @DPTR,A
        MOV     A,#0x4
        LCALL   ?XSTACK_DISP0_8
        MOV     A,#-0x1
        MOVX    @DPTR,A
        MOV     A,#0x5
        LCALL   ?XSTACK_DISP0_8
        MOV     A,#-0x1
        MOVX    @DPTR,A
        ; Setup parameters for call to function HalFlashWrite
        MOV     ?V0 + 0,#0x1
        MOV     ?V0 + 1,#0x0
        MOV     R0,#?V0 + 0
        LCALL   ?PUSH_XSTACK_I_TWO
        CFI CFA_XSP16 add(XSP16, 42)
        MOV     A,#0x4
        LCALL   ?XSTACK_DISP0_8
        MOV     R4,DPL
        MOV     R5,DPH
        MOV     ?V0 + 0,R6
        MOV     ?V0 + 1,R7
        MOV     A,#0x2
        MOV     R0,#?V0 + 0
        LCALL   ?US_SHR
        MOV     A,#0x8
        LCALL   ?XSTACK_DISP0_8
        LCALL   ?Subroutine23 & 0xFFFF
??CrossCallReturnLabel_35:
        LCALL   ??Subroutine45_0 & 0xFFFF
??CrossCallReturnLabel_97:
        LCALL   ?DEALLOC_XSTACK8
        CFI CFA_XSP16 add(XSP16, 40)
        ; Setup parameters for call to function HalFlashRead
        MOV     ?V0 + 0,#0x2
        MOV     ?V0 + 1,#0x0
        MOV     R0,#?V0 + 0
        LCALL   ?PUSH_XSTACK_I_TWO
        CFI CFA_XSP16 add(XSP16, 42)
        MOV     A,#0x2
        LCALL   ?XSTACK_DISP0_8
        MOV     R4,DPL
        MOV     R5,DPH
        MOV     A,R6
        MOV     R2,A
        MOV     A,R7
        MOV     R3,A
        MOV     R1,?V0 + 4
        LCALL   ??Subroutine51_0 & 0xFFFF
??CrossCallReturnLabel_133:
        LCALL   ?DEALLOC_XSTACK8
        CFI CFA_XSP16 add(XSP16, 40)
        MOV     A,#0xc
        LCALL   ?XSTACK_DISP0_8
        LCALL   ?Subroutine25 & 0xFFFF
??CrossCallReturnLabel_45:
        MOV     DPL,?XSP + 0
        MOV     DPH,?XSP + 1
        MOVX    A,@DPTR
        XRL     A,R0
        JNZ     ??writeItem_11
        INC     DPTR
        MOVX    A,@DPTR
        XRL     A,R1
??writeItem_11:
        JNZ     ??writeItem_10
// 1107         {
// 1108           hotItemUpdate(pg, offset, hdr.id);
        MOV     A,#0x8
        LCALL   ?XSTACK_DISP0_8
        LCALL   ?Subroutine14 & 0xFFFF
// 1109           rtrn = TRUE;
// 1110         }
// 1111       }
// 1112     }
??CrossCallReturnLabel_18:
        MOV     DPL,R0
        MOV     DPH,R1
        MOVX    A,@DPTR
        XRL     A,R2
        JNZ     ??writeItem_12
        INC     DPTR
        MOVX    A,@DPTR
        XRL     A,R3
??writeItem_12:
        JZ      ??writeItem_13
        LCALL   ?Subroutine26 & 0xFFFF
??CrossCallReturnLabel_52:
        JC      ??CrossCallReturnLabel_18
??writeItem_13:
        MOV     A,R4
        CLR     C
        SUBB    A,#0x3
        JNC     ??writeItem_3
        LCALL   ?Subroutine5 & 0xFFFF
??CrossCallReturnLabel_146:
        MOV     A,?V0 + 2
        MOVX    @DPTR,A
        INC     DPTR
        MOV     A,?V0 + 3
        MOVX    @DPTR,A
// 1113     else
// 1114     {
// 1115       rtrn = TRUE;
??writeItem_3:
        MOV     ?V0 + 5,#0x1
// 1116     }
// 1117 
// 1118     len = OSAL_NV_ITEM_SIZE( hdr.len );
??writeItem_10:
        MOV     A,#0xa
        LCALL   ?XSTACK_DISP0_8
        LCALL   ?Subroutine25 & 0xFFFF
// 1119   }
??CrossCallReturnLabel_46:
        CLR     C
        MOV     A,R0
        SUBB    A,#-0xc
        MOV     A,R1
        SUBB    A,#-0x1
        JC      ??writeItem_14
        MOV     R6,#-0x4
        MOV     R7,#-0x1
        SJMP    ??CrossCallReturnLabel_114
??writeItem_14:
        LCALL   ?Subroutine29 & 0xFFFF
??CrossCallReturnLabel_138:
        SJMP    ??CrossCallReturnLabel_114
// 1120   else
// 1121   {
// 1122     len = OSAL_NV_ITEM_SIZE( hdr.len );
??writeItem_1:
        CLR     C
        MOV     A,R0
        SUBB    A,#-0xc
        MOV     A,R1
        SUBB    A,#-0x1
        JC      ??writeItem_15
        MOV     R6,#-0x4
        MOV     R7,#-0x1
        SJMP    ??CrossCallReturnLabel_139
??writeItem_15:
        LCALL   ?Subroutine29 & 0xFFFF
// 1123 
// 1124     if (len > (OSAL_NV_PAGE_SIZE - pgOff[pg - OSAL_NV_PAGE_BEG]))
??CrossCallReturnLabel_139:
        MOV     DPL,?V0 + 14
        MOV     DPH,?V0 + 15
        LCALL   ?Subroutine24 & 0xFFFF
??CrossCallReturnLabel_38:
        MOV     R0,A
        MOV     A,#0x8
        SUBB    A,R1
        MOV     R1,A
        CLR     C
        MOV     A,R0
        SUBB    A,R6
        MOV     A,R1
        SUBB    A,R7
        JNC     ??writeItem_16
// 1125     {
// 1126       len = (OSAL_NV_PAGE_SIZE - pgOff[pg - OSAL_NV_PAGE_BEG]);
        MOV     A,R0
        MOV     R6,A
        MOV     A,R1
        MOV     R7,A
// 1127     }
// 1128 
// 1129     pgLost[pg - OSAL_NV_PAGE_BEG] += len;
??writeItem_16:
        MOV     A,#(pgLost + 14) & 0xff
        ADD     A,?V0 + 0
        MOV     DPL,A
        MOV     A,#((pgLost - 242) >> 8) & 0xff
        ADDC    A,?V0 + 1
        LCALL   ?Subroutine17 & 0xFFFF
// 1130   }
// 1131   pgOff[pg - OSAL_NV_PAGE_BEG] += len;
??CrossCallReturnLabel_114:
        MOV     DPL,?V0 + 14
        MOV     DPH,?V0 + 15
        LCALL   ??Subroutine49_0 & 0xFFFF
// 1132 
// 1133   return rtrn;
??CrossCallReturnLabel_112:
        MOV     R1,?V0 + 5
        MOV     A,#0x10
        CFI EndBlock cfiBlock172
        REQUIRE ?Subroutine4
        ; // Fall through to label ?Subroutine4
// 1134 }

        RSEG BANKED_CODE:CODE:NOROOT(0)
?Subroutine4:
        CFI Block cfiBlock173 Using cfiCommon0
        CFI NoFunction
        CFI CFA_SP SP+0
        CFI CFA_XSP16 add(XSP16, 40)
        CFI VB load(1, XDATA, add(CFA_XSP16, literal(-23)))
        CFI DPL0 load(1, XDATA, add(CFA_XSP16, literal(-2)))
        CFI DPH0 load(1, XDATA, add(CFA_XSP16, literal(-1)))
        CFI R6 load(1, XDATA, add(CFA_XSP16, literal(-24)))
        CFI R7 load(1, XDATA, add(CFA_XSP16, literal(-6)))
        CFI V0 load(1, XDATA, add(CFA_XSP16, literal(-22)))
        CFI V1 load(1, XDATA, add(CFA_XSP16, literal(-21)))
        CFI V2 load(1, XDATA, add(CFA_XSP16, literal(-20)))
        CFI V3 load(1, XDATA, add(CFA_XSP16, literal(-19)))
        CFI V4 load(1, XDATA, add(CFA_XSP16, literal(-18)))
        CFI V5 load(1, XDATA, add(CFA_XSP16, literal(-17)))
        CFI V6 load(1, XDATA, add(CFA_XSP16, literal(-16)))
        CFI V7 load(1, XDATA, add(CFA_XSP16, literal(-15)))
        CFI V8 load(1, XDATA, add(CFA_XSP16, literal(-14)))
        CFI V9 load(1, XDATA, add(CFA_XSP16, literal(-13)))
        CFI V10 load(1, XDATA, add(CFA_XSP16, literal(-12)))
        CFI V11 load(1, XDATA, add(CFA_XSP16, literal(-11)))
        CFI V12 load(1, XDATA, add(CFA_XSP16, literal(-10)))
        CFI V13 load(1, XDATA, add(CFA_XSP16, literal(-9)))
        CFI V14 load(1, XDATA, add(CFA_XSP16, literal(-8)))
        CFI V15 load(1, XDATA, add(CFA_XSP16, literal(-7)))
        CFI ?BRET_EXT load(1, XDATA, add(CFA_XSP16, literal(-3)))
        CFI ?RET_HIGH load(1, XDATA, add(CFA_XSP16, literal(-4)))
        CFI ?RET_LOW load(1, XDATA, add(CFA_XSP16, literal(-5)))
        CFI Invalid
        LCALL   ?DEALLOC_XSTACK8
        CFI CFA_XSP16 add(XSP16, 24)
        CFI Valid
        MOV     R7,#0x10
        LJMP    ?BANKED_LEAVE_XDATA
        CFI EndBlock cfiBlock173

        RSEG BANKED_CODE:CODE:NOROOT(0)
?Subroutine29:
        CFI Block cfiCond174 Using cfiCommon0
        CFI NoFunction
        CFI Conditional ??CrossCallReturnLabel_138
        CFI R6 load(1, XDATA, add(CFA_XSP16, literal(-24)))
        CFI VB load(1, XDATA, add(CFA_XSP16, literal(-23)))
        CFI V0 load(1, XDATA, add(CFA_XSP16, literal(-22)))
        CFI V1 load(1, XDATA, add(CFA_XSP16, literal(-21)))
        CFI V2 load(1, XDATA, add(CFA_XSP16, literal(-20)))
        CFI V3 load(1, XDATA, add(CFA_XSP16, literal(-19)))
        CFI V4 load(1, XDATA, add(CFA_XSP16, literal(-18)))
        CFI V5 load(1, XDATA, add(CFA_XSP16, literal(-17)))
        CFI V6 load(1, XDATA, add(CFA_XSP16, literal(-16)))
        CFI V7 load(1, XDATA, add(CFA_XSP16, literal(-15)))
        CFI V8 load(1, XDATA, add(CFA_XSP16, literal(-14)))
        CFI V9 load(1, XDATA, add(CFA_XSP16, literal(-13)))
        CFI V10 load(1, XDATA, add(CFA_XSP16, literal(-12)))
        CFI V11 load(1, XDATA, add(CFA_XSP16, literal(-11)))
        CFI V12 load(1, XDATA, add(CFA_XSP16, literal(-10)))
        CFI V13 load(1, XDATA, add(CFA_XSP16, literal(-9)))
        CFI V14 load(1, XDATA, add(CFA_XSP16, literal(-8)))
        CFI V15 load(1, XDATA, add(CFA_XSP16, literal(-7)))
        CFI R7 load(1, XDATA, add(CFA_XSP16, literal(-6)))
        CFI ?RET_LOW load(1, XDATA, add(CFA_XSP16, literal(-5)))
        CFI ?RET_HIGH load(1, XDATA, add(CFA_XSP16, literal(-4)))
        CFI ?BRET_EXT load(1, XDATA, add(CFA_XSP16, literal(-3)))
        CFI DPL0 load(1, XDATA, add(CFA_XSP16, literal(-2)))
        CFI DPH0 load(1, XDATA, add(CFA_XSP16, literal(-1)))
        CFI CFA_SP SP+0
        CFI CFA_XSP16 add(XSP16, 40)
        CFI Block cfiCond175 Using cfiCommon0
        CFI (cfiCond175) NoFunction
        CFI (cfiCond175) Conditional ??CrossCallReturnLabel_139
        CFI (cfiCond175) R6 load(1, XDATA, add(CFA_XSP16, literal(-24)))
        CFI (cfiCond175) VB load(1, XDATA, add(CFA_XSP16, literal(-23)))
        CFI (cfiCond175) V0 load(1, XDATA, add(CFA_XSP16, literal(-22)))
        CFI (cfiCond175) V1 load(1, XDATA, add(CFA_XSP16, literal(-21)))
        CFI (cfiCond175) V2 load(1, XDATA, add(CFA_XSP16, literal(-20)))
        CFI (cfiCond175) V3 load(1, XDATA, add(CFA_XSP16, literal(-19)))
        CFI (cfiCond175) V4 load(1, XDATA, add(CFA_XSP16, literal(-18)))
        CFI (cfiCond175) V5 load(1, XDATA, add(CFA_XSP16, literal(-17)))
        CFI (cfiCond175) V6 load(1, XDATA, add(CFA_XSP16, literal(-16)))
        CFI (cfiCond175) V7 load(1, XDATA, add(CFA_XSP16, literal(-15)))
        CFI (cfiCond175) V8 load(1, XDATA, add(CFA_XSP16, literal(-14)))
        CFI (cfiCond175) V9 load(1, XDATA, add(CFA_XSP16, literal(-13)))
        CFI (cfiCond175) V10 load(1, XDATA, add(CFA_XSP16, literal(-12)))
        CFI (cfiCond175) V11 load(1, XDATA, add(CFA_XSP16, literal(-11)))
        CFI (cfiCond175) V12 load(1, XDATA, add(CFA_XSP16, literal(-10)))
        CFI (cfiCond175) V13 load(1, XDATA, add(CFA_XSP16, literal(-9)))
        CFI (cfiCond175) V14 load(1, XDATA, add(CFA_XSP16, literal(-8)))
        CFI (cfiCond175) V15 load(1, XDATA, add(CFA_XSP16, literal(-7)))
        CFI (cfiCond175) R7 load(1, XDATA, add(CFA_XSP16, literal(-6)))
        CFI (cfiCond175) ?RET_LOW load(1, XDATA, add(CFA_XSP16, literal(-5)))
        CFI (cfiCond175) ?RET_HIGH load(1, XDATA, add(CFA_XSP16, literal(-4)))
        CFI (cfiCond175) ?BRET_EXT load(1, XDATA, add(CFA_XSP16, literal(-3)))
        CFI (cfiCond175) DPL0 load(1, XDATA, add(CFA_XSP16, literal(-2)))
        CFI (cfiCond175) DPH0 load(1, XDATA, add(CFA_XSP16, literal(-1)))
        CFI (cfiCond175) CFA_SP SP+0
        CFI (cfiCond175) CFA_XSP16 add(XSP16, 40)
        CFI Block cfiPicker176 Using cfiCommon1
        CFI (cfiPicker176) NoFunction
        CFI (cfiPicker176) Picker
        MOV     A,R0
        ADD     A,#0x3
        INC     R0
        INC     R0
        INC     R0
        MOV     A,R1
        CFI EndBlock cfiCond174
        CFI EndBlock cfiCond175
        CFI EndBlock cfiPicker176
        REQUIRE ??Subroutine52_0
        ; // Fall through to label ??Subroutine52_0

        RSEG BANKED_CODE:CODE:NOROOT(0)
??Subroutine52_0:
        CFI Block cfiCond177 Using cfiCommon0
        CFI NoFunction
        CFI Conditional ??CrossCallReturnLabel_137
        CFI R6 load(1, XDATA, add(CFA_XSP16, literal(-14)))
        CFI VB load(1, XDATA, add(CFA_XSP16, literal(-13)))
        CFI V0 load(1, XDATA, add(CFA_XSP16, literal(-12)))
        CFI V1 load(1, XDATA, add(CFA_XSP16, literal(-11)))
        CFI V2 load(1, XDATA, add(CFA_XSP16, literal(-10)))
        CFI V3 load(1, XDATA, add(CFA_XSP16, literal(-9)))
        CFI V4 load(1, XDATA, add(CFA_XSP16, literal(-8)))
        CFI V5 load(1, XDATA, add(CFA_XSP16, literal(-7)))
        CFI R7 load(1, XDATA, add(CFA_XSP16, literal(-6)))
        CFI ?RET_LOW load(1, XDATA, add(CFA_XSP16, literal(-5)))
        CFI ?RET_HIGH load(1, XDATA, add(CFA_XSP16, literal(-4)))
        CFI ?BRET_EXT load(1, XDATA, add(CFA_XSP16, literal(-3)))
        CFI DPL0 load(1, XDATA, add(CFA_XSP16, literal(-2)))
        CFI DPH0 load(1, XDATA, add(CFA_XSP16, literal(-1)))
        CFI CFA_SP SP+0
        CFI CFA_XSP16 add(XSP16, 22)
        CFI Block cfiCond178 Using cfiCommon0
        CFI (cfiCond178) NoFunction
        CFI (cfiCond178) Conditional ??CrossCallReturnLabel_138
        CFI (cfiCond178) R6 load(1, XDATA, add(CFA_XSP16, literal(-24)))
        CFI (cfiCond178) VB load(1, XDATA, add(CFA_XSP16, literal(-23)))
        CFI (cfiCond178) V0 load(1, XDATA, add(CFA_XSP16, literal(-22)))
        CFI (cfiCond178) V1 load(1, XDATA, add(CFA_XSP16, literal(-21)))
        CFI (cfiCond178) V2 load(1, XDATA, add(CFA_XSP16, literal(-20)))
        CFI (cfiCond178) V3 load(1, XDATA, add(CFA_XSP16, literal(-19)))
        CFI (cfiCond178) V4 load(1, XDATA, add(CFA_XSP16, literal(-18)))
        CFI (cfiCond178) V5 load(1, XDATA, add(CFA_XSP16, literal(-17)))
        CFI (cfiCond178) V6 load(1, XDATA, add(CFA_XSP16, literal(-16)))
        CFI (cfiCond178) V7 load(1, XDATA, add(CFA_XSP16, literal(-15)))
        CFI (cfiCond178) V8 load(1, XDATA, add(CFA_XSP16, literal(-14)))
        CFI (cfiCond178) V9 load(1, XDATA, add(CFA_XSP16, literal(-13)))
        CFI (cfiCond178) V10 load(1, XDATA, add(CFA_XSP16, literal(-12)))
        CFI (cfiCond178) V11 load(1, XDATA, add(CFA_XSP16, literal(-11)))
        CFI (cfiCond178) V12 load(1, XDATA, add(CFA_XSP16, literal(-10)))
        CFI (cfiCond178) V13 load(1, XDATA, add(CFA_XSP16, literal(-9)))
        CFI (cfiCond178) V14 load(1, XDATA, add(CFA_XSP16, literal(-8)))
        CFI (cfiCond178) V15 load(1, XDATA, add(CFA_XSP16, literal(-7)))
        CFI (cfiCond178) R7 load(1, XDATA, add(CFA_XSP16, literal(-6)))
        CFI (cfiCond178) ?RET_LOW load(1, XDATA, add(CFA_XSP16, literal(-5)))
        CFI (cfiCond178) ?RET_HIGH load(1, XDATA, add(CFA_XSP16, literal(-4)))
        CFI (cfiCond178) ?BRET_EXT load(1, XDATA, add(CFA_XSP16, literal(-3)))
        CFI (cfiCond178) DPL0 load(1, XDATA, add(CFA_XSP16, literal(-2)))
        CFI (cfiCond178) DPH0 load(1, XDATA, add(CFA_XSP16, literal(-1)))
        CFI (cfiCond178) CFA_SP SP+0
        CFI (cfiCond178) CFA_XSP16 add(XSP16, 40)
        CFI Block cfiCond179 Using cfiCommon0
        CFI (cfiCond179) NoFunction
        CFI (cfiCond179) Conditional ??CrossCallReturnLabel_139
        CFI (cfiCond179) R6 load(1, XDATA, add(CFA_XSP16, literal(-24)))
        CFI (cfiCond179) VB load(1, XDATA, add(CFA_XSP16, literal(-23)))
        CFI (cfiCond179) V0 load(1, XDATA, add(CFA_XSP16, literal(-22)))
        CFI (cfiCond179) V1 load(1, XDATA, add(CFA_XSP16, literal(-21)))
        CFI (cfiCond179) V2 load(1, XDATA, add(CFA_XSP16, literal(-20)))
        CFI (cfiCond179) V3 load(1, XDATA, add(CFA_XSP16, literal(-19)))
        CFI (cfiCond179) V4 load(1, XDATA, add(CFA_XSP16, literal(-18)))
        CFI (cfiCond179) V5 load(1, XDATA, add(CFA_XSP16, literal(-17)))
        CFI (cfiCond179) V6 load(1, XDATA, add(CFA_XSP16, literal(-16)))
        CFI (cfiCond179) V7 load(1, XDATA, add(CFA_XSP16, literal(-15)))
        CFI (cfiCond179) V8 load(1, XDATA, add(CFA_XSP16, literal(-14)))
        CFI (cfiCond179) V9 load(1, XDATA, add(CFA_XSP16, literal(-13)))
        CFI (cfiCond179) V10 load(1, XDATA, add(CFA_XSP16, literal(-12)))
        CFI (cfiCond179) V11 load(1, XDATA, add(CFA_XSP16, literal(-11)))
        CFI (cfiCond179) V12 load(1, XDATA, add(CFA_XSP16, literal(-10)))
        CFI (cfiCond179) V13 load(1, XDATA, add(CFA_XSP16, literal(-9)))
        CFI (cfiCond179) V14 load(1, XDATA, add(CFA_XSP16, literal(-8)))
        CFI (cfiCond179) V15 load(1, XDATA, add(CFA_XSP16, literal(-7)))
        CFI (cfiCond179) R7 load(1, XDATA, add(CFA_XSP16, literal(-6)))
        CFI (cfiCond179) ?RET_LOW load(1, XDATA, add(CFA_XSP16, literal(-5)))
        CFI (cfiCond179) ?RET_HIGH load(1, XDATA, add(CFA_XSP16, literal(-4)))
        CFI (cfiCond179) ?BRET_EXT load(1, XDATA, add(CFA_XSP16, literal(-3)))
        CFI (cfiCond179) DPL0 load(1, XDATA, add(CFA_XSP16, literal(-2)))
        CFI (cfiCond179) DPH0 load(1, XDATA, add(CFA_XSP16, literal(-1)))
        CFI (cfiCond179) CFA_SP SP+0
        CFI (cfiCond179) CFA_XSP16 add(XSP16, 40)
        CFI Block cfiPicker180 Using cfiCommon1
        CFI (cfiPicker180) NoFunction
        CFI (cfiPicker180) Picker
        LCALL   ?Subroutine40 & 0xFFFF
??CrossCallReturnLabel_142:
        ADD     A,#0x8
        MOV     R6,A
        MOV     A,R1
        ADDC    A,#0x0
        MOV     R7,A
        RET
        CFI EndBlock cfiCond177
        CFI EndBlock cfiCond178
        CFI EndBlock cfiCond179
        CFI EndBlock cfiPicker180

        RSEG BANKED_CODE:CODE:NOROOT(0)
?Subroutine25:
        CFI Block cfiCond181 Using cfiCommon0
        CFI NoFunction
        CFI Conditional ??CrossCallReturnLabel_39
        CFI R6 load(1, XDATA, add(CFA_XSP16, literal(-22)))
        CFI VB load(1, XDATA, add(CFA_XSP16, literal(-21)))
        CFI V0 load(1, XDATA, add(CFA_XSP16, literal(-20)))
        CFI V1 load(1, XDATA, add(CFA_XSP16, literal(-19)))
        CFI V2 load(1, XDATA, add(CFA_XSP16, literal(-18)))
        CFI V3 load(1, XDATA, add(CFA_XSP16, literal(-17)))
        CFI V4 load(1, XDATA, add(CFA_XSP16, literal(-16)))
        CFI V5 load(1, XDATA, add(CFA_XSP16, literal(-15)))
        CFI V6 load(1, XDATA, add(CFA_XSP16, literal(-14)))
        CFI V7 load(1, XDATA, add(CFA_XSP16, literal(-13)))
        CFI V8 load(1, XDATA, add(CFA_XSP16, literal(-12)))
        CFI V9 load(1, XDATA, add(CFA_XSP16, literal(-11)))
        CFI V10 load(1, XDATA, add(CFA_XSP16, literal(-10)))
        CFI V11 load(1, XDATA, add(CFA_XSP16, literal(-9)))
        CFI V12 load(1, XDATA, add(CFA_XSP16, literal(-8)))
        CFI V13 load(1, XDATA, add(CFA_XSP16, literal(-7)))
        CFI R7 load(1, XDATA, add(CFA_XSP16, literal(-6)))
        CFI ?RET_LOW load(1, XDATA, add(CFA_XSP16, literal(-5)))
        CFI ?RET_HIGH load(1, XDATA, add(CFA_XSP16, literal(-4)))
        CFI ?BRET_EXT load(1, XDATA, add(CFA_XSP16, literal(-3)))
        CFI DPL0 load(1, XDATA, add(CFA_XSP16, literal(-2)))
        CFI DPH0 load(1, XDATA, add(CFA_XSP16, literal(-1)))
        CFI CFA_SP SP+0
        CFI CFA_XSP16 add(XSP16, 30)
        CFI Block cfiCond182 Using cfiCommon0
        CFI (cfiCond182) NoFunction
        CFI (cfiCond182) Conditional ??CrossCallReturnLabel_40
        CFI (cfiCond182) R6 load(1, XDATA, add(CFA_XSP16, literal(-22)))
        CFI (cfiCond182) VB load(1, XDATA, add(CFA_XSP16, literal(-21)))
        CFI (cfiCond182) V0 load(1, XDATA, add(CFA_XSP16, literal(-20)))
        CFI (cfiCond182) V1 load(1, XDATA, add(CFA_XSP16, literal(-19)))
        CFI (cfiCond182) V2 load(1, XDATA, add(CFA_XSP16, literal(-18)))
        CFI (cfiCond182) V3 load(1, XDATA, add(CFA_XSP16, literal(-17)))
        CFI (cfiCond182) V4 load(1, XDATA, add(CFA_XSP16, literal(-16)))
        CFI (cfiCond182) V5 load(1, XDATA, add(CFA_XSP16, literal(-15)))
        CFI (cfiCond182) V6 load(1, XDATA, add(CFA_XSP16, literal(-14)))
        CFI (cfiCond182) V7 load(1, XDATA, add(CFA_XSP16, literal(-13)))
        CFI (cfiCond182) V8 load(1, XDATA, add(CFA_XSP16, literal(-12)))
        CFI (cfiCond182) V9 load(1, XDATA, add(CFA_XSP16, literal(-11)))
        CFI (cfiCond182) V10 load(1, XDATA, add(CFA_XSP16, literal(-10)))
        CFI (cfiCond182) V11 load(1, XDATA, add(CFA_XSP16, literal(-9)))
        CFI (cfiCond182) V12 load(1, XDATA, add(CFA_XSP16, literal(-8)))
        CFI (cfiCond182) V13 load(1, XDATA, add(CFA_XSP16, literal(-7)))
        CFI (cfiCond182) R7 load(1, XDATA, add(CFA_XSP16, literal(-6)))
        CFI (cfiCond182) ?RET_LOW load(1, XDATA, add(CFA_XSP16, literal(-5)))
        CFI (cfiCond182) ?RET_HIGH load(1, XDATA, add(CFA_XSP16, literal(-4)))
        CFI (cfiCond182) ?BRET_EXT load(1, XDATA, add(CFA_XSP16, literal(-3)))
        CFI (cfiCond182) DPL0 load(1, XDATA, add(CFA_XSP16, literal(-2)))
        CFI (cfiCond182) DPH0 load(1, XDATA, add(CFA_XSP16, literal(-1)))
        CFI (cfiCond182) CFA_SP SP+0
        CFI (cfiCond182) CFA_XSP16 add(XSP16, 30)
        CFI Block cfiCond183 Using cfiCommon0
        CFI (cfiCond183) NoFunction
        CFI (cfiCond183) Conditional ??CrossCallReturnLabel_41
        CFI (cfiCond183) R6 load(1, XDATA, add(CFA_XSP16, literal(-22)))
        CFI (cfiCond183) VB load(1, XDATA, add(CFA_XSP16, literal(-21)))
        CFI (cfiCond183) V0 load(1, XDATA, add(CFA_XSP16, literal(-20)))
        CFI (cfiCond183) V1 load(1, XDATA, add(CFA_XSP16, literal(-19)))
        CFI (cfiCond183) V2 load(1, XDATA, add(CFA_XSP16, literal(-18)))
        CFI (cfiCond183) V3 load(1, XDATA, add(CFA_XSP16, literal(-17)))
        CFI (cfiCond183) V4 load(1, XDATA, add(CFA_XSP16, literal(-16)))
        CFI (cfiCond183) V5 load(1, XDATA, add(CFA_XSP16, literal(-15)))
        CFI (cfiCond183) V6 load(1, XDATA, add(CFA_XSP16, literal(-14)))
        CFI (cfiCond183) V7 load(1, XDATA, add(CFA_XSP16, literal(-13)))
        CFI (cfiCond183) V8 load(1, XDATA, add(CFA_XSP16, literal(-12)))
        CFI (cfiCond183) V9 load(1, XDATA, add(CFA_XSP16, literal(-11)))
        CFI (cfiCond183) V10 load(1, XDATA, add(CFA_XSP16, literal(-10)))
        CFI (cfiCond183) V11 load(1, XDATA, add(CFA_XSP16, literal(-9)))
        CFI (cfiCond183) V12 load(1, XDATA, add(CFA_XSP16, literal(-8)))
        CFI (cfiCond183) V13 load(1, XDATA, add(CFA_XSP16, literal(-7)))
        CFI (cfiCond183) R7 load(1, XDATA, add(CFA_XSP16, literal(-6)))
        CFI (cfiCond183) ?RET_LOW load(1, XDATA, add(CFA_XSP16, literal(-5)))
        CFI (cfiCond183) ?RET_HIGH load(1, XDATA, add(CFA_XSP16, literal(-4)))
        CFI (cfiCond183) ?BRET_EXT load(1, XDATA, add(CFA_XSP16, literal(-3)))
        CFI (cfiCond183) DPL0 load(1, XDATA, add(CFA_XSP16, literal(-2)))
        CFI (cfiCond183) DPH0 load(1, XDATA, add(CFA_XSP16, literal(-1)))
        CFI (cfiCond183) CFA_SP SP+0
        CFI (cfiCond183) CFA_XSP16 add(XSP16, 30)
        CFI Block cfiCond184 Using cfiCommon0
        CFI (cfiCond184) NoFunction
        CFI (cfiCond184) Conditional ??CrossCallReturnLabel_42
        CFI (cfiCond184) R6 load(1, XDATA, add(CFA_XSP16, literal(-22)))
        CFI (cfiCond184) VB load(1, XDATA, add(CFA_XSP16, literal(-21)))
        CFI (cfiCond184) V0 load(1, XDATA, add(CFA_XSP16, literal(-20)))
        CFI (cfiCond184) V1 load(1, XDATA, add(CFA_XSP16, literal(-19)))
        CFI (cfiCond184) V2 load(1, XDATA, add(CFA_XSP16, literal(-18)))
        CFI (cfiCond184) V3 load(1, XDATA, add(CFA_XSP16, literal(-17)))
        CFI (cfiCond184) V4 load(1, XDATA, add(CFA_XSP16, literal(-16)))
        CFI (cfiCond184) V5 load(1, XDATA, add(CFA_XSP16, literal(-15)))
        CFI (cfiCond184) V6 load(1, XDATA, add(CFA_XSP16, literal(-14)))
        CFI (cfiCond184) V7 load(1, XDATA, add(CFA_XSP16, literal(-13)))
        CFI (cfiCond184) V8 load(1, XDATA, add(CFA_XSP16, literal(-12)))
        CFI (cfiCond184) V9 load(1, XDATA, add(CFA_XSP16, literal(-11)))
        CFI (cfiCond184) V10 load(1, XDATA, add(CFA_XSP16, literal(-10)))
        CFI (cfiCond184) V11 load(1, XDATA, add(CFA_XSP16, literal(-9)))
        CFI (cfiCond184) V12 load(1, XDATA, add(CFA_XSP16, literal(-8)))
        CFI (cfiCond184) V13 load(1, XDATA, add(CFA_XSP16, literal(-7)))
        CFI (cfiCond184) R7 load(1, XDATA, add(CFA_XSP16, literal(-6)))
        CFI (cfiCond184) ?RET_LOW load(1, XDATA, add(CFA_XSP16, literal(-5)))
        CFI (cfiCond184) ?RET_HIGH load(1, XDATA, add(CFA_XSP16, literal(-4)))
        CFI (cfiCond184) ?BRET_EXT load(1, XDATA, add(CFA_XSP16, literal(-3)))
        CFI (cfiCond184) DPL0 load(1, XDATA, add(CFA_XSP16, literal(-2)))
        CFI (cfiCond184) DPH0 load(1, XDATA, add(CFA_XSP16, literal(-1)))
        CFI (cfiCond184) CFA_SP SP+0
        CFI (cfiCond184) CFA_XSP16 add(XSP16, 37)
        CFI Block cfiCond185 Using cfiCommon0
        CFI (cfiCond185) NoFunction
        CFI (cfiCond185) Conditional ??CrossCallReturnLabel_43
        CFI (cfiCond185) R6 load(1, XDATA, add(CFA_XSP16, literal(-22)))
        CFI (cfiCond185) VB load(1, XDATA, add(CFA_XSP16, literal(-21)))
        CFI (cfiCond185) V0 load(1, XDATA, add(CFA_XSP16, literal(-20)))
        CFI (cfiCond185) V1 load(1, XDATA, add(CFA_XSP16, literal(-19)))
        CFI (cfiCond185) V2 load(1, XDATA, add(CFA_XSP16, literal(-18)))
        CFI (cfiCond185) V3 load(1, XDATA, add(CFA_XSP16, literal(-17)))
        CFI (cfiCond185) V4 load(1, XDATA, add(CFA_XSP16, literal(-16)))
        CFI (cfiCond185) V5 load(1, XDATA, add(CFA_XSP16, literal(-15)))
        CFI (cfiCond185) V6 load(1, XDATA, add(CFA_XSP16, literal(-14)))
        CFI (cfiCond185) V7 load(1, XDATA, add(CFA_XSP16, literal(-13)))
        CFI (cfiCond185) V8 load(1, XDATA, add(CFA_XSP16, literal(-12)))
        CFI (cfiCond185) V9 load(1, XDATA, add(CFA_XSP16, literal(-11)))
        CFI (cfiCond185) V10 load(1, XDATA, add(CFA_XSP16, literal(-10)))
        CFI (cfiCond185) V11 load(1, XDATA, add(CFA_XSP16, literal(-9)))
        CFI (cfiCond185) V12 load(1, XDATA, add(CFA_XSP16, literal(-8)))
        CFI (cfiCond185) V13 load(1, XDATA, add(CFA_XSP16, literal(-7)))
        CFI (cfiCond185) R7 load(1, XDATA, add(CFA_XSP16, literal(-6)))
        CFI (cfiCond185) ?RET_LOW load(1, XDATA, add(CFA_XSP16, literal(-5)))
        CFI (cfiCond185) ?RET_HIGH load(1, XDATA, add(CFA_XSP16, literal(-4)))
        CFI (cfiCond185) ?BRET_EXT load(1, XDATA, add(CFA_XSP16, literal(-3)))
        CFI (cfiCond185) DPL0 load(1, XDATA, add(CFA_XSP16, literal(-2)))
        CFI (cfiCond185) DPH0 load(1, XDATA, add(CFA_XSP16, literal(-1)))
        CFI (cfiCond185) CFA_SP SP+0
        CFI (cfiCond185) CFA_XSP16 add(XSP16, 37)
        CFI Block cfiCond186 Using cfiCommon0
        CFI (cfiCond186) NoFunction
        CFI (cfiCond186) Conditional ??CrossCallReturnLabel_44
        CFI (cfiCond186) R6 load(1, XDATA, add(CFA_XSP16, literal(-24)))
        CFI (cfiCond186) VB load(1, XDATA, add(CFA_XSP16, literal(-23)))
        CFI (cfiCond186) V0 load(1, XDATA, add(CFA_XSP16, literal(-22)))
        CFI (cfiCond186) V1 load(1, XDATA, add(CFA_XSP16, literal(-21)))
        CFI (cfiCond186) V2 load(1, XDATA, add(CFA_XSP16, literal(-20)))
        CFI (cfiCond186) V3 load(1, XDATA, add(CFA_XSP16, literal(-19)))
        CFI (cfiCond186) V4 load(1, XDATA, add(CFA_XSP16, literal(-18)))
        CFI (cfiCond186) V5 load(1, XDATA, add(CFA_XSP16, literal(-17)))
        CFI (cfiCond186) V6 load(1, XDATA, add(CFA_XSP16, literal(-16)))
        CFI (cfiCond186) V7 load(1, XDATA, add(CFA_XSP16, literal(-15)))
        CFI (cfiCond186) V8 load(1, XDATA, add(CFA_XSP16, literal(-14)))
        CFI (cfiCond186) V9 load(1, XDATA, add(CFA_XSP16, literal(-13)))
        CFI (cfiCond186) V10 load(1, XDATA, add(CFA_XSP16, literal(-12)))
        CFI (cfiCond186) V11 load(1, XDATA, add(CFA_XSP16, literal(-11)))
        CFI (cfiCond186) V12 load(1, XDATA, add(CFA_XSP16, literal(-10)))
        CFI (cfiCond186) V13 load(1, XDATA, add(CFA_XSP16, literal(-9)))
        CFI (cfiCond186) V14 load(1, XDATA, add(CFA_XSP16, literal(-8)))
        CFI (cfiCond186) V15 load(1, XDATA, add(CFA_XSP16, literal(-7)))
        CFI (cfiCond186) R7 load(1, XDATA, add(CFA_XSP16, literal(-6)))
        CFI (cfiCond186) ?RET_LOW load(1, XDATA, add(CFA_XSP16, literal(-5)))
        CFI (cfiCond186) ?RET_HIGH load(1, XDATA, add(CFA_XSP16, literal(-4)))
        CFI (cfiCond186) ?BRET_EXT load(1, XDATA, add(CFA_XSP16, literal(-3)))
        CFI (cfiCond186) DPL0 load(1, XDATA, add(CFA_XSP16, literal(-2)))
        CFI (cfiCond186) DPH0 load(1, XDATA, add(CFA_XSP16, literal(-1)))
        CFI (cfiCond186) CFA_SP SP+0
        CFI (cfiCond186) CFA_XSP16 add(XSP16, 40)
        CFI Block cfiCond187 Using cfiCommon0
        CFI (cfiCond187) NoFunction
        CFI (cfiCond187) Conditional ??CrossCallReturnLabel_45
        CFI (cfiCond187) R6 load(1, XDATA, add(CFA_XSP16, literal(-24)))
        CFI (cfiCond187) VB load(1, XDATA, add(CFA_XSP16, literal(-23)))
        CFI (cfiCond187) V0 load(1, XDATA, add(CFA_XSP16, literal(-22)))
        CFI (cfiCond187) V1 load(1, XDATA, add(CFA_XSP16, literal(-21)))
        CFI (cfiCond187) V2 load(1, XDATA, add(CFA_XSP16, literal(-20)))
        CFI (cfiCond187) V3 load(1, XDATA, add(CFA_XSP16, literal(-19)))
        CFI (cfiCond187) V4 load(1, XDATA, add(CFA_XSP16, literal(-18)))
        CFI (cfiCond187) V5 load(1, XDATA, add(CFA_XSP16, literal(-17)))
        CFI (cfiCond187) V6 load(1, XDATA, add(CFA_XSP16, literal(-16)))
        CFI (cfiCond187) V7 load(1, XDATA, add(CFA_XSP16, literal(-15)))
        CFI (cfiCond187) V8 load(1, XDATA, add(CFA_XSP16, literal(-14)))
        CFI (cfiCond187) V9 load(1, XDATA, add(CFA_XSP16, literal(-13)))
        CFI (cfiCond187) V10 load(1, XDATA, add(CFA_XSP16, literal(-12)))
        CFI (cfiCond187) V11 load(1, XDATA, add(CFA_XSP16, literal(-11)))
        CFI (cfiCond187) V12 load(1, XDATA, add(CFA_XSP16, literal(-10)))
        CFI (cfiCond187) V13 load(1, XDATA, add(CFA_XSP16, literal(-9)))
        CFI (cfiCond187) V14 load(1, XDATA, add(CFA_XSP16, literal(-8)))
        CFI (cfiCond187) V15 load(1, XDATA, add(CFA_XSP16, literal(-7)))
        CFI (cfiCond187) R7 load(1, XDATA, add(CFA_XSP16, literal(-6)))
        CFI (cfiCond187) ?RET_LOW load(1, XDATA, add(CFA_XSP16, literal(-5)))
        CFI (cfiCond187) ?RET_HIGH load(1, XDATA, add(CFA_XSP16, literal(-4)))
        CFI (cfiCond187) ?BRET_EXT load(1, XDATA, add(CFA_XSP16, literal(-3)))
        CFI (cfiCond187) DPL0 load(1, XDATA, add(CFA_XSP16, literal(-2)))
        CFI (cfiCond187) DPH0 load(1, XDATA, add(CFA_XSP16, literal(-1)))
        CFI (cfiCond187) CFA_SP SP+0
        CFI (cfiCond187) CFA_XSP16 add(XSP16, 40)
        CFI Block cfiCond188 Using cfiCommon0
        CFI (cfiCond188) NoFunction
        CFI (cfiCond188) Conditional ??CrossCallReturnLabel_46
        CFI (cfiCond188) R6 load(1, XDATA, add(CFA_XSP16, literal(-24)))
        CFI (cfiCond188) VB load(1, XDATA, add(CFA_XSP16, literal(-23)))
        CFI (cfiCond188) V0 load(1, XDATA, add(CFA_XSP16, literal(-22)))
        CFI (cfiCond188) V1 load(1, XDATA, add(CFA_XSP16, literal(-21)))
        CFI (cfiCond188) V2 load(1, XDATA, add(CFA_XSP16, literal(-20)))
        CFI (cfiCond188) V3 load(1, XDATA, add(CFA_XSP16, literal(-19)))
        CFI (cfiCond188) V4 load(1, XDATA, add(CFA_XSP16, literal(-18)))
        CFI (cfiCond188) V5 load(1, XDATA, add(CFA_XSP16, literal(-17)))
        CFI (cfiCond188) V6 load(1, XDATA, add(CFA_XSP16, literal(-16)))
        CFI (cfiCond188) V7 load(1, XDATA, add(CFA_XSP16, literal(-15)))
        CFI (cfiCond188) V8 load(1, XDATA, add(CFA_XSP16, literal(-14)))
        CFI (cfiCond188) V9 load(1, XDATA, add(CFA_XSP16, literal(-13)))
        CFI (cfiCond188) V10 load(1, XDATA, add(CFA_XSP16, literal(-12)))
        CFI (cfiCond188) V11 load(1, XDATA, add(CFA_XSP16, literal(-11)))
        CFI (cfiCond188) V12 load(1, XDATA, add(CFA_XSP16, literal(-10)))
        CFI (cfiCond188) V13 load(1, XDATA, add(CFA_XSP16, literal(-9)))
        CFI (cfiCond188) V14 load(1, XDATA, add(CFA_XSP16, literal(-8)))
        CFI (cfiCond188) V15 load(1, XDATA, add(CFA_XSP16, literal(-7)))
        CFI (cfiCond188) R7 load(1, XDATA, add(CFA_XSP16, literal(-6)))
        CFI (cfiCond188) ?RET_LOW load(1, XDATA, add(CFA_XSP16, literal(-5)))
        CFI (cfiCond188) ?RET_HIGH load(1, XDATA, add(CFA_XSP16, literal(-4)))
        CFI (cfiCond188) ?BRET_EXT load(1, XDATA, add(CFA_XSP16, literal(-3)))
        CFI (cfiCond188) DPL0 load(1, XDATA, add(CFA_XSP16, literal(-2)))
        CFI (cfiCond188) DPH0 load(1, XDATA, add(CFA_XSP16, literal(-1)))
        CFI (cfiCond188) CFA_SP SP+0
        CFI (cfiCond188) CFA_XSP16 add(XSP16, 40)
        CFI Block cfiCond189 Using cfiCommon0
        CFI (cfiCond189) NoFunction
        CFI (cfiCond189) Conditional ??CrossCallReturnLabel_47
        CFI (cfiCond189) R6 load(1, XDATA, add(CFA_XSP16, literal(-24)))
        CFI (cfiCond189) VB load(1, XDATA, add(CFA_XSP16, literal(-23)))
        CFI (cfiCond189) V0 load(1, XDATA, add(CFA_XSP16, literal(-22)))
        CFI (cfiCond189) V1 load(1, XDATA, add(CFA_XSP16, literal(-21)))
        CFI (cfiCond189) V2 load(1, XDATA, add(CFA_XSP16, literal(-20)))
        CFI (cfiCond189) V3 load(1, XDATA, add(CFA_XSP16, literal(-19)))
        CFI (cfiCond189) V4 load(1, XDATA, add(CFA_XSP16, literal(-18)))
        CFI (cfiCond189) V5 load(1, XDATA, add(CFA_XSP16, literal(-17)))
        CFI (cfiCond189) V6 load(1, XDATA, add(CFA_XSP16, literal(-16)))
        CFI (cfiCond189) V7 load(1, XDATA, add(CFA_XSP16, literal(-15)))
        CFI (cfiCond189) V8 load(1, XDATA, add(CFA_XSP16, literal(-14)))
        CFI (cfiCond189) V9 load(1, XDATA, add(CFA_XSP16, literal(-13)))
        CFI (cfiCond189) V10 load(1, XDATA, add(CFA_XSP16, literal(-12)))
        CFI (cfiCond189) V11 load(1, XDATA, add(CFA_XSP16, literal(-11)))
        CFI (cfiCond189) V12 load(1, XDATA, add(CFA_XSP16, literal(-10)))
        CFI (cfiCond189) V13 load(1, XDATA, add(CFA_XSP16, literal(-9)))
        CFI (cfiCond189) V14 load(1, XDATA, add(CFA_XSP16, literal(-8)))
        CFI (cfiCond189) V15 load(1, XDATA, add(CFA_XSP16, literal(-7)))
        CFI (cfiCond189) R7 load(1, XDATA, add(CFA_XSP16, literal(-6)))
        CFI (cfiCond189) ?RET_LOW load(1, XDATA, add(CFA_XSP16, literal(-5)))
        CFI (cfiCond189) ?RET_HIGH load(1, XDATA, add(CFA_XSP16, literal(-4)))
        CFI (cfiCond189) ?BRET_EXT load(1, XDATA, add(CFA_XSP16, literal(-3)))
        CFI (cfiCond189) DPL0 load(1, XDATA, add(CFA_XSP16, literal(-2)))
        CFI (cfiCond189) DPH0 load(1, XDATA, add(CFA_XSP16, literal(-1)))
        CFI (cfiCond189) CFA_SP SP+0
        CFI (cfiCond189) CFA_XSP16 add(XSP16, 49)
        CFI Block cfiCond190 Using cfiCommon0
        CFI (cfiCond190) NoFunction
        CFI (cfiCond190) Conditional ??CrossCallReturnLabel_48
        CFI (cfiCond190) R6 load(1, XDATA, add(CFA_XSP16, literal(-24)))
        CFI (cfiCond190) VB load(1, XDATA, add(CFA_XSP16, literal(-23)))
        CFI (cfiCond190) V0 load(1, XDATA, add(CFA_XSP16, literal(-22)))
        CFI (cfiCond190) V1 load(1, XDATA, add(CFA_XSP16, literal(-21)))
        CFI (cfiCond190) V2 load(1, XDATA, add(CFA_XSP16, literal(-20)))
        CFI (cfiCond190) V3 load(1, XDATA, add(CFA_XSP16, literal(-19)))
        CFI (cfiCond190) V4 load(1, XDATA, add(CFA_XSP16, literal(-18)))
        CFI (cfiCond190) V5 load(1, XDATA, add(CFA_XSP16, literal(-17)))
        CFI (cfiCond190) V6 load(1, XDATA, add(CFA_XSP16, literal(-16)))
        CFI (cfiCond190) V7 load(1, XDATA, add(CFA_XSP16, literal(-15)))
        CFI (cfiCond190) V8 load(1, XDATA, add(CFA_XSP16, literal(-14)))
        CFI (cfiCond190) V9 load(1, XDATA, add(CFA_XSP16, literal(-13)))
        CFI (cfiCond190) V10 load(1, XDATA, add(CFA_XSP16, literal(-12)))
        CFI (cfiCond190) V11 load(1, XDATA, add(CFA_XSP16, literal(-11)))
        CFI (cfiCond190) V12 load(1, XDATA, add(CFA_XSP16, literal(-10)))
        CFI (cfiCond190) V13 load(1, XDATA, add(CFA_XSP16, literal(-9)))
        CFI (cfiCond190) V14 load(1, XDATA, add(CFA_XSP16, literal(-8)))
        CFI (cfiCond190) V15 load(1, XDATA, add(CFA_XSP16, literal(-7)))
        CFI (cfiCond190) R7 load(1, XDATA, add(CFA_XSP16, literal(-6)))
        CFI (cfiCond190) ?RET_LOW load(1, XDATA, add(CFA_XSP16, literal(-5)))
        CFI (cfiCond190) ?RET_HIGH load(1, XDATA, add(CFA_XSP16, literal(-4)))
        CFI (cfiCond190) ?BRET_EXT load(1, XDATA, add(CFA_XSP16, literal(-3)))
        CFI (cfiCond190) DPL0 load(1, XDATA, add(CFA_XSP16, literal(-2)))
        CFI (cfiCond190) DPH0 load(1, XDATA, add(CFA_XSP16, literal(-1)))
        CFI (cfiCond190) CFA_SP SP+0
        CFI (cfiCond190) CFA_XSP16 add(XSP16, 49)
        CFI Block cfiPicker191 Using cfiCommon1
        CFI (cfiPicker191) NoFunction
        CFI (cfiPicker191) Picker
        LCALL   ?Subroutine39 & 0xFFFF
??CrossCallReturnLabel_79:
        RET
        CFI EndBlock cfiCond181
        CFI EndBlock cfiCond182
        CFI EndBlock cfiCond183
        CFI EndBlock cfiCond184
        CFI EndBlock cfiCond185
        CFI EndBlock cfiCond186
        CFI EndBlock cfiCond187
        CFI EndBlock cfiCond188
        CFI EndBlock cfiCond189
        CFI EndBlock cfiCond190
        CFI EndBlock cfiPicker191

        RSEG BANKED_CODE:CODE:NOROOT(0)
?Subroutine39:
        CFI Block cfiCond192 Using cfiCommon0
        CFI NoFunction
        CFI Conditional ??CrossCallReturnLabel_77, ??CrossCallReturnLabel_25
        CFI R6 load(1, XDATA, add(CFA_XSP16, literal(-18)))
        CFI VB load(1, XDATA, add(CFA_XSP16, literal(-17)))
        CFI V0 load(1, XDATA, add(CFA_XSP16, literal(-16)))
        CFI V1 load(1, XDATA, add(CFA_XSP16, literal(-15)))
        CFI V2 load(1, XDATA, add(CFA_XSP16, literal(-14)))
        CFI V3 load(1, XDATA, add(CFA_XSP16, literal(-13)))
        CFI V4 load(1, XDATA, add(CFA_XSP16, literal(-12)))
        CFI V5 load(1, XDATA, add(CFA_XSP16, literal(-11)))
        CFI V6 load(1, XDATA, add(CFA_XSP16, literal(-10)))
        CFI V7 load(1, XDATA, add(CFA_XSP16, literal(-9)))
        CFI V8 load(1, XDATA, add(CFA_XSP16, literal(-8)))
        CFI V9 load(1, XDATA, add(CFA_XSP16, literal(-7)))
        CFI R7 load(1, XDATA, add(CFA_XSP16, literal(-6)))
        CFI ?RET_LOW load(1, XDATA, add(CFA_XSP16, literal(-5)))
        CFI ?RET_HIGH load(1, XDATA, add(CFA_XSP16, literal(-4)))
        CFI ?BRET_EXT load(1, XDATA, add(CFA_XSP16, literal(-3)))
        CFI DPL0 load(1, XDATA, add(CFA_XSP16, literal(-2)))
        CFI DPH0 load(1, XDATA, add(CFA_XSP16, literal(-1)))
        CFI CFA_SP SP+0
        CFI CFA_XSP16 add(XSP16, 40)
        CFI Block cfiCond193 Using cfiCommon0
        CFI (cfiCond193) NoFunction
        CFI (cfiCond193) Conditional ??CrossCallReturnLabel_77, ??CrossCallReturnLabel_26
        CFI (cfiCond193) R6 load(1, XDATA, add(CFA_XSP16, literal(-18)))
        CFI (cfiCond193) VB load(1, XDATA, add(CFA_XSP16, literal(-17)))
        CFI (cfiCond193) V0 load(1, XDATA, add(CFA_XSP16, literal(-16)))
        CFI (cfiCond193) V1 load(1, XDATA, add(CFA_XSP16, literal(-15)))
        CFI (cfiCond193) V2 load(1, XDATA, add(CFA_XSP16, literal(-14)))
        CFI (cfiCond193) V3 load(1, XDATA, add(CFA_XSP16, literal(-13)))
        CFI (cfiCond193) V4 load(1, XDATA, add(CFA_XSP16, literal(-12)))
        CFI (cfiCond193) V5 load(1, XDATA, add(CFA_XSP16, literal(-11)))
        CFI (cfiCond193) V6 load(1, XDATA, add(CFA_XSP16, literal(-10)))
        CFI (cfiCond193) V7 load(1, XDATA, add(CFA_XSP16, literal(-9)))
        CFI (cfiCond193) V8 load(1, XDATA, add(CFA_XSP16, literal(-8)))
        CFI (cfiCond193) V9 load(1, XDATA, add(CFA_XSP16, literal(-7)))
        CFI (cfiCond193) R7 load(1, XDATA, add(CFA_XSP16, literal(-6)))
        CFI (cfiCond193) ?RET_LOW load(1, XDATA, add(CFA_XSP16, literal(-5)))
        CFI (cfiCond193) ?RET_HIGH load(1, XDATA, add(CFA_XSP16, literal(-4)))
        CFI (cfiCond193) ?BRET_EXT load(1, XDATA, add(CFA_XSP16, literal(-3)))
        CFI (cfiCond193) DPL0 load(1, XDATA, add(CFA_XSP16, literal(-2)))
        CFI (cfiCond193) DPH0 load(1, XDATA, add(CFA_XSP16, literal(-1)))
        CFI (cfiCond193) CFA_SP SP+0
        CFI (cfiCond193) CFA_XSP16 add(XSP16, 40)
        CFI Block cfiCond194 Using cfiCommon0
        CFI (cfiCond194) NoFunction
        CFI (cfiCond194) Conditional ??CrossCallReturnLabel_79, ??CrossCallReturnLabel_39
        CFI (cfiCond194) R6 load(1, XDATA, add(CFA_XSP16, literal(-22)))
        CFI (cfiCond194) VB load(1, XDATA, add(CFA_XSP16, literal(-21)))
        CFI (cfiCond194) V0 load(1, XDATA, add(CFA_XSP16, literal(-20)))
        CFI (cfiCond194) V1 load(1, XDATA, add(CFA_XSP16, literal(-19)))
        CFI (cfiCond194) V2 load(1, XDATA, add(CFA_XSP16, literal(-18)))
        CFI (cfiCond194) V3 load(1, XDATA, add(CFA_XSP16, literal(-17)))
        CFI (cfiCond194) V4 load(1, XDATA, add(CFA_XSP16, literal(-16)))
        CFI (cfiCond194) V5 load(1, XDATA, add(CFA_XSP16, literal(-15)))
        CFI (cfiCond194) V6 load(1, XDATA, add(CFA_XSP16, literal(-14)))
        CFI (cfiCond194) V7 load(1, XDATA, add(CFA_XSP16, literal(-13)))
        CFI (cfiCond194) V8 load(1, XDATA, add(CFA_XSP16, literal(-12)))
        CFI (cfiCond194) V9 load(1, XDATA, add(CFA_XSP16, literal(-11)))
        CFI (cfiCond194) V10 load(1, XDATA, add(CFA_XSP16, literal(-10)))
        CFI (cfiCond194) V11 load(1, XDATA, add(CFA_XSP16, literal(-9)))
        CFI (cfiCond194) V12 load(1, XDATA, add(CFA_XSP16, literal(-8)))
        CFI (cfiCond194) V13 load(1, XDATA, add(CFA_XSP16, literal(-7)))
        CFI (cfiCond194) R7 load(1, XDATA, add(CFA_XSP16, literal(-6)))
        CFI (cfiCond194) ?RET_LOW load(1, XDATA, add(CFA_XSP16, literal(-5)))
        CFI (cfiCond194) ?RET_HIGH load(1, XDATA, add(CFA_XSP16, literal(-4)))
        CFI (cfiCond194) ?BRET_EXT load(1, XDATA, add(CFA_XSP16, literal(-3)))
        CFI (cfiCond194) DPL0 load(1, XDATA, add(CFA_XSP16, literal(-2)))
        CFI (cfiCond194) DPH0 load(1, XDATA, add(CFA_XSP16, literal(-1)))
        CFI (cfiCond194) CFA_SP SP+0
        CFI (cfiCond194) CFA_XSP16 add(XSP16, 30)
        CFI Block cfiCond195 Using cfiCommon0
        CFI (cfiCond195) NoFunction
        CFI (cfiCond195) Conditional ??CrossCallReturnLabel_79, ??CrossCallReturnLabel_40
        CFI (cfiCond195) R6 load(1, XDATA, add(CFA_XSP16, literal(-22)))
        CFI (cfiCond195) VB load(1, XDATA, add(CFA_XSP16, literal(-21)))
        CFI (cfiCond195) V0 load(1, XDATA, add(CFA_XSP16, literal(-20)))
        CFI (cfiCond195) V1 load(1, XDATA, add(CFA_XSP16, literal(-19)))
        CFI (cfiCond195) V2 load(1, XDATA, add(CFA_XSP16, literal(-18)))
        CFI (cfiCond195) V3 load(1, XDATA, add(CFA_XSP16, literal(-17)))
        CFI (cfiCond195) V4 load(1, XDATA, add(CFA_XSP16, literal(-16)))
        CFI (cfiCond195) V5 load(1, XDATA, add(CFA_XSP16, literal(-15)))
        CFI (cfiCond195) V6 load(1, XDATA, add(CFA_XSP16, literal(-14)))
        CFI (cfiCond195) V7 load(1, XDATA, add(CFA_XSP16, literal(-13)))
        CFI (cfiCond195) V8 load(1, XDATA, add(CFA_XSP16, literal(-12)))
        CFI (cfiCond195) V9 load(1, XDATA, add(CFA_XSP16, literal(-11)))
        CFI (cfiCond195) V10 load(1, XDATA, add(CFA_XSP16, literal(-10)))
        CFI (cfiCond195) V11 load(1, XDATA, add(CFA_XSP16, literal(-9)))
        CFI (cfiCond195) V12 load(1, XDATA, add(CFA_XSP16, literal(-8)))
        CFI (cfiCond195) V13 load(1, XDATA, add(CFA_XSP16, literal(-7)))
        CFI (cfiCond195) R7 load(1, XDATA, add(CFA_XSP16, literal(-6)))
        CFI (cfiCond195) ?RET_LOW load(1, XDATA, add(CFA_XSP16, literal(-5)))
        CFI (cfiCond195) ?RET_HIGH load(1, XDATA, add(CFA_XSP16, literal(-4)))
        CFI (cfiCond195) ?BRET_EXT load(1, XDATA, add(CFA_XSP16, literal(-3)))
        CFI (cfiCond195) DPL0 load(1, XDATA, add(CFA_XSP16, literal(-2)))
        CFI (cfiCond195) DPH0 load(1, XDATA, add(CFA_XSP16, literal(-1)))
        CFI (cfiCond195) CFA_SP SP+0
        CFI (cfiCond195) CFA_XSP16 add(XSP16, 30)
        CFI Block cfiCond196 Using cfiCommon0
        CFI (cfiCond196) NoFunction
        CFI (cfiCond196) Conditional ??CrossCallReturnLabel_79, ??CrossCallReturnLabel_41
        CFI (cfiCond196) R6 load(1, XDATA, add(CFA_XSP16, literal(-22)))
        CFI (cfiCond196) VB load(1, XDATA, add(CFA_XSP16, literal(-21)))
        CFI (cfiCond196) V0 load(1, XDATA, add(CFA_XSP16, literal(-20)))
        CFI (cfiCond196) V1 load(1, XDATA, add(CFA_XSP16, literal(-19)))
        CFI (cfiCond196) V2 load(1, XDATA, add(CFA_XSP16, literal(-18)))
        CFI (cfiCond196) V3 load(1, XDATA, add(CFA_XSP16, literal(-17)))
        CFI (cfiCond196) V4 load(1, XDATA, add(CFA_XSP16, literal(-16)))
        CFI (cfiCond196) V5 load(1, XDATA, add(CFA_XSP16, literal(-15)))
        CFI (cfiCond196) V6 load(1, XDATA, add(CFA_XSP16, literal(-14)))
        CFI (cfiCond196) V7 load(1, XDATA, add(CFA_XSP16, literal(-13)))
        CFI (cfiCond196) V8 load(1, XDATA, add(CFA_XSP16, literal(-12)))
        CFI (cfiCond196) V9 load(1, XDATA, add(CFA_XSP16, literal(-11)))
        CFI (cfiCond196) V10 load(1, XDATA, add(CFA_XSP16, literal(-10)))
        CFI (cfiCond196) V11 load(1, XDATA, add(CFA_XSP16, literal(-9)))
        CFI (cfiCond196) V12 load(1, XDATA, add(CFA_XSP16, literal(-8)))
        CFI (cfiCond196) V13 load(1, XDATA, add(CFA_XSP16, literal(-7)))
        CFI (cfiCond196) R7 load(1, XDATA, add(CFA_XSP16, literal(-6)))
        CFI (cfiCond196) ?RET_LOW load(1, XDATA, add(CFA_XSP16, literal(-5)))
        CFI (cfiCond196) ?RET_HIGH load(1, XDATA, add(CFA_XSP16, literal(-4)))
        CFI (cfiCond196) ?BRET_EXT load(1, XDATA, add(CFA_XSP16, literal(-3)))
        CFI (cfiCond196) DPL0 load(1, XDATA, add(CFA_XSP16, literal(-2)))
        CFI (cfiCond196) DPH0 load(1, XDATA, add(CFA_XSP16, literal(-1)))
        CFI (cfiCond196) CFA_SP SP+0
        CFI (cfiCond196) CFA_XSP16 add(XSP16, 30)
        CFI Block cfiCond197 Using cfiCommon0
        CFI (cfiCond197) NoFunction
        CFI (cfiCond197) Conditional ??CrossCallReturnLabel_79, ??CrossCallReturnLabel_42
        CFI (cfiCond197) R6 load(1, XDATA, add(CFA_XSP16, literal(-22)))
        CFI (cfiCond197) VB load(1, XDATA, add(CFA_XSP16, literal(-21)))
        CFI (cfiCond197) V0 load(1, XDATA, add(CFA_XSP16, literal(-20)))
        CFI (cfiCond197) V1 load(1, XDATA, add(CFA_XSP16, literal(-19)))
        CFI (cfiCond197) V2 load(1, XDATA, add(CFA_XSP16, literal(-18)))
        CFI (cfiCond197) V3 load(1, XDATA, add(CFA_XSP16, literal(-17)))
        CFI (cfiCond197) V4 load(1, XDATA, add(CFA_XSP16, literal(-16)))
        CFI (cfiCond197) V5 load(1, XDATA, add(CFA_XSP16, literal(-15)))
        CFI (cfiCond197) V6 load(1, XDATA, add(CFA_XSP16, literal(-14)))
        CFI (cfiCond197) V7 load(1, XDATA, add(CFA_XSP16, literal(-13)))
        CFI (cfiCond197) V8 load(1, XDATA, add(CFA_XSP16, literal(-12)))
        CFI (cfiCond197) V9 load(1, XDATA, add(CFA_XSP16, literal(-11)))
        CFI (cfiCond197) V10 load(1, XDATA, add(CFA_XSP16, literal(-10)))
        CFI (cfiCond197) V11 load(1, XDATA, add(CFA_XSP16, literal(-9)))
        CFI (cfiCond197) V12 load(1, XDATA, add(CFA_XSP16, literal(-8)))
        CFI (cfiCond197) V13 load(1, XDATA, add(CFA_XSP16, literal(-7)))
        CFI (cfiCond197) R7 load(1, XDATA, add(CFA_XSP16, literal(-6)))
        CFI (cfiCond197) ?RET_LOW load(1, XDATA, add(CFA_XSP16, literal(-5)))
        CFI (cfiCond197) ?RET_HIGH load(1, XDATA, add(CFA_XSP16, literal(-4)))
        CFI (cfiCond197) ?BRET_EXT load(1, XDATA, add(CFA_XSP16, literal(-3)))
        CFI (cfiCond197) DPL0 load(1, XDATA, add(CFA_XSP16, literal(-2)))
        CFI (cfiCond197) DPH0 load(1, XDATA, add(CFA_XSP16, literal(-1)))
        CFI (cfiCond197) CFA_SP SP+0
        CFI (cfiCond197) CFA_XSP16 add(XSP16, 37)
        CFI Block cfiCond198 Using cfiCommon0
        CFI (cfiCond198) NoFunction
        CFI (cfiCond198) Conditional ??CrossCallReturnLabel_79, ??CrossCallReturnLabel_43
        CFI (cfiCond198) R6 load(1, XDATA, add(CFA_XSP16, literal(-22)))
        CFI (cfiCond198) VB load(1, XDATA, add(CFA_XSP16, literal(-21)))
        CFI (cfiCond198) V0 load(1, XDATA, add(CFA_XSP16, literal(-20)))
        CFI (cfiCond198) V1 load(1, XDATA, add(CFA_XSP16, literal(-19)))
        CFI (cfiCond198) V2 load(1, XDATA, add(CFA_XSP16, literal(-18)))
        CFI (cfiCond198) V3 load(1, XDATA, add(CFA_XSP16, literal(-17)))
        CFI (cfiCond198) V4 load(1, XDATA, add(CFA_XSP16, literal(-16)))
        CFI (cfiCond198) V5 load(1, XDATA, add(CFA_XSP16, literal(-15)))
        CFI (cfiCond198) V6 load(1, XDATA, add(CFA_XSP16, literal(-14)))
        CFI (cfiCond198) V7 load(1, XDATA, add(CFA_XSP16, literal(-13)))
        CFI (cfiCond198) V8 load(1, XDATA, add(CFA_XSP16, literal(-12)))
        CFI (cfiCond198) V9 load(1, XDATA, add(CFA_XSP16, literal(-11)))
        CFI (cfiCond198) V10 load(1, XDATA, add(CFA_XSP16, literal(-10)))
        CFI (cfiCond198) V11 load(1, XDATA, add(CFA_XSP16, literal(-9)))
        CFI (cfiCond198) V12 load(1, XDATA, add(CFA_XSP16, literal(-8)))
        CFI (cfiCond198) V13 load(1, XDATA, add(CFA_XSP16, literal(-7)))
        CFI (cfiCond198) R7 load(1, XDATA, add(CFA_XSP16, literal(-6)))
        CFI (cfiCond198) ?RET_LOW load(1, XDATA, add(CFA_XSP16, literal(-5)))
        CFI (cfiCond198) ?RET_HIGH load(1, XDATA, add(CFA_XSP16, literal(-4)))
        CFI (cfiCond198) ?BRET_EXT load(1, XDATA, add(CFA_XSP16, literal(-3)))
        CFI (cfiCond198) DPL0 load(1, XDATA, add(CFA_XSP16, literal(-2)))
        CFI (cfiCond198) DPH0 load(1, XDATA, add(CFA_XSP16, literal(-1)))
        CFI (cfiCond198) CFA_SP SP+0
        CFI (cfiCond198) CFA_XSP16 add(XSP16, 37)
        CFI Block cfiCond199 Using cfiCommon0
        CFI (cfiCond199) NoFunction
        CFI (cfiCond199) Conditional ??CrossCallReturnLabel_79, ??CrossCallReturnLabel_44
        CFI (cfiCond199) R6 load(1, XDATA, add(CFA_XSP16, literal(-24)))
        CFI (cfiCond199) VB load(1, XDATA, add(CFA_XSP16, literal(-23)))
        CFI (cfiCond199) V0 load(1, XDATA, add(CFA_XSP16, literal(-22)))
        CFI (cfiCond199) V1 load(1, XDATA, add(CFA_XSP16, literal(-21)))
        CFI (cfiCond199) V2 load(1, XDATA, add(CFA_XSP16, literal(-20)))
        CFI (cfiCond199) V3 load(1, XDATA, add(CFA_XSP16, literal(-19)))
        CFI (cfiCond199) V4 load(1, XDATA, add(CFA_XSP16, literal(-18)))
        CFI (cfiCond199) V5 load(1, XDATA, add(CFA_XSP16, literal(-17)))
        CFI (cfiCond199) V6 load(1, XDATA, add(CFA_XSP16, literal(-16)))
        CFI (cfiCond199) V7 load(1, XDATA, add(CFA_XSP16, literal(-15)))
        CFI (cfiCond199) V8 load(1, XDATA, add(CFA_XSP16, literal(-14)))
        CFI (cfiCond199) V9 load(1, XDATA, add(CFA_XSP16, literal(-13)))
        CFI (cfiCond199) V10 load(1, XDATA, add(CFA_XSP16, literal(-12)))
        CFI (cfiCond199) V11 load(1, XDATA, add(CFA_XSP16, literal(-11)))
        CFI (cfiCond199) V12 load(1, XDATA, add(CFA_XSP16, literal(-10)))
        CFI (cfiCond199) V13 load(1, XDATA, add(CFA_XSP16, literal(-9)))
        CFI (cfiCond199) V14 load(1, XDATA, add(CFA_XSP16, literal(-8)))
        CFI (cfiCond199) V15 load(1, XDATA, add(CFA_XSP16, literal(-7)))
        CFI (cfiCond199) R7 load(1, XDATA, add(CFA_XSP16, literal(-6)))
        CFI (cfiCond199) ?RET_LOW load(1, XDATA, add(CFA_XSP16, literal(-5)))
        CFI (cfiCond199) ?RET_HIGH load(1, XDATA, add(CFA_XSP16, literal(-4)))
        CFI (cfiCond199) ?BRET_EXT load(1, XDATA, add(CFA_XSP16, literal(-3)))
        CFI (cfiCond199) DPL0 load(1, XDATA, add(CFA_XSP16, literal(-2)))
        CFI (cfiCond199) DPH0 load(1, XDATA, add(CFA_XSP16, literal(-1)))
        CFI (cfiCond199) CFA_SP SP+0
        CFI (cfiCond199) CFA_XSP16 add(XSP16, 40)
        CFI Block cfiCond200 Using cfiCommon0
        CFI (cfiCond200) NoFunction
        CFI (cfiCond200) Conditional ??CrossCallReturnLabel_79, ??CrossCallReturnLabel_45
        CFI (cfiCond200) R6 load(1, XDATA, add(CFA_XSP16, literal(-24)))
        CFI (cfiCond200) VB load(1, XDATA, add(CFA_XSP16, literal(-23)))
        CFI (cfiCond200) V0 load(1, XDATA, add(CFA_XSP16, literal(-22)))
        CFI (cfiCond200) V1 load(1, XDATA, add(CFA_XSP16, literal(-21)))
        CFI (cfiCond200) V2 load(1, XDATA, add(CFA_XSP16, literal(-20)))
        CFI (cfiCond200) V3 load(1, XDATA, add(CFA_XSP16, literal(-19)))
        CFI (cfiCond200) V4 load(1, XDATA, add(CFA_XSP16, literal(-18)))
        CFI (cfiCond200) V5 load(1, XDATA, add(CFA_XSP16, literal(-17)))
        CFI (cfiCond200) V6 load(1, XDATA, add(CFA_XSP16, literal(-16)))
        CFI (cfiCond200) V7 load(1, XDATA, add(CFA_XSP16, literal(-15)))
        CFI (cfiCond200) V8 load(1, XDATA, add(CFA_XSP16, literal(-14)))
        CFI (cfiCond200) V9 load(1, XDATA, add(CFA_XSP16, literal(-13)))
        CFI (cfiCond200) V10 load(1, XDATA, add(CFA_XSP16, literal(-12)))
        CFI (cfiCond200) V11 load(1, XDATA, add(CFA_XSP16, literal(-11)))
        CFI (cfiCond200) V12 load(1, XDATA, add(CFA_XSP16, literal(-10)))
        CFI (cfiCond200) V13 load(1, XDATA, add(CFA_XSP16, literal(-9)))
        CFI (cfiCond200) V14 load(1, XDATA, add(CFA_XSP16, literal(-8)))
        CFI (cfiCond200) V15 load(1, XDATA, add(CFA_XSP16, literal(-7)))
        CFI (cfiCond200) R7 load(1, XDATA, add(CFA_XSP16, literal(-6)))
        CFI (cfiCond200) ?RET_LOW load(1, XDATA, add(CFA_XSP16, literal(-5)))
        CFI (cfiCond200) ?RET_HIGH load(1, XDATA, add(CFA_XSP16, literal(-4)))
        CFI (cfiCond200) ?BRET_EXT load(1, XDATA, add(CFA_XSP16, literal(-3)))
        CFI (cfiCond200) DPL0 load(1, XDATA, add(CFA_XSP16, literal(-2)))
        CFI (cfiCond200) DPH0 load(1, XDATA, add(CFA_XSP16, literal(-1)))
        CFI (cfiCond200) CFA_SP SP+0
        CFI (cfiCond200) CFA_XSP16 add(XSP16, 40)
        CFI Block cfiCond201 Using cfiCommon0
        CFI (cfiCond201) NoFunction
        CFI (cfiCond201) Conditional ??CrossCallReturnLabel_79, ??CrossCallReturnLabel_46
        CFI (cfiCond201) R6 load(1, XDATA, add(CFA_XSP16, literal(-24)))
        CFI (cfiCond201) VB load(1, XDATA, add(CFA_XSP16, literal(-23)))
        CFI (cfiCond201) V0 load(1, XDATA, add(CFA_XSP16, literal(-22)))
        CFI (cfiCond201) V1 load(1, XDATA, add(CFA_XSP16, literal(-21)))
        CFI (cfiCond201) V2 load(1, XDATA, add(CFA_XSP16, literal(-20)))
        CFI (cfiCond201) V3 load(1, XDATA, add(CFA_XSP16, literal(-19)))
        CFI (cfiCond201) V4 load(1, XDATA, add(CFA_XSP16, literal(-18)))
        CFI (cfiCond201) V5 load(1, XDATA, add(CFA_XSP16, literal(-17)))
        CFI (cfiCond201) V6 load(1, XDATA, add(CFA_XSP16, literal(-16)))
        CFI (cfiCond201) V7 load(1, XDATA, add(CFA_XSP16, literal(-15)))
        CFI (cfiCond201) V8 load(1, XDATA, add(CFA_XSP16, literal(-14)))
        CFI (cfiCond201) V9 load(1, XDATA, add(CFA_XSP16, literal(-13)))
        CFI (cfiCond201) V10 load(1, XDATA, add(CFA_XSP16, literal(-12)))
        CFI (cfiCond201) V11 load(1, XDATA, add(CFA_XSP16, literal(-11)))
        CFI (cfiCond201) V12 load(1, XDATA, add(CFA_XSP16, literal(-10)))
        CFI (cfiCond201) V13 load(1, XDATA, add(CFA_XSP16, literal(-9)))
        CFI (cfiCond201) V14 load(1, XDATA, add(CFA_XSP16, literal(-8)))
        CFI (cfiCond201) V15 load(1, XDATA, add(CFA_XSP16, literal(-7)))
        CFI (cfiCond201) R7 load(1, XDATA, add(CFA_XSP16, literal(-6)))
        CFI (cfiCond201) ?RET_LOW load(1, XDATA, add(CFA_XSP16, literal(-5)))
        CFI (cfiCond201) ?RET_HIGH load(1, XDATA, add(CFA_XSP16, literal(-4)))
        CFI (cfiCond201) ?BRET_EXT load(1, XDATA, add(CFA_XSP16, literal(-3)))
        CFI (cfiCond201) DPL0 load(1, XDATA, add(CFA_XSP16, literal(-2)))
        CFI (cfiCond201) DPH0 load(1, XDATA, add(CFA_XSP16, literal(-1)))
        CFI (cfiCond201) CFA_SP SP+0
        CFI (cfiCond201) CFA_XSP16 add(XSP16, 40)
        CFI Block cfiCond202 Using cfiCommon0
        CFI (cfiCond202) NoFunction
        CFI (cfiCond202) Conditional ??CrossCallReturnLabel_79, ??CrossCallReturnLabel_47
        CFI (cfiCond202) R6 load(1, XDATA, add(CFA_XSP16, literal(-24)))
        CFI (cfiCond202) VB load(1, XDATA, add(CFA_XSP16, literal(-23)))
        CFI (cfiCond202) V0 load(1, XDATA, add(CFA_XSP16, literal(-22)))
        CFI (cfiCond202) V1 load(1, XDATA, add(CFA_XSP16, literal(-21)))
        CFI (cfiCond202) V2 load(1, XDATA, add(CFA_XSP16, literal(-20)))
        CFI (cfiCond202) V3 load(1, XDATA, add(CFA_XSP16, literal(-19)))
        CFI (cfiCond202) V4 load(1, XDATA, add(CFA_XSP16, literal(-18)))
        CFI (cfiCond202) V5 load(1, XDATA, add(CFA_XSP16, literal(-17)))
        CFI (cfiCond202) V6 load(1, XDATA, add(CFA_XSP16, literal(-16)))
        CFI (cfiCond202) V7 load(1, XDATA, add(CFA_XSP16, literal(-15)))
        CFI (cfiCond202) V8 load(1, XDATA, add(CFA_XSP16, literal(-14)))
        CFI (cfiCond202) V9 load(1, XDATA, add(CFA_XSP16, literal(-13)))
        CFI (cfiCond202) V10 load(1, XDATA, add(CFA_XSP16, literal(-12)))
        CFI (cfiCond202) V11 load(1, XDATA, add(CFA_XSP16, literal(-11)))
        CFI (cfiCond202) V12 load(1, XDATA, add(CFA_XSP16, literal(-10)))
        CFI (cfiCond202) V13 load(1, XDATA, add(CFA_XSP16, literal(-9)))
        CFI (cfiCond202) V14 load(1, XDATA, add(CFA_XSP16, literal(-8)))
        CFI (cfiCond202) V15 load(1, XDATA, add(CFA_XSP16, literal(-7)))
        CFI (cfiCond202) R7 load(1, XDATA, add(CFA_XSP16, literal(-6)))
        CFI (cfiCond202) ?RET_LOW load(1, XDATA, add(CFA_XSP16, literal(-5)))
        CFI (cfiCond202) ?RET_HIGH load(1, XDATA, add(CFA_XSP16, literal(-4)))
        CFI (cfiCond202) ?BRET_EXT load(1, XDATA, add(CFA_XSP16, literal(-3)))
        CFI (cfiCond202) DPL0 load(1, XDATA, add(CFA_XSP16, literal(-2)))
        CFI (cfiCond202) DPH0 load(1, XDATA, add(CFA_XSP16, literal(-1)))
        CFI (cfiCond202) CFA_SP SP+0
        CFI (cfiCond202) CFA_XSP16 add(XSP16, 49)
        CFI Block cfiCond203 Using cfiCommon0
        CFI (cfiCond203) NoFunction
        CFI (cfiCond203) Conditional ??CrossCallReturnLabel_79, ??CrossCallReturnLabel_48
        CFI (cfiCond203) R6 load(1, XDATA, add(CFA_XSP16, literal(-24)))
        CFI (cfiCond203) VB load(1, XDATA, add(CFA_XSP16, literal(-23)))
        CFI (cfiCond203) V0 load(1, XDATA, add(CFA_XSP16, literal(-22)))
        CFI (cfiCond203) V1 load(1, XDATA, add(CFA_XSP16, literal(-21)))
        CFI (cfiCond203) V2 load(1, XDATA, add(CFA_XSP16, literal(-20)))
        CFI (cfiCond203) V3 load(1, XDATA, add(CFA_XSP16, literal(-19)))
        CFI (cfiCond203) V4 load(1, XDATA, add(CFA_XSP16, literal(-18)))
        CFI (cfiCond203) V5 load(1, XDATA, add(CFA_XSP16, literal(-17)))
        CFI (cfiCond203) V6 load(1, XDATA, add(CFA_XSP16, literal(-16)))
        CFI (cfiCond203) V7 load(1, XDATA, add(CFA_XSP16, literal(-15)))
        CFI (cfiCond203) V8 load(1, XDATA, add(CFA_XSP16, literal(-14)))
        CFI (cfiCond203) V9 load(1, XDATA, add(CFA_XSP16, literal(-13)))
        CFI (cfiCond203) V10 load(1, XDATA, add(CFA_XSP16, literal(-12)))
        CFI (cfiCond203) V11 load(1, XDATA, add(CFA_XSP16, literal(-11)))
        CFI (cfiCond203) V12 load(1, XDATA, add(CFA_XSP16, literal(-10)))
        CFI (cfiCond203) V13 load(1, XDATA, add(CFA_XSP16, literal(-9)))
        CFI (cfiCond203) V14 load(1, XDATA, add(CFA_XSP16, literal(-8)))
        CFI (cfiCond203) V15 load(1, XDATA, add(CFA_XSP16, literal(-7)))
        CFI (cfiCond203) R7 load(1, XDATA, add(CFA_XSP16, literal(-6)))
        CFI (cfiCond203) ?RET_LOW load(1, XDATA, add(CFA_XSP16, literal(-5)))
        CFI (cfiCond203) ?RET_HIGH load(1, XDATA, add(CFA_XSP16, literal(-4)))
        CFI (cfiCond203) ?BRET_EXT load(1, XDATA, add(CFA_XSP16, literal(-3)))
        CFI (cfiCond203) DPL0 load(1, XDATA, add(CFA_XSP16, literal(-2)))
        CFI (cfiCond203) DPH0 load(1, XDATA, add(CFA_XSP16, literal(-1)))
        CFI (cfiCond203) CFA_SP SP+0
        CFI (cfiCond203) CFA_XSP16 add(XSP16, 49)
        CFI Block cfiCond204 Using cfiCommon0
        CFI (cfiCond204) NoFunction
        CFI (cfiCond204) Conditional ??CrossCallReturnLabel_78, ??CrossCallReturnLabel_37
        CFI (cfiCond204) R6 load(1, XDATA, add(CFA_XSP16, literal(-18)))
        CFI (cfiCond204) VB load(1, XDATA, add(CFA_XSP16, literal(-17)))
        CFI (cfiCond204) V0 load(1, XDATA, add(CFA_XSP16, literal(-16)))
        CFI (cfiCond204) V1 load(1, XDATA, add(CFA_XSP16, literal(-15)))
        CFI (cfiCond204) V2 load(1, XDATA, add(CFA_XSP16, literal(-14)))
        CFI (cfiCond204) V3 load(1, XDATA, add(CFA_XSP16, literal(-13)))
        CFI (cfiCond204) V4 load(1, XDATA, add(CFA_XSP16, literal(-12)))
        CFI (cfiCond204) V5 load(1, XDATA, add(CFA_XSP16, literal(-11)))
        CFI (cfiCond204) V6 load(1, XDATA, add(CFA_XSP16, literal(-10)))
        CFI (cfiCond204) V7 load(1, XDATA, add(CFA_XSP16, literal(-9)))
        CFI (cfiCond204) V8 load(1, XDATA, add(CFA_XSP16, literal(-8)))
        CFI (cfiCond204) V9 load(1, XDATA, add(CFA_XSP16, literal(-7)))
        CFI (cfiCond204) R7 load(1, XDATA, add(CFA_XSP16, literal(-6)))
        CFI (cfiCond204) ?RET_LOW load(1, XDATA, add(CFA_XSP16, literal(-5)))
        CFI (cfiCond204) ?RET_HIGH load(1, XDATA, add(CFA_XSP16, literal(-4)))
        CFI (cfiCond204) ?BRET_EXT load(1, XDATA, add(CFA_XSP16, literal(-3)))
        CFI (cfiCond204) DPL0 load(1, XDATA, add(CFA_XSP16, literal(-2)))
        CFI (cfiCond204) DPH0 load(1, XDATA, add(CFA_XSP16, literal(-1)))
        CFI (cfiCond204) CFA_SP SP+0
        CFI (cfiCond204) CFA_XSP16 add(XSP16, 40)
        CFI Block cfiCond205 Using cfiCommon0
        CFI (cfiCond205) NoFunction
        CFI (cfiCond205) Conditional ??CrossCallReturnLabel_78, ??CrossCallReturnLabel_38
        CFI (cfiCond205) R6 load(1, XDATA, add(CFA_XSP16, literal(-24)))
        CFI (cfiCond205) VB load(1, XDATA, add(CFA_XSP16, literal(-23)))
        CFI (cfiCond205) V0 load(1, XDATA, add(CFA_XSP16, literal(-22)))
        CFI (cfiCond205) V1 load(1, XDATA, add(CFA_XSP16, literal(-21)))
        CFI (cfiCond205) V2 load(1, XDATA, add(CFA_XSP16, literal(-20)))
        CFI (cfiCond205) V3 load(1, XDATA, add(CFA_XSP16, literal(-19)))
        CFI (cfiCond205) V4 load(1, XDATA, add(CFA_XSP16, literal(-18)))
        CFI (cfiCond205) V5 load(1, XDATA, add(CFA_XSP16, literal(-17)))
        CFI (cfiCond205) V6 load(1, XDATA, add(CFA_XSP16, literal(-16)))
        CFI (cfiCond205) V7 load(1, XDATA, add(CFA_XSP16, literal(-15)))
        CFI (cfiCond205) V8 load(1, XDATA, add(CFA_XSP16, literal(-14)))
        CFI (cfiCond205) V9 load(1, XDATA, add(CFA_XSP16, literal(-13)))
        CFI (cfiCond205) V10 load(1, XDATA, add(CFA_XSP16, literal(-12)))
        CFI (cfiCond205) V11 load(1, XDATA, add(CFA_XSP16, literal(-11)))
        CFI (cfiCond205) V12 load(1, XDATA, add(CFA_XSP16, literal(-10)))
        CFI (cfiCond205) V13 load(1, XDATA, add(CFA_XSP16, literal(-9)))
        CFI (cfiCond205) V14 load(1, XDATA, add(CFA_XSP16, literal(-8)))
        CFI (cfiCond205) V15 load(1, XDATA, add(CFA_XSP16, literal(-7)))
        CFI (cfiCond205) R7 load(1, XDATA, add(CFA_XSP16, literal(-6)))
        CFI (cfiCond205) ?RET_LOW load(1, XDATA, add(CFA_XSP16, literal(-5)))
        CFI (cfiCond205) ?RET_HIGH load(1, XDATA, add(CFA_XSP16, literal(-4)))
        CFI (cfiCond205) ?BRET_EXT load(1, XDATA, add(CFA_XSP16, literal(-3)))
        CFI (cfiCond205) DPL0 load(1, XDATA, add(CFA_XSP16, literal(-2)))
        CFI (cfiCond205) DPH0 load(1, XDATA, add(CFA_XSP16, literal(-1)))
        CFI (cfiCond205) CFA_SP SP+0
        CFI (cfiCond205) CFA_XSP16 add(XSP16, 40)
        CFI Block cfiCond206 Using cfiCommon0
        CFI (cfiCond206) NoFunction
        CFI (cfiCond206) Conditional ??CrossCallReturnLabel_76, ??CrossCallReturnLabel_15
        CFI (cfiCond206) R6 load(1, XDATA, add(CFA_XSP16, literal(-22)))
        CFI (cfiCond206) VB load(1, XDATA, add(CFA_XSP16, literal(-21)))
        CFI (cfiCond206) V0 load(1, XDATA, add(CFA_XSP16, literal(-20)))
        CFI (cfiCond206) V1 load(1, XDATA, add(CFA_XSP16, literal(-19)))
        CFI (cfiCond206) V2 load(1, XDATA, add(CFA_XSP16, literal(-18)))
        CFI (cfiCond206) V3 load(1, XDATA, add(CFA_XSP16, literal(-17)))
        CFI (cfiCond206) V4 load(1, XDATA, add(CFA_XSP16, literal(-16)))
        CFI (cfiCond206) V5 load(1, XDATA, add(CFA_XSP16, literal(-15)))
        CFI (cfiCond206) V6 load(1, XDATA, add(CFA_XSP16, literal(-14)))
        CFI (cfiCond206) V7 load(1, XDATA, add(CFA_XSP16, literal(-13)))
        CFI (cfiCond206) V8 load(1, XDATA, add(CFA_XSP16, literal(-12)))
        CFI (cfiCond206) V9 load(1, XDATA, add(CFA_XSP16, literal(-11)))
        CFI (cfiCond206) V10 load(1, XDATA, add(CFA_XSP16, literal(-10)))
        CFI (cfiCond206) V11 load(1, XDATA, add(CFA_XSP16, literal(-9)))
        CFI (cfiCond206) V12 load(1, XDATA, add(CFA_XSP16, literal(-8)))
        CFI (cfiCond206) V13 load(1, XDATA, add(CFA_XSP16, literal(-7)))
        CFI (cfiCond206) R7 load(1, XDATA, add(CFA_XSP16, literal(-6)))
        CFI (cfiCond206) ?RET_LOW load(1, XDATA, add(CFA_XSP16, literal(-5)))
        CFI (cfiCond206) ?RET_HIGH load(1, XDATA, add(CFA_XSP16, literal(-4)))
        CFI (cfiCond206) ?BRET_EXT load(1, XDATA, add(CFA_XSP16, literal(-3)))
        CFI (cfiCond206) DPL0 load(1, XDATA, add(CFA_XSP16, literal(-2)))
        CFI (cfiCond206) DPH0 load(1, XDATA, add(CFA_XSP16, literal(-1)))
        CFI (cfiCond206) CFA_SP SP+0
        CFI (cfiCond206) CFA_XSP16 add(XSP16, 37)
        CFI Block cfiCond207 Using cfiCommon0
        CFI (cfiCond207) NoFunction
        CFI (cfiCond207) Conditional ??CrossCallReturnLabel_76, ??CrossCallReturnLabel_16
        CFI (cfiCond207) R6 load(1, XDATA, add(CFA_XSP16, literal(-24)))
        CFI (cfiCond207) VB load(1, XDATA, add(CFA_XSP16, literal(-23)))
        CFI (cfiCond207) V0 load(1, XDATA, add(CFA_XSP16, literal(-22)))
        CFI (cfiCond207) V1 load(1, XDATA, add(CFA_XSP16, literal(-21)))
        CFI (cfiCond207) V2 load(1, XDATA, add(CFA_XSP16, literal(-20)))
        CFI (cfiCond207) V3 load(1, XDATA, add(CFA_XSP16, literal(-19)))
        CFI (cfiCond207) V4 load(1, XDATA, add(CFA_XSP16, literal(-18)))
        CFI (cfiCond207) V5 load(1, XDATA, add(CFA_XSP16, literal(-17)))
        CFI (cfiCond207) V6 load(1, XDATA, add(CFA_XSP16, literal(-16)))
        CFI (cfiCond207) V7 load(1, XDATA, add(CFA_XSP16, literal(-15)))
        CFI (cfiCond207) V8 load(1, XDATA, add(CFA_XSP16, literal(-14)))
        CFI (cfiCond207) V9 load(1, XDATA, add(CFA_XSP16, literal(-13)))
        CFI (cfiCond207) V10 load(1, XDATA, add(CFA_XSP16, literal(-12)))
        CFI (cfiCond207) V11 load(1, XDATA, add(CFA_XSP16, literal(-11)))
        CFI (cfiCond207) V12 load(1, XDATA, add(CFA_XSP16, literal(-10)))
        CFI (cfiCond207) V13 load(1, XDATA, add(CFA_XSP16, literal(-9)))
        CFI (cfiCond207) V14 load(1, XDATA, add(CFA_XSP16, literal(-8)))
        CFI (cfiCond207) V15 load(1, XDATA, add(CFA_XSP16, literal(-7)))
        CFI (cfiCond207) R7 load(1, XDATA, add(CFA_XSP16, literal(-6)))
        CFI (cfiCond207) ?RET_LOW load(1, XDATA, add(CFA_XSP16, literal(-5)))
        CFI (cfiCond207) ?RET_HIGH load(1, XDATA, add(CFA_XSP16, literal(-4)))
        CFI (cfiCond207) ?BRET_EXT load(1, XDATA, add(CFA_XSP16, literal(-3)))
        CFI (cfiCond207) DPL0 load(1, XDATA, add(CFA_XSP16, literal(-2)))
        CFI (cfiCond207) DPH0 load(1, XDATA, add(CFA_XSP16, literal(-1)))
        CFI (cfiCond207) CFA_SP SP+0
        CFI (cfiCond207) CFA_XSP16 add(XSP16, 40)
        CFI Block cfiCond208 Using cfiCommon0
        CFI (cfiCond208) NoFunction
        CFI (cfiCond208) Conditional ??CrossCallReturnLabel_76, ??CrossCallReturnLabel_17
        CFI (cfiCond208) R6 load(1, XDATA, add(CFA_XSP16, literal(-24)))
        CFI (cfiCond208) VB load(1, XDATA, add(CFA_XSP16, literal(-23)))
        CFI (cfiCond208) V0 load(1, XDATA, add(CFA_XSP16, literal(-22)))
        CFI (cfiCond208) V1 load(1, XDATA, add(CFA_XSP16, literal(-21)))
        CFI (cfiCond208) V2 load(1, XDATA, add(CFA_XSP16, literal(-20)))
        CFI (cfiCond208) V3 load(1, XDATA, add(CFA_XSP16, literal(-19)))
        CFI (cfiCond208) V4 load(1, XDATA, add(CFA_XSP16, literal(-18)))
        CFI (cfiCond208) V5 load(1, XDATA, add(CFA_XSP16, literal(-17)))
        CFI (cfiCond208) V6 load(1, XDATA, add(CFA_XSP16, literal(-16)))
        CFI (cfiCond208) V7 load(1, XDATA, add(CFA_XSP16, literal(-15)))
        CFI (cfiCond208) V8 load(1, XDATA, add(CFA_XSP16, literal(-14)))
        CFI (cfiCond208) V9 load(1, XDATA, add(CFA_XSP16, literal(-13)))
        CFI (cfiCond208) V10 load(1, XDATA, add(CFA_XSP16, literal(-12)))
        CFI (cfiCond208) V11 load(1, XDATA, add(CFA_XSP16, literal(-11)))
        CFI (cfiCond208) V12 load(1, XDATA, add(CFA_XSP16, literal(-10)))
        CFI (cfiCond208) V13 load(1, XDATA, add(CFA_XSP16, literal(-9)))
        CFI (cfiCond208) V14 load(1, XDATA, add(CFA_XSP16, literal(-8)))
        CFI (cfiCond208) V15 load(1, XDATA, add(CFA_XSP16, literal(-7)))
        CFI (cfiCond208) R7 load(1, XDATA, add(CFA_XSP16, literal(-6)))
        CFI (cfiCond208) ?RET_LOW load(1, XDATA, add(CFA_XSP16, literal(-5)))
        CFI (cfiCond208) ?RET_HIGH load(1, XDATA, add(CFA_XSP16, literal(-4)))
        CFI (cfiCond208) ?BRET_EXT load(1, XDATA, add(CFA_XSP16, literal(-3)))
        CFI (cfiCond208) DPL0 load(1, XDATA, add(CFA_XSP16, literal(-2)))
        CFI (cfiCond208) DPH0 load(1, XDATA, add(CFA_XSP16, literal(-1)))
        CFI (cfiCond208) CFA_SP SP+0
        CFI (cfiCond208) CFA_XSP16 add(XSP16, 49)
        CFI Block cfiPicker209 Using cfiCommon1
        CFI (cfiPicker209) NoFunction
        CFI (cfiPicker209) Picker
        MOVX    A,@DPTR
        MOV     R0,A
        INC     DPTR
        MOVX    A,@DPTR
        MOV     R1,A
        RET
        CFI EndBlock cfiCond192
        CFI EndBlock cfiCond193
        CFI EndBlock cfiCond194
        CFI EndBlock cfiCond195
        CFI EndBlock cfiCond196
        CFI EndBlock cfiCond197
        CFI EndBlock cfiCond198
        CFI EndBlock cfiCond199
        CFI EndBlock cfiCond200
        CFI EndBlock cfiCond201
        CFI EndBlock cfiCond202
        CFI EndBlock cfiCond203
        CFI EndBlock cfiCond204
        CFI EndBlock cfiCond205
        CFI EndBlock cfiCond206
        CFI EndBlock cfiCond207
        CFI EndBlock cfiCond208
        CFI EndBlock cfiPicker209

        RSEG BANKED_CODE:CODE:NOROOT(0)
?Subroutine24:
        CFI Block cfiCond210 Using cfiCommon0
        CFI NoFunction
        CFI Conditional ??CrossCallReturnLabel_37
        CFI R6 load(1, XDATA, add(CFA_XSP16, literal(-18)))
        CFI VB load(1, XDATA, add(CFA_XSP16, literal(-17)))
        CFI V0 load(1, XDATA, add(CFA_XSP16, literal(-16)))
        CFI V1 load(1, XDATA, add(CFA_XSP16, literal(-15)))
        CFI V2 load(1, XDATA, add(CFA_XSP16, literal(-14)))
        CFI V3 load(1, XDATA, add(CFA_XSP16, literal(-13)))
        CFI V4 load(1, XDATA, add(CFA_XSP16, literal(-12)))
        CFI V5 load(1, XDATA, add(CFA_XSP16, literal(-11)))
        CFI V6 load(1, XDATA, add(CFA_XSP16, literal(-10)))
        CFI V7 load(1, XDATA, add(CFA_XSP16, literal(-9)))
        CFI V8 load(1, XDATA, add(CFA_XSP16, literal(-8)))
        CFI V9 load(1, XDATA, add(CFA_XSP16, literal(-7)))
        CFI R7 load(1, XDATA, add(CFA_XSP16, literal(-6)))
        CFI ?RET_LOW load(1, XDATA, add(CFA_XSP16, literal(-5)))
        CFI ?RET_HIGH load(1, XDATA, add(CFA_XSP16, literal(-4)))
        CFI ?BRET_EXT load(1, XDATA, add(CFA_XSP16, literal(-3)))
        CFI DPL0 load(1, XDATA, add(CFA_XSP16, literal(-2)))
        CFI DPH0 load(1, XDATA, add(CFA_XSP16, literal(-1)))
        CFI CFA_SP SP+0
        CFI CFA_XSP16 add(XSP16, 40)
        CFI Block cfiCond211 Using cfiCommon0
        CFI (cfiCond211) NoFunction
        CFI (cfiCond211) Conditional ??CrossCallReturnLabel_38
        CFI (cfiCond211) R6 load(1, XDATA, add(CFA_XSP16, literal(-24)))
        CFI (cfiCond211) VB load(1, XDATA, add(CFA_XSP16, literal(-23)))
        CFI (cfiCond211) V0 load(1, XDATA, add(CFA_XSP16, literal(-22)))
        CFI (cfiCond211) V1 load(1, XDATA, add(CFA_XSP16, literal(-21)))
        CFI (cfiCond211) V2 load(1, XDATA, add(CFA_XSP16, literal(-20)))
        CFI (cfiCond211) V3 load(1, XDATA, add(CFA_XSP16, literal(-19)))
        CFI (cfiCond211) V4 load(1, XDATA, add(CFA_XSP16, literal(-18)))
        CFI (cfiCond211) V5 load(1, XDATA, add(CFA_XSP16, literal(-17)))
        CFI (cfiCond211) V6 load(1, XDATA, add(CFA_XSP16, literal(-16)))
        CFI (cfiCond211) V7 load(1, XDATA, add(CFA_XSP16, literal(-15)))
        CFI (cfiCond211) V8 load(1, XDATA, add(CFA_XSP16, literal(-14)))
        CFI (cfiCond211) V9 load(1, XDATA, add(CFA_XSP16, literal(-13)))
        CFI (cfiCond211) V10 load(1, XDATA, add(CFA_XSP16, literal(-12)))
        CFI (cfiCond211) V11 load(1, XDATA, add(CFA_XSP16, literal(-11)))
        CFI (cfiCond211) V12 load(1, XDATA, add(CFA_XSP16, literal(-10)))
        CFI (cfiCond211) V13 load(1, XDATA, add(CFA_XSP16, literal(-9)))
        CFI (cfiCond211) V14 load(1, XDATA, add(CFA_XSP16, literal(-8)))
        CFI (cfiCond211) V15 load(1, XDATA, add(CFA_XSP16, literal(-7)))
        CFI (cfiCond211) R7 load(1, XDATA, add(CFA_XSP16, literal(-6)))
        CFI (cfiCond211) ?RET_LOW load(1, XDATA, add(CFA_XSP16, literal(-5)))
        CFI (cfiCond211) ?RET_HIGH load(1, XDATA, add(CFA_XSP16, literal(-4)))
        CFI (cfiCond211) ?BRET_EXT load(1, XDATA, add(CFA_XSP16, literal(-3)))
        CFI (cfiCond211) DPL0 load(1, XDATA, add(CFA_XSP16, literal(-2)))
        CFI (cfiCond211) DPH0 load(1, XDATA, add(CFA_XSP16, literal(-1)))
        CFI (cfiCond211) CFA_SP SP+0
        CFI (cfiCond211) CFA_XSP16 add(XSP16, 40)
        CFI Block cfiPicker212 Using cfiCommon1
        CFI (cfiPicker212) NoFunction
        CFI (cfiPicker212) Picker
        LCALL   ?Subroutine39 & 0xFFFF
??CrossCallReturnLabel_78:
        CLR     A
        CLR     C
        SUBB    A,R0
        RET
        CFI EndBlock cfiCond210
        CFI EndBlock cfiCond211
        CFI EndBlock cfiPicker212

        RSEG BANKED_CODE:CODE:NOROOT(0)
?Subroutine13:
        CFI Block cfiCond213 Using cfiCommon0
        CFI NoFunction
        CFI Conditional ??CrossCallReturnLabel_15
        CFI R6 load(1, XDATA, add(CFA_XSP16, literal(-22)))
        CFI VB load(1, XDATA, add(CFA_XSP16, literal(-21)))
        CFI V0 load(1, XDATA, add(CFA_XSP16, literal(-20)))
        CFI V1 load(1, XDATA, add(CFA_XSP16, literal(-19)))
        CFI V2 load(1, XDATA, add(CFA_XSP16, literal(-18)))
        CFI V3 load(1, XDATA, add(CFA_XSP16, literal(-17)))
        CFI V4 load(1, XDATA, add(CFA_XSP16, literal(-16)))
        CFI V5 load(1, XDATA, add(CFA_XSP16, literal(-15)))
        CFI V6 load(1, XDATA, add(CFA_XSP16, literal(-14)))
        CFI V7 load(1, XDATA, add(CFA_XSP16, literal(-13)))
        CFI V8 load(1, XDATA, add(CFA_XSP16, literal(-12)))
        CFI V9 load(1, XDATA, add(CFA_XSP16, literal(-11)))
        CFI V10 load(1, XDATA, add(CFA_XSP16, literal(-10)))
        CFI V11 load(1, XDATA, add(CFA_XSP16, literal(-9)))
        CFI V12 load(1, XDATA, add(CFA_XSP16, literal(-8)))
        CFI V13 load(1, XDATA, add(CFA_XSP16, literal(-7)))
        CFI R7 load(1, XDATA, add(CFA_XSP16, literal(-6)))
        CFI ?RET_LOW load(1, XDATA, add(CFA_XSP16, literal(-5)))
        CFI ?RET_HIGH load(1, XDATA, add(CFA_XSP16, literal(-4)))
        CFI ?BRET_EXT load(1, XDATA, add(CFA_XSP16, literal(-3)))
        CFI DPL0 load(1, XDATA, add(CFA_XSP16, literal(-2)))
        CFI DPH0 load(1, XDATA, add(CFA_XSP16, literal(-1)))
        CFI CFA_SP SP+0
        CFI CFA_XSP16 add(XSP16, 37)
        CFI Block cfiCond214 Using cfiCommon0
        CFI (cfiCond214) NoFunction
        CFI (cfiCond214) Conditional ??CrossCallReturnLabel_16
        CFI (cfiCond214) R6 load(1, XDATA, add(CFA_XSP16, literal(-24)))
        CFI (cfiCond214) VB load(1, XDATA, add(CFA_XSP16, literal(-23)))
        CFI (cfiCond214) V0 load(1, XDATA, add(CFA_XSP16, literal(-22)))
        CFI (cfiCond214) V1 load(1, XDATA, add(CFA_XSP16, literal(-21)))
        CFI (cfiCond214) V2 load(1, XDATA, add(CFA_XSP16, literal(-20)))
        CFI (cfiCond214) V3 load(1, XDATA, add(CFA_XSP16, literal(-19)))
        CFI (cfiCond214) V4 load(1, XDATA, add(CFA_XSP16, literal(-18)))
        CFI (cfiCond214) V5 load(1, XDATA, add(CFA_XSP16, literal(-17)))
        CFI (cfiCond214) V6 load(1, XDATA, add(CFA_XSP16, literal(-16)))
        CFI (cfiCond214) V7 load(1, XDATA, add(CFA_XSP16, literal(-15)))
        CFI (cfiCond214) V8 load(1, XDATA, add(CFA_XSP16, literal(-14)))
        CFI (cfiCond214) V9 load(1, XDATA, add(CFA_XSP16, literal(-13)))
        CFI (cfiCond214) V10 load(1, XDATA, add(CFA_XSP16, literal(-12)))
        CFI (cfiCond214) V11 load(1, XDATA, add(CFA_XSP16, literal(-11)))
        CFI (cfiCond214) V12 load(1, XDATA, add(CFA_XSP16, literal(-10)))
        CFI (cfiCond214) V13 load(1, XDATA, add(CFA_XSP16, literal(-9)))
        CFI (cfiCond214) V14 load(1, XDATA, add(CFA_XSP16, literal(-8)))
        CFI (cfiCond214) V15 load(1, XDATA, add(CFA_XSP16, literal(-7)))
        CFI (cfiCond214) R7 load(1, XDATA, add(CFA_XSP16, literal(-6)))
        CFI (cfiCond214) ?RET_LOW load(1, XDATA, add(CFA_XSP16, literal(-5)))
        CFI (cfiCond214) ?RET_HIGH load(1, XDATA, add(CFA_XSP16, literal(-4)))
        CFI (cfiCond214) ?BRET_EXT load(1, XDATA, add(CFA_XSP16, literal(-3)))
        CFI (cfiCond214) DPL0 load(1, XDATA, add(CFA_XSP16, literal(-2)))
        CFI (cfiCond214) DPH0 load(1, XDATA, add(CFA_XSP16, literal(-1)))
        CFI (cfiCond214) CFA_SP SP+0
        CFI (cfiCond214) CFA_XSP16 add(XSP16, 40)
        CFI Block cfiCond215 Using cfiCommon0
        CFI (cfiCond215) NoFunction
        CFI (cfiCond215) Conditional ??CrossCallReturnLabel_17
        CFI (cfiCond215) R6 load(1, XDATA, add(CFA_XSP16, literal(-24)))
        CFI (cfiCond215) VB load(1, XDATA, add(CFA_XSP16, literal(-23)))
        CFI (cfiCond215) V0 load(1, XDATA, add(CFA_XSP16, literal(-22)))
        CFI (cfiCond215) V1 load(1, XDATA, add(CFA_XSP16, literal(-21)))
        CFI (cfiCond215) V2 load(1, XDATA, add(CFA_XSP16, literal(-20)))
        CFI (cfiCond215) V3 load(1, XDATA, add(CFA_XSP16, literal(-19)))
        CFI (cfiCond215) V4 load(1, XDATA, add(CFA_XSP16, literal(-18)))
        CFI (cfiCond215) V5 load(1, XDATA, add(CFA_XSP16, literal(-17)))
        CFI (cfiCond215) V6 load(1, XDATA, add(CFA_XSP16, literal(-16)))
        CFI (cfiCond215) V7 load(1, XDATA, add(CFA_XSP16, literal(-15)))
        CFI (cfiCond215) V8 load(1, XDATA, add(CFA_XSP16, literal(-14)))
        CFI (cfiCond215) V9 load(1, XDATA, add(CFA_XSP16, literal(-13)))
        CFI (cfiCond215) V10 load(1, XDATA, add(CFA_XSP16, literal(-12)))
        CFI (cfiCond215) V11 load(1, XDATA, add(CFA_XSP16, literal(-11)))
        CFI (cfiCond215) V12 load(1, XDATA, add(CFA_XSP16, literal(-10)))
        CFI (cfiCond215) V13 load(1, XDATA, add(CFA_XSP16, literal(-9)))
        CFI (cfiCond215) V14 load(1, XDATA, add(CFA_XSP16, literal(-8)))
        CFI (cfiCond215) V15 load(1, XDATA, add(CFA_XSP16, literal(-7)))
        CFI (cfiCond215) R7 load(1, XDATA, add(CFA_XSP16, literal(-6)))
        CFI (cfiCond215) ?RET_LOW load(1, XDATA, add(CFA_XSP16, literal(-5)))
        CFI (cfiCond215) ?RET_HIGH load(1, XDATA, add(CFA_XSP16, literal(-4)))
        CFI (cfiCond215) ?BRET_EXT load(1, XDATA, add(CFA_XSP16, literal(-3)))
        CFI (cfiCond215) DPL0 load(1, XDATA, add(CFA_XSP16, literal(-2)))
        CFI (cfiCond215) DPH0 load(1, XDATA, add(CFA_XSP16, literal(-1)))
        CFI (cfiCond215) CFA_SP SP+0
        CFI (cfiCond215) CFA_XSP16 add(XSP16, 49)
        CFI Block cfiPicker216 Using cfiCommon1
        CFI (cfiPicker216) NoFunction
        CFI (cfiPicker216) Picker
        LCALL   ?Subroutine39 & 0xFFFF
??CrossCallReturnLabel_76:
        MOV     A,R2
        XRL     A,R0
        RET
        CFI EndBlock cfiCond213
        CFI EndBlock cfiCond214
        CFI EndBlock cfiCond215
        CFI EndBlock cfiPicker216
// 1135 
// 1136 /*********************************************************************
// 1137  * @fn      hotItem
// 1138  *
// 1139  * @brief   Look for the parameter 'id' in the hot items array.
// 1140  *
// 1141  * @param   id - A valid NV item Id.
// 1142  *
// 1143  * @return  A valid index into the hot items if the item is hot; OSAL_NV_MAX_HOT if not.
// 1144  */
// 1145 static uint8 hotItem(uint16 id)
// 1146 {
// 1147   uint8 hotIdx;
// 1148 
// 1149   for (hotIdx = 0; hotIdx < OSAL_NV_MAX_HOT; hotIdx++)
// 1150   {
// 1151     if (hotIds[hotIdx] == id)
// 1152     {
// 1153       break;
// 1154     }
// 1155   }
// 1156 
// 1157   return hotIdx;
// 1158 }
// 1159 
// 1160 /*********************************************************************
// 1161  * @fn      hotItemUpdate
// 1162  *
// 1163  * @brief   If the parameter 'id' is a hot item, update the corresponding hot item data.
// 1164  *
// 1165  * @param   pg - The new NV page corresponding to the hot item.
// 1166  * @param   off - The new NV page offset corresponding to the hot item.
// 1167  * @param   id - A valid NV item Id.
// 1168  *
// 1169  * @return  none
// 1170  */
// 1171 static void hotItemUpdate(uint8 pg, uint16 off, uint16 id)
// 1172 {
// 1173   uint8 hotIdx = hotItem(id);
// 1174 
// 1175   if (hotIdx < OSAL_NV_MAX_HOT)
// 1176   {
// 1177     {
// 1178       hotPg[hotIdx] = pg;
// 1179       hotOff[hotIdx] = off;
// 1180     }
// 1181   }
// 1182 }
// 1183 
// 1184 /*********************************************************************
// 1185  * @fn      osal_nv_init
// 1186  *
// 1187  * @brief   Initialize NV service.
// 1188  *
// 1189  * @param   p - Not used.
// 1190  *
// 1191  * @return  none
// 1192  */

        RSEG BANKED_CODE:CODE:NOROOT(0)
// 1193 void osal_nv_init( void *p )
osal_nv_init:
        CFI Block cfiBlock217 Using cfiCommon0
        CFI Function osal_nv_init
        CODE
// 1194 {
        FUNCALL osal_nv_init, initNV
        LOCFRAME ISTACK, 2, STACK
        LOCFRAME PSTACK, 0, STACK
        LOCFRAME XSTACK, 0, STACK
        LOCFRAME IOVERLAY, 0, STATIC
        LOCFRAME DOVERLAY, 0, STATIC
        ARGFRAME ISTACK, 2, STACK
        ARGFRAME PSTACK, 0, STACK
        ARGFRAME XSTACK, 0, STACK
        ARGFRAME IOVERLAY, 0, STATIC
        ARGFRAME DOVERLAY, 0, STATIC
        PUSH    DPL
        CFI DPL0 Frame(CFA_SP, 4)
        CFI CFA_SP SP+-4
        PUSH    DPH
        CFI DPH0 Frame(CFA_SP, 5)
        CFI CFA_SP SP+-5
        ; Saved register size: 2
        ; Auto size: 0
// 1195   (void)p;  // Suppress Lint warning.
// 1196   (void)initNV();  // Always returns TRUE after pages have been erased.
        ; Setup parameters for call to function initNV
        LCALL   ??initNV?relay
// 1197 }
        POP     DPH
        CFI DPH0 SameValue
        CFI CFA_SP SP+-4
        POP     DPL
        CFI DPL0 SameValue
        CFI CFA_SP SP+-3
        LJMP    ?BRET
        CFI EndBlock cfiBlock217
// 1198 
// 1199 /*********************************************************************
// 1200  * @fn      osal_nv_item_init
// 1201  *
// 1202  * @brief   If the NV item does not already exist, it is created and
// 1203  *          initialized with the data passed to the function, if any.
// 1204  *          This function must be called before calling osal_nv_read() or
// 1205  *          osal_nv_write().
// 1206  *
// 1207  * @param   id  - Valid NV item Id.
// 1208  * @param   len - Item length.
// 1209  * @param  *buf - Pointer to item initalization data. Set to NULL if none.
// 1210  *
// 1211  * @return  NV_ITEM_UNINIT - Id did not exist and was created successfully.
// 1212  *          SUCCESS        - Id already existed, no action taken.
// 1213  *          NV_OPER_FAILED - Failure to find or create Id.
// 1214  */

        RSEG BANKED_CODE:CODE:NOROOT(0)
// 1215 uint8 osal_nv_item_init( uint16 id, uint16 len, void *buf )
osal_nv_item_init:
        CFI Block cfiBlock218 Using cfiCommon0
        CFI Function osal_nv_item_init
        CODE
// 1216 {
        FUNCALL osal_nv_item_init, HalAdcCheckVdd
        LOCFRAME ISTACK, 0, STACK
        LOCFRAME PSTACK, 0, STACK
        LOCFRAME XSTACK, 14, STACK
        LOCFRAME IOVERLAY, 0, STATIC
        LOCFRAME DOVERLAY, 0, STATIC
        ARGFRAME ISTACK, 0, STACK
        ARGFRAME PSTACK, 0, STACK
        ARGFRAME XSTACK, 14, STACK
        ARGFRAME IOVERLAY, 0, STATIC
        ARGFRAME DOVERLAY, 0, STATIC
        FUNCALL osal_nv_item_init, findItem
        LOCFRAME ISTACK, 0, STACK
        LOCFRAME PSTACK, 0, STACK
        LOCFRAME XSTACK, 14, STACK
        LOCFRAME IOVERLAY, 0, STATIC
        LOCFRAME DOVERLAY, 0, STATIC
        ARGFRAME ISTACK, 0, STACK
        ARGFRAME PSTACK, 0, STACK
        ARGFRAME XSTACK, 14, STACK
        ARGFRAME IOVERLAY, 0, STATIC
        ARGFRAME DOVERLAY, 0, STATIC
        FUNCALL osal_nv_item_init, initItem
        LOCFRAME ISTACK, 0, STACK
        LOCFRAME PSTACK, 0, STACK
        LOCFRAME XSTACK, 16, STACK
        LOCFRAME IOVERLAY, 0, STATIC
        LOCFRAME DOVERLAY, 0, STATIC
        ARGFRAME ISTACK, 0, STACK
        ARGFRAME PSTACK, 0, STACK
        ARGFRAME XSTACK, 16, STACK
        ARGFRAME IOVERLAY, 0, STATIC
        ARGFRAME DOVERLAY, 0, STATIC
        MOV     A,#-0xe
        LCALL   ?BANKED_ENTER_XDATA
        CFI DPH0 load(1, XDATA, add(CFA_XSP16, literal(-1)))
        CFI DPL0 load(1, XDATA, add(CFA_XSP16, literal(-2)))
        CFI ?BRET_EXT load(1, XDATA, add(CFA_XSP16, literal(-3)))
        CFI ?RET_HIGH load(1, XDATA, add(CFA_XSP16, literal(-4)))
        CFI ?RET_LOW load(1, XDATA, add(CFA_XSP16, literal(-5)))
        CFI R7 load(1, XDATA, add(CFA_XSP16, literal(-6)))
        CFI V5 load(1, XDATA, add(CFA_XSP16, literal(-7)))
        CFI V4 load(1, XDATA, add(CFA_XSP16, literal(-8)))
        CFI V3 load(1, XDATA, add(CFA_XSP16, literal(-9)))
        CFI V2 load(1, XDATA, add(CFA_XSP16, literal(-10)))
        CFI V1 load(1, XDATA, add(CFA_XSP16, literal(-11)))
        CFI V0 load(1, XDATA, add(CFA_XSP16, literal(-12)))
        CFI VB load(1, XDATA, add(CFA_XSP16, literal(-13)))
        CFI R6 load(1, XDATA, add(CFA_XSP16, literal(-14)))
        CFI CFA_SP SP+0
        CFI CFA_XSP16 add(XSP16, 14)
        ; Saved register size: 14
        ; Auto size: 0
        MOV     A,R2
        MOV     R6,A
        MOV     A,R3
        MOV     R7,A
        MOV     ?V0 + 0,R4
        MOV     ?V0 + 1,R5
        MOV     A,#0xe
        LCALL   ?XSTACK_DISP0_8
        MOVX    A,@DPTR
        MOV     ?V0 + 2,A
        INC     DPTR
        MOVX    A,@DPTR
        MOV     ?V0 + 3,A
// 1217   uint16 offset;
// 1218 
// 1219   if ( !OSAL_NV_CHECK_BUS_VOLTAGE )
        ; Setup parameters for call to function HalAdcCheckVdd
        MOV     R1,#0x4e
        LCALL   ??HalAdcCheckVdd?relay
        MOV     A,R1
        JNZ     ??osal_nv_item_init_0
// 1220   {
// 1221     return NV_OPER_FAILED;
??osal_nv_item_init_1:
        MOV     R1,#0xa
        SJMP    ??osal_nv_item_init_2
// 1222   }
// 1223   else if ((offset = findItem(id)) != OSAL_NV_ITEM_NULL)
??osal_nv_item_init_0:
        ; Setup parameters for call to function findItem
        MOV     A,R6
        MOV     R2,A
        MOV     A,R7
        MOV     R3,A
        LCALL   ??findItem?relay
        MOV     ?V0 + 4,R2
        MOV     ?V0 + 5,R3
        MOV     R0,?V0 + 4
        MOV     R1,?V0 + 5
        MOV     A,R0
        ORL     A,R1
        JZ      ??osal_nv_item_init_3
// 1224   {
// 1225     // Re-populate the NV hot item data if the corresponding items are already established.
// 1226     hotItemUpdate(findPg, offset, id);
        MOV     A,R0
        MOV     R4,A
        MOV     A,R1
        MOV     R5,A
        MOV     DPTR,#findPg
        MOVX    A,@DPTR
        MOV     R3,A
        MOV     R2,#0x0
        MOV     R0,#hotIds & 0xff
        MOV     R1,#(hotIds >> 8) & 0xff
??osal_nv_item_init_4:
        MOV     DPL,R0
        MOV     DPH,R1
        MOVX    A,@DPTR
        XRL     A,R6
        JNZ     ??osal_nv_item_init_5
        INC     DPTR
        MOVX    A,@DPTR
        XRL     A,R7
??osal_nv_item_init_5:
        JZ      ??osal_nv_item_init_6
        INC     R2
        LCALL   ?Subroutine28 & 0xFFFF
??CrossCallReturnLabel_55:
        MOV     A,R2
        CLR     C
        SUBB    A,#0x3
        JC      ??osal_nv_item_init_4
??osal_nv_item_init_6:
        MOV     A,R2
        CLR     C
        SUBB    A,#0x3
        JNC     ??osal_nv_item_init_7
        MOV     DPL,R2
        LCALL   ??Subroutine47_0 & 0xFFFF
??CrossCallReturnLabel_103:
        MOV     A,R3
        LCALL   ??Subroutine54_0 & 0xFFFF
??CrossCallReturnLabel_143:
        MOV     A,R4
        MOVX    @DPTR,A
        INC     DPTR
        MOV     A,R5
        MOVX    @DPTR,A
// 1227 
// 1228     return SUCCESS;
??osal_nv_item_init_7:
        MOV     R1,#0x0
        SJMP    ??osal_nv_item_init_2
// 1229   }
// 1230   else if ( initItem( TRUE, id, len, buf ) != OSAL_NV_PAGE_NULL )
??osal_nv_item_init_3:
        ; Setup parameters for call to function initItem
        MOV     R0,#?V0 + 2
        LCALL   ?PUSH_XSTACK_I_TWO
        CFI CFA_XSP16 add(XSP16, 16)
        MOV     R4,?V0 + 0
        MOV     R5,?V0 + 1
        MOV     A,R6
        MOV     R2,A
        MOV     A,R7
        MOV     R3,A
        MOV     R1,#0x1
        LCALL   ??initItem?relay
        MOV     A,#0x2
        LCALL   ?DEALLOC_XSTACK8
        CFI CFA_XSP16 add(XSP16, 14)
        MOV     A,R1
        JZ      ??osal_nv_item_init_1
// 1231   {
// 1232     return NV_ITEM_UNINIT;
        MOV     R1,#0x9
// 1233   }
??osal_nv_item_init_2:
        SJMP    ??Subroutine53_0
        CFI EndBlock cfiBlock218
// 1234   else
// 1235   {
// 1236     return NV_OPER_FAILED;
// 1237   }
// 1238 }

        RSEG BANKED_CODE:CODE:NOROOT(0)
?Subroutine28:
        CFI Block cfiCond219 Using cfiCommon0
        CFI NoFunction
        CFI Conditional ??CrossCallReturnLabel_54
        CFI R6 load(1, XDATA, add(CFA_XSP16, literal(-14)))
        CFI VB load(1, XDATA, add(CFA_XSP16, literal(-13)))
        CFI V0 load(1, XDATA, add(CFA_XSP16, literal(-12)))
        CFI V1 load(1, XDATA, add(CFA_XSP16, literal(-11)))
        CFI V2 load(1, XDATA, add(CFA_XSP16, literal(-10)))
        CFI V3 load(1, XDATA, add(CFA_XSP16, literal(-9)))
        CFI V4 load(1, XDATA, add(CFA_XSP16, literal(-8)))
        CFI V5 load(1, XDATA, add(CFA_XSP16, literal(-7)))
        CFI R7 load(1, XDATA, add(CFA_XSP16, literal(-6)))
        CFI ?RET_LOW load(1, XDATA, add(CFA_XSP16, literal(-5)))
        CFI ?RET_HIGH load(1, XDATA, add(CFA_XSP16, literal(-4)))
        CFI ?BRET_EXT load(1, XDATA, add(CFA_XSP16, literal(-3)))
        CFI DPL0 load(1, XDATA, add(CFA_XSP16, literal(-2)))
        CFI DPH0 load(1, XDATA, add(CFA_XSP16, literal(-1)))
        CFI CFA_SP SP+0
        CFI CFA_XSP16 add(XSP16, 30)
        CFI Block cfiCond220 Using cfiCommon0
        CFI (cfiCond220) NoFunction
        CFI (cfiCond220) Conditional ??CrossCallReturnLabel_55
        CFI (cfiCond220) R6 load(1, XDATA, add(CFA_XSP16, literal(-14)))
        CFI (cfiCond220) VB load(1, XDATA, add(CFA_XSP16, literal(-13)))
        CFI (cfiCond220) V0 load(1, XDATA, add(CFA_XSP16, literal(-12)))
        CFI (cfiCond220) V1 load(1, XDATA, add(CFA_XSP16, literal(-11)))
        CFI (cfiCond220) V2 load(1, XDATA, add(CFA_XSP16, literal(-10)))
        CFI (cfiCond220) V3 load(1, XDATA, add(CFA_XSP16, literal(-9)))
        CFI (cfiCond220) V4 load(1, XDATA, add(CFA_XSP16, literal(-8)))
        CFI (cfiCond220) V5 load(1, XDATA, add(CFA_XSP16, literal(-7)))
        CFI (cfiCond220) R7 load(1, XDATA, add(CFA_XSP16, literal(-6)))
        CFI (cfiCond220) ?RET_LOW load(1, XDATA, add(CFA_XSP16, literal(-5)))
        CFI (cfiCond220) ?RET_HIGH load(1, XDATA, add(CFA_XSP16, literal(-4)))
        CFI (cfiCond220) ?BRET_EXT load(1, XDATA, add(CFA_XSP16, literal(-3)))
        CFI (cfiCond220) DPL0 load(1, XDATA, add(CFA_XSP16, literal(-2)))
        CFI (cfiCond220) DPH0 load(1, XDATA, add(CFA_XSP16, literal(-1)))
        CFI (cfiCond220) CFA_SP SP+0
        CFI (cfiCond220) CFA_XSP16 add(XSP16, 14)
        CFI Block cfiPicker221 Using cfiCommon1
        CFI (cfiPicker221) NoFunction
        CFI (cfiPicker221) Picker
        LCALL   ?Subroutine43 & 0xFFFF
??CrossCallReturnLabel_81:
        RET
        CFI EndBlock cfiCond219
        CFI EndBlock cfiCond220
        CFI EndBlock cfiPicker221

        RSEG BANKED_CODE:CODE:NOROOT(0)
?Subroutine43:
        CFI Block cfiCond222 Using cfiCommon0
        CFI NoFunction
        CFI Conditional ??CrossCallReturnLabel_81, ??CrossCallReturnLabel_54
        CFI R6 load(1, XDATA, add(CFA_XSP16, literal(-14)))
        CFI VB load(1, XDATA, add(CFA_XSP16, literal(-13)))
        CFI V0 load(1, XDATA, add(CFA_XSP16, literal(-12)))
        CFI V1 load(1, XDATA, add(CFA_XSP16, literal(-11)))
        CFI V2 load(1, XDATA, add(CFA_XSP16, literal(-10)))
        CFI V3 load(1, XDATA, add(CFA_XSP16, literal(-9)))
        CFI V4 load(1, XDATA, add(CFA_XSP16, literal(-8)))
        CFI V5 load(1, XDATA, add(CFA_XSP16, literal(-7)))
        CFI R7 load(1, XDATA, add(CFA_XSP16, literal(-6)))
        CFI ?RET_LOW load(1, XDATA, add(CFA_XSP16, literal(-5)))
        CFI ?RET_HIGH load(1, XDATA, add(CFA_XSP16, literal(-4)))
        CFI ?BRET_EXT load(1, XDATA, add(CFA_XSP16, literal(-3)))
        CFI DPL0 load(1, XDATA, add(CFA_XSP16, literal(-2)))
        CFI DPH0 load(1, XDATA, add(CFA_XSP16, literal(-1)))
        CFI CFA_SP SP+0
        CFI CFA_XSP16 add(XSP16, 30)
        CFI Block cfiCond223 Using cfiCommon0
        CFI (cfiCond223) NoFunction
        CFI (cfiCond223) Conditional ??CrossCallReturnLabel_81, ??CrossCallReturnLabel_55
        CFI (cfiCond223) R6 load(1, XDATA, add(CFA_XSP16, literal(-14)))
        CFI (cfiCond223) VB load(1, XDATA, add(CFA_XSP16, literal(-13)))
        CFI (cfiCond223) V0 load(1, XDATA, add(CFA_XSP16, literal(-12)))
        CFI (cfiCond223) V1 load(1, XDATA, add(CFA_XSP16, literal(-11)))
        CFI (cfiCond223) V2 load(1, XDATA, add(CFA_XSP16, literal(-10)))
        CFI (cfiCond223) V3 load(1, XDATA, add(CFA_XSP16, literal(-9)))
        CFI (cfiCond223) V4 load(1, XDATA, add(CFA_XSP16, literal(-8)))
        CFI (cfiCond223) V5 load(1, XDATA, add(CFA_XSP16, literal(-7)))
        CFI (cfiCond223) R7 load(1, XDATA, add(CFA_XSP16, literal(-6)))
        CFI (cfiCond223) ?RET_LOW load(1, XDATA, add(CFA_XSP16, literal(-5)))
        CFI (cfiCond223) ?RET_HIGH load(1, XDATA, add(CFA_XSP16, literal(-4)))
        CFI (cfiCond223) ?BRET_EXT load(1, XDATA, add(CFA_XSP16, literal(-3)))
        CFI (cfiCond223) DPL0 load(1, XDATA, add(CFA_XSP16, literal(-2)))
        CFI (cfiCond223) DPH0 load(1, XDATA, add(CFA_XSP16, literal(-1)))
        CFI (cfiCond223) CFA_SP SP+0
        CFI (cfiCond223) CFA_XSP16 add(XSP16, 14)
        CFI Block cfiCond224 Using cfiCommon0
        CFI (cfiCond224) NoFunction
        CFI (cfiCond224) Conditional ??CrossCallReturnLabel_80, ??CrossCallReturnLabel_51
        CFI (cfiCond224) R6 load(1, XDATA, add(CFA_XSP16, literal(-22)))
        CFI (cfiCond224) VB load(1, XDATA, add(CFA_XSP16, literal(-21)))
        CFI (cfiCond224) V0 load(1, XDATA, add(CFA_XSP16, literal(-20)))
        CFI (cfiCond224) V1 load(1, XDATA, add(CFA_XSP16, literal(-19)))
        CFI (cfiCond224) V2 load(1, XDATA, add(CFA_XSP16, literal(-18)))
        CFI (cfiCond224) V3 load(1, XDATA, add(CFA_XSP16, literal(-17)))
        CFI (cfiCond224) V4 load(1, XDATA, add(CFA_XSP16, literal(-16)))
        CFI (cfiCond224) V5 load(1, XDATA, add(CFA_XSP16, literal(-15)))
        CFI (cfiCond224) V6 load(1, XDATA, add(CFA_XSP16, literal(-14)))
        CFI (cfiCond224) V7 load(1, XDATA, add(CFA_XSP16, literal(-13)))
        CFI (cfiCond224) V8 load(1, XDATA, add(CFA_XSP16, literal(-12)))
        CFI (cfiCond224) V9 load(1, XDATA, add(CFA_XSP16, literal(-11)))
        CFI (cfiCond224) V10 load(1, XDATA, add(CFA_XSP16, literal(-10)))
        CFI (cfiCond224) V11 load(1, XDATA, add(CFA_XSP16, literal(-9)))
        CFI (cfiCond224) V12 load(1, XDATA, add(CFA_XSP16, literal(-8)))
        CFI (cfiCond224) V13 load(1, XDATA, add(CFA_XSP16, literal(-7)))
        CFI (cfiCond224) R7 load(1, XDATA, add(CFA_XSP16, literal(-6)))
        CFI (cfiCond224) ?RET_LOW load(1, XDATA, add(CFA_XSP16, literal(-5)))
        CFI (cfiCond224) ?RET_HIGH load(1, XDATA, add(CFA_XSP16, literal(-4)))
        CFI (cfiCond224) ?BRET_EXT load(1, XDATA, add(CFA_XSP16, literal(-3)))
        CFI (cfiCond224) DPL0 load(1, XDATA, add(CFA_XSP16, literal(-2)))
        CFI (cfiCond224) DPH0 load(1, XDATA, add(CFA_XSP16, literal(-1)))
        CFI (cfiCond224) CFA_SP SP+0
        CFI (cfiCond224) CFA_XSP16 add(XSP16, 37)
        CFI Block cfiCond225 Using cfiCommon0
        CFI (cfiCond225) NoFunction
        CFI (cfiCond225) Conditional ??CrossCallReturnLabel_80, ??CrossCallReturnLabel_52
        CFI (cfiCond225) R6 load(1, XDATA, add(CFA_XSP16, literal(-24)))
        CFI (cfiCond225) VB load(1, XDATA, add(CFA_XSP16, literal(-23)))
        CFI (cfiCond225) V0 load(1, XDATA, add(CFA_XSP16, literal(-22)))
        CFI (cfiCond225) V1 load(1, XDATA, add(CFA_XSP16, literal(-21)))
        CFI (cfiCond225) V2 load(1, XDATA, add(CFA_XSP16, literal(-20)))
        CFI (cfiCond225) V3 load(1, XDATA, add(CFA_XSP16, literal(-19)))
        CFI (cfiCond225) V4 load(1, XDATA, add(CFA_XSP16, literal(-18)))
        CFI (cfiCond225) V5 load(1, XDATA, add(CFA_XSP16, literal(-17)))
        CFI (cfiCond225) V6 load(1, XDATA, add(CFA_XSP16, literal(-16)))
        CFI (cfiCond225) V7 load(1, XDATA, add(CFA_XSP16, literal(-15)))
        CFI (cfiCond225) V8 load(1, XDATA, add(CFA_XSP16, literal(-14)))
        CFI (cfiCond225) V9 load(1, XDATA, add(CFA_XSP16, literal(-13)))
        CFI (cfiCond225) V10 load(1, XDATA, add(CFA_XSP16, literal(-12)))
        CFI (cfiCond225) V11 load(1, XDATA, add(CFA_XSP16, literal(-11)))
        CFI (cfiCond225) V12 load(1, XDATA, add(CFA_XSP16, literal(-10)))
        CFI (cfiCond225) V13 load(1, XDATA, add(CFA_XSP16, literal(-9)))
        CFI (cfiCond225) V14 load(1, XDATA, add(CFA_XSP16, literal(-8)))
        CFI (cfiCond225) V15 load(1, XDATA, add(CFA_XSP16, literal(-7)))
        CFI (cfiCond225) R7 load(1, XDATA, add(CFA_XSP16, literal(-6)))
        CFI (cfiCond225) ?RET_LOW load(1, XDATA, add(CFA_XSP16, literal(-5)))
        CFI (cfiCond225) ?RET_HIGH load(1, XDATA, add(CFA_XSP16, literal(-4)))
        CFI (cfiCond225) ?BRET_EXT load(1, XDATA, add(CFA_XSP16, literal(-3)))
        CFI (cfiCond225) DPL0 load(1, XDATA, add(CFA_XSP16, literal(-2)))
        CFI (cfiCond225) DPH0 load(1, XDATA, add(CFA_XSP16, literal(-1)))
        CFI (cfiCond225) CFA_SP SP+0
        CFI (cfiCond225) CFA_XSP16 add(XSP16, 40)
        CFI Block cfiCond226 Using cfiCommon0
        CFI (cfiCond226) NoFunction
        CFI (cfiCond226) Conditional ??CrossCallReturnLabel_80, ??CrossCallReturnLabel_49
        CFI (cfiCond226) R6 load(1, XDATA, add(CFA_XSP16, literal(-10)))
        CFI (cfiCond226) VB load(1, XDATA, add(CFA_XSP16, literal(-9)))
        CFI (cfiCond226) V0 load(1, XDATA, add(CFA_XSP16, literal(-8)))
        CFI (cfiCond226) V1 load(1, XDATA, add(CFA_XSP16, literal(-7)))
        CFI (cfiCond226) R7 load(1, XDATA, add(CFA_XSP16, literal(-6)))
        CFI (cfiCond226) ?RET_LOW load(1, XDATA, add(CFA_XSP16, literal(-5)))
        CFI (cfiCond226) ?RET_HIGH load(1, XDATA, add(CFA_XSP16, literal(-4)))
        CFI (cfiCond226) ?BRET_EXT load(1, XDATA, add(CFA_XSP16, literal(-3)))
        CFI (cfiCond226) DPL0 load(1, XDATA, add(CFA_XSP16, literal(-2)))
        CFI (cfiCond226) DPH0 load(1, XDATA, add(CFA_XSP16, literal(-1)))
        CFI (cfiCond226) CFA_SP SP+0
        CFI (cfiCond226) CFA_XSP16 add(XSP16, 18)
        CFI Block cfiCond227 Using cfiCommon0
        CFI (cfiCond227) NoFunction
        CFI (cfiCond227) Conditional ??CrossCallReturnLabel_80, ??CrossCallReturnLabel_53
        CFI (cfiCond227) R6 load(1, XDATA, add(CFA_XSP16, literal(-24)))
        CFI (cfiCond227) VB load(1, XDATA, add(CFA_XSP16, literal(-23)))
        CFI (cfiCond227) V0 load(1, XDATA, add(CFA_XSP16, literal(-22)))
        CFI (cfiCond227) V1 load(1, XDATA, add(CFA_XSP16, literal(-21)))
        CFI (cfiCond227) V2 load(1, XDATA, add(CFA_XSP16, literal(-20)))
        CFI (cfiCond227) V3 load(1, XDATA, add(CFA_XSP16, literal(-19)))
        CFI (cfiCond227) V4 load(1, XDATA, add(CFA_XSP16, literal(-18)))
        CFI (cfiCond227) V5 load(1, XDATA, add(CFA_XSP16, literal(-17)))
        CFI (cfiCond227) V6 load(1, XDATA, add(CFA_XSP16, literal(-16)))
        CFI (cfiCond227) V7 load(1, XDATA, add(CFA_XSP16, literal(-15)))
        CFI (cfiCond227) V8 load(1, XDATA, add(CFA_XSP16, literal(-14)))
        CFI (cfiCond227) V9 load(1, XDATA, add(CFA_XSP16, literal(-13)))
        CFI (cfiCond227) V10 load(1, XDATA, add(CFA_XSP16, literal(-12)))
        CFI (cfiCond227) V11 load(1, XDATA, add(CFA_XSP16, literal(-11)))
        CFI (cfiCond227) V12 load(1, XDATA, add(CFA_XSP16, literal(-10)))
        CFI (cfiCond227) V13 load(1, XDATA, add(CFA_XSP16, literal(-9)))
        CFI (cfiCond227) V14 load(1, XDATA, add(CFA_XSP16, literal(-8)))
        CFI (cfiCond227) V15 load(1, XDATA, add(CFA_XSP16, literal(-7)))
        CFI (cfiCond227) R7 load(1, XDATA, add(CFA_XSP16, literal(-6)))
        CFI (cfiCond227) ?RET_LOW load(1, XDATA, add(CFA_XSP16, literal(-5)))
        CFI (cfiCond227) ?RET_HIGH load(1, XDATA, add(CFA_XSP16, literal(-4)))
        CFI (cfiCond227) ?BRET_EXT load(1, XDATA, add(CFA_XSP16, literal(-3)))
        CFI (cfiCond227) DPL0 load(1, XDATA, add(CFA_XSP16, literal(-2)))
        CFI (cfiCond227) DPH0 load(1, XDATA, add(CFA_XSP16, literal(-1)))
        CFI (cfiCond227) CFA_SP SP+0
        CFI (cfiCond227) CFA_XSP16 add(XSP16, 49)
        CFI Block cfiCond228 Using cfiCommon0
        CFI (cfiCond228) NoFunction
        CFI (cfiCond228) Conditional ??CrossCallReturnLabel_80, ??CrossCallReturnLabel_50
        CFI (cfiCond228) R6 load(1, XDATA, add(CFA_XSP16, literal(-14)))
        CFI (cfiCond228) VB load(1, XDATA, add(CFA_XSP16, literal(-13)))
        CFI (cfiCond228) V0 load(1, XDATA, add(CFA_XSP16, literal(-12)))
        CFI (cfiCond228) V1 load(1, XDATA, add(CFA_XSP16, literal(-11)))
        CFI (cfiCond228) V2 load(1, XDATA, add(CFA_XSP16, literal(-10)))
        CFI (cfiCond228) V3 load(1, XDATA, add(CFA_XSP16, literal(-9)))
        CFI (cfiCond228) V4 load(1, XDATA, add(CFA_XSP16, literal(-8)))
        CFI (cfiCond228) V5 load(1, XDATA, add(CFA_XSP16, literal(-7)))
        CFI (cfiCond228) R7 load(1, XDATA, add(CFA_XSP16, literal(-6)))
        CFI (cfiCond228) ?RET_LOW load(1, XDATA, add(CFA_XSP16, literal(-5)))
        CFI (cfiCond228) ?RET_HIGH load(1, XDATA, add(CFA_XSP16, literal(-4)))
        CFI (cfiCond228) ?BRET_EXT load(1, XDATA, add(CFA_XSP16, literal(-3)))
        CFI (cfiCond228) DPL0 load(1, XDATA, add(CFA_XSP16, literal(-2)))
        CFI (cfiCond228) DPH0 load(1, XDATA, add(CFA_XSP16, literal(-1)))
        CFI (cfiCond228) CFA_SP SP+0
        CFI (cfiCond228) CFA_XSP16 add(XSP16, 14)
        CFI Block cfiPicker229 Using cfiCommon1
        CFI (cfiPicker229) NoFunction
        CFI (cfiPicker229) Picker
        MOV     A,R0
        ADD     A,#0x2
        INC     R0
        INC     R0
        MOV     A,R1
        ADDC    A,#0x0
        MOV     R1,A
        RET
        CFI EndBlock cfiCond222
        CFI EndBlock cfiCond223
        CFI EndBlock cfiCond224
        CFI EndBlock cfiCond225
        CFI EndBlock cfiCond226
        CFI EndBlock cfiCond227
        CFI EndBlock cfiCond228
        CFI EndBlock cfiPicker229

        RSEG BANKED_CODE:CODE:NOROOT(0)
?Subroutine0:
        CFI Block cfiBlock230 Using cfiCommon0
        CFI NoFunction
        CFI CFA_SP SP+0
        CFI CFA_XSP16 add(XSP16, 30)
        CFI VB load(1, XDATA, add(CFA_XSP16, literal(-13)))
        CFI DPL0 load(1, XDATA, add(CFA_XSP16, literal(-2)))
        CFI DPH0 load(1, XDATA, add(CFA_XSP16, literal(-1)))
        CFI R6 load(1, XDATA, add(CFA_XSP16, literal(-14)))
        CFI R7 load(1, XDATA, add(CFA_XSP16, literal(-6)))
        CFI V0 load(1, XDATA, add(CFA_XSP16, literal(-12)))
        CFI V1 load(1, XDATA, add(CFA_XSP16, literal(-11)))
        CFI V2 load(1, XDATA, add(CFA_XSP16, literal(-10)))
        CFI V3 load(1, XDATA, add(CFA_XSP16, literal(-9)))
        CFI V4 load(1, XDATA, add(CFA_XSP16, literal(-8)))
        CFI V5 load(1, XDATA, add(CFA_XSP16, literal(-7)))
        CFI ?BRET_EXT load(1, XDATA, add(CFA_XSP16, literal(-3)))
        CFI ?RET_HIGH load(1, XDATA, add(CFA_XSP16, literal(-4)))
        CFI ?RET_LOW load(1, XDATA, add(CFA_XSP16, literal(-5)))
        CFI Invalid
        LCALL   ?DEALLOC_XSTACK8
        CFI EndBlock cfiBlock230
        REQUIRE ??Subroutine53_0
        ; // Fall through to label ??Subroutine53_0

        RSEG BANKED_CODE:CODE:NOROOT(0)
??Subroutine53_0:
        CFI Block cfiBlock231 Using cfiCommon0
        CFI NoFunction
        CFI CFA_SP SP+0
        CFI CFA_XSP16 add(XSP16, 14)
        CFI VB load(1, XDATA, add(CFA_XSP16, literal(-13)))
        CFI DPL0 load(1, XDATA, add(CFA_XSP16, literal(-2)))
        CFI DPH0 load(1, XDATA, add(CFA_XSP16, literal(-1)))
        CFI R6 load(1, XDATA, add(CFA_XSP16, literal(-14)))
        CFI R7 load(1, XDATA, add(CFA_XSP16, literal(-6)))
        CFI V0 load(1, XDATA, add(CFA_XSP16, literal(-12)))
        CFI V1 load(1, XDATA, add(CFA_XSP16, literal(-11)))
        CFI V2 load(1, XDATA, add(CFA_XSP16, literal(-10)))
        CFI V3 load(1, XDATA, add(CFA_XSP16, literal(-9)))
        CFI V4 load(1, XDATA, add(CFA_XSP16, literal(-8)))
        CFI V5 load(1, XDATA, add(CFA_XSP16, literal(-7)))
        CFI ?BRET_EXT load(1, XDATA, add(CFA_XSP16, literal(-3)))
        CFI ?RET_HIGH load(1, XDATA, add(CFA_XSP16, literal(-4)))
        CFI ?RET_LOW load(1, XDATA, add(CFA_XSP16, literal(-5)))
        MOV     R7,#0x6
        LJMP    ?BANKED_LEAVE_XDATA
        CFI EndBlock cfiBlock231
// 1239 
// 1240 /*********************************************************************
// 1241  * @fn      osal_nv_item_len
// 1242  *
// 1243  * @brief   Get the data length of the item stored in NV memory.
// 1244  *
// 1245  * @param   id  - Valid NV item Id.
// 1246  *
// 1247  * @return  Item length, if found; zero otherwise.
// 1248  */

        RSEG BANKED_CODE:CODE:NOROOT(0)
// 1249 uint16 osal_nv_item_len( uint16 id )
osal_nv_item_len:
        CFI Block cfiBlock232 Using cfiCommon0
        CFI Function osal_nv_item_len
        CODE
// 1250 {
        FUNCALL osal_nv_item_len, HalFlashRead
        LOCFRAME ISTACK, 0, STACK
        LOCFRAME PSTACK, 0, STACK
        LOCFRAME XSTACK, 20, STACK
        LOCFRAME IOVERLAY, 0, STATIC
        LOCFRAME DOVERLAY, 0, STATIC
        ARGFRAME ISTACK, 0, STACK
        ARGFRAME PSTACK, 0, STACK
        ARGFRAME XSTACK, 20, STACK
        ARGFRAME IOVERLAY, 0, STATIC
        ARGFRAME DOVERLAY, 0, STATIC
        FUNCALL osal_nv_item_len, findItem
        LOCFRAME ISTACK, 0, STACK
        LOCFRAME PSTACK, 0, STACK
        LOCFRAME XSTACK, 18, STACK
        LOCFRAME IOVERLAY, 0, STATIC
        LOCFRAME DOVERLAY, 0, STATIC
        ARGFRAME ISTACK, 0, STACK
        ARGFRAME PSTACK, 0, STACK
        ARGFRAME XSTACK, 18, STACK
        ARGFRAME IOVERLAY, 0, STATIC
        ARGFRAME DOVERLAY, 0, STATIC
        MOV     A,#-0xa
        LCALL   ?BANKED_ENTER_XDATA
        CFI DPH0 load(1, XDATA, add(CFA_XSP16, literal(-1)))
        CFI DPL0 load(1, XDATA, add(CFA_XSP16, literal(-2)))
        CFI ?BRET_EXT load(1, XDATA, add(CFA_XSP16, literal(-3)))
        CFI ?RET_HIGH load(1, XDATA, add(CFA_XSP16, literal(-4)))
        CFI ?RET_LOW load(1, XDATA, add(CFA_XSP16, literal(-5)))
        CFI R7 load(1, XDATA, add(CFA_XSP16, literal(-6)))
        CFI V1 load(1, XDATA, add(CFA_XSP16, literal(-7)))
        CFI V0 load(1, XDATA, add(CFA_XSP16, literal(-8)))
        CFI VB load(1, XDATA, add(CFA_XSP16, literal(-9)))
        CFI R6 load(1, XDATA, add(CFA_XSP16, literal(-10)))
        CFI CFA_SP SP+0
        CFI CFA_XSP16 add(XSP16, 10)
        ; Saved register size: 10
        ; Auto size: 8
        MOV     A,#-0x8
        LCALL   ?ALLOC_XSTACK8
        CFI CFA_XSP16 add(XSP16, 18)
// 1251   osalNvHdr_t hdr;
// 1252   uint16 offset;
// 1253   uint8 hotIdx;
// 1254 
// 1255   if ((hotIdx = hotItem(id)) < OSAL_NV_MAX_HOT)
        MOV     R4,#0x0
        MOV     R0,#hotIds & 0xff
        MOV     R1,#(hotIds >> 8) & 0xff
??osal_nv_item_len_0:
        MOV     DPL,R0
        MOV     DPH,R1
        MOVX    A,@DPTR
        XRL     A,R2
        JNZ     ??osal_nv_item_len_1
        INC     DPTR
        MOVX    A,@DPTR
        XRL     A,R3
??osal_nv_item_len_1:
        JZ      ??osal_nv_item_len_2
        LCALL   ?Subroutine26 & 0xFFFF
??CrossCallReturnLabel_49:
        JC      ??osal_nv_item_len_0
??osal_nv_item_len_2:
        MOV     A,R4
        CLR     C
        SUBB    A,#0x3
        JNC     ??osal_nv_item_len_3
// 1256   {
// 1257     findPg = hotPg[hotIdx];
        LCALL   ?Subroutine33 & 0xFFFF
// 1258     offset = hotOff[hotIdx];
// 1259   }
??CrossCallReturnLabel_105:
        MOVX    A,@DPTR
        MOV     DPTR,#findPg
        LCALL   ??Subroutine54_0 & 0xFFFF
??CrossCallReturnLabel_144:
        LCALL   ?Subroutine22 & 0xFFFF
// 1260   else if ((offset = findItem(id)) == OSAL_NV_ITEM_NULL)
// 1261   {
// 1262     return 0;
// 1263   }
// 1264 
// 1265   HalFlashRead(findPg, (offset - OSAL_NV_HDR_SIZE), (uint8 *)(&hdr), OSAL_NV_HDR_SIZE);
??CrossCallReturnLabel_32:
        ; Setup parameters for call to function HalFlashRead
        MOV     ?V0 + 0,#0x8
        MOV     ?V0 + 1,#0x0
        MOV     R0,#?V0 + 0
        LCALL   ?PUSH_XSTACK_I_TWO
        CFI CFA_XSP16 add(XSP16, 20)
        MOV     A,#0x2
        LCALL   ?XSTACK_DISP0_8
        MOV     R4,DPL
        MOV     R5,DPH
        MOV     A,R2
        ADD     A,#-0x8
        MOV     R2,A
        MOV     A,R3
        ADDC    A,#-0x1
        MOV     R3,A
        MOV     DPTR,#findPg
        MOVX    A,@DPTR
        MOV     R1,A
        LCALL   ??Subroutine51_0 & 0xFFFF
??CrossCallReturnLabel_134:
        LCALL   ?DEALLOC_XSTACK8
        CFI CFA_XSP16 add(XSP16, 18)
// 1266   return hdr.len;
        MOV     A,#0x2
        LCALL   ?XSTACK_DISP0_8
        LCALL   ?Subroutine22 & 0xFFFF
??CrossCallReturnLabel_33:
        MOV     A,#0x8
        LCALL   ?DEALLOC_XSTACK8
        CFI CFA_XSP16 add(XSP16, 10)
        MOV     R7,#0x2
        LJMP    ?BANKED_LEAVE_XDATA
        CFI CFA_XSP16 add(XSP16, 18)
??osal_nv_item_len_3:
        ; Setup parameters for call to function findItem
        LCALL   ??findItem?relay
        MOV     ?V0 + 1,R3
        MOV     R1,?V0 + 1
        MOV     A,R2
        ORL     A,R1
        JNZ     ??CrossCallReturnLabel_32
        MOV     R2,#0x0
        MOV     R3,#0x0
        SJMP    ??CrossCallReturnLabel_33
        CFI EndBlock cfiBlock232
// 1267 }

        RSEG BANKED_CODE:CODE:NOROOT(0)
?Subroutine26:
        CFI Block cfiCond233 Using cfiCommon0
        CFI NoFunction
        CFI Conditional ??CrossCallReturnLabel_51
        CFI R6 load(1, XDATA, add(CFA_XSP16, literal(-22)))
        CFI VB load(1, XDATA, add(CFA_XSP16, literal(-21)))
        CFI V0 load(1, XDATA, add(CFA_XSP16, literal(-20)))
        CFI V1 load(1, XDATA, add(CFA_XSP16, literal(-19)))
        CFI V2 load(1, XDATA, add(CFA_XSP16, literal(-18)))
        CFI V3 load(1, XDATA, add(CFA_XSP16, literal(-17)))
        CFI V4 load(1, XDATA, add(CFA_XSP16, literal(-16)))
        CFI V5 load(1, XDATA, add(CFA_XSP16, literal(-15)))
        CFI V6 load(1, XDATA, add(CFA_XSP16, literal(-14)))
        CFI V7 load(1, XDATA, add(CFA_XSP16, literal(-13)))
        CFI V8 load(1, XDATA, add(CFA_XSP16, literal(-12)))
        CFI V9 load(1, XDATA, add(CFA_XSP16, literal(-11)))
        CFI V10 load(1, XDATA, add(CFA_XSP16, literal(-10)))
        CFI V11 load(1, XDATA, add(CFA_XSP16, literal(-9)))
        CFI V12 load(1, XDATA, add(CFA_XSP16, literal(-8)))
        CFI V13 load(1, XDATA, add(CFA_XSP16, literal(-7)))
        CFI R7 load(1, XDATA, add(CFA_XSP16, literal(-6)))
        CFI ?RET_LOW load(1, XDATA, add(CFA_XSP16, literal(-5)))
        CFI ?RET_HIGH load(1, XDATA, add(CFA_XSP16, literal(-4)))
        CFI ?BRET_EXT load(1, XDATA, add(CFA_XSP16, literal(-3)))
        CFI DPL0 load(1, XDATA, add(CFA_XSP16, literal(-2)))
        CFI DPH0 load(1, XDATA, add(CFA_XSP16, literal(-1)))
        CFI CFA_SP SP+0
        CFI CFA_XSP16 add(XSP16, 37)
        CFI Block cfiCond234 Using cfiCommon0
        CFI (cfiCond234) NoFunction
        CFI (cfiCond234) Conditional ??CrossCallReturnLabel_52
        CFI (cfiCond234) R6 load(1, XDATA, add(CFA_XSP16, literal(-24)))
        CFI (cfiCond234) VB load(1, XDATA, add(CFA_XSP16, literal(-23)))
        CFI (cfiCond234) V0 load(1, XDATA, add(CFA_XSP16, literal(-22)))
        CFI (cfiCond234) V1 load(1, XDATA, add(CFA_XSP16, literal(-21)))
        CFI (cfiCond234) V2 load(1, XDATA, add(CFA_XSP16, literal(-20)))
        CFI (cfiCond234) V3 load(1, XDATA, add(CFA_XSP16, literal(-19)))
        CFI (cfiCond234) V4 load(1, XDATA, add(CFA_XSP16, literal(-18)))
        CFI (cfiCond234) V5 load(1, XDATA, add(CFA_XSP16, literal(-17)))
        CFI (cfiCond234) V6 load(1, XDATA, add(CFA_XSP16, literal(-16)))
        CFI (cfiCond234) V7 load(1, XDATA, add(CFA_XSP16, literal(-15)))
        CFI (cfiCond234) V8 load(1, XDATA, add(CFA_XSP16, literal(-14)))
        CFI (cfiCond234) V9 load(1, XDATA, add(CFA_XSP16, literal(-13)))
        CFI (cfiCond234) V10 load(1, XDATA, add(CFA_XSP16, literal(-12)))
        CFI (cfiCond234) V11 load(1, XDATA, add(CFA_XSP16, literal(-11)))
        CFI (cfiCond234) V12 load(1, XDATA, add(CFA_XSP16, literal(-10)))
        CFI (cfiCond234) V13 load(1, XDATA, add(CFA_XSP16, literal(-9)))
        CFI (cfiCond234) V14 load(1, XDATA, add(CFA_XSP16, literal(-8)))
        CFI (cfiCond234) V15 load(1, XDATA, add(CFA_XSP16, literal(-7)))
        CFI (cfiCond234) R7 load(1, XDATA, add(CFA_XSP16, literal(-6)))
        CFI (cfiCond234) ?RET_LOW load(1, XDATA, add(CFA_XSP16, literal(-5)))
        CFI (cfiCond234) ?RET_HIGH load(1, XDATA, add(CFA_XSP16, literal(-4)))
        CFI (cfiCond234) ?BRET_EXT load(1, XDATA, add(CFA_XSP16, literal(-3)))
        CFI (cfiCond234) DPL0 load(1, XDATA, add(CFA_XSP16, literal(-2)))
        CFI (cfiCond234) DPH0 load(1, XDATA, add(CFA_XSP16, literal(-1)))
        CFI (cfiCond234) CFA_SP SP+0
        CFI (cfiCond234) CFA_XSP16 add(XSP16, 40)
        CFI Block cfiCond235 Using cfiCommon0
        CFI (cfiCond235) NoFunction
        CFI (cfiCond235) Conditional ??CrossCallReturnLabel_49
        CFI (cfiCond235) R6 load(1, XDATA, add(CFA_XSP16, literal(-10)))
        CFI (cfiCond235) VB load(1, XDATA, add(CFA_XSP16, literal(-9)))
        CFI (cfiCond235) V0 load(1, XDATA, add(CFA_XSP16, literal(-8)))
        CFI (cfiCond235) V1 load(1, XDATA, add(CFA_XSP16, literal(-7)))
        CFI (cfiCond235) R7 load(1, XDATA, add(CFA_XSP16, literal(-6)))
        CFI (cfiCond235) ?RET_LOW load(1, XDATA, add(CFA_XSP16, literal(-5)))
        CFI (cfiCond235) ?RET_HIGH load(1, XDATA, add(CFA_XSP16, literal(-4)))
        CFI (cfiCond235) ?BRET_EXT load(1, XDATA, add(CFA_XSP16, literal(-3)))
        CFI (cfiCond235) DPL0 load(1, XDATA, add(CFA_XSP16, literal(-2)))
        CFI (cfiCond235) DPH0 load(1, XDATA, add(CFA_XSP16, literal(-1)))
        CFI (cfiCond235) CFA_SP SP+0
        CFI (cfiCond235) CFA_XSP16 add(XSP16, 18)
        CFI Block cfiCond236 Using cfiCommon0
        CFI (cfiCond236) NoFunction
        CFI (cfiCond236) Conditional ??CrossCallReturnLabel_53
        CFI (cfiCond236) R6 load(1, XDATA, add(CFA_XSP16, literal(-24)))
        CFI (cfiCond236) VB load(1, XDATA, add(CFA_XSP16, literal(-23)))
        CFI (cfiCond236) V0 load(1, XDATA, add(CFA_XSP16, literal(-22)))
        CFI (cfiCond236) V1 load(1, XDATA, add(CFA_XSP16, literal(-21)))
        CFI (cfiCond236) V2 load(1, XDATA, add(CFA_XSP16, literal(-20)))
        CFI (cfiCond236) V3 load(1, XDATA, add(CFA_XSP16, literal(-19)))
        CFI (cfiCond236) V4 load(1, XDATA, add(CFA_XSP16, literal(-18)))
        CFI (cfiCond236) V5 load(1, XDATA, add(CFA_XSP16, literal(-17)))
        CFI (cfiCond236) V6 load(1, XDATA, add(CFA_XSP16, literal(-16)))
        CFI (cfiCond236) V7 load(1, XDATA, add(CFA_XSP16, literal(-15)))
        CFI (cfiCond236) V8 load(1, XDATA, add(CFA_XSP16, literal(-14)))
        CFI (cfiCond236) V9 load(1, XDATA, add(CFA_XSP16, literal(-13)))
        CFI (cfiCond236) V10 load(1, XDATA, add(CFA_XSP16, literal(-12)))
        CFI (cfiCond236) V11 load(1, XDATA, add(CFA_XSP16, literal(-11)))
        CFI (cfiCond236) V12 load(1, XDATA, add(CFA_XSP16, literal(-10)))
        CFI (cfiCond236) V13 load(1, XDATA, add(CFA_XSP16, literal(-9)))
        CFI (cfiCond236) V14 load(1, XDATA, add(CFA_XSP16, literal(-8)))
        CFI (cfiCond236) V15 load(1, XDATA, add(CFA_XSP16, literal(-7)))
        CFI (cfiCond236) R7 load(1, XDATA, add(CFA_XSP16, literal(-6)))
        CFI (cfiCond236) ?RET_LOW load(1, XDATA, add(CFA_XSP16, literal(-5)))
        CFI (cfiCond236) ?RET_HIGH load(1, XDATA, add(CFA_XSP16, literal(-4)))
        CFI (cfiCond236) ?BRET_EXT load(1, XDATA, add(CFA_XSP16, literal(-3)))
        CFI (cfiCond236) DPL0 load(1, XDATA, add(CFA_XSP16, literal(-2)))
        CFI (cfiCond236) DPH0 load(1, XDATA, add(CFA_XSP16, literal(-1)))
        CFI (cfiCond236) CFA_SP SP+0
        CFI (cfiCond236) CFA_XSP16 add(XSP16, 49)
        CFI Block cfiCond237 Using cfiCommon0
        CFI (cfiCond237) NoFunction
        CFI (cfiCond237) Conditional ??CrossCallReturnLabel_50
        CFI (cfiCond237) R6 load(1, XDATA, add(CFA_XSP16, literal(-14)))
        CFI (cfiCond237) VB load(1, XDATA, add(CFA_XSP16, literal(-13)))
        CFI (cfiCond237) V0 load(1, XDATA, add(CFA_XSP16, literal(-12)))
        CFI (cfiCond237) V1 load(1, XDATA, add(CFA_XSP16, literal(-11)))
        CFI (cfiCond237) V2 load(1, XDATA, add(CFA_XSP16, literal(-10)))
        CFI (cfiCond237) V3 load(1, XDATA, add(CFA_XSP16, literal(-9)))
        CFI (cfiCond237) V4 load(1, XDATA, add(CFA_XSP16, literal(-8)))
        CFI (cfiCond237) V5 load(1, XDATA, add(CFA_XSP16, literal(-7)))
        CFI (cfiCond237) R7 load(1, XDATA, add(CFA_XSP16, literal(-6)))
        CFI (cfiCond237) ?RET_LOW load(1, XDATA, add(CFA_XSP16, literal(-5)))
        CFI (cfiCond237) ?RET_HIGH load(1, XDATA, add(CFA_XSP16, literal(-4)))
        CFI (cfiCond237) ?BRET_EXT load(1, XDATA, add(CFA_XSP16, literal(-3)))
        CFI (cfiCond237) DPL0 load(1, XDATA, add(CFA_XSP16, literal(-2)))
        CFI (cfiCond237) DPH0 load(1, XDATA, add(CFA_XSP16, literal(-1)))
        CFI (cfiCond237) CFA_SP SP+0
        CFI (cfiCond237) CFA_XSP16 add(XSP16, 14)
        CFI Block cfiPicker238 Using cfiCommon1
        CFI (cfiPicker238) NoFunction
        CFI (cfiPicker238) Picker
        INC     R4
        LCALL   ?Subroutine43 & 0xFFFF
??CrossCallReturnLabel_80:
        MOV     A,R4
        CLR     C
        SUBB    A,#0x3
        RET
        CFI EndBlock cfiCond233
        CFI EndBlock cfiCond234
        CFI EndBlock cfiCond235
        CFI EndBlock cfiCond236
        CFI EndBlock cfiCond237
        CFI EndBlock cfiPicker238

        RSEG BANKED_CODE:CODE:NOROOT(0)
?Subroutine22:
        CFI Block cfiCond239 Using cfiCommon0
        CFI NoFunction
        CFI Conditional ??CrossCallReturnLabel_31
        CFI R6 load(1, XDATA, add(CFA_XSP16, literal(-18)))
        CFI VB load(1, XDATA, add(CFA_XSP16, literal(-17)))
        CFI V0 load(1, XDATA, add(CFA_XSP16, literal(-16)))
        CFI V1 load(1, XDATA, add(CFA_XSP16, literal(-15)))
        CFI V2 load(1, XDATA, add(CFA_XSP16, literal(-14)))
        CFI V3 load(1, XDATA, add(CFA_XSP16, literal(-13)))
        CFI V4 load(1, XDATA, add(CFA_XSP16, literal(-12)))
        CFI V5 load(1, XDATA, add(CFA_XSP16, literal(-11)))
        CFI V6 load(1, XDATA, add(CFA_XSP16, literal(-10)))
        CFI V7 load(1, XDATA, add(CFA_XSP16, literal(-9)))
        CFI V8 load(1, XDATA, add(CFA_XSP16, literal(-8)))
        CFI V9 load(1, XDATA, add(CFA_XSP16, literal(-7)))
        CFI R7 load(1, XDATA, add(CFA_XSP16, literal(-6)))
        CFI ?RET_LOW load(1, XDATA, add(CFA_XSP16, literal(-5)))
        CFI ?RET_HIGH load(1, XDATA, add(CFA_XSP16, literal(-4)))
        CFI ?BRET_EXT load(1, XDATA, add(CFA_XSP16, literal(-3)))
        CFI DPL0 load(1, XDATA, add(CFA_XSP16, literal(-2)))
        CFI DPH0 load(1, XDATA, add(CFA_XSP16, literal(-1)))
        CFI CFA_SP SP+0
        CFI CFA_XSP16 add(XSP16, 40)
        CFI Block cfiCond240 Using cfiCommon0
        CFI (cfiCond240) NoFunction
        CFI (cfiCond240) Conditional ??CrossCallReturnLabel_32
        CFI (cfiCond240) R6 load(1, XDATA, add(CFA_XSP16, literal(-10)))
        CFI (cfiCond240) VB load(1, XDATA, add(CFA_XSP16, literal(-9)))
        CFI (cfiCond240) V0 load(1, XDATA, add(CFA_XSP16, literal(-8)))
        CFI (cfiCond240) V1 load(1, XDATA, add(CFA_XSP16, literal(-7)))
        CFI (cfiCond240) R7 load(1, XDATA, add(CFA_XSP16, literal(-6)))
        CFI (cfiCond240) ?RET_LOW load(1, XDATA, add(CFA_XSP16, literal(-5)))
        CFI (cfiCond240) ?RET_HIGH load(1, XDATA, add(CFA_XSP16, literal(-4)))
        CFI (cfiCond240) ?BRET_EXT load(1, XDATA, add(CFA_XSP16, literal(-3)))
        CFI (cfiCond240) DPL0 load(1, XDATA, add(CFA_XSP16, literal(-2)))
        CFI (cfiCond240) DPH0 load(1, XDATA, add(CFA_XSP16, literal(-1)))
        CFI (cfiCond240) CFA_SP SP+0
        CFI (cfiCond240) CFA_XSP16 add(XSP16, 18)
        CFI Block cfiCond241 Using cfiCommon0
        CFI (cfiCond241) NoFunction
        CFI (cfiCond241) Conditional ??CrossCallReturnLabel_33
        CFI (cfiCond241) R6 load(1, XDATA, add(CFA_XSP16, literal(-10)))
        CFI (cfiCond241) VB load(1, XDATA, add(CFA_XSP16, literal(-9)))
        CFI (cfiCond241) V0 load(1, XDATA, add(CFA_XSP16, literal(-8)))
        CFI (cfiCond241) V1 load(1, XDATA, add(CFA_XSP16, literal(-7)))
        CFI (cfiCond241) R7 load(1, XDATA, add(CFA_XSP16, literal(-6)))
        CFI (cfiCond241) ?RET_LOW load(1, XDATA, add(CFA_XSP16, literal(-5)))
        CFI (cfiCond241) ?RET_HIGH load(1, XDATA, add(CFA_XSP16, literal(-4)))
        CFI (cfiCond241) ?BRET_EXT load(1, XDATA, add(CFA_XSP16, literal(-3)))
        CFI (cfiCond241) DPL0 load(1, XDATA, add(CFA_XSP16, literal(-2)))
        CFI (cfiCond241) DPH0 load(1, XDATA, add(CFA_XSP16, literal(-1)))
        CFI (cfiCond241) CFA_SP SP+0
        CFI (cfiCond241) CFA_XSP16 add(XSP16, 18)
        CFI Block cfiCond242 Using cfiCommon0
        CFI (cfiCond242) NoFunction
        CFI (cfiCond242) Conditional ??CrossCallReturnLabel_34
        CFI (cfiCond242) R6 load(1, XDATA, add(CFA_XSP16, literal(-24)))
        CFI (cfiCond242) VB load(1, XDATA, add(CFA_XSP16, literal(-23)))
        CFI (cfiCond242) V0 load(1, XDATA, add(CFA_XSP16, literal(-22)))
        CFI (cfiCond242) V1 load(1, XDATA, add(CFA_XSP16, literal(-21)))
        CFI (cfiCond242) V2 load(1, XDATA, add(CFA_XSP16, literal(-20)))
        CFI (cfiCond242) V3 load(1, XDATA, add(CFA_XSP16, literal(-19)))
        CFI (cfiCond242) V4 load(1, XDATA, add(CFA_XSP16, literal(-18)))
        CFI (cfiCond242) V5 load(1, XDATA, add(CFA_XSP16, literal(-17)))
        CFI (cfiCond242) V6 load(1, XDATA, add(CFA_XSP16, literal(-16)))
        CFI (cfiCond242) V7 load(1, XDATA, add(CFA_XSP16, literal(-15)))
        CFI (cfiCond242) V8 load(1, XDATA, add(CFA_XSP16, literal(-14)))
        CFI (cfiCond242) V9 load(1, XDATA, add(CFA_XSP16, literal(-13)))
        CFI (cfiCond242) V10 load(1, XDATA, add(CFA_XSP16, literal(-12)))
        CFI (cfiCond242) V11 load(1, XDATA, add(CFA_XSP16, literal(-11)))
        CFI (cfiCond242) V12 load(1, XDATA, add(CFA_XSP16, literal(-10)))
        CFI (cfiCond242) V13 load(1, XDATA, add(CFA_XSP16, literal(-9)))
        CFI (cfiCond242) V14 load(1, XDATA, add(CFA_XSP16, literal(-8)))
        CFI (cfiCond242) V15 load(1, XDATA, add(CFA_XSP16, literal(-7)))
        CFI (cfiCond242) R7 load(1, XDATA, add(CFA_XSP16, literal(-6)))
        CFI (cfiCond242) ?RET_LOW load(1, XDATA, add(CFA_XSP16, literal(-5)))
        CFI (cfiCond242) ?RET_HIGH load(1, XDATA, add(CFA_XSP16, literal(-4)))
        CFI (cfiCond242) ?BRET_EXT load(1, XDATA, add(CFA_XSP16, literal(-3)))
        CFI (cfiCond242) DPL0 load(1, XDATA, add(CFA_XSP16, literal(-2)))
        CFI (cfiCond242) DPH0 load(1, XDATA, add(CFA_XSP16, literal(-1)))
        CFI (cfiCond242) CFA_SP SP+0
        CFI (cfiCond242) CFA_XSP16 add(XSP16, 53)
        CFI Block cfiPicker243 Using cfiCommon1
        CFI (cfiPicker243) NoFunction
        CFI (cfiPicker243) Picker
        LCALL   ?Subroutine38 & 0xFFFF
??CrossCallReturnLabel_75:
        RET
        CFI EndBlock cfiCond239
        CFI EndBlock cfiCond240
        CFI EndBlock cfiCond241
        CFI EndBlock cfiCond242
        CFI EndBlock cfiPicker243

        RSEG BANKED_CODE:CODE:NOROOT(0)
?Subroutine38:
        CFI Block cfiCond244 Using cfiCommon0
        CFI NoFunction
        CFI Conditional ??CrossCallReturnLabel_74, ??CrossCallReturnLabel_29
        CFI R6 load(1, XDATA, add(CFA_XSP16, literal(-22)))
        CFI VB load(1, XDATA, add(CFA_XSP16, literal(-21)))
        CFI V0 load(1, XDATA, add(CFA_XSP16, literal(-20)))
        CFI V1 load(1, XDATA, add(CFA_XSP16, literal(-19)))
        CFI V2 load(1, XDATA, add(CFA_XSP16, literal(-18)))
        CFI V3 load(1, XDATA, add(CFA_XSP16, literal(-17)))
        CFI V4 load(1, XDATA, add(CFA_XSP16, literal(-16)))
        CFI V5 load(1, XDATA, add(CFA_XSP16, literal(-15)))
        CFI V6 load(1, XDATA, add(CFA_XSP16, literal(-14)))
        CFI V7 load(1, XDATA, add(CFA_XSP16, literal(-13)))
        CFI V8 load(1, XDATA, add(CFA_XSP16, literal(-12)))
        CFI V9 load(1, XDATA, add(CFA_XSP16, literal(-11)))
        CFI V10 load(1, XDATA, add(CFA_XSP16, literal(-10)))
        CFI V11 load(1, XDATA, add(CFA_XSP16, literal(-9)))
        CFI V12 load(1, XDATA, add(CFA_XSP16, literal(-8)))
        CFI V13 load(1, XDATA, add(CFA_XSP16, literal(-7)))
        CFI R7 load(1, XDATA, add(CFA_XSP16, literal(-6)))
        CFI ?RET_LOW load(1, XDATA, add(CFA_XSP16, literal(-5)))
        CFI ?RET_HIGH load(1, XDATA, add(CFA_XSP16, literal(-4)))
        CFI ?BRET_EXT load(1, XDATA, add(CFA_XSP16, literal(-3)))
        CFI DPL0 load(1, XDATA, add(CFA_XSP16, literal(-2)))
        CFI DPH0 load(1, XDATA, add(CFA_XSP16, literal(-1)))
        CFI CFA_SP SP+0
        CFI CFA_XSP16 add(XSP16, 40)
        CFI Block cfiCond245 Using cfiCommon0
        CFI (cfiCond245) NoFunction
        CFI (cfiCond245) Conditional ??CrossCallReturnLabel_74, ??CrossCallReturnLabel_30
        CFI (cfiCond245) R6 load(1, XDATA, add(CFA_XSP16, literal(-22)))
        CFI (cfiCond245) VB load(1, XDATA, add(CFA_XSP16, literal(-21)))
        CFI (cfiCond245) V0 load(1, XDATA, add(CFA_XSP16, literal(-20)))
        CFI (cfiCond245) V1 load(1, XDATA, add(CFA_XSP16, literal(-19)))
        CFI (cfiCond245) V2 load(1, XDATA, add(CFA_XSP16, literal(-18)))
        CFI (cfiCond245) V3 load(1, XDATA, add(CFA_XSP16, literal(-17)))
        CFI (cfiCond245) V4 load(1, XDATA, add(CFA_XSP16, literal(-16)))
        CFI (cfiCond245) V5 load(1, XDATA, add(CFA_XSP16, literal(-15)))
        CFI (cfiCond245) V6 load(1, XDATA, add(CFA_XSP16, literal(-14)))
        CFI (cfiCond245) V7 load(1, XDATA, add(CFA_XSP16, literal(-13)))
        CFI (cfiCond245) V8 load(1, XDATA, add(CFA_XSP16, literal(-12)))
        CFI (cfiCond245) V9 load(1, XDATA, add(CFA_XSP16, literal(-11)))
        CFI (cfiCond245) V10 load(1, XDATA, add(CFA_XSP16, literal(-10)))
        CFI (cfiCond245) V11 load(1, XDATA, add(CFA_XSP16, literal(-9)))
        CFI (cfiCond245) V12 load(1, XDATA, add(CFA_XSP16, literal(-8)))
        CFI (cfiCond245) V13 load(1, XDATA, add(CFA_XSP16, literal(-7)))
        CFI (cfiCond245) R7 load(1, XDATA, add(CFA_XSP16, literal(-6)))
        CFI (cfiCond245) ?RET_LOW load(1, XDATA, add(CFA_XSP16, literal(-5)))
        CFI (cfiCond245) ?RET_HIGH load(1, XDATA, add(CFA_XSP16, literal(-4)))
        CFI (cfiCond245) ?BRET_EXT load(1, XDATA, add(CFA_XSP16, literal(-3)))
        CFI (cfiCond245) DPL0 load(1, XDATA, add(CFA_XSP16, literal(-2)))
        CFI (cfiCond245) DPH0 load(1, XDATA, add(CFA_XSP16, literal(-1)))
        CFI (cfiCond245) CFA_SP SP+0
        CFI (cfiCond245) CFA_XSP16 add(XSP16, 37)
        CFI Block cfiCond246 Using cfiCommon0
        CFI (cfiCond246) NoFunction
        CFI (cfiCond246) Conditional ??CrossCallReturnLabel_75, ??CrossCallReturnLabel_31
        CFI (cfiCond246) R6 load(1, XDATA, add(CFA_XSP16, literal(-18)))
        CFI (cfiCond246) VB load(1, XDATA, add(CFA_XSP16, literal(-17)))
        CFI (cfiCond246) V0 load(1, XDATA, add(CFA_XSP16, literal(-16)))
        CFI (cfiCond246) V1 load(1, XDATA, add(CFA_XSP16, literal(-15)))
        CFI (cfiCond246) V2 load(1, XDATA, add(CFA_XSP16, literal(-14)))
        CFI (cfiCond246) V3 load(1, XDATA, add(CFA_XSP16, literal(-13)))
        CFI (cfiCond246) V4 load(1, XDATA, add(CFA_XSP16, literal(-12)))
        CFI (cfiCond246) V5 load(1, XDATA, add(CFA_XSP16, literal(-11)))
        CFI (cfiCond246) V6 load(1, XDATA, add(CFA_XSP16, literal(-10)))
        CFI (cfiCond246) V7 load(1, XDATA, add(CFA_XSP16, literal(-9)))
        CFI (cfiCond246) V8 load(1, XDATA, add(CFA_XSP16, literal(-8)))
        CFI (cfiCond246) V9 load(1, XDATA, add(CFA_XSP16, literal(-7)))
        CFI (cfiCond246) R7 load(1, XDATA, add(CFA_XSP16, literal(-6)))
        CFI (cfiCond246) ?RET_LOW load(1, XDATA, add(CFA_XSP16, literal(-5)))
        CFI (cfiCond246) ?RET_HIGH load(1, XDATA, add(CFA_XSP16, literal(-4)))
        CFI (cfiCond246) ?BRET_EXT load(1, XDATA, add(CFA_XSP16, literal(-3)))
        CFI (cfiCond246) DPL0 load(1, XDATA, add(CFA_XSP16, literal(-2)))
        CFI (cfiCond246) DPH0 load(1, XDATA, add(CFA_XSP16, literal(-1)))
        CFI (cfiCond246) CFA_SP SP+0
        CFI (cfiCond246) CFA_XSP16 add(XSP16, 40)
        CFI Block cfiCond247 Using cfiCommon0
        CFI (cfiCond247) NoFunction
        CFI (cfiCond247) Conditional ??CrossCallReturnLabel_75, ??CrossCallReturnLabel_32
        CFI (cfiCond247) R6 load(1, XDATA, add(CFA_XSP16, literal(-10)))
        CFI (cfiCond247) VB load(1, XDATA, add(CFA_XSP16, literal(-9)))
        CFI (cfiCond247) V0 load(1, XDATA, add(CFA_XSP16, literal(-8)))
        CFI (cfiCond247) V1 load(1, XDATA, add(CFA_XSP16, literal(-7)))
        CFI (cfiCond247) R7 load(1, XDATA, add(CFA_XSP16, literal(-6)))
        CFI (cfiCond247) ?RET_LOW load(1, XDATA, add(CFA_XSP16, literal(-5)))
        CFI (cfiCond247) ?RET_HIGH load(1, XDATA, add(CFA_XSP16, literal(-4)))
        CFI (cfiCond247) ?BRET_EXT load(1, XDATA, add(CFA_XSP16, literal(-3)))
        CFI (cfiCond247) DPL0 load(1, XDATA, add(CFA_XSP16, literal(-2)))
        CFI (cfiCond247) DPH0 load(1, XDATA, add(CFA_XSP16, literal(-1)))
        CFI (cfiCond247) CFA_SP SP+0
        CFI (cfiCond247) CFA_XSP16 add(XSP16, 18)
        CFI Block cfiCond248 Using cfiCommon0
        CFI (cfiCond248) NoFunction
        CFI (cfiCond248) Conditional ??CrossCallReturnLabel_75, ??CrossCallReturnLabel_33
        CFI (cfiCond248) R6 load(1, XDATA, add(CFA_XSP16, literal(-10)))
        CFI (cfiCond248) VB load(1, XDATA, add(CFA_XSP16, literal(-9)))
        CFI (cfiCond248) V0 load(1, XDATA, add(CFA_XSP16, literal(-8)))
        CFI (cfiCond248) V1 load(1, XDATA, add(CFA_XSP16, literal(-7)))
        CFI (cfiCond248) R7 load(1, XDATA, add(CFA_XSP16, literal(-6)))
        CFI (cfiCond248) ?RET_LOW load(1, XDATA, add(CFA_XSP16, literal(-5)))
        CFI (cfiCond248) ?RET_HIGH load(1, XDATA, add(CFA_XSP16, literal(-4)))
        CFI (cfiCond248) ?BRET_EXT load(1, XDATA, add(CFA_XSP16, literal(-3)))
        CFI (cfiCond248) DPL0 load(1, XDATA, add(CFA_XSP16, literal(-2)))
        CFI (cfiCond248) DPH0 load(1, XDATA, add(CFA_XSP16, literal(-1)))
        CFI (cfiCond248) CFA_SP SP+0
        CFI (cfiCond248) CFA_XSP16 add(XSP16, 18)
        CFI Block cfiCond249 Using cfiCommon0
        CFI (cfiCond249) NoFunction
        CFI (cfiCond249) Conditional ??CrossCallReturnLabel_75, ??CrossCallReturnLabel_34
        CFI (cfiCond249) R6 load(1, XDATA, add(CFA_XSP16, literal(-24)))
        CFI (cfiCond249) VB load(1, XDATA, add(CFA_XSP16, literal(-23)))
        CFI (cfiCond249) V0 load(1, XDATA, add(CFA_XSP16, literal(-22)))
        CFI (cfiCond249) V1 load(1, XDATA, add(CFA_XSP16, literal(-21)))
        CFI (cfiCond249) V2 load(1, XDATA, add(CFA_XSP16, literal(-20)))
        CFI (cfiCond249) V3 load(1, XDATA, add(CFA_XSP16, literal(-19)))
        CFI (cfiCond249) V4 load(1, XDATA, add(CFA_XSP16, literal(-18)))
        CFI (cfiCond249) V5 load(1, XDATA, add(CFA_XSP16, literal(-17)))
        CFI (cfiCond249) V6 load(1, XDATA, add(CFA_XSP16, literal(-16)))
        CFI (cfiCond249) V7 load(1, XDATA, add(CFA_XSP16, literal(-15)))
        CFI (cfiCond249) V8 load(1, XDATA, add(CFA_XSP16, literal(-14)))
        CFI (cfiCond249) V9 load(1, XDATA, add(CFA_XSP16, literal(-13)))
        CFI (cfiCond249) V10 load(1, XDATA, add(CFA_XSP16, literal(-12)))
        CFI (cfiCond249) V11 load(1, XDATA, add(CFA_XSP16, literal(-11)))
        CFI (cfiCond249) V12 load(1, XDATA, add(CFA_XSP16, literal(-10)))
        CFI (cfiCond249) V13 load(1, XDATA, add(CFA_XSP16, literal(-9)))
        CFI (cfiCond249) V14 load(1, XDATA, add(CFA_XSP16, literal(-8)))
        CFI (cfiCond249) V15 load(1, XDATA, add(CFA_XSP16, literal(-7)))
        CFI (cfiCond249) R7 load(1, XDATA, add(CFA_XSP16, literal(-6)))
        CFI (cfiCond249) ?RET_LOW load(1, XDATA, add(CFA_XSP16, literal(-5)))
        CFI (cfiCond249) ?RET_HIGH load(1, XDATA, add(CFA_XSP16, literal(-4)))
        CFI (cfiCond249) ?BRET_EXT load(1, XDATA, add(CFA_XSP16, literal(-3)))
        CFI (cfiCond249) DPL0 load(1, XDATA, add(CFA_XSP16, literal(-2)))
        CFI (cfiCond249) DPH0 load(1, XDATA, add(CFA_XSP16, literal(-1)))
        CFI (cfiCond249) CFA_SP SP+0
        CFI (cfiCond249) CFA_XSP16 add(XSP16, 53)
        CFI Block cfiCond250 Using cfiCommon0
        CFI (cfiCond250) NoFunction
        CFI (cfiCond250) Conditional ??CrossCallReturnLabel_73, ??CrossCallReturnLabel_20
        CFI (cfiCond250) R6 load(1, XDATA, add(CFA_XSP16, literal(-24)))
        CFI (cfiCond250) VB load(1, XDATA, add(CFA_XSP16, literal(-23)))
        CFI (cfiCond250) V0 load(1, XDATA, add(CFA_XSP16, literal(-22)))
        CFI (cfiCond250) V1 load(1, XDATA, add(CFA_XSP16, literal(-21)))
        CFI (cfiCond250) V2 load(1, XDATA, add(CFA_XSP16, literal(-20)))
        CFI (cfiCond250) V3 load(1, XDATA, add(CFA_XSP16, literal(-19)))
        CFI (cfiCond250) V4 load(1, XDATA, add(CFA_XSP16, literal(-18)))
        CFI (cfiCond250) V5 load(1, XDATA, add(CFA_XSP16, literal(-17)))
        CFI (cfiCond250) V6 load(1, XDATA, add(CFA_XSP16, literal(-16)))
        CFI (cfiCond250) V7 load(1, XDATA, add(CFA_XSP16, literal(-15)))
        CFI (cfiCond250) V8 load(1, XDATA, add(CFA_XSP16, literal(-14)))
        CFI (cfiCond250) V9 load(1, XDATA, add(CFA_XSP16, literal(-13)))
        CFI (cfiCond250) V10 load(1, XDATA, add(CFA_XSP16, literal(-12)))
        CFI (cfiCond250) V11 load(1, XDATA, add(CFA_XSP16, literal(-11)))
        CFI (cfiCond250) V12 load(1, XDATA, add(CFA_XSP16, literal(-10)))
        CFI (cfiCond250) V13 load(1, XDATA, add(CFA_XSP16, literal(-9)))
        CFI (cfiCond250) V14 load(1, XDATA, add(CFA_XSP16, literal(-8)))
        CFI (cfiCond250) V15 load(1, XDATA, add(CFA_XSP16, literal(-7)))
        CFI (cfiCond250) R7 load(1, XDATA, add(CFA_XSP16, literal(-6)))
        CFI (cfiCond250) ?RET_LOW load(1, XDATA, add(CFA_XSP16, literal(-5)))
        CFI (cfiCond250) ?RET_HIGH load(1, XDATA, add(CFA_XSP16, literal(-4)))
        CFI (cfiCond250) ?BRET_EXT load(1, XDATA, add(CFA_XSP16, literal(-3)))
        CFI (cfiCond250) DPL0 load(1, XDATA, add(CFA_XSP16, literal(-2)))
        CFI (cfiCond250) DPH0 load(1, XDATA, add(CFA_XSP16, literal(-1)))
        CFI (cfiCond250) CFA_SP SP+0
        CFI (cfiCond250) CFA_XSP16 add(XSP16, 49)
        CFI Block cfiCond251 Using cfiCommon0
        CFI (cfiCond251) NoFunction
        CFI (cfiCond251) Conditional ??CrossCallReturnLabel_73, ??CrossCallReturnLabel_21
        CFI (cfiCond251) R6 load(1, XDATA, add(CFA_XSP16, literal(-24)))
        CFI (cfiCond251) VB load(1, XDATA, add(CFA_XSP16, literal(-23)))
        CFI (cfiCond251) V0 load(1, XDATA, add(CFA_XSP16, literal(-22)))
        CFI (cfiCond251) V1 load(1, XDATA, add(CFA_XSP16, literal(-21)))
        CFI (cfiCond251) V2 load(1, XDATA, add(CFA_XSP16, literal(-20)))
        CFI (cfiCond251) V3 load(1, XDATA, add(CFA_XSP16, literal(-19)))
        CFI (cfiCond251) V4 load(1, XDATA, add(CFA_XSP16, literal(-18)))
        CFI (cfiCond251) V5 load(1, XDATA, add(CFA_XSP16, literal(-17)))
        CFI (cfiCond251) V6 load(1, XDATA, add(CFA_XSP16, literal(-16)))
        CFI (cfiCond251) V7 load(1, XDATA, add(CFA_XSP16, literal(-15)))
        CFI (cfiCond251) V8 load(1, XDATA, add(CFA_XSP16, literal(-14)))
        CFI (cfiCond251) V9 load(1, XDATA, add(CFA_XSP16, literal(-13)))
        CFI (cfiCond251) V10 load(1, XDATA, add(CFA_XSP16, literal(-12)))
        CFI (cfiCond251) V11 load(1, XDATA, add(CFA_XSP16, literal(-11)))
        CFI (cfiCond251) V12 load(1, XDATA, add(CFA_XSP16, literal(-10)))
        CFI (cfiCond251) V13 load(1, XDATA, add(CFA_XSP16, literal(-9)))
        CFI (cfiCond251) V14 load(1, XDATA, add(CFA_XSP16, literal(-8)))
        CFI (cfiCond251) V15 load(1, XDATA, add(CFA_XSP16, literal(-7)))
        CFI (cfiCond251) R7 load(1, XDATA, add(CFA_XSP16, literal(-6)))
        CFI (cfiCond251) ?RET_LOW load(1, XDATA, add(CFA_XSP16, literal(-5)))
        CFI (cfiCond251) ?RET_HIGH load(1, XDATA, add(CFA_XSP16, literal(-4)))
        CFI (cfiCond251) ?BRET_EXT load(1, XDATA, add(CFA_XSP16, literal(-3)))
        CFI (cfiCond251) DPL0 load(1, XDATA, add(CFA_XSP16, literal(-2)))
        CFI (cfiCond251) DPH0 load(1, XDATA, add(CFA_XSP16, literal(-1)))
        CFI (cfiCond251) CFA_SP SP+0
        CFI (cfiCond251) CFA_XSP16 add(XSP16, 49)
        CFI Block cfiCond252 Using cfiCommon0
        CFI (cfiCond252) NoFunction
        CFI (cfiCond252) Conditional ??CrossCallReturnLabel_72, ??CrossCallReturnLabel_18
        CFI (cfiCond252) R6 load(1, XDATA, add(CFA_XSP16, literal(-24)))
        CFI (cfiCond252) VB load(1, XDATA, add(CFA_XSP16, literal(-23)))
        CFI (cfiCond252) V0 load(1, XDATA, add(CFA_XSP16, literal(-22)))
        CFI (cfiCond252) V1 load(1, XDATA, add(CFA_XSP16, literal(-21)))
        CFI (cfiCond252) V2 load(1, XDATA, add(CFA_XSP16, literal(-20)))
        CFI (cfiCond252) V3 load(1, XDATA, add(CFA_XSP16, literal(-19)))
        CFI (cfiCond252) V4 load(1, XDATA, add(CFA_XSP16, literal(-18)))
        CFI (cfiCond252) V5 load(1, XDATA, add(CFA_XSP16, literal(-17)))
        CFI (cfiCond252) V6 load(1, XDATA, add(CFA_XSP16, literal(-16)))
        CFI (cfiCond252) V7 load(1, XDATA, add(CFA_XSP16, literal(-15)))
        CFI (cfiCond252) V8 load(1, XDATA, add(CFA_XSP16, literal(-14)))
        CFI (cfiCond252) V9 load(1, XDATA, add(CFA_XSP16, literal(-13)))
        CFI (cfiCond252) V10 load(1, XDATA, add(CFA_XSP16, literal(-12)))
        CFI (cfiCond252) V11 load(1, XDATA, add(CFA_XSP16, literal(-11)))
        CFI (cfiCond252) V12 load(1, XDATA, add(CFA_XSP16, literal(-10)))
        CFI (cfiCond252) V13 load(1, XDATA, add(CFA_XSP16, literal(-9)))
        CFI (cfiCond252) V14 load(1, XDATA, add(CFA_XSP16, literal(-8)))
        CFI (cfiCond252) V15 load(1, XDATA, add(CFA_XSP16, literal(-7)))
        CFI (cfiCond252) R7 load(1, XDATA, add(CFA_XSP16, literal(-6)))
        CFI (cfiCond252) ?RET_LOW load(1, XDATA, add(CFA_XSP16, literal(-5)))
        CFI (cfiCond252) ?RET_HIGH load(1, XDATA, add(CFA_XSP16, literal(-4)))
        CFI (cfiCond252) ?BRET_EXT load(1, XDATA, add(CFA_XSP16, literal(-3)))
        CFI (cfiCond252) DPL0 load(1, XDATA, add(CFA_XSP16, literal(-2)))
        CFI (cfiCond252) DPH0 load(1, XDATA, add(CFA_XSP16, literal(-1)))
        CFI (cfiCond252) CFA_SP SP+0
        CFI (cfiCond252) CFA_XSP16 add(XSP16, 40)
        CFI Block cfiCond253 Using cfiCommon0
        CFI (cfiCond253) NoFunction
        CFI (cfiCond253) Conditional ??CrossCallReturnLabel_72, ??CrossCallReturnLabel_19
        CFI (cfiCond253) R6 load(1, XDATA, add(CFA_XSP16, literal(-24)))
        CFI (cfiCond253) VB load(1, XDATA, add(CFA_XSP16, literal(-23)))
        CFI (cfiCond253) V0 load(1, XDATA, add(CFA_XSP16, literal(-22)))
        CFI (cfiCond253) V1 load(1, XDATA, add(CFA_XSP16, literal(-21)))
        CFI (cfiCond253) V2 load(1, XDATA, add(CFA_XSP16, literal(-20)))
        CFI (cfiCond253) V3 load(1, XDATA, add(CFA_XSP16, literal(-19)))
        CFI (cfiCond253) V4 load(1, XDATA, add(CFA_XSP16, literal(-18)))
        CFI (cfiCond253) V5 load(1, XDATA, add(CFA_XSP16, literal(-17)))
        CFI (cfiCond253) V6 load(1, XDATA, add(CFA_XSP16, literal(-16)))
        CFI (cfiCond253) V7 load(1, XDATA, add(CFA_XSP16, literal(-15)))
        CFI (cfiCond253) V8 load(1, XDATA, add(CFA_XSP16, literal(-14)))
        CFI (cfiCond253) V9 load(1, XDATA, add(CFA_XSP16, literal(-13)))
        CFI (cfiCond253) V10 load(1, XDATA, add(CFA_XSP16, literal(-12)))
        CFI (cfiCond253) V11 load(1, XDATA, add(CFA_XSP16, literal(-11)))
        CFI (cfiCond253) V12 load(1, XDATA, add(CFA_XSP16, literal(-10)))
        CFI (cfiCond253) V13 load(1, XDATA, add(CFA_XSP16, literal(-9)))
        CFI (cfiCond253) V14 load(1, XDATA, add(CFA_XSP16, literal(-8)))
        CFI (cfiCond253) V15 load(1, XDATA, add(CFA_XSP16, literal(-7)))
        CFI (cfiCond253) R7 load(1, XDATA, add(CFA_XSP16, literal(-6)))
        CFI (cfiCond253) ?RET_LOW load(1, XDATA, add(CFA_XSP16, literal(-5)))
        CFI (cfiCond253) ?RET_HIGH load(1, XDATA, add(CFA_XSP16, literal(-4)))
        CFI (cfiCond253) ?BRET_EXT load(1, XDATA, add(CFA_XSP16, literal(-3)))
        CFI (cfiCond253) DPL0 load(1, XDATA, add(CFA_XSP16, literal(-2)))
        CFI (cfiCond253) DPH0 load(1, XDATA, add(CFA_XSP16, literal(-1)))
        CFI (cfiCond253) CFA_SP SP+0
        CFI (cfiCond253) CFA_XSP16 add(XSP16, 49)
        CFI Block cfiPicker254 Using cfiCommon1
        CFI (cfiPicker254) NoFunction
        CFI (cfiPicker254) Picker
        MOVX    A,@DPTR
        MOV     R2,A
        INC     DPTR
        MOVX    A,@DPTR
        MOV     R3,A
        RET
        CFI EndBlock cfiCond244
        CFI EndBlock cfiCond245
        CFI EndBlock cfiCond246
        CFI EndBlock cfiCond247
        CFI EndBlock cfiCond248
        CFI EndBlock cfiCond249
        CFI EndBlock cfiCond250
        CFI EndBlock cfiCond251
        CFI EndBlock cfiCond252
        CFI EndBlock cfiCond253
        CFI EndBlock cfiPicker254

        RSEG BANKED_CODE:CODE:NOROOT(0)
?Subroutine5:
        CFI Block cfiCond255 Using cfiCommon0
        CFI NoFunction
        CFI Conditional ??CrossCallReturnLabel_146
        CFI R6 load(1, XDATA, add(CFA_XSP16, literal(-24)))
        CFI VB load(1, XDATA, add(CFA_XSP16, literal(-23)))
        CFI V0 load(1, XDATA, add(CFA_XSP16, literal(-22)))
        CFI V1 load(1, XDATA, add(CFA_XSP16, literal(-21)))
        CFI V2 load(1, XDATA, add(CFA_XSP16, literal(-20)))
        CFI V3 load(1, XDATA, add(CFA_XSP16, literal(-19)))
        CFI V4 load(1, XDATA, add(CFA_XSP16, literal(-18)))
        CFI V5 load(1, XDATA, add(CFA_XSP16, literal(-17)))
        CFI V6 load(1, XDATA, add(CFA_XSP16, literal(-16)))
        CFI V7 load(1, XDATA, add(CFA_XSP16, literal(-15)))
        CFI V8 load(1, XDATA, add(CFA_XSP16, literal(-14)))
        CFI V9 load(1, XDATA, add(CFA_XSP16, literal(-13)))
        CFI V10 load(1, XDATA, add(CFA_XSP16, literal(-12)))
        CFI V11 load(1, XDATA, add(CFA_XSP16, literal(-11)))
        CFI V12 load(1, XDATA, add(CFA_XSP16, literal(-10)))
        CFI V13 load(1, XDATA, add(CFA_XSP16, literal(-9)))
        CFI V14 load(1, XDATA, add(CFA_XSP16, literal(-8)))
        CFI V15 load(1, XDATA, add(CFA_XSP16, literal(-7)))
        CFI R7 load(1, XDATA, add(CFA_XSP16, literal(-6)))
        CFI ?RET_LOW load(1, XDATA, add(CFA_XSP16, literal(-5)))
        CFI ?RET_HIGH load(1, XDATA, add(CFA_XSP16, literal(-4)))
        CFI ?BRET_EXT load(1, XDATA, add(CFA_XSP16, literal(-3)))
        CFI DPL0 load(1, XDATA, add(CFA_XSP16, literal(-2)))
        CFI DPH0 load(1, XDATA, add(CFA_XSP16, literal(-1)))
        CFI CFA_SP SP+0
        CFI CFA_XSP16 add(XSP16, 40)
        CFI Block cfiCond256 Using cfiCommon0
        CFI (cfiCond256) NoFunction
        CFI (cfiCond256) Conditional ??CrossCallReturnLabel_147
        CFI (cfiCond256) R6 load(1, XDATA, add(CFA_XSP16, literal(-24)))
        CFI (cfiCond256) VB load(1, XDATA, add(CFA_XSP16, literal(-23)))
        CFI (cfiCond256) V0 load(1, XDATA, add(CFA_XSP16, literal(-22)))
        CFI (cfiCond256) V1 load(1, XDATA, add(CFA_XSP16, literal(-21)))
        CFI (cfiCond256) V2 load(1, XDATA, add(CFA_XSP16, literal(-20)))
        CFI (cfiCond256) V3 load(1, XDATA, add(CFA_XSP16, literal(-19)))
        CFI (cfiCond256) V4 load(1, XDATA, add(CFA_XSP16, literal(-18)))
        CFI (cfiCond256) V5 load(1, XDATA, add(CFA_XSP16, literal(-17)))
        CFI (cfiCond256) V6 load(1, XDATA, add(CFA_XSP16, literal(-16)))
        CFI (cfiCond256) V7 load(1, XDATA, add(CFA_XSP16, literal(-15)))
        CFI (cfiCond256) V8 load(1, XDATA, add(CFA_XSP16, literal(-14)))
        CFI (cfiCond256) V9 load(1, XDATA, add(CFA_XSP16, literal(-13)))
        CFI (cfiCond256) V10 load(1, XDATA, add(CFA_XSP16, literal(-12)))
        CFI (cfiCond256) V11 load(1, XDATA, add(CFA_XSP16, literal(-11)))
        CFI (cfiCond256) V12 load(1, XDATA, add(CFA_XSP16, literal(-10)))
        CFI (cfiCond256) V13 load(1, XDATA, add(CFA_XSP16, literal(-9)))
        CFI (cfiCond256) V14 load(1, XDATA, add(CFA_XSP16, literal(-8)))
        CFI (cfiCond256) V15 load(1, XDATA, add(CFA_XSP16, literal(-7)))
        CFI (cfiCond256) R7 load(1, XDATA, add(CFA_XSP16, literal(-6)))
        CFI (cfiCond256) ?RET_LOW load(1, XDATA, add(CFA_XSP16, literal(-5)))
        CFI (cfiCond256) ?RET_HIGH load(1, XDATA, add(CFA_XSP16, literal(-4)))
        CFI (cfiCond256) ?BRET_EXT load(1, XDATA, add(CFA_XSP16, literal(-3)))
        CFI (cfiCond256) DPL0 load(1, XDATA, add(CFA_XSP16, literal(-2)))
        CFI (cfiCond256) DPH0 load(1, XDATA, add(CFA_XSP16, literal(-1)))
        CFI (cfiCond256) CFA_SP SP+0
        CFI (cfiCond256) CFA_XSP16 add(XSP16, 49)
        CFI Block cfiPicker257 Using cfiCommon1
        CFI (cfiPicker257) NoFunction
        CFI (cfiPicker257) Picker
        MOV     DPL,R4
        LCALL   ?Subroutine41 & 0xFFFF
??CrossCallReturnLabel_106:
        MOV     A,?V0 + 4
        CFI EndBlock cfiCond255
        CFI EndBlock cfiCond256
        CFI EndBlock cfiPicker257
        REQUIRE ??Subroutine54_0
        ; // Fall through to label ??Subroutine54_0

        RSEG BANKED_CODE:CODE:NOROOT(0)
??Subroutine54_0:
        CFI Block cfiCond258 Using cfiCommon0
        CFI NoFunction
        CFI Conditional ??CrossCallReturnLabel_145
        CFI R6 load(1, XDATA, add(CFA_XSP16, literal(-22)))
        CFI VB load(1, XDATA, add(CFA_XSP16, literal(-21)))
        CFI V0 load(1, XDATA, add(CFA_XSP16, literal(-20)))
        CFI V1 load(1, XDATA, add(CFA_XSP16, literal(-19)))
        CFI V2 load(1, XDATA, add(CFA_XSP16, literal(-18)))
        CFI V3 load(1, XDATA, add(CFA_XSP16, literal(-17)))
        CFI V4 load(1, XDATA, add(CFA_XSP16, literal(-16)))
        CFI V5 load(1, XDATA, add(CFA_XSP16, literal(-15)))
        CFI V6 load(1, XDATA, add(CFA_XSP16, literal(-14)))
        CFI V7 load(1, XDATA, add(CFA_XSP16, literal(-13)))
        CFI V8 load(1, XDATA, add(CFA_XSP16, literal(-12)))
        CFI V9 load(1, XDATA, add(CFA_XSP16, literal(-11)))
        CFI V10 load(1, XDATA, add(CFA_XSP16, literal(-10)))
        CFI V11 load(1, XDATA, add(CFA_XSP16, literal(-9)))
        CFI V12 load(1, XDATA, add(CFA_XSP16, literal(-8)))
        CFI V13 load(1, XDATA, add(CFA_XSP16, literal(-7)))
        CFI R7 load(1, XDATA, add(CFA_XSP16, literal(-6)))
        CFI ?RET_LOW load(1, XDATA, add(CFA_XSP16, literal(-5)))
        CFI ?RET_HIGH load(1, XDATA, add(CFA_XSP16, literal(-4)))
        CFI ?BRET_EXT load(1, XDATA, add(CFA_XSP16, literal(-3)))
        CFI DPL0 load(1, XDATA, add(CFA_XSP16, literal(-2)))
        CFI DPH0 load(1, XDATA, add(CFA_XSP16, literal(-1)))
        CFI CFA_SP SP+0
        CFI CFA_XSP16 add(XSP16, 37)
        CFI Block cfiCond259 Using cfiCommon0
        CFI (cfiCond259) NoFunction
        CFI (cfiCond259) Conditional ??CrossCallReturnLabel_143
        CFI (cfiCond259) R6 load(1, XDATA, add(CFA_XSP16, literal(-14)))
        CFI (cfiCond259) VB load(1, XDATA, add(CFA_XSP16, literal(-13)))
        CFI (cfiCond259) V0 load(1, XDATA, add(CFA_XSP16, literal(-12)))
        CFI (cfiCond259) V1 load(1, XDATA, add(CFA_XSP16, literal(-11)))
        CFI (cfiCond259) V2 load(1, XDATA, add(CFA_XSP16, literal(-10)))
        CFI (cfiCond259) V3 load(1, XDATA, add(CFA_XSP16, literal(-9)))
        CFI (cfiCond259) V4 load(1, XDATA, add(CFA_XSP16, literal(-8)))
        CFI (cfiCond259) V5 load(1, XDATA, add(CFA_XSP16, literal(-7)))
        CFI (cfiCond259) R7 load(1, XDATA, add(CFA_XSP16, literal(-6)))
        CFI (cfiCond259) ?RET_LOW load(1, XDATA, add(CFA_XSP16, literal(-5)))
        CFI (cfiCond259) ?RET_HIGH load(1, XDATA, add(CFA_XSP16, literal(-4)))
        CFI (cfiCond259) ?BRET_EXT load(1, XDATA, add(CFA_XSP16, literal(-3)))
        CFI (cfiCond259) DPL0 load(1, XDATA, add(CFA_XSP16, literal(-2)))
        CFI (cfiCond259) DPH0 load(1, XDATA, add(CFA_XSP16, literal(-1)))
        CFI (cfiCond259) CFA_SP SP+0
        CFI (cfiCond259) CFA_XSP16 add(XSP16, 14)
        CFI Block cfiCond260 Using cfiCommon0
        CFI (cfiCond260) NoFunction
        CFI (cfiCond260) Conditional ??CrossCallReturnLabel_144
        CFI (cfiCond260) R6 load(1, XDATA, add(CFA_XSP16, literal(-10)))
        CFI (cfiCond260) VB load(1, XDATA, add(CFA_XSP16, literal(-9)))
        CFI (cfiCond260) V0 load(1, XDATA, add(CFA_XSP16, literal(-8)))
        CFI (cfiCond260) V1 load(1, XDATA, add(CFA_XSP16, literal(-7)))
        CFI (cfiCond260) R7 load(1, XDATA, add(CFA_XSP16, literal(-6)))
        CFI (cfiCond260) ?RET_LOW load(1, XDATA, add(CFA_XSP16, literal(-5)))
        CFI (cfiCond260) ?RET_HIGH load(1, XDATA, add(CFA_XSP16, literal(-4)))
        CFI (cfiCond260) ?BRET_EXT load(1, XDATA, add(CFA_XSP16, literal(-3)))
        CFI (cfiCond260) DPL0 load(1, XDATA, add(CFA_XSP16, literal(-2)))
        CFI (cfiCond260) DPH0 load(1, XDATA, add(CFA_XSP16, literal(-1)))
        CFI (cfiCond260) CFA_SP SP+0
        CFI (cfiCond260) CFA_XSP16 add(XSP16, 18)
        CFI Block cfiCond261 Using cfiCommon0
        CFI (cfiCond261) NoFunction
        CFI (cfiCond261) Conditional ??CrossCallReturnLabel_146
        CFI (cfiCond261) R6 load(1, XDATA, add(CFA_XSP16, literal(-24)))
        CFI (cfiCond261) VB load(1, XDATA, add(CFA_XSP16, literal(-23)))
        CFI (cfiCond261) V0 load(1, XDATA, add(CFA_XSP16, literal(-22)))
        CFI (cfiCond261) V1 load(1, XDATA, add(CFA_XSP16, literal(-21)))
        CFI (cfiCond261) V2 load(1, XDATA, add(CFA_XSP16, literal(-20)))
        CFI (cfiCond261) V3 load(1, XDATA, add(CFA_XSP16, literal(-19)))
        CFI (cfiCond261) V4 load(1, XDATA, add(CFA_XSP16, literal(-18)))
        CFI (cfiCond261) V5 load(1, XDATA, add(CFA_XSP16, literal(-17)))
        CFI (cfiCond261) V6 load(1, XDATA, add(CFA_XSP16, literal(-16)))
        CFI (cfiCond261) V7 load(1, XDATA, add(CFA_XSP16, literal(-15)))
        CFI (cfiCond261) V8 load(1, XDATA, add(CFA_XSP16, literal(-14)))
        CFI (cfiCond261) V9 load(1, XDATA, add(CFA_XSP16, literal(-13)))
        CFI (cfiCond261) V10 load(1, XDATA, add(CFA_XSP16, literal(-12)))
        CFI (cfiCond261) V11 load(1, XDATA, add(CFA_XSP16, literal(-11)))
        CFI (cfiCond261) V12 load(1, XDATA, add(CFA_XSP16, literal(-10)))
        CFI (cfiCond261) V13 load(1, XDATA, add(CFA_XSP16, literal(-9)))
        CFI (cfiCond261) V14 load(1, XDATA, add(CFA_XSP16, literal(-8)))
        CFI (cfiCond261) V15 load(1, XDATA, add(CFA_XSP16, literal(-7)))
        CFI (cfiCond261) R7 load(1, XDATA, add(CFA_XSP16, literal(-6)))
        CFI (cfiCond261) ?RET_LOW load(1, XDATA, add(CFA_XSP16, literal(-5)))
        CFI (cfiCond261) ?RET_HIGH load(1, XDATA, add(CFA_XSP16, literal(-4)))
        CFI (cfiCond261) ?BRET_EXT load(1, XDATA, add(CFA_XSP16, literal(-3)))
        CFI (cfiCond261) DPL0 load(1, XDATA, add(CFA_XSP16, literal(-2)))
        CFI (cfiCond261) DPH0 load(1, XDATA, add(CFA_XSP16, literal(-1)))
        CFI (cfiCond261) CFA_SP SP+0
        CFI (cfiCond261) CFA_XSP16 add(XSP16, 40)
        CFI Block cfiCond262 Using cfiCommon0
        CFI (cfiCond262) NoFunction
        CFI (cfiCond262) Conditional ??CrossCallReturnLabel_147
        CFI (cfiCond262) R6 load(1, XDATA, add(CFA_XSP16, literal(-24)))
        CFI (cfiCond262) VB load(1, XDATA, add(CFA_XSP16, literal(-23)))
        CFI (cfiCond262) V0 load(1, XDATA, add(CFA_XSP16, literal(-22)))
        CFI (cfiCond262) V1 load(1, XDATA, add(CFA_XSP16, literal(-21)))
        CFI (cfiCond262) V2 load(1, XDATA, add(CFA_XSP16, literal(-20)))
        CFI (cfiCond262) V3 load(1, XDATA, add(CFA_XSP16, literal(-19)))
        CFI (cfiCond262) V4 load(1, XDATA, add(CFA_XSP16, literal(-18)))
        CFI (cfiCond262) V5 load(1, XDATA, add(CFA_XSP16, literal(-17)))
        CFI (cfiCond262) V6 load(1, XDATA, add(CFA_XSP16, literal(-16)))
        CFI (cfiCond262) V7 load(1, XDATA, add(CFA_XSP16, literal(-15)))
        CFI (cfiCond262) V8 load(1, XDATA, add(CFA_XSP16, literal(-14)))
        CFI (cfiCond262) V9 load(1, XDATA, add(CFA_XSP16, literal(-13)))
        CFI (cfiCond262) V10 load(1, XDATA, add(CFA_XSP16, literal(-12)))
        CFI (cfiCond262) V11 load(1, XDATA, add(CFA_XSP16, literal(-11)))
        CFI (cfiCond262) V12 load(1, XDATA, add(CFA_XSP16, literal(-10)))
        CFI (cfiCond262) V13 load(1, XDATA, add(CFA_XSP16, literal(-9)))
        CFI (cfiCond262) V14 load(1, XDATA, add(CFA_XSP16, literal(-8)))
        CFI (cfiCond262) V15 load(1, XDATA, add(CFA_XSP16, literal(-7)))
        CFI (cfiCond262) R7 load(1, XDATA, add(CFA_XSP16, literal(-6)))
        CFI (cfiCond262) ?RET_LOW load(1, XDATA, add(CFA_XSP16, literal(-5)))
        CFI (cfiCond262) ?RET_HIGH load(1, XDATA, add(CFA_XSP16, literal(-4)))
        CFI (cfiCond262) ?BRET_EXT load(1, XDATA, add(CFA_XSP16, literal(-3)))
        CFI (cfiCond262) DPL0 load(1, XDATA, add(CFA_XSP16, literal(-2)))
        CFI (cfiCond262) DPH0 load(1, XDATA, add(CFA_XSP16, literal(-1)))
        CFI (cfiCond262) CFA_SP SP+0
        CFI (cfiCond262) CFA_XSP16 add(XSP16, 49)
        CFI Block cfiPicker263 Using cfiCommon1
        CFI (cfiPicker263) NoFunction
        CFI (cfiPicker263) Picker
        MOVX    @DPTR,A
        MOV     A,R0
        LCALL   ?Subroutine42 & 0xFFFF
??CrossCallReturnLabel_149:
        RET
        CFI EndBlock cfiCond258
        CFI EndBlock cfiCond259
        CFI EndBlock cfiCond260
        CFI EndBlock cfiCond261
        CFI EndBlock cfiCond262
        CFI EndBlock cfiPicker263

        RSEG BANKED_CODE:CODE:NOROOT(0)
?Subroutine42:
        CFI Block cfiCond264 Using cfiCommon0
        CFI NoFunction
        CFI Conditional ??CrossCallReturnLabel_149, ??CrossCallReturnLabel_146
        CFI R6 load(1, XDATA, add(CFA_XSP16, literal(-24)))
        CFI VB load(1, XDATA, add(CFA_XSP16, literal(-23)))
        CFI V0 load(1, XDATA, add(CFA_XSP16, literal(-22)))
        CFI V1 load(1, XDATA, add(CFA_XSP16, literal(-21)))
        CFI V2 load(1, XDATA, add(CFA_XSP16, literal(-20)))
        CFI V3 load(1, XDATA, add(CFA_XSP16, literal(-19)))
        CFI V4 load(1, XDATA, add(CFA_XSP16, literal(-18)))
        CFI V5 load(1, XDATA, add(CFA_XSP16, literal(-17)))
        CFI V6 load(1, XDATA, add(CFA_XSP16, literal(-16)))
        CFI V7 load(1, XDATA, add(CFA_XSP16, literal(-15)))
        CFI V8 load(1, XDATA, add(CFA_XSP16, literal(-14)))
        CFI V9 load(1, XDATA, add(CFA_XSP16, literal(-13)))
        CFI V10 load(1, XDATA, add(CFA_XSP16, literal(-12)))
        CFI V11 load(1, XDATA, add(CFA_XSP16, literal(-11)))
        CFI V12 load(1, XDATA, add(CFA_XSP16, literal(-10)))
        CFI V13 load(1, XDATA, add(CFA_XSP16, literal(-9)))
        CFI V14 load(1, XDATA, add(CFA_XSP16, literal(-8)))
        CFI V15 load(1, XDATA, add(CFA_XSP16, literal(-7)))
        CFI R7 load(1, XDATA, add(CFA_XSP16, literal(-6)))
        CFI ?RET_LOW load(1, XDATA, add(CFA_XSP16, literal(-5)))
        CFI ?RET_HIGH load(1, XDATA, add(CFA_XSP16, literal(-4)))
        CFI ?BRET_EXT load(1, XDATA, add(CFA_XSP16, literal(-3)))
        CFI DPL0 load(1, XDATA, add(CFA_XSP16, literal(-2)))
        CFI DPH0 load(1, XDATA, add(CFA_XSP16, literal(-1)))
        CFI CFA_SP SP+0
        CFI CFA_XSP16 add(XSP16, 40)
        CFI Block cfiCond265 Using cfiCommon0
        CFI (cfiCond265) NoFunction
        CFI (cfiCond265) Conditional ??CrossCallReturnLabel_149, ??CrossCallReturnLabel_147
        CFI (cfiCond265) R6 load(1, XDATA, add(CFA_XSP16, literal(-24)))
        CFI (cfiCond265) VB load(1, XDATA, add(CFA_XSP16, literal(-23)))
        CFI (cfiCond265) V0 load(1, XDATA, add(CFA_XSP16, literal(-22)))
        CFI (cfiCond265) V1 load(1, XDATA, add(CFA_XSP16, literal(-21)))
        CFI (cfiCond265) V2 load(1, XDATA, add(CFA_XSP16, literal(-20)))
        CFI (cfiCond265) V3 load(1, XDATA, add(CFA_XSP16, literal(-19)))
        CFI (cfiCond265) V4 load(1, XDATA, add(CFA_XSP16, literal(-18)))
        CFI (cfiCond265) V5 load(1, XDATA, add(CFA_XSP16, literal(-17)))
        CFI (cfiCond265) V6 load(1, XDATA, add(CFA_XSP16, literal(-16)))
        CFI (cfiCond265) V7 load(1, XDATA, add(CFA_XSP16, literal(-15)))
        CFI (cfiCond265) V8 load(1, XDATA, add(CFA_XSP16, literal(-14)))
        CFI (cfiCond265) V9 load(1, XDATA, add(CFA_XSP16, literal(-13)))
        CFI (cfiCond265) V10 load(1, XDATA, add(CFA_XSP16, literal(-12)))
        CFI (cfiCond265) V11 load(1, XDATA, add(CFA_XSP16, literal(-11)))
        CFI (cfiCond265) V12 load(1, XDATA, add(CFA_XSP16, literal(-10)))
        CFI (cfiCond265) V13 load(1, XDATA, add(CFA_XSP16, literal(-9)))
        CFI (cfiCond265) V14 load(1, XDATA, add(CFA_XSP16, literal(-8)))
        CFI (cfiCond265) V15 load(1, XDATA, add(CFA_XSP16, literal(-7)))
        CFI (cfiCond265) R7 load(1, XDATA, add(CFA_XSP16, literal(-6)))
        CFI (cfiCond265) ?RET_LOW load(1, XDATA, add(CFA_XSP16, literal(-5)))
        CFI (cfiCond265) ?RET_HIGH load(1, XDATA, add(CFA_XSP16, literal(-4)))
        CFI (cfiCond265) ?BRET_EXT load(1, XDATA, add(CFA_XSP16, literal(-3)))
        CFI (cfiCond265) DPL0 load(1, XDATA, add(CFA_XSP16, literal(-2)))
        CFI (cfiCond265) DPH0 load(1, XDATA, add(CFA_XSP16, literal(-1)))
        CFI (cfiCond265) CFA_SP SP+0
        CFI (cfiCond265) CFA_XSP16 add(XSP16, 49)
        CFI Block cfiCond266 Using cfiCommon0
        CFI (cfiCond266) NoFunction
        CFI (cfiCond266) Conditional ??CrossCallReturnLabel_149, ??CrossCallReturnLabel_145
        CFI (cfiCond266) R6 load(1, XDATA, add(CFA_XSP16, literal(-22)))
        CFI (cfiCond266) VB load(1, XDATA, add(CFA_XSP16, literal(-21)))
        CFI (cfiCond266) V0 load(1, XDATA, add(CFA_XSP16, literal(-20)))
        CFI (cfiCond266) V1 load(1, XDATA, add(CFA_XSP16, literal(-19)))
        CFI (cfiCond266) V2 load(1, XDATA, add(CFA_XSP16, literal(-18)))
        CFI (cfiCond266) V3 load(1, XDATA, add(CFA_XSP16, literal(-17)))
        CFI (cfiCond266) V4 load(1, XDATA, add(CFA_XSP16, literal(-16)))
        CFI (cfiCond266) V5 load(1, XDATA, add(CFA_XSP16, literal(-15)))
        CFI (cfiCond266) V6 load(1, XDATA, add(CFA_XSP16, literal(-14)))
        CFI (cfiCond266) V7 load(1, XDATA, add(CFA_XSP16, literal(-13)))
        CFI (cfiCond266) V8 load(1, XDATA, add(CFA_XSP16, literal(-12)))
        CFI (cfiCond266) V9 load(1, XDATA, add(CFA_XSP16, literal(-11)))
        CFI (cfiCond266) V10 load(1, XDATA, add(CFA_XSP16, literal(-10)))
        CFI (cfiCond266) V11 load(1, XDATA, add(CFA_XSP16, literal(-9)))
        CFI (cfiCond266) V12 load(1, XDATA, add(CFA_XSP16, literal(-8)))
        CFI (cfiCond266) V13 load(1, XDATA, add(CFA_XSP16, literal(-7)))
        CFI (cfiCond266) R7 load(1, XDATA, add(CFA_XSP16, literal(-6)))
        CFI (cfiCond266) ?RET_LOW load(1, XDATA, add(CFA_XSP16, literal(-5)))
        CFI (cfiCond266) ?RET_HIGH load(1, XDATA, add(CFA_XSP16, literal(-4)))
        CFI (cfiCond266) ?BRET_EXT load(1, XDATA, add(CFA_XSP16, literal(-3)))
        CFI (cfiCond266) DPL0 load(1, XDATA, add(CFA_XSP16, literal(-2)))
        CFI (cfiCond266) DPH0 load(1, XDATA, add(CFA_XSP16, literal(-1)))
        CFI (cfiCond266) CFA_SP SP+0
        CFI (cfiCond266) CFA_XSP16 add(XSP16, 37)
        CFI Block cfiCond267 Using cfiCommon0
        CFI (cfiCond267) NoFunction
        CFI (cfiCond267) Conditional ??CrossCallReturnLabel_149, ??CrossCallReturnLabel_143
        CFI (cfiCond267) R6 load(1, XDATA, add(CFA_XSP16, literal(-14)))
        CFI (cfiCond267) VB load(1, XDATA, add(CFA_XSP16, literal(-13)))
        CFI (cfiCond267) V0 load(1, XDATA, add(CFA_XSP16, literal(-12)))
        CFI (cfiCond267) V1 load(1, XDATA, add(CFA_XSP16, literal(-11)))
        CFI (cfiCond267) V2 load(1, XDATA, add(CFA_XSP16, literal(-10)))
        CFI (cfiCond267) V3 load(1, XDATA, add(CFA_XSP16, literal(-9)))
        CFI (cfiCond267) V4 load(1, XDATA, add(CFA_XSP16, literal(-8)))
        CFI (cfiCond267) V5 load(1, XDATA, add(CFA_XSP16, literal(-7)))
        CFI (cfiCond267) R7 load(1, XDATA, add(CFA_XSP16, literal(-6)))
        CFI (cfiCond267) ?RET_LOW load(1, XDATA, add(CFA_XSP16, literal(-5)))
        CFI (cfiCond267) ?RET_HIGH load(1, XDATA, add(CFA_XSP16, literal(-4)))
        CFI (cfiCond267) ?BRET_EXT load(1, XDATA, add(CFA_XSP16, literal(-3)))
        CFI (cfiCond267) DPL0 load(1, XDATA, add(CFA_XSP16, literal(-2)))
        CFI (cfiCond267) DPH0 load(1, XDATA, add(CFA_XSP16, literal(-1)))
        CFI (cfiCond267) CFA_SP SP+0
        CFI (cfiCond267) CFA_XSP16 add(XSP16, 14)
        CFI Block cfiCond268 Using cfiCommon0
        CFI (cfiCond268) NoFunction
        CFI (cfiCond268) Conditional ??CrossCallReturnLabel_149, ??CrossCallReturnLabel_144
        CFI (cfiCond268) R6 load(1, XDATA, add(CFA_XSP16, literal(-10)))
        CFI (cfiCond268) VB load(1, XDATA, add(CFA_XSP16, literal(-9)))
        CFI (cfiCond268) V0 load(1, XDATA, add(CFA_XSP16, literal(-8)))
        CFI (cfiCond268) V1 load(1, XDATA, add(CFA_XSP16, literal(-7)))
        CFI (cfiCond268) R7 load(1, XDATA, add(CFA_XSP16, literal(-6)))
        CFI (cfiCond268) ?RET_LOW load(1, XDATA, add(CFA_XSP16, literal(-5)))
        CFI (cfiCond268) ?RET_HIGH load(1, XDATA, add(CFA_XSP16, literal(-4)))
        CFI (cfiCond268) ?BRET_EXT load(1, XDATA, add(CFA_XSP16, literal(-3)))
        CFI (cfiCond268) DPL0 load(1, XDATA, add(CFA_XSP16, literal(-2)))
        CFI (cfiCond268) DPH0 load(1, XDATA, add(CFA_XSP16, literal(-1)))
        CFI (cfiCond268) CFA_SP SP+0
        CFI (cfiCond268) CFA_XSP16 add(XSP16, 18)
        CFI Block cfiCond269 Using cfiCommon0
        CFI (cfiCond269) NoFunction
        CFI (cfiCond269) Conditional ??CrossCallReturnLabel_148
        CFI (cfiCond269) R6 load(1, XDATA, add(CFA_XSP16, literal(-14)))
        CFI (cfiCond269) VB load(1, XDATA, add(CFA_XSP16, literal(-13)))
        CFI (cfiCond269) V0 load(1, XDATA, add(CFA_XSP16, literal(-12)))
        CFI (cfiCond269) V1 load(1, XDATA, add(CFA_XSP16, literal(-11)))
        CFI (cfiCond269) V2 load(1, XDATA, add(CFA_XSP16, literal(-10)))
        CFI (cfiCond269) V3 load(1, XDATA, add(CFA_XSP16, literal(-9)))
        CFI (cfiCond269) V4 load(1, XDATA, add(CFA_XSP16, literal(-8)))
        CFI (cfiCond269) V5 load(1, XDATA, add(CFA_XSP16, literal(-7)))
        CFI (cfiCond269) R7 load(1, XDATA, add(CFA_XSP16, literal(-6)))
        CFI (cfiCond269) ?RET_LOW load(1, XDATA, add(CFA_XSP16, literal(-5)))
        CFI (cfiCond269) ?RET_HIGH load(1, XDATA, add(CFA_XSP16, literal(-4)))
        CFI (cfiCond269) ?BRET_EXT load(1, XDATA, add(CFA_XSP16, literal(-3)))
        CFI (cfiCond269) DPL0 load(1, XDATA, add(CFA_XSP16, literal(-2)))
        CFI (cfiCond269) DPH0 load(1, XDATA, add(CFA_XSP16, literal(-1)))
        CFI (cfiCond269) CFA_SP SP+0
        CFI (cfiCond269) CFA_XSP16 add(XSP16, 16)
        CFI Block cfiPicker270 Using cfiCommon1
        CFI (cfiPicker270) NoFunction
        CFI (cfiPicker270) Picker
        CLR     C
        RLC     A
        MOV     R0,A
        CLR     A
        RLC     A
        MOV     R1,A
        MOV     A,#hotOff & 0xff
        ADD     A,R0
        MOV     DPL,A
        MOV     A,#(hotOff >> 8) & 0xff
        ADDC    A,R1
        MOV     DPH,A
        RET
        CFI EndBlock cfiCond264
        CFI EndBlock cfiCond265
        CFI EndBlock cfiCond266
        CFI EndBlock cfiCond267
        CFI EndBlock cfiCond268
        CFI EndBlock cfiCond269
        CFI EndBlock cfiPicker270
// 1268 
// 1269 /*********************************************************************
// 1270  * @fn      osal_nv_write
// 1271  *
// 1272  * @brief   Write a data item to NV. Function can write an entire item to NV or
// 1273  *          an element of an item by indexing into the item with an offset.
// 1274  *
// 1275  * @param   id  - Valid NV item Id.
// 1276  * @param   ndx - Index offset into item
// 1277  * @param   len - Length of data to write.
// 1278  * @param  *buf - Data to write.
// 1279  *
// 1280  * @return  SUCCESS if successful, NV_ITEM_UNINIT if item did not
// 1281  *          exist in NV and offset is non-zero, NV_OPER_FAILED if failure.
// 1282  */

        RSEG BANKED_CODE:CODE:NOROOT(0)
// 1283 uint8 osal_nv_write( uint16 id, uint16 ndx, uint16 len, void *buf )
osal_nv_write:
        CFI Block cfiBlock271 Using cfiCommon0
        CFI Function osal_nv_write
        CODE
// 1284 {
        FUNCALL osal_nv_write, HalAdcCheckVdd
        LOCFRAME ISTACK, 0, STACK
        LOCFRAME PSTACK, 0, STACK
        LOCFRAME XSTACK, 49, STACK
        LOCFRAME IOVERLAY, 0, STATIC
        LOCFRAME DOVERLAY, 0, STATIC
        ARGFRAME ISTACK, 0, STACK
        ARGFRAME PSTACK, 0, STACK
        ARGFRAME XSTACK, 49, STACK
        ARGFRAME IOVERLAY, 0, STATIC
        ARGFRAME DOVERLAY, 0, STATIC
        FUNCALL osal_nv_write, findItem
        LOCFRAME ISTACK, 0, STACK
        LOCFRAME PSTACK, 0, STACK
        LOCFRAME XSTACK, 49, STACK
        LOCFRAME IOVERLAY, 0, STATIC
        LOCFRAME DOVERLAY, 0, STATIC
        ARGFRAME ISTACK, 0, STACK
        ARGFRAME PSTACK, 0, STACK
        ARGFRAME XSTACK, 49, STACK
        ARGFRAME IOVERLAY, 0, STATIC
        ARGFRAME DOVERLAY, 0, STATIC
        FUNCALL osal_nv_write, HalFlashRead
        LOCFRAME ISTACK, 0, STACK
        LOCFRAME PSTACK, 0, STACK
        LOCFRAME XSTACK, 51, STACK
        LOCFRAME IOVERLAY, 0, STATIC
        LOCFRAME DOVERLAY, 0, STATIC
        ARGFRAME ISTACK, 0, STACK
        ARGFRAME PSTACK, 0, STACK
        ARGFRAME XSTACK, 51, STACK
        ARGFRAME IOVERLAY, 0, STATIC
        ARGFRAME DOVERLAY, 0, STATIC
        FUNCALL osal_nv_write, HalFlashRead
        LOCFRAME ISTACK, 0, STACK
        LOCFRAME PSTACK, 0, STACK
        LOCFRAME XSTACK, 51, STACK
        LOCFRAME IOVERLAY, 0, STATIC
        LOCFRAME DOVERLAY, 0, STATIC
        ARGFRAME ISTACK, 0, STACK
        ARGFRAME PSTACK, 0, STACK
        ARGFRAME XSTACK, 51, STACK
        ARGFRAME IOVERLAY, 0, STATIC
        ARGFRAME DOVERLAY, 0, STATIC
        FUNCALL osal_nv_write, initItem
        LOCFRAME ISTACK, 0, STACK
        LOCFRAME PSTACK, 0, STACK
        LOCFRAME XSTACK, 51, STACK
        LOCFRAME IOVERLAY, 0, STATIC
        LOCFRAME DOVERLAY, 0, STATIC
        ARGFRAME ISTACK, 0, STACK
        ARGFRAME PSTACK, 0, STACK
        ARGFRAME XSTACK, 51, STACK
        ARGFRAME IOVERLAY, 0, STATIC
        ARGFRAME DOVERLAY, 0, STATIC
        FUNCALL osal_nv_write, setItem
        LOCFRAME ISTACK, 0, STACK
        LOCFRAME PSTACK, 0, STACK
        LOCFRAME XSTACK, 49, STACK
        LOCFRAME IOVERLAY, 0, STATIC
        LOCFRAME DOVERLAY, 0, STATIC
        ARGFRAME ISTACK, 0, STACK
        ARGFRAME PSTACK, 0, STACK
        ARGFRAME XSTACK, 49, STACK
        ARGFRAME IOVERLAY, 0, STATIC
        ARGFRAME DOVERLAY, 0, STATIC
        FUNCALL osal_nv_write, xferBuf
        LOCFRAME ISTACK, 0, STACK
        LOCFRAME PSTACK, 0, STACK
        LOCFRAME XSTACK, 53, STACK
        LOCFRAME IOVERLAY, 0, STATIC
        LOCFRAME DOVERLAY, 0, STATIC
        ARGFRAME ISTACK, 0, STACK
        ARGFRAME PSTACK, 0, STACK
        ARGFRAME XSTACK, 53, STACK
        ARGFRAME IOVERLAY, 0, STATIC
        ARGFRAME DOVERLAY, 0, STATIC
        FUNCALL osal_nv_write, writeBuf
        LOCFRAME ISTACK, 0, STACK
        LOCFRAME PSTACK, 0, STACK
        LOCFRAME XSTACK, 51, STACK
        LOCFRAME IOVERLAY, 0, STATIC
        LOCFRAME DOVERLAY, 0, STATIC
        ARGFRAME ISTACK, 0, STACK
        ARGFRAME PSTACK, 0, STACK
        ARGFRAME XSTACK, 51, STACK
        ARGFRAME IOVERLAY, 0, STATIC
        ARGFRAME DOVERLAY, 0, STATIC
        FUNCALL osal_nv_write, xferBuf
        LOCFRAME ISTACK, 0, STACK
        LOCFRAME PSTACK, 0, STACK
        LOCFRAME XSTACK, 53, STACK
        LOCFRAME IOVERLAY, 0, STATIC
        LOCFRAME DOVERLAY, 0, STATIC
        ARGFRAME ISTACK, 0, STACK
        ARGFRAME PSTACK, 0, STACK
        ARGFRAME XSTACK, 53, STACK
        ARGFRAME IOVERLAY, 0, STATIC
        ARGFRAME DOVERLAY, 0, STATIC
        FUNCALL osal_nv_write, calcChkF
        LOCFRAME ISTACK, 0, STACK
        LOCFRAME PSTACK, 0, STACK
        LOCFRAME XSTACK, 49, STACK
        LOCFRAME IOVERLAY, 0, STATIC
        LOCFRAME DOVERLAY, 0, STATIC
        ARGFRAME ISTACK, 0, STACK
        ARGFRAME PSTACK, 0, STACK
        ARGFRAME XSTACK, 49, STACK
        ARGFRAME IOVERLAY, 0, STATIC
        ARGFRAME DOVERLAY, 0, STATIC
        FUNCALL osal_nv_write, HalFlashWrite
        LOCFRAME ISTACK, 0, STACK
        LOCFRAME PSTACK, 0, STACK
        LOCFRAME XSTACK, 51, STACK
        LOCFRAME IOVERLAY, 0, STATIC
        LOCFRAME DOVERLAY, 0, STATIC
        ARGFRAME ISTACK, 0, STACK
        ARGFRAME PSTACK, 0, STACK
        ARGFRAME XSTACK, 51, STACK
        ARGFRAME IOVERLAY, 0, STATIC
        ARGFRAME DOVERLAY, 0, STATIC
        FUNCALL osal_nv_write, HalFlashRead
        LOCFRAME ISTACK, 0, STACK
        LOCFRAME PSTACK, 0, STACK
        LOCFRAME XSTACK, 51, STACK
        LOCFRAME IOVERLAY, 0, STATIC
        LOCFRAME DOVERLAY, 0, STATIC
        ARGFRAME ISTACK, 0, STACK
        ARGFRAME PSTACK, 0, STACK
        ARGFRAME XSTACK, 51, STACK
        ARGFRAME IOVERLAY, 0, STATIC
        ARGFRAME DOVERLAY, 0, STATIC
        FUNCALL osal_nv_write, erasePage
        LOCFRAME ISTACK, 0, STACK
        LOCFRAME PSTACK, 0, STACK
        LOCFRAME XSTACK, 49, STACK
        LOCFRAME IOVERLAY, 0, STATIC
        LOCFRAME DOVERLAY, 0, STATIC
        ARGFRAME ISTACK, 0, STACK
        ARGFRAME PSTACK, 0, STACK
        ARGFRAME XSTACK, 49, STACK
        ARGFRAME IOVERLAY, 0, STATIC
        ARGFRAME DOVERLAY, 0, STATIC
        FUNCALL osal_nv_write, HalFlashWrite
        LOCFRAME ISTACK, 0, STACK
        LOCFRAME PSTACK, 0, STACK
        LOCFRAME XSTACK, 51, STACK
        LOCFRAME IOVERLAY, 0, STATIC
        LOCFRAME DOVERLAY, 0, STATIC
        ARGFRAME ISTACK, 0, STACK
        ARGFRAME PSTACK, 0, STACK
        ARGFRAME XSTACK, 51, STACK
        ARGFRAME IOVERLAY, 0, STATIC
        ARGFRAME DOVERLAY, 0, STATIC
        FUNCALL osal_nv_write, erasePage
        LOCFRAME ISTACK, 0, STACK
        LOCFRAME PSTACK, 0, STACK
        LOCFRAME XSTACK, 49, STACK
        LOCFRAME IOVERLAY, 0, STATIC
        LOCFRAME DOVERLAY, 0, STATIC
        ARGFRAME ISTACK, 0, STACK
        ARGFRAME PSTACK, 0, STACK
        ARGFRAME XSTACK, 49, STACK
        ARGFRAME IOVERLAY, 0, STATIC
        ARGFRAME DOVERLAY, 0, STATIC
        FUNCALL osal_nv_write, setItem
        LOCFRAME ISTACK, 0, STACK
        LOCFRAME PSTACK, 0, STACK
        LOCFRAME XSTACK, 49, STACK
        LOCFRAME IOVERLAY, 0, STATIC
        LOCFRAME DOVERLAY, 0, STATIC
        ARGFRAME ISTACK, 0, STACK
        ARGFRAME PSTACK, 0, STACK
        ARGFRAME XSTACK, 49, STACK
        ARGFRAME IOVERLAY, 0, STATIC
        ARGFRAME DOVERLAY, 0, STATIC
        MOV     A,#-0x18
        LCALL   ?BANKED_ENTER_XDATA
        CFI DPH0 load(1, XDATA, add(CFA_XSP16, literal(-1)))
        CFI DPL0 load(1, XDATA, add(CFA_XSP16, literal(-2)))
        CFI ?BRET_EXT load(1, XDATA, add(CFA_XSP16, literal(-3)))
        CFI ?RET_HIGH load(1, XDATA, add(CFA_XSP16, literal(-4)))
        CFI ?RET_LOW load(1, XDATA, add(CFA_XSP16, literal(-5)))
        CFI R7 load(1, XDATA, add(CFA_XSP16, literal(-6)))
        CFI V15 load(1, XDATA, add(CFA_XSP16, literal(-7)))
        CFI V14 load(1, XDATA, add(CFA_XSP16, literal(-8)))
        CFI V13 load(1, XDATA, add(CFA_XSP16, literal(-9)))
        CFI V12 load(1, XDATA, add(CFA_XSP16, literal(-10)))
        CFI V11 load(1, XDATA, add(CFA_XSP16, literal(-11)))
        CFI V10 load(1, XDATA, add(CFA_XSP16, literal(-12)))
        CFI V9 load(1, XDATA, add(CFA_XSP16, literal(-13)))
        CFI V8 load(1, XDATA, add(CFA_XSP16, literal(-14)))
        CFI V7 load(1, XDATA, add(CFA_XSP16, literal(-15)))
        CFI V6 load(1, XDATA, add(CFA_XSP16, literal(-16)))
        CFI V5 load(1, XDATA, add(CFA_XSP16, literal(-17)))
        CFI V4 load(1, XDATA, add(CFA_XSP16, literal(-18)))
        CFI V3 load(1, XDATA, add(CFA_XSP16, literal(-19)))
        CFI V2 load(1, XDATA, add(CFA_XSP16, literal(-20)))
        CFI V1 load(1, XDATA, add(CFA_XSP16, literal(-21)))
        CFI V0 load(1, XDATA, add(CFA_XSP16, literal(-22)))
        CFI VB load(1, XDATA, add(CFA_XSP16, literal(-23)))
        CFI R6 load(1, XDATA, add(CFA_XSP16, literal(-24)))
        CFI CFA_SP SP+0
        CFI CFA_XSP16 add(XSP16, 24)
        ; Saved register size: 24
        ; Auto size: 25
        MOV     A,#-0x19
        LCALL   ?ALLOC_XSTACK8
        CFI CFA_XSP16 add(XSP16, 49)
        MOV     ?V0 + 14,R2
        MOV     ?V0 + 15,R3
        MOV     ?V0 + 2,R4
        MOV     ?V0 + 3,R5
        MOV     A,#0x31
        LCALL   ?XSTACK_DISP0_8
        MOVX    A,@DPTR
        MOV     ?V0 + 10,A
        INC     DPTR
        MOVX    A,@DPTR
        MOV     ?V0 + 11,A
// 1285   uint8 rtrn = SUCCESS;
        MOV     ?V0 + 9,#0x0
// 1286 
// 1287   if ( !OSAL_NV_CHECK_BUS_VOLTAGE )
        ; Setup parameters for call to function HalAdcCheckVdd
        MOV     R1,#0x4e
        LCALL   ??HalAdcCheckVdd?relay
        MOV     A,R1
        JNZ     ??osal_nv_write_0
// 1288   {
// 1289     return NV_OPER_FAILED;
??osal_nv_write_1:
        MOV     R1,#0xa
        LJMP    ??osal_nv_write_2 & 0xFFFF
// 1290   }
// 1291   else if ( len != 0 )
??osal_nv_write_0:
        MOV     A,?V0 + 10
        ORL     A,?V0 + 11
        JNZ     $+5
        LJMP    ??CrossCallReturnLabel_21 & 0xFFFF
// 1292   {
// 1293     osalNvHdr_t hdr;
// 1294     uint16 origOff, srcOff;
// 1295     uint16 cnt, chk;
// 1296     uint8 *ptr, srcPg;
// 1297 
// 1298     origOff = srcOff = findItem( id );
        ; Setup parameters for call to function findItem
        MOV     R2,?V0 + 14
        MOV     R3,?V0 + 15
        LCALL   ??findItem?relay
        MOV     ?V0 + 0,R2
        MOV     ?V0 + 1,R3
        MOV     R0,?V0 + 0
        MOV     R1,?V0 + 1
        MOV     A,R0
        MOV     R6,A
        MOV     A,R1
        MOV     R7,A
        MOV     A,#0x3
        LCALL   ?XSTACK_DISP0_8
        MOV     A,R0
        MOVX    @DPTR,A
        INC     DPTR
        MOV     A,R1
        MOVX    @DPTR,A
// 1299     srcPg = findPg;
        MOV     DPTR,#findPg
        MOVX    A,@DPTR
        MOV     ?V0 + 8,A
// 1300     if ( srcOff == OSAL_NV_ITEM_NULL )
        MOV     A,R6
        ORL     A,R7
        JNZ     ??osal_nv_write_3
// 1301     {
// 1302       return NV_ITEM_UNINIT;
        MOV     R1,#0x9
        LJMP    ??osal_nv_write_2 & 0xFFFF
// 1303     }
// 1304 
// 1305     HalFlashRead(srcPg, (srcOff - OSAL_NV_HDR_SIZE), (uint8 *)(&hdr), OSAL_NV_HDR_SIZE);
??osal_nv_write_3:
        ; Setup parameters for call to function HalFlashRead
        MOV     ?V0 + 0,#0x8
        MOV     ?V0 + 1,#0x0
        MOV     R0,#?V0 + 0
        LCALL   ?PUSH_XSTACK_I_TWO
        CFI CFA_XSP16 add(XSP16, 51)
        MOV     A,#0x7
        LCALL   ?XSTACK_DISP0_8
        MOV     R4,DPL
        MOV     R5,DPH
        MOV     A,R6
        ADD     A,#-0x8
        MOV     R2,A
        MOV     A,R7
        ADDC    A,#-0x1
        MOV     R3,A
        LCALL   ??Subroutine50_0 & 0xFFFF
??CrossCallReturnLabel_119:
        LCALL   ?DEALLOC_XSTACK8
        CFI CFA_XSP16 add(XSP16, 49)
// 1306     if ( hdr.len < (ndx + len) )
        MOV     A,#0x7
        LCALL   ?XSTACK_DISP0_8
        MOV     A,?V0 + 2
        ADD     A,?V0 + 10
        MOV     R0,A
        MOV     A,?V0 + 3
        ADDC    A,?V0 + 11
        MOV     R1,A
        CLR     C
        MOVX    A,@DPTR
        SUBB    A,R0
        INC     DPTR
        MOVX    A,@DPTR
        SUBB    A,R1
        JC      ??osal_nv_write_1
// 1307     {
// 1308       return NV_OPER_FAILED;
// 1309     }
// 1310 
// 1311     srcOff += ndx;
        LCALL   ?Subroutine37 & 0xFFFF
// 1312     ptr = buf;
??CrossCallReturnLabel_70:
        LCALL   ?XSTACK_DISP0_8
        LCALL   ?Subroutine16 & 0xFFFF
// 1313     cnt = len;
??CrossCallReturnLabel_23:
        MOV     ?V0 + 6,?V0 + 10
        MOV     ?V0 + 7,?V0 + 11
// 1314     chk = 0;
        MOV     ?V0 + 0,#0x0
??osal_nv_write_4:
        MOV     A,?V0 + 6
        ADD     A,#-0x1
        MOV     ?V0 + 6,A
        MOV     A,?V0 + 7
        ADDC    A,#-0x1
        MOV     ?V0 + 7,A
// 1315     while ( cnt-- )
// 1316     {
// 1317       uint8 tmp;
// 1318       HalFlashRead(srcPg, srcOff, &tmp, 1);
        ; Setup parameters for call to function HalFlashRead
        MOV     ?V0 + 12,#0x1
        MOV     ?V0 + 13,#0x0
        MOV     R0,#?V0 + 12
        LCALL   ?PUSH_XSTACK_I_TWO
        CFI CFA_XSP16 add(XSP16, 51)
        MOV     A,#0x2
        LCALL   ?XSTACK_DISP0_8
        MOV     R4,DPL
        MOV     R5,DPH
        MOV     A,R6
        MOV     R2,A
        MOV     A,R7
        MOV     R3,A
        LCALL   ??Subroutine50_0 & 0xFFFF
??CrossCallReturnLabel_120:
        LCALL   ?DEALLOC_XSTACK8
        CFI CFA_XSP16 add(XSP16, 49)
// 1319       if ( tmp != *ptr )
        MOV     DPL,?XSP + 0
        MOV     DPH,?XSP + 1
        MOVX    A,@DPTR
        MOV     R0,A
        MOV     DPL,?V0 + 4
        MOV     DPH,?V0 + 5
        MOVX    A,@DPTR
        XRL     A,R0
        JZ      ??osal_nv_write_5
// 1320       {
// 1321         chk = 1;  // Mark that at least one byte is different.
        MOV     ?V0 + 0,#0x1
// 1322         // Calculate expected checksum after transferring old data and writing new data.
// 1323         hdr.chk -= tmp;
        MOV     A,#0x9
        LCALL   ?XSTACK_DISP0_8
        CLR     C
        MOVX    A,@DPTR
        SUBB    A,R0
        MOVX    @DPTR,A
        INC     DPTR
        MOVX    A,@DPTR
        SUBB    A,#0x0
        MOVX    @DPTR,A
// 1324         hdr.chk += *ptr;
        MOV     DPL,?V0 + 4
        MOV     DPH,?V0 + 5
        MOVX    A,@DPTR
        MOV     R0,A
        MOV     A,#0x9
        LCALL   ?XSTACK_DISP0_8
        MOVX    A,@DPTR
        ADD     A,R0
        MOVX    @DPTR,A
        INC     DPTR
        MOVX    A,@DPTR
        ADDC    A,#0x0
        MOVX    @DPTR,A
// 1325       }
// 1326       srcOff++;
??osal_nv_write_5:
        MOV     A,R6
        ADD     A,#0x1
        INC     R6
        MOV     A,R7
        ADDC    A,#0x0
        MOV     R7,A
// 1327       ptr++;
        MOV     DPL,?V0 + 4
        MOV     DPH,?V0 + 5
        INC     DPTR
        MOV     ?V0 + 4,DPL
        MOV     ?V0 + 5,DPH
        MOV     A,?V0 + 6
        ORL     A,?V0 + 7
        JNZ     ??osal_nv_write_4
// 1328     }
// 1329 
// 1330     if ( chk != 0 )  // If the buffer to write is different in one or more bytes.
        MOV     A,?V0 + 0
        MOV     C,0xE0 /* A   */.0
        JC      $+5
        LJMP    ??CrossCallReturnLabel_21 & 0xFFFF
// 1331     {
// 1332       uint8 comPg = OSAL_NV_PAGE_NULL;
        MOV     DPL,?XSP + 0
        MOV     DPH,?XSP + 1
        CLR     A
        MOVX    @DPTR,A
// 1333       uint8 dstPg = initItem( FALSE, id, hdr.len, &comPg );
        ; Setup parameters for call to function initItem
        MOV     ?V0 + 0,DPL
        MOV     ?V0 + 1,DPH
        MOV     R0,#?V0 + 0
        LCALL   ?PUSH_XSTACK_I_TWO
        CFI CFA_XSP16 add(XSP16, 51)
        MOV     A,#0x9
        LCALL   ?XSTACK_DISP0_8
        LCALL   ?Subroutine12 & 0xFFFF
??CrossCallReturnLabel_13:
        MOV     R2,?V0 + 14
        MOV     R3,?V0 + 15
        MOV     R1,#0x0
        LCALL   ??initItem?relay
        MOV     A,#0x2
        LCALL   ?DEALLOC_XSTACK8
        CFI CFA_XSP16 add(XSP16, 49)
        MOV     A,R1
        MOV     ?V0 + 4,A
// 1334 
// 1335       if ( dstPg != OSAL_NV_PAGE_NULL )
        JNZ     $+5
        LJMP    ??osal_nv_write_6 & 0xFFFF
// 1336       {
// 1337         uint16 tmp = OSAL_NV_DATA_SIZE( hdr.len );
        MOV     A,#0x7
        LCALL   ?XSTACK_DISP0_8
        LCALL   ?Subroutine25 & 0xFFFF
??CrossCallReturnLabel_47:
        CLR     C
        MOV     A,R0
        SUBB    A,#-0x4
        MOV     A,R1
        SUBB    A,#-0x1
        JC      ??osal_nv_write_7
        MOV     ?V0 + 0,#-0x4
        MOV     ?V0 + 1,#-0x1
        SJMP    ??osal_nv_write_8
??osal_nv_write_7:
        MOV     A,R0
        ADD     A,#0x3
        INC     R0
        INC     R0
        INC     R0
        MOV     A,R1
        LCALL   ?Subroutine40 & 0xFFFF
??CrossCallReturnLabel_140:
        MOV     ?V0 + 0,A
        MOV     A,R1
        MOV     ?V0 + 1,A
// 1338         uint16 dstOff = pgOff[dstPg-OSAL_NV_PAGE_BEG] - tmp;
??osal_nv_write_8:
        MOV     A,?V0 + 4
        CLR     C
        RLC     A
        MOV     R0,A
        CLR     A
        RLC     A
        MOV     R1,A
        MOV     A,#(pgOff + 14) & 0xff
        ADD     A,R0
        MOV     ?V0 + 12,A
        MOV     A,#((pgOff - 242) >> 8) & 0xff
        ADDC    A,R1
        MOV     ?V0 + 13,A
        MOV     DPL,?V0 + 12
        MOV     DPH,A
        LCALL   ?Subroutine20 & 0xFFFF
// 1339         srcOff = origOff;
// 1340 
// 1341         /* Prevent excessive re-writes to item header caused by numerous, rapid, & successive
// 1342          * OSAL_Nv interruptions caused by resets.
// 1343          */
// 1344         if ( hdr.stat == OSAL_NV_ERASED_ID )
??CrossCallReturnLabel_27:
        MOV     A,#0xb
        LCALL   ?XSTACK_DISP0_8
        MOVX    A,@DPTR
        CPL     A
        JNZ     ??osal_nv_write_9
        INC     DPTR
        MOVX    A,@DPTR
        CPL     A
??osal_nv_write_9:
        JNZ     ??CrossCallReturnLabel_20
// 1345         {
// 1346           setItem( srcPg, srcOff, eNvXfer );
        ; Setup parameters for call to function setItem
        MOV     R4,#0x0
        MOV     A,#0x3
        LCALL   ?XSTACK_DISP0_8
        LCALL   ?Subroutine15 & 0xFFFF
// 1347         }
// 1348 
// 1349         xferBuf( srcPg, srcOff, dstPg, dstOff, ndx );
??CrossCallReturnLabel_20:
        ; Setup parameters for call to function xferBuf
        MOV     R0,#?V0 + 2
        LCALL   ?PUSH_XSTACK_I_TWO
        CFI CFA_XSP16 add(XSP16, 51)
        MOV     ?V0 + 6,R6
        MOV     ?V0 + 7,R7
        MOV     R0,#?V0 + 6
        LCALL   ?PUSH_XSTACK_I_TWO
        CFI CFA_XSP16 add(XSP16, 53)
        MOV     R4,?V0 + 4
        MOV     A,#0x7
        LCALL   ?XSTACK_DISP0_8
        LCALL   ?Subroutine22 & 0xFFFF
??CrossCallReturnLabel_34:
        MOV     R1,?V0 + 8
        LCALL   ??xferBuf?relay
        MOV     A,#0x4
        LCALL   ?DEALLOC_XSTACK8
        CFI CFA_XSP16 add(XSP16, 49)
// 1350         srcOff += ndx;
// 1351         dstOff += ndx;
        LCALL   ?Subroutine37 & 0xFFFF
// 1352 
// 1353         writeBuf( dstPg, dstOff, len, buf );
??CrossCallReturnLabel_71:
        LCALL   ?XSTACK_DISP0_8
        LCALL   ?PUSH_XSTACK8_X_TWO
        CFI CFA_XSP16 add(XSP16, 51)
        MOV     R4,?V0 + 10
        MOV     R5,?V0 + 11
        MOV     A,R6
        MOV     R2,A
        MOV     A,R7
        MOV     R3,A
        MOV     R1,?V0 + 4
        LCALL   ??writeBuf?relay
        MOV     A,#0x2
        LCALL   ?DEALLOC_XSTACK8
        CFI CFA_XSP16 add(XSP16, 49)
// 1354         srcOff += len;
// 1355         dstOff += len;
// 1356 
// 1357         xferBuf( srcPg, srcOff, dstPg, dstOff, (hdr.len-ndx-len) );
        ; Setup parameters for call to function xferBuf
        MOV     A,#0x7
        LCALL   ?XSTACK_DISP0_8
        MOVX    A,@DPTR
        CLR     C
        SUBB    A,?V0 + 2
        MOV     R0,A
        INC     DPTR
        MOVX    A,@DPTR
        SUBB    A,?V0 + 3
        MOV     R1,A
        MOV     A,R0
        CLR     C
        SUBB    A,?V0 + 10
        MOV     ?V0 + 6,A
        MOV     A,R1
        SUBB    A,?V0 + 11
        MOV     ?V0 + 7,A
        MOV     R0,#?V0 + 6
        LCALL   ?PUSH_XSTACK_I_TWO
        CFI CFA_XSP16 add(XSP16, 51)
        MOV     A,R6
        ADD     A,?V0 + 10
        MOV     ?V0 + 6,A
        MOV     A,R7
        ADDC    A,?V0 + 11
        MOV     ?V0 + 7,A
        MOV     R0,#?V0 + 6
        LCALL   ?PUSH_XSTACK_I_TWO
        CFI CFA_XSP16 add(XSP16, 53)
        MOV     R4,?V0 + 4
        MOV     A,#0x7
        LCALL   ?XSTACK_DISP0_8
        MOVX    A,@DPTR
        ADD     A,?V0 + 2
        MOV     R0,A
        INC     DPTR
        MOVX    A,@DPTR
        ADDC    A,?V0 + 3
        MOV     R1,A
        MOV     A,R0
        ADD     A,?V0 + 10
        MOV     R2,A
        MOV     A,R1
        ADDC    A,?V0 + 11
        MOV     R3,A
        MOV     R1,?V0 + 8
        LCALL   ??xferBuf?relay
        MOV     A,#0x4
        LCALL   ?DEALLOC_XSTACK8
        CFI CFA_XSP16 add(XSP16, 49)
// 1358 
// 1359         // Calculate and write the new checksum.
// 1360         dstOff = pgOff[dstPg-OSAL_NV_PAGE_BEG] - tmp;
        MOV     DPL,?V0 + 12
        MOV     DPH,?V0 + 13
        LCALL   ?Subroutine20 & 0xFFFF
// 1361 
// 1362         if ( hdr.chk == calcChkF( dstPg, dstOff, hdr.len ) )
??CrossCallReturnLabel_28:
        ; Setup parameters for call to function calcChkF
        MOV     A,#0x7
        LCALL   ?XSTACK_DISP0_8
        LCALL   ?Subroutine12 & 0xFFFF
??CrossCallReturnLabel_14:
        MOV     A,R6
        MOV     R2,A
        MOV     A,R7
        MOV     R3,A
        MOV     R1,?V0 + 4
        LCALL   ??calcChkF?relay
        MOV     A,#0x9
        LCALL   ?XSTACK_DISP0_8
        LCALL   ?Subroutine13 & 0xFFFF
??CrossCallReturnLabel_17:
        JNZ     ??osal_nv_write_10
        MOV     A,R3
        XRL     A,R1
??osal_nv_write_10:
        JZ      $+5
        LJMP    ??osal_nv_write_6 & 0xFFFF
// 1363         {
// 1364           if ( hdr.chk != setChk( dstPg, dstOff, hdr.chk ) )
        MOV     A,#0x1
        LCALL   ?XSTACK_DISP0_8
        MOV     A,R0
        MOVX    @DPTR,A
        INC     DPTR
        MOV     A,R1
        MOVX    @DPTR,A
        MOV     A,R6
        ADD     A,#-0x4
        MOV     ?V0 + 0,A
        MOV     A,R7
        ADDC    A,#-0x1
        MOV     ?V0 + 1,A
        MOV     A,#0x1
        LCALL   ?XSTACK_DISP0_8
        MOVX    A,@DPTR
        PUSH    A
        CFI CFA_SP SP+-1
        MOV     A,#0xd
        LCALL   ?XSTACK_DISP0_8
        POP     A
        CFI CFA_SP SP+0
        MOVX    @DPTR,A
        MOV     A,#0x2
        LCALL   ?XSTACK_DISP0_8
        MOVX    A,@DPTR
        PUSH    A
        CFI CFA_SP SP+-1
        MOV     A,#0xe
        LCALL   ?XSTACK_DISP0_8
        POP     A
        CFI CFA_SP SP+0
        MOVX    @DPTR,A
        MOV     A,#0xf
        LCALL   ?XSTACK_DISP0_8
        MOV     A,#-0x1
        MOVX    @DPTR,A
        MOV     A,#0x10
        LCALL   ?XSTACK_DISP0_8
        MOV     A,#-0x1
        MOVX    @DPTR,A
        ; Setup parameters for call to function HalFlashWrite
        MOV     ?V0 + 2,#0x1
        MOV     ?V0 + 3,#0x0
        MOV     R0,#?V0 + 2
        LCALL   ?PUSH_XSTACK_I_TWO
        CFI CFA_XSP16 add(XSP16, 51)
        MOV     A,#0xf
        LCALL   ?XSTACK_DISP0_8
        MOV     R4,DPL
        MOV     R5,DPH
        MOV     ?V0 + 2,?V0 + 0
        MOV     ?V0 + 3,?V0 + 1
        MOV     A,#0x2
        MOV     R0,#?V0 + 2
        LCALL   ?US_SHR
        MOV     ?V0 + 6,?V0 + 4
        MOV     ?V0 + 7,A
        MOV     A,#0x9
        MOV     R0,#?V0 + 6
        LCALL   ?S_SHL
        LCALL   ?Subroutine31 & 0xFFFF
??CrossCallReturnLabel_62:
        ADDC    A,?V0 + 7
        LCALL   ??Subroutine44_0 & 0xFFFF
??CrossCallReturnLabel_93:
        LCALL   ?DEALLOC_XSTACK8
        CFI CFA_XSP16 add(XSP16, 49)
        ; Setup parameters for call to function HalFlashRead
        MOV     ?V0 + 2,#0x2
        MOV     ?V0 + 3,#0x0
        MOV     R0,#?V0 + 2
        LCALL   ?PUSH_XSTACK_I_TWO
        CFI CFA_XSP16 add(XSP16, 51)
        MOV     A,#0x3
        LCALL   ?XSTACK_DISP0_8
        MOV     R4,DPL
        MOV     R5,DPH
        MOV     R2,?V0 + 0
        MOV     R3,?V0 + 1
        MOV     R1,?V0 + 4
        LCALL   ??Subroutine51_0 & 0xFFFF
??CrossCallReturnLabel_135:
        LCALL   ?DEALLOC_XSTACK8
        CFI CFA_XSP16 add(XSP16, 49)
        MOV     A,#0x9
        LCALL   ?XSTACK_DISP0_8
        LCALL   ?Subroutine25 & 0xFFFF
??CrossCallReturnLabel_48:
        MOV     A,#0x1
        LCALL   ?XSTACK_DISP0_8
        MOVX    A,@DPTR
        XRL     A,R0
        JNZ     ??osal_nv_write_11
        INC     DPTR
        MOVX    A,@DPTR
        XRL     A,R1
??osal_nv_write_11:
        JZ      ??osal_nv_write_12
// 1365           {
// 1366             rtrn = NV_OPER_FAILED;
??osal_nv_write_6:
        MOV     ?V0 + 9,#0xa
        SJMP    ??osal_nv_write_13
// 1367           }
// 1368           else
// 1369           {
// 1370             hotItemUpdate(dstPg, dstOff, hdr.id);
??osal_nv_write_12:
        MOV     A,#0x5
        LCALL   ?XSTACK_DISP0_8
        LCALL   ?Subroutine14 & 0xFFFF
// 1371           }
// 1372         }
// 1373         else
// 1374         {
// 1375           rtrn = NV_OPER_FAILED;
// 1376         }
// 1377       }
??CrossCallReturnLabel_19:
        MOV     DPL,R0
        MOV     DPH,R1
        MOVX    A,@DPTR
        XRL     A,R2
        JNZ     ??osal_nv_write_14
        INC     DPTR
        MOVX    A,@DPTR
        XRL     A,R3
??osal_nv_write_14:
        JZ      ??osal_nv_write_15
        LCALL   ?Subroutine26 & 0xFFFF
??CrossCallReturnLabel_53:
        JC      ??CrossCallReturnLabel_19
??osal_nv_write_15:
        MOV     A,R4
        CLR     C
        SUBB    A,#0x3
        JNC     ??osal_nv_write_13
        LCALL   ?Subroutine5 & 0xFFFF
??CrossCallReturnLabel_147:
        MOV     A,R6
        MOVX    @DPTR,A
        INC     DPTR
        MOV     A,R7
        MOVX    @DPTR,A
// 1378       else
// 1379       {
// 1380         rtrn = NV_OPER_FAILED;
// 1381       }
// 1382 
// 1383       if ( comPg != OSAL_NV_PAGE_NULL )
??osal_nv_write_13:
        MOV     DPL,?XSP + 0
        MOV     DPH,?XSP + 1
        MOVX    A,@DPTR
        JZ      ??osal_nv_write_16
// 1384       {
// 1385         /* Even though the page compaction succeeded, if the new item is coming from the compacted
// 1386          * page and writing the new value failed, then the compaction must be aborted.
// 1387          */
// 1388         if ( (srcPg == comPg) && (rtrn == NV_OPER_FAILED) )
        XRL     A,?V0 + 8
        JNZ     ??osal_nv_write_17
        MOV     A,#0xa
        XRL     A,?V0 + 9
        JNZ     ??osal_nv_write_17
// 1389         {
// 1390           erasePage( pgRes );
        ; Setup parameters for call to function erasePage
        LCALL   ?Subroutine19 & 0xFFFF
// 1391         }
??CrossCallReturnLabel_110:
        SJMP    ??osal_nv_write_16
// 1392         else
// 1393         {
// 1394           COMPACT_PAGE_CLEANUP( comPg );
??osal_nv_write_17:
        MOV     DPTR,#pgRes
        MOVX    A,@DPTR
        MOV     ?V0 + 0,A
        MOV     A,#0x11
        LCALL   ?XSTACK_DISP0_8
        CLR     A
        MOVX    @DPTR,A
        INC     DPTR
        MOVX    @DPTR,A
        MOV     A,#0x13
        LCALL   ?XSTACK_DISP0_8
        CLR     A
        MOVX    @DPTR,A
        INC     DPTR
        MOVX    @DPTR,A
        ; Setup parameters for call to function HalFlashWrite
        MOV     ?V0 + 2,#0x1
        MOV     ?V0 + 3,A
        MOV     R0,#?V0 + 2
        LCALL   ?PUSH_XSTACK_I_TWO
        CFI CFA_XSP16 add(XSP16, 51)
        MOV     A,#0x13
        LCALL   ?XSTACK_DISP0_8
        MOV     R4,DPL
        MOV     R5,DPH
        MOV     ?V0 + 1,#0x0
        MOV     A,#0x9
        MOV     R0,#?V0 + 0
        LCALL   ?S_SHL
        MOV     R2,A
        MOV     R3,?V0 + 1
        LCALL   ??Subroutine45_0 & 0xFFFF
??CrossCallReturnLabel_98:
        LCALL   ?DEALLOC_XSTACK8
        CFI CFA_XSP16 add(XSP16, 49)
        ; Setup parameters for call to function erasePage
        MOV     DPL,?XSP + 0
        MOV     DPH,?XSP + 1
        LCALL   ??Subroutine48_0 & 0xFFFF
??CrossCallReturnLabel_111:
        MOV     DPL,?XSP + 0
        MOV     DPH,?XSP + 1
        MOVX    A,@DPTR
        MOV     DPTR,#pgRes
        MOVX    @DPTR,A
// 1395         }
// 1396       }
// 1397 
// 1398       /* Zero of the old item must wait until after compact page cleanup has finished - if the item
// 1399        * is zeroed before and cleanup is interrupted by a power-cycle, the new item can be lost.
// 1400        */
// 1401       if ( (srcPg != comPg) && (rtrn != NV_OPER_FAILED) )
??osal_nv_write_16:
        MOV     DPL,?XSP + 0
        MOV     DPH,?XSP + 1
        MOVX    A,@DPTR
        XRL     A,?V0 + 8
        JZ      ??CrossCallReturnLabel_21
        MOV     A,#0xa
        XRL     A,?V0 + 9
        JZ      ??CrossCallReturnLabel_21
// 1402       {
// 1403         setItem( srcPg, origOff, eNvZero );
        ; Setup parameters for call to function setItem
        MOV     R4,#0x1
        MOV     A,#0x3
        LCALL   ?XSTACK_DISP0_8
        LCALL   ?Subroutine15 & 0xFFFF
// 1404       }
// 1405     }
// 1406   }
// 1407 
// 1408   return rtrn;
??CrossCallReturnLabel_21:
        MOV     R1,?V0 + 9
??osal_nv_write_2:
        MOV     A,#0x19
        LJMP    ?Subroutine4 & 0xFFFF
        CFI EndBlock cfiBlock271
// 1409 }

        RSEG BANKED_CODE:CODE:NOROOT(0)
?Subroutine37:
        CFI Block cfiCond272 Using cfiCommon0
        CFI NoFunction
        CFI Conditional ??CrossCallReturnLabel_70
        CFI R6 load(1, XDATA, add(CFA_XSP16, literal(-24)))
        CFI VB load(1, XDATA, add(CFA_XSP16, literal(-23)))
        CFI V0 load(1, XDATA, add(CFA_XSP16, literal(-22)))
        CFI V1 load(1, XDATA, add(CFA_XSP16, literal(-21)))
        CFI V2 load(1, XDATA, add(CFA_XSP16, literal(-20)))
        CFI V3 load(1, XDATA, add(CFA_XSP16, literal(-19)))
        CFI V4 load(1, XDATA, add(CFA_XSP16, literal(-18)))
        CFI V5 load(1, XDATA, add(CFA_XSP16, literal(-17)))
        CFI V6 load(1, XDATA, add(CFA_XSP16, literal(-16)))
        CFI V7 load(1, XDATA, add(CFA_XSP16, literal(-15)))
        CFI V8 load(1, XDATA, add(CFA_XSP16, literal(-14)))
        CFI V9 load(1, XDATA, add(CFA_XSP16, literal(-13)))
        CFI V10 load(1, XDATA, add(CFA_XSP16, literal(-12)))
        CFI V11 load(1, XDATA, add(CFA_XSP16, literal(-11)))
        CFI V12 load(1, XDATA, add(CFA_XSP16, literal(-10)))
        CFI V13 load(1, XDATA, add(CFA_XSP16, literal(-9)))
        CFI V14 load(1, XDATA, add(CFA_XSP16, literal(-8)))
        CFI V15 load(1, XDATA, add(CFA_XSP16, literal(-7)))
        CFI R7 load(1, XDATA, add(CFA_XSP16, literal(-6)))
        CFI ?RET_LOW load(1, XDATA, add(CFA_XSP16, literal(-5)))
        CFI ?RET_HIGH load(1, XDATA, add(CFA_XSP16, literal(-4)))
        CFI ?BRET_EXT load(1, XDATA, add(CFA_XSP16, literal(-3)))
        CFI DPL0 load(1, XDATA, add(CFA_XSP16, literal(-2)))
        CFI DPH0 load(1, XDATA, add(CFA_XSP16, literal(-1)))
        CFI CFA_SP SP+0
        CFI CFA_XSP16 add(XSP16, 49)
        CFI Block cfiCond273 Using cfiCommon0
        CFI (cfiCond273) NoFunction
        CFI (cfiCond273) Conditional ??CrossCallReturnLabel_71
        CFI (cfiCond273) R6 load(1, XDATA, add(CFA_XSP16, literal(-24)))
        CFI (cfiCond273) VB load(1, XDATA, add(CFA_XSP16, literal(-23)))
        CFI (cfiCond273) V0 load(1, XDATA, add(CFA_XSP16, literal(-22)))
        CFI (cfiCond273) V1 load(1, XDATA, add(CFA_XSP16, literal(-21)))
        CFI (cfiCond273) V2 load(1, XDATA, add(CFA_XSP16, literal(-20)))
        CFI (cfiCond273) V3 load(1, XDATA, add(CFA_XSP16, literal(-19)))
        CFI (cfiCond273) V4 load(1, XDATA, add(CFA_XSP16, literal(-18)))
        CFI (cfiCond273) V5 load(1, XDATA, add(CFA_XSP16, literal(-17)))
        CFI (cfiCond273) V6 load(1, XDATA, add(CFA_XSP16, literal(-16)))
        CFI (cfiCond273) V7 load(1, XDATA, add(CFA_XSP16, literal(-15)))
        CFI (cfiCond273) V8 load(1, XDATA, add(CFA_XSP16, literal(-14)))
        CFI (cfiCond273) V9 load(1, XDATA, add(CFA_XSP16, literal(-13)))
        CFI (cfiCond273) V10 load(1, XDATA, add(CFA_XSP16, literal(-12)))
        CFI (cfiCond273) V11 load(1, XDATA, add(CFA_XSP16, literal(-11)))
        CFI (cfiCond273) V12 load(1, XDATA, add(CFA_XSP16, literal(-10)))
        CFI (cfiCond273) V13 load(1, XDATA, add(CFA_XSP16, literal(-9)))
        CFI (cfiCond273) V14 load(1, XDATA, add(CFA_XSP16, literal(-8)))
        CFI (cfiCond273) V15 load(1, XDATA, add(CFA_XSP16, literal(-7)))
        CFI (cfiCond273) R7 load(1, XDATA, add(CFA_XSP16, literal(-6)))
        CFI (cfiCond273) ?RET_LOW load(1, XDATA, add(CFA_XSP16, literal(-5)))
        CFI (cfiCond273) ?RET_HIGH load(1, XDATA, add(CFA_XSP16, literal(-4)))
        CFI (cfiCond273) ?BRET_EXT load(1, XDATA, add(CFA_XSP16, literal(-3)))
        CFI (cfiCond273) DPL0 load(1, XDATA, add(CFA_XSP16, literal(-2)))
        CFI (cfiCond273) DPH0 load(1, XDATA, add(CFA_XSP16, literal(-1)))
        CFI (cfiCond273) CFA_SP SP+0
        CFI (cfiCond273) CFA_XSP16 add(XSP16, 49)
        CFI Block cfiPicker274 Using cfiCommon1
        CFI (cfiPicker274) NoFunction
        CFI (cfiPicker274) Picker
        MOV     A,R6
        ADD     A,?V0 + 2
        MOV     R6,A
        MOV     A,R7
        ADDC    A,?V0 + 3
        MOV     R7,A
        ; Setup parameters for call to function writeBuf
        MOV     A,#0x33
        RET
        CFI EndBlock cfiCond272
        CFI EndBlock cfiCond273
        CFI EndBlock cfiPicker274

        RSEG BANKED_CODE:CODE:NOROOT(0)
?Subroutine20:
        CFI Block cfiCond275 Using cfiCommon0
        CFI NoFunction
        CFI Conditional ??CrossCallReturnLabel_27
        CFI R6 load(1, XDATA, add(CFA_XSP16, literal(-24)))
        CFI VB load(1, XDATA, add(CFA_XSP16, literal(-23)))
        CFI V0 load(1, XDATA, add(CFA_XSP16, literal(-22)))
        CFI V1 load(1, XDATA, add(CFA_XSP16, literal(-21)))
        CFI V2 load(1, XDATA, add(CFA_XSP16, literal(-20)))
        CFI V3 load(1, XDATA, add(CFA_XSP16, literal(-19)))
        CFI V4 load(1, XDATA, add(CFA_XSP16, literal(-18)))
        CFI V5 load(1, XDATA, add(CFA_XSP16, literal(-17)))
        CFI V6 load(1, XDATA, add(CFA_XSP16, literal(-16)))
        CFI V7 load(1, XDATA, add(CFA_XSP16, literal(-15)))
        CFI V8 load(1, XDATA, add(CFA_XSP16, literal(-14)))
        CFI V9 load(1, XDATA, add(CFA_XSP16, literal(-13)))
        CFI V10 load(1, XDATA, add(CFA_XSP16, literal(-12)))
        CFI V11 load(1, XDATA, add(CFA_XSP16, literal(-11)))
        CFI V12 load(1, XDATA, add(CFA_XSP16, literal(-10)))
        CFI V13 load(1, XDATA, add(CFA_XSP16, literal(-9)))
        CFI V14 load(1, XDATA, add(CFA_XSP16, literal(-8)))
        CFI V15 load(1, XDATA, add(CFA_XSP16, literal(-7)))
        CFI R7 load(1, XDATA, add(CFA_XSP16, literal(-6)))
        CFI ?RET_LOW load(1, XDATA, add(CFA_XSP16, literal(-5)))
        CFI ?RET_HIGH load(1, XDATA, add(CFA_XSP16, literal(-4)))
        CFI ?BRET_EXT load(1, XDATA, add(CFA_XSP16, literal(-3)))
        CFI DPL0 load(1, XDATA, add(CFA_XSP16, literal(-2)))
        CFI DPH0 load(1, XDATA, add(CFA_XSP16, literal(-1)))
        CFI CFA_SP SP+0
        CFI CFA_XSP16 add(XSP16, 49)
        CFI Block cfiCond276 Using cfiCommon0
        CFI (cfiCond276) NoFunction
        CFI (cfiCond276) Conditional ??CrossCallReturnLabel_28
        CFI (cfiCond276) R6 load(1, XDATA, add(CFA_XSP16, literal(-24)))
        CFI (cfiCond276) VB load(1, XDATA, add(CFA_XSP16, literal(-23)))
        CFI (cfiCond276) V0 load(1, XDATA, add(CFA_XSP16, literal(-22)))
        CFI (cfiCond276) V1 load(1, XDATA, add(CFA_XSP16, literal(-21)))
        CFI (cfiCond276) V2 load(1, XDATA, add(CFA_XSP16, literal(-20)))
        CFI (cfiCond276) V3 load(1, XDATA, add(CFA_XSP16, literal(-19)))
        CFI (cfiCond276) V4 load(1, XDATA, add(CFA_XSP16, literal(-18)))
        CFI (cfiCond276) V5 load(1, XDATA, add(CFA_XSP16, literal(-17)))
        CFI (cfiCond276) V6 load(1, XDATA, add(CFA_XSP16, literal(-16)))
        CFI (cfiCond276) V7 load(1, XDATA, add(CFA_XSP16, literal(-15)))
        CFI (cfiCond276) V8 load(1, XDATA, add(CFA_XSP16, literal(-14)))
        CFI (cfiCond276) V9 load(1, XDATA, add(CFA_XSP16, literal(-13)))
        CFI (cfiCond276) V10 load(1, XDATA, add(CFA_XSP16, literal(-12)))
        CFI (cfiCond276) V11 load(1, XDATA, add(CFA_XSP16, literal(-11)))
        CFI (cfiCond276) V12 load(1, XDATA, add(CFA_XSP16, literal(-10)))
        CFI (cfiCond276) V13 load(1, XDATA, add(CFA_XSP16, literal(-9)))
        CFI (cfiCond276) V14 load(1, XDATA, add(CFA_XSP16, literal(-8)))
        CFI (cfiCond276) V15 load(1, XDATA, add(CFA_XSP16, literal(-7)))
        CFI (cfiCond276) R7 load(1, XDATA, add(CFA_XSP16, literal(-6)))
        CFI (cfiCond276) ?RET_LOW load(1, XDATA, add(CFA_XSP16, literal(-5)))
        CFI (cfiCond276) ?RET_HIGH load(1, XDATA, add(CFA_XSP16, literal(-4)))
        CFI (cfiCond276) ?BRET_EXT load(1, XDATA, add(CFA_XSP16, literal(-3)))
        CFI (cfiCond276) DPL0 load(1, XDATA, add(CFA_XSP16, literal(-2)))
        CFI (cfiCond276) DPH0 load(1, XDATA, add(CFA_XSP16, literal(-1)))
        CFI (cfiCond276) CFA_SP SP+0
        CFI (cfiCond276) CFA_XSP16 add(XSP16, 49)
        CFI Block cfiPicker277 Using cfiCommon1
        CFI (cfiPicker277) NoFunction
        CFI (cfiPicker277) Picker
        MOVX    A,@DPTR
        CLR     C
        SUBB    A,?V0 + 0
        MOV     R6,A
        INC     DPTR
        MOVX    A,@DPTR
        SUBB    A,?V0 + 1
        MOV     R7,A
        RET
        CFI EndBlock cfiCond275
        CFI EndBlock cfiCond276
        CFI EndBlock cfiPicker277

        RSEG BANKED_CODE:CODE:NOROOT(0)
?Subroutine16:
        CFI Block cfiCond278 Using cfiCommon0
        CFI NoFunction
        CFI Conditional ??CrossCallReturnLabel_22
        CFI R6 load(1, XDATA, add(CFA_XSP16, literal(-22)))
        CFI VB load(1, XDATA, add(CFA_XSP16, literal(-21)))
        CFI V0 load(1, XDATA, add(CFA_XSP16, literal(-20)))
        CFI V1 load(1, XDATA, add(CFA_XSP16, literal(-19)))
        CFI V2 load(1, XDATA, add(CFA_XSP16, literal(-18)))
        CFI V3 load(1, XDATA, add(CFA_XSP16, literal(-17)))
        CFI V4 load(1, XDATA, add(CFA_XSP16, literal(-16)))
        CFI V5 load(1, XDATA, add(CFA_XSP16, literal(-15)))
        CFI V6 load(1, XDATA, add(CFA_XSP16, literal(-14)))
        CFI V7 load(1, XDATA, add(CFA_XSP16, literal(-13)))
        CFI V8 load(1, XDATA, add(CFA_XSP16, literal(-12)))
        CFI V9 load(1, XDATA, add(CFA_XSP16, literal(-11)))
        CFI V10 load(1, XDATA, add(CFA_XSP16, literal(-10)))
        CFI V11 load(1, XDATA, add(CFA_XSP16, literal(-9)))
        CFI V12 load(1, XDATA, add(CFA_XSP16, literal(-8)))
        CFI V13 load(1, XDATA, add(CFA_XSP16, literal(-7)))
        CFI R7 load(1, XDATA, add(CFA_XSP16, literal(-6)))
        CFI ?RET_LOW load(1, XDATA, add(CFA_XSP16, literal(-5)))
        CFI ?RET_HIGH load(1, XDATA, add(CFA_XSP16, literal(-4)))
        CFI ?BRET_EXT load(1, XDATA, add(CFA_XSP16, literal(-3)))
        CFI DPL0 load(1, XDATA, add(CFA_XSP16, literal(-2)))
        CFI DPH0 load(1, XDATA, add(CFA_XSP16, literal(-1)))
        CFI CFA_SP SP+0
        CFI CFA_XSP16 add(XSP16, 37)
        CFI Block cfiCond279 Using cfiCommon0
        CFI (cfiCond279) NoFunction
        CFI (cfiCond279) Conditional ??CrossCallReturnLabel_23
        CFI (cfiCond279) R6 load(1, XDATA, add(CFA_XSP16, literal(-24)))
        CFI (cfiCond279) VB load(1, XDATA, add(CFA_XSP16, literal(-23)))
        CFI (cfiCond279) V0 load(1, XDATA, add(CFA_XSP16, literal(-22)))
        CFI (cfiCond279) V1 load(1, XDATA, add(CFA_XSP16, literal(-21)))
        CFI (cfiCond279) V2 load(1, XDATA, add(CFA_XSP16, literal(-20)))
        CFI (cfiCond279) V3 load(1, XDATA, add(CFA_XSP16, literal(-19)))
        CFI (cfiCond279) V4 load(1, XDATA, add(CFA_XSP16, literal(-18)))
        CFI (cfiCond279) V5 load(1, XDATA, add(CFA_XSP16, literal(-17)))
        CFI (cfiCond279) V6 load(1, XDATA, add(CFA_XSP16, literal(-16)))
        CFI (cfiCond279) V7 load(1, XDATA, add(CFA_XSP16, literal(-15)))
        CFI (cfiCond279) V8 load(1, XDATA, add(CFA_XSP16, literal(-14)))
        CFI (cfiCond279) V9 load(1, XDATA, add(CFA_XSP16, literal(-13)))
        CFI (cfiCond279) V10 load(1, XDATA, add(CFA_XSP16, literal(-12)))
        CFI (cfiCond279) V11 load(1, XDATA, add(CFA_XSP16, literal(-11)))
        CFI (cfiCond279) V12 load(1, XDATA, add(CFA_XSP16, literal(-10)))
        CFI (cfiCond279) V13 load(1, XDATA, add(CFA_XSP16, literal(-9)))
        CFI (cfiCond279) V14 load(1, XDATA, add(CFA_XSP16, literal(-8)))
        CFI (cfiCond279) V15 load(1, XDATA, add(CFA_XSP16, literal(-7)))
        CFI (cfiCond279) R7 load(1, XDATA, add(CFA_XSP16, literal(-6)))
        CFI (cfiCond279) ?RET_LOW load(1, XDATA, add(CFA_XSP16, literal(-5)))
        CFI (cfiCond279) ?RET_HIGH load(1, XDATA, add(CFA_XSP16, literal(-4)))
        CFI (cfiCond279) ?BRET_EXT load(1, XDATA, add(CFA_XSP16, literal(-3)))
        CFI (cfiCond279) DPL0 load(1, XDATA, add(CFA_XSP16, literal(-2)))
        CFI (cfiCond279) DPH0 load(1, XDATA, add(CFA_XSP16, literal(-1)))
        CFI (cfiCond279) CFA_SP SP+0
        CFI (cfiCond279) CFA_XSP16 add(XSP16, 49)
        CFI Block cfiCond280 Using cfiCommon0
        CFI (cfiCond280) NoFunction
        CFI (cfiCond280) Conditional ??CrossCallReturnLabel_24
        CFI (cfiCond280) R6 load(1, XDATA, add(CFA_XSP16, literal(-14)))
        CFI (cfiCond280) VB load(1, XDATA, add(CFA_XSP16, literal(-13)))
        CFI (cfiCond280) V0 load(1, XDATA, add(CFA_XSP16, literal(-12)))
        CFI (cfiCond280) V1 load(1, XDATA, add(CFA_XSP16, literal(-11)))
        CFI (cfiCond280) V2 load(1, XDATA, add(CFA_XSP16, literal(-10)))
        CFI (cfiCond280) V3 load(1, XDATA, add(CFA_XSP16, literal(-9)))
        CFI (cfiCond280) V4 load(1, XDATA, add(CFA_XSP16, literal(-8)))
        CFI (cfiCond280) V5 load(1, XDATA, add(CFA_XSP16, literal(-7)))
        CFI (cfiCond280) R7 load(1, XDATA, add(CFA_XSP16, literal(-6)))
        CFI (cfiCond280) ?RET_LOW load(1, XDATA, add(CFA_XSP16, literal(-5)))
        CFI (cfiCond280) ?RET_HIGH load(1, XDATA, add(CFA_XSP16, literal(-4)))
        CFI (cfiCond280) ?BRET_EXT load(1, XDATA, add(CFA_XSP16, literal(-3)))
        CFI (cfiCond280) DPL0 load(1, XDATA, add(CFA_XSP16, literal(-2)))
        CFI (cfiCond280) DPH0 load(1, XDATA, add(CFA_XSP16, literal(-1)))
        CFI (cfiCond280) CFA_SP SP+0
        CFI (cfiCond280) CFA_XSP16 add(XSP16, 14)
        CFI Block cfiPicker281 Using cfiCommon1
        CFI (cfiPicker281) NoFunction
        CFI (cfiPicker281) Picker
        MOVX    A,@DPTR
        MOV     ?V0 + 4,A
        INC     DPTR
        MOVX    A,@DPTR
        MOV     ?V0 + 5,A
        RET
        CFI EndBlock cfiCond278
        CFI EndBlock cfiCond279
        CFI EndBlock cfiCond280
        CFI EndBlock cfiPicker281

        RSEG BANKED_CODE:CODE:NOROOT(0)
?Subroutine15:
        CFI Block cfiCond282 Using cfiCommon0
        CFI NoFunction
        CFI Conditional ??CrossCallReturnLabel_20
        CFI R6 load(1, XDATA, add(CFA_XSP16, literal(-24)))
        CFI VB load(1, XDATA, add(CFA_XSP16, literal(-23)))
        CFI V0 load(1, XDATA, add(CFA_XSP16, literal(-22)))
        CFI V1 load(1, XDATA, add(CFA_XSP16, literal(-21)))
        CFI V2 load(1, XDATA, add(CFA_XSP16, literal(-20)))
        CFI V3 load(1, XDATA, add(CFA_XSP16, literal(-19)))
        CFI V4 load(1, XDATA, add(CFA_XSP16, literal(-18)))
        CFI V5 load(1, XDATA, add(CFA_XSP16, literal(-17)))
        CFI V6 load(1, XDATA, add(CFA_XSP16, literal(-16)))
        CFI V7 load(1, XDATA, add(CFA_XSP16, literal(-15)))
        CFI V8 load(1, XDATA, add(CFA_XSP16, literal(-14)))
        CFI V9 load(1, XDATA, add(CFA_XSP16, literal(-13)))
        CFI V10 load(1, XDATA, add(CFA_XSP16, literal(-12)))
        CFI V11 load(1, XDATA, add(CFA_XSP16, literal(-11)))
        CFI V12 load(1, XDATA, add(CFA_XSP16, literal(-10)))
        CFI V13 load(1, XDATA, add(CFA_XSP16, literal(-9)))
        CFI V14 load(1, XDATA, add(CFA_XSP16, literal(-8)))
        CFI V15 load(1, XDATA, add(CFA_XSP16, literal(-7)))
        CFI R7 load(1, XDATA, add(CFA_XSP16, literal(-6)))
        CFI ?RET_LOW load(1, XDATA, add(CFA_XSP16, literal(-5)))
        CFI ?RET_HIGH load(1, XDATA, add(CFA_XSP16, literal(-4)))
        CFI ?BRET_EXT load(1, XDATA, add(CFA_XSP16, literal(-3)))
        CFI DPL0 load(1, XDATA, add(CFA_XSP16, literal(-2)))
        CFI DPH0 load(1, XDATA, add(CFA_XSP16, literal(-1)))
        CFI CFA_SP SP+0
        CFI CFA_XSP16 add(XSP16, 49)
        CFI Block cfiCond283 Using cfiCommon0
        CFI (cfiCond283) NoFunction
        CFI (cfiCond283) Conditional ??CrossCallReturnLabel_21
        CFI (cfiCond283) R6 load(1, XDATA, add(CFA_XSP16, literal(-24)))
        CFI (cfiCond283) VB load(1, XDATA, add(CFA_XSP16, literal(-23)))
        CFI (cfiCond283) V0 load(1, XDATA, add(CFA_XSP16, literal(-22)))
        CFI (cfiCond283) V1 load(1, XDATA, add(CFA_XSP16, literal(-21)))
        CFI (cfiCond283) V2 load(1, XDATA, add(CFA_XSP16, literal(-20)))
        CFI (cfiCond283) V3 load(1, XDATA, add(CFA_XSP16, literal(-19)))
        CFI (cfiCond283) V4 load(1, XDATA, add(CFA_XSP16, literal(-18)))
        CFI (cfiCond283) V5 load(1, XDATA, add(CFA_XSP16, literal(-17)))
        CFI (cfiCond283) V6 load(1, XDATA, add(CFA_XSP16, literal(-16)))
        CFI (cfiCond283) V7 load(1, XDATA, add(CFA_XSP16, literal(-15)))
        CFI (cfiCond283) V8 load(1, XDATA, add(CFA_XSP16, literal(-14)))
        CFI (cfiCond283) V9 load(1, XDATA, add(CFA_XSP16, literal(-13)))
        CFI (cfiCond283) V10 load(1, XDATA, add(CFA_XSP16, literal(-12)))
        CFI (cfiCond283) V11 load(1, XDATA, add(CFA_XSP16, literal(-11)))
        CFI (cfiCond283) V12 load(1, XDATA, add(CFA_XSP16, literal(-10)))
        CFI (cfiCond283) V13 load(1, XDATA, add(CFA_XSP16, literal(-9)))
        CFI (cfiCond283) V14 load(1, XDATA, add(CFA_XSP16, literal(-8)))
        CFI (cfiCond283) V15 load(1, XDATA, add(CFA_XSP16, literal(-7)))
        CFI (cfiCond283) R7 load(1, XDATA, add(CFA_XSP16, literal(-6)))
        CFI (cfiCond283) ?RET_LOW load(1, XDATA, add(CFA_XSP16, literal(-5)))
        CFI (cfiCond283) ?RET_HIGH load(1, XDATA, add(CFA_XSP16, literal(-4)))
        CFI (cfiCond283) ?BRET_EXT load(1, XDATA, add(CFA_XSP16, literal(-3)))
        CFI (cfiCond283) DPL0 load(1, XDATA, add(CFA_XSP16, literal(-2)))
        CFI (cfiCond283) DPH0 load(1, XDATA, add(CFA_XSP16, literal(-1)))
        CFI (cfiCond283) CFA_SP SP+0
        CFI (cfiCond283) CFA_XSP16 add(XSP16, 49)
        CFI Block cfiPicker284 Using cfiCommon1
        CFI (cfiPicker284) NoFunction
        CFI (cfiPicker284) Picker
        LCALL   ?Subroutine38 & 0xFFFF
??CrossCallReturnLabel_73:
        MOV     R1,?V0 + 8
        LCALL   ??setItem?relay
        RET
        CFI EndBlock cfiCond282
        CFI EndBlock cfiCond283
        CFI EndBlock cfiPicker284

        RSEG BANKED_CODE:CODE:NOROOT(0)
?Subroutine14:
        CFI Block cfiCond285 Using cfiCommon0
        CFI NoFunction
        CFI Conditional ??CrossCallReturnLabel_18
        CFI R6 load(1, XDATA, add(CFA_XSP16, literal(-24)))
        CFI VB load(1, XDATA, add(CFA_XSP16, literal(-23)))
        CFI V0 load(1, XDATA, add(CFA_XSP16, literal(-22)))
        CFI V1 load(1, XDATA, add(CFA_XSP16, literal(-21)))
        CFI V2 load(1, XDATA, add(CFA_XSP16, literal(-20)))
        CFI V3 load(1, XDATA, add(CFA_XSP16, literal(-19)))
        CFI V4 load(1, XDATA, add(CFA_XSP16, literal(-18)))
        CFI V5 load(1, XDATA, add(CFA_XSP16, literal(-17)))
        CFI V6 load(1, XDATA, add(CFA_XSP16, literal(-16)))
        CFI V7 load(1, XDATA, add(CFA_XSP16, literal(-15)))
        CFI V8 load(1, XDATA, add(CFA_XSP16, literal(-14)))
        CFI V9 load(1, XDATA, add(CFA_XSP16, literal(-13)))
        CFI V10 load(1, XDATA, add(CFA_XSP16, literal(-12)))
        CFI V11 load(1, XDATA, add(CFA_XSP16, literal(-11)))
        CFI V12 load(1, XDATA, add(CFA_XSP16, literal(-10)))
        CFI V13 load(1, XDATA, add(CFA_XSP16, literal(-9)))
        CFI V14 load(1, XDATA, add(CFA_XSP16, literal(-8)))
        CFI V15 load(1, XDATA, add(CFA_XSP16, literal(-7)))
        CFI R7 load(1, XDATA, add(CFA_XSP16, literal(-6)))
        CFI ?RET_LOW load(1, XDATA, add(CFA_XSP16, literal(-5)))
        CFI ?RET_HIGH load(1, XDATA, add(CFA_XSP16, literal(-4)))
        CFI ?BRET_EXT load(1, XDATA, add(CFA_XSP16, literal(-3)))
        CFI DPL0 load(1, XDATA, add(CFA_XSP16, literal(-2)))
        CFI DPH0 load(1, XDATA, add(CFA_XSP16, literal(-1)))
        CFI CFA_SP SP+0
        CFI CFA_XSP16 add(XSP16, 40)
        CFI Block cfiCond286 Using cfiCommon0
        CFI (cfiCond286) NoFunction
        CFI (cfiCond286) Conditional ??CrossCallReturnLabel_19
        CFI (cfiCond286) R6 load(1, XDATA, add(CFA_XSP16, literal(-24)))
        CFI (cfiCond286) VB load(1, XDATA, add(CFA_XSP16, literal(-23)))
        CFI (cfiCond286) V0 load(1, XDATA, add(CFA_XSP16, literal(-22)))
        CFI (cfiCond286) V1 load(1, XDATA, add(CFA_XSP16, literal(-21)))
        CFI (cfiCond286) V2 load(1, XDATA, add(CFA_XSP16, literal(-20)))
        CFI (cfiCond286) V3 load(1, XDATA, add(CFA_XSP16, literal(-19)))
        CFI (cfiCond286) V4 load(1, XDATA, add(CFA_XSP16, literal(-18)))
        CFI (cfiCond286) V5 load(1, XDATA, add(CFA_XSP16, literal(-17)))
        CFI (cfiCond286) V6 load(1, XDATA, add(CFA_XSP16, literal(-16)))
        CFI (cfiCond286) V7 load(1, XDATA, add(CFA_XSP16, literal(-15)))
        CFI (cfiCond286) V8 load(1, XDATA, add(CFA_XSP16, literal(-14)))
        CFI (cfiCond286) V9 load(1, XDATA, add(CFA_XSP16, literal(-13)))
        CFI (cfiCond286) V10 load(1, XDATA, add(CFA_XSP16, literal(-12)))
        CFI (cfiCond286) V11 load(1, XDATA, add(CFA_XSP16, literal(-11)))
        CFI (cfiCond286) V12 load(1, XDATA, add(CFA_XSP16, literal(-10)))
        CFI (cfiCond286) V13 load(1, XDATA, add(CFA_XSP16, literal(-9)))
        CFI (cfiCond286) V14 load(1, XDATA, add(CFA_XSP16, literal(-8)))
        CFI (cfiCond286) V15 load(1, XDATA, add(CFA_XSP16, literal(-7)))
        CFI (cfiCond286) R7 load(1, XDATA, add(CFA_XSP16, literal(-6)))
        CFI (cfiCond286) ?RET_LOW load(1, XDATA, add(CFA_XSP16, literal(-5)))
        CFI (cfiCond286) ?RET_HIGH load(1, XDATA, add(CFA_XSP16, literal(-4)))
        CFI (cfiCond286) ?BRET_EXT load(1, XDATA, add(CFA_XSP16, literal(-3)))
        CFI (cfiCond286) DPL0 load(1, XDATA, add(CFA_XSP16, literal(-2)))
        CFI (cfiCond286) DPH0 load(1, XDATA, add(CFA_XSP16, literal(-1)))
        CFI (cfiCond286) CFA_SP SP+0
        CFI (cfiCond286) CFA_XSP16 add(XSP16, 49)
        CFI Block cfiPicker287 Using cfiCommon1
        CFI (cfiPicker287) NoFunction
        CFI (cfiPicker287) Picker
        LCALL   ?Subroutine38 & 0xFFFF
??CrossCallReturnLabel_72:
        MOV     R4,#0x0
        MOV     R0,#hotIds & 0xff
        MOV     R1,#(hotIds >> 8) & 0xff
        RET
        CFI EndBlock cfiCond285
        CFI EndBlock cfiCond286
        CFI EndBlock cfiPicker287
// 1410 
// 1411 /*********************************************************************
// 1412  * @fn      osal_nv_read
// 1413  *
// 1414  * @brief   Read data from NV. This function can be used to read an entire item from NV or
// 1415  *          an element of an item by indexing into the item with an offset.
// 1416  *          Read data is copied into *buf.
// 1417  *
// 1418  * @param   id  - Valid NV item Id.
// 1419  * @param   ndx - Index offset into item
// 1420  * @param   len - Length of data to read.
// 1421  * @param  *buf - Data is read into this buffer.
// 1422  *
// 1423  * @return  SUCCESS if NV data was copied to the parameter 'buf'.
// 1424  *          Otherwise, NV_OPER_FAILED for failure.
// 1425  */

        RSEG BANKED_CODE:CODE:NOROOT(0)
// 1426 uint8 osal_nv_read( uint16 id, uint16 ndx, uint16 len, void *buf )
osal_nv_read:
        CFI Block cfiBlock288 Using cfiCommon0
        CFI Function osal_nv_read
        CODE
// 1427 {
        FUNCALL osal_nv_read, HalFlashRead
        LOCFRAME ISTACK, 0, STACK
        LOCFRAME PSTACK, 0, STACK
        LOCFRAME XSTACK, 16, STACK
        LOCFRAME IOVERLAY, 0, STATIC
        LOCFRAME DOVERLAY, 0, STATIC
        ARGFRAME ISTACK, 0, STACK
        ARGFRAME PSTACK, 0, STACK
        ARGFRAME XSTACK, 16, STACK
        ARGFRAME IOVERLAY, 0, STATIC
        ARGFRAME DOVERLAY, 0, STATIC
        FUNCALL osal_nv_read, findItem
        LOCFRAME ISTACK, 0, STACK
        LOCFRAME PSTACK, 0, STACK
        LOCFRAME XSTACK, 14, STACK
        LOCFRAME IOVERLAY, 0, STATIC
        LOCFRAME DOVERLAY, 0, STATIC
        ARGFRAME ISTACK, 0, STACK
        ARGFRAME PSTACK, 0, STACK
        ARGFRAME XSTACK, 14, STACK
        ARGFRAME IOVERLAY, 0, STATIC
        ARGFRAME DOVERLAY, 0, STATIC
        FUNCALL osal_nv_read, HalFlashRead
        LOCFRAME ISTACK, 0, STACK
        LOCFRAME PSTACK, 0, STACK
        LOCFRAME XSTACK, 16, STACK
        LOCFRAME IOVERLAY, 0, STATIC
        LOCFRAME DOVERLAY, 0, STATIC
        ARGFRAME ISTACK, 0, STACK
        ARGFRAME PSTACK, 0, STACK
        ARGFRAME XSTACK, 16, STACK
        ARGFRAME IOVERLAY, 0, STATIC
        ARGFRAME DOVERLAY, 0, STATIC
        MOV     A,#-0xe
        LCALL   ?BANKED_ENTER_XDATA
        CFI DPH0 load(1, XDATA, add(CFA_XSP16, literal(-1)))
        CFI DPL0 load(1, XDATA, add(CFA_XSP16, literal(-2)))
        CFI ?BRET_EXT load(1, XDATA, add(CFA_XSP16, literal(-3)))
        CFI ?RET_HIGH load(1, XDATA, add(CFA_XSP16, literal(-4)))
        CFI ?RET_LOW load(1, XDATA, add(CFA_XSP16, literal(-5)))
        CFI R7 load(1, XDATA, add(CFA_XSP16, literal(-6)))
        CFI V5 load(1, XDATA, add(CFA_XSP16, literal(-7)))
        CFI V4 load(1, XDATA, add(CFA_XSP16, literal(-8)))
        CFI V3 load(1, XDATA, add(CFA_XSP16, literal(-9)))
        CFI V2 load(1, XDATA, add(CFA_XSP16, literal(-10)))
        CFI V1 load(1, XDATA, add(CFA_XSP16, literal(-11)))
        CFI V0 load(1, XDATA, add(CFA_XSP16, literal(-12)))
        CFI VB load(1, XDATA, add(CFA_XSP16, literal(-13)))
        CFI R6 load(1, XDATA, add(CFA_XSP16, literal(-14)))
        CFI CFA_SP SP+0
        CFI CFA_XSP16 add(XSP16, 14)
        ; Saved register size: 14
        ; Auto size: 0
        MOV     ?V0 + 0,R4
        MOV     ?V0 + 1,R5
        MOV     A,#0xe
        LCALL   ?XSTACK_DISP0_8
        LCALL   ?Subroutine16 & 0xFFFF
??CrossCallReturnLabel_24:
        MOV     A,#0x10
        LCALL   ?XSTACK_DISP0_8
        MOVX    A,@DPTR
        MOV     R6,A
        INC     DPTR
        MOVX    A,@DPTR
        MOV     R7,A
// 1428   uint16 offset;
// 1429   uint8 hotIdx;
// 1430 
// 1431   if ((hotIdx = hotItem(id)) < OSAL_NV_MAX_HOT)
        MOV     R4,#0x0
        MOV     R0,#hotIds & 0xff
        MOV     R1,#(hotIds >> 8) & 0xff
??osal_nv_read_0:
        MOV     DPL,R0
        MOV     DPH,R1
        MOVX    A,@DPTR
        XRL     A,R2
        JNZ     ??osal_nv_read_1
        INC     DPTR
        MOVX    A,@DPTR
        XRL     A,R3
??osal_nv_read_1:
        JZ      ??osal_nv_read_2
        LCALL   ?Subroutine26 & 0xFFFF
??CrossCallReturnLabel_50:
        JC      ??osal_nv_read_0
??osal_nv_read_2:
        MOV     A,R4
        CLR     C
        SUBB    A,#0x3
        JNC     ??osal_nv_read_3
// 1432   {
// 1433     HalFlashRead(hotPg[hotIdx], hotOff[hotIdx]+ndx, buf, len);
        MOV     DPL,R4
        MOV     ?V0 + 2,DPL
        ; Setup parameters for call to function HalFlashRead
        MOV     R0,#?V0 + 4
        LCALL   ?PUSH_XSTACK_I_TWO
        CFI CFA_XSP16 add(XSP16, 16)
        MOV     A,R6
        MOV     R4,A
        MOV     A,R7
        MOV     R5,A
        MOV     A,?V0 + 2
        LCALL   ?Subroutine42 & 0xFFFF
// 1434     return SUCCESS;
// 1435   }
??CrossCallReturnLabel_148:
        LCALL   ?Subroutine23 & 0xFFFF
??CrossCallReturnLabel_36:
        MOV     A,#hotPg & 0xff
        ADD     A,?V0 + 2
        MOV     DPL,A
        MOV     A,#(hotPg >> 8) & 0xff
        ADDC    A,#0x0
        MOV     DPH,A
        SJMP    ??osal_nv_read_4
        CFI CFA_XSP16 add(XSP16, 14)
// 1436 
// 1437   if ((offset = findItem(id)) == OSAL_NV_ITEM_NULL)
??osal_nv_read_3:
        ; Setup parameters for call to function findItem
        LCALL   ??findItem?relay
        MOV     A,R2
        ORL     A,R3
        JNZ     ??osal_nv_read_5
// 1438   {
// 1439     return NV_OPER_FAILED;
        MOV     R1,#0xa
        SJMP    ??osal_nv_read_6
// 1440   }
// 1441   else
// 1442   {
// 1443     HalFlashRead(findPg, offset+ndx, buf, len);
??osal_nv_read_5:
        ; Setup parameters for call to function HalFlashRead
        MOV     R0,#?V0 + 4
        LCALL   ?PUSH_XSTACK_I_TWO
        CFI CFA_XSP16 add(XSP16, 16)
        MOV     A,R6
        MOV     R4,A
        MOV     A,R7
        MOV     R5,A
        MOV     A,R2
        ADD     A,?V0 + 0
        MOV     R2,A
        MOV     A,R3
        ADDC    A,?V0 + 1
        MOV     R3,A
        MOV     DPTR,#findPg
??osal_nv_read_4:
        MOVX    A,@DPTR
        MOV     R1,A
        LCALL   ??Subroutine51_0 & 0xFFFF
??CrossCallReturnLabel_136:
        LCALL   ?DEALLOC_XSTACK8
        CFI CFA_XSP16 add(XSP16, 14)
// 1444     return SUCCESS;
        MOV     R1,#0x0
// 1445   }
??osal_nv_read_6:
        LJMP    ??Subroutine53_0 & 0xFFFF
        CFI EndBlock cfiBlock288
// 1446 }

        RSEG BANKED_CODE:CODE:NOROOT(0)
?Subroutine23:
        CFI Block cfiCond289 Using cfiCommon0
        CFI NoFunction
        CFI Conditional ??CrossCallReturnLabel_35
        CFI R6 load(1, XDATA, add(CFA_XSP16, literal(-24)))
        CFI VB load(1, XDATA, add(CFA_XSP16, literal(-23)))
        CFI V0 load(1, XDATA, add(CFA_XSP16, literal(-22)))
        CFI V1 load(1, XDATA, add(CFA_XSP16, literal(-21)))
        CFI V2 load(1, XDATA, add(CFA_XSP16, literal(-20)))
        CFI V3 load(1, XDATA, add(CFA_XSP16, literal(-19)))
        CFI V4 load(1, XDATA, add(CFA_XSP16, literal(-18)))
        CFI V5 load(1, XDATA, add(CFA_XSP16, literal(-17)))
        CFI V6 load(1, XDATA, add(CFA_XSP16, literal(-16)))
        CFI V7 load(1, XDATA, add(CFA_XSP16, literal(-15)))
        CFI V8 load(1, XDATA, add(CFA_XSP16, literal(-14)))
        CFI V9 load(1, XDATA, add(CFA_XSP16, literal(-13)))
        CFI V10 load(1, XDATA, add(CFA_XSP16, literal(-12)))
        CFI V11 load(1, XDATA, add(CFA_XSP16, literal(-11)))
        CFI V12 load(1, XDATA, add(CFA_XSP16, literal(-10)))
        CFI V13 load(1, XDATA, add(CFA_XSP16, literal(-9)))
        CFI V14 load(1, XDATA, add(CFA_XSP16, literal(-8)))
        CFI V15 load(1, XDATA, add(CFA_XSP16, literal(-7)))
        CFI R7 load(1, XDATA, add(CFA_XSP16, literal(-6)))
        CFI ?RET_LOW load(1, XDATA, add(CFA_XSP16, literal(-5)))
        CFI ?RET_HIGH load(1, XDATA, add(CFA_XSP16, literal(-4)))
        CFI ?BRET_EXT load(1, XDATA, add(CFA_XSP16, literal(-3)))
        CFI DPL0 load(1, XDATA, add(CFA_XSP16, literal(-2)))
        CFI DPH0 load(1, XDATA, add(CFA_XSP16, literal(-1)))
        CFI CFA_SP SP+0
        CFI CFA_XSP16 add(XSP16, 42)
        CFI Block cfiCond290 Using cfiCommon0
        CFI (cfiCond290) NoFunction
        CFI (cfiCond290) Conditional ??CrossCallReturnLabel_36
        CFI (cfiCond290) R6 load(1, XDATA, add(CFA_XSP16, literal(-14)))
        CFI (cfiCond290) VB load(1, XDATA, add(CFA_XSP16, literal(-13)))
        CFI (cfiCond290) V0 load(1, XDATA, add(CFA_XSP16, literal(-12)))
        CFI (cfiCond290) V1 load(1, XDATA, add(CFA_XSP16, literal(-11)))
        CFI (cfiCond290) V2 load(1, XDATA, add(CFA_XSP16, literal(-10)))
        CFI (cfiCond290) V3 load(1, XDATA, add(CFA_XSP16, literal(-9)))
        CFI (cfiCond290) V4 load(1, XDATA, add(CFA_XSP16, literal(-8)))
        CFI (cfiCond290) V5 load(1, XDATA, add(CFA_XSP16, literal(-7)))
        CFI (cfiCond290) R7 load(1, XDATA, add(CFA_XSP16, literal(-6)))
        CFI (cfiCond290) ?RET_LOW load(1, XDATA, add(CFA_XSP16, literal(-5)))
        CFI (cfiCond290) ?RET_HIGH load(1, XDATA, add(CFA_XSP16, literal(-4)))
        CFI (cfiCond290) ?BRET_EXT load(1, XDATA, add(CFA_XSP16, literal(-3)))
        CFI (cfiCond290) DPL0 load(1, XDATA, add(CFA_XSP16, literal(-2)))
        CFI (cfiCond290) DPH0 load(1, XDATA, add(CFA_XSP16, literal(-1)))
        CFI (cfiCond290) CFA_SP SP+0
        CFI (cfiCond290) CFA_XSP16 add(XSP16, 16)
        CFI Block cfiPicker291 Using cfiCommon1
        CFI (cfiPicker291) NoFunction
        CFI (cfiPicker291) Picker
        MOVX    A,@DPTR
        ADD     A,?V0 + 0
        MOV     R2,A
        INC     DPTR
        MOVX    A,@DPTR
        ADDC    A,?V0 + 1
        MOV     R3,A
        RET
        CFI EndBlock cfiCond289
        CFI EndBlock cfiCond290
        CFI EndBlock cfiPicker291
// 1447 
// 1448 /*********************************************************************
// 1449  * @fn      osal_nv_delete
// 1450  *
// 1451  * @brief   Delete item from NV. This function will fail if the length
// 1452  *          parameter does not match the length of the item in NV.
// 1453  *
// 1454  * @param   id  - Valid NV item Id.
// 1455  * @param   len - Length of item to delete.
// 1456  *
// 1457  * @return  SUCCESS if item was deleted,
// 1458  *          NV_ITEM_UNINIT if item did not exist in NV,
// 1459  *          NV_BAD_ITEM_LEN if length parameter not correct,
// 1460  *          NV_OPER_FAILED if attempted deletion failed.
// 1461  */

        RSEG BANKED_CODE:CODE:NOROOT(0)
// 1462 uint8 osal_nv_delete( uint16 id, uint16 len )
osal_nv_delete:
        CFI Block cfiBlock292 Using cfiCommon0
        CFI Function osal_nv_delete
        CODE
// 1463 {
        FUNCALL osal_nv_delete, findItem
        LOCFRAME ISTACK, 0, STACK
        LOCFRAME PSTACK, 0, STACK
        LOCFRAME XSTACK, 14, STACK
        LOCFRAME IOVERLAY, 0, STATIC
        LOCFRAME DOVERLAY, 0, STATIC
        ARGFRAME ISTACK, 0, STACK
        ARGFRAME PSTACK, 0, STACK
        ARGFRAME XSTACK, 14, STACK
        ARGFRAME IOVERLAY, 0, STATIC
        ARGFRAME DOVERLAY, 0, STATIC
        FUNCALL osal_nv_delete, osal_nv_item_len
        LOCFRAME ISTACK, 0, STACK
        LOCFRAME PSTACK, 0, STACK
        LOCFRAME XSTACK, 14, STACK
        LOCFRAME IOVERLAY, 0, STATIC
        LOCFRAME DOVERLAY, 0, STATIC
        ARGFRAME ISTACK, 0, STACK
        ARGFRAME PSTACK, 0, STACK
        ARGFRAME XSTACK, 14, STACK
        ARGFRAME IOVERLAY, 0, STATIC
        ARGFRAME DOVERLAY, 0, STATIC
        FUNCALL osal_nv_delete, setItem
        LOCFRAME ISTACK, 0, STACK
        LOCFRAME PSTACK, 0, STACK
        LOCFRAME XSTACK, 14, STACK
        LOCFRAME IOVERLAY, 0, STATIC
        LOCFRAME DOVERLAY, 0, STATIC
        ARGFRAME ISTACK, 0, STACK
        ARGFRAME PSTACK, 0, STACK
        ARGFRAME XSTACK, 14, STACK
        ARGFRAME IOVERLAY, 0, STATIC
        ARGFRAME DOVERLAY, 0, STATIC
        FUNCALL osal_nv_delete, findItem
        LOCFRAME ISTACK, 0, STACK
        LOCFRAME PSTACK, 0, STACK
        LOCFRAME XSTACK, 14, STACK
        LOCFRAME IOVERLAY, 0, STATIC
        LOCFRAME DOVERLAY, 0, STATIC
        ARGFRAME ISTACK, 0, STACK
        ARGFRAME PSTACK, 0, STACK
        ARGFRAME XSTACK, 14, STACK
        ARGFRAME IOVERLAY, 0, STATIC
        ARGFRAME DOVERLAY, 0, STATIC
        MOV     A,#-0xe
        LCALL   ?BANKED_ENTER_XDATA
        CFI DPH0 load(1, XDATA, add(CFA_XSP16, literal(-1)))
        CFI DPL0 load(1, XDATA, add(CFA_XSP16, literal(-2)))
        CFI ?BRET_EXT load(1, XDATA, add(CFA_XSP16, literal(-3)))
        CFI ?RET_HIGH load(1, XDATA, add(CFA_XSP16, literal(-4)))
        CFI ?RET_LOW load(1, XDATA, add(CFA_XSP16, literal(-5)))
        CFI R7 load(1, XDATA, add(CFA_XSP16, literal(-6)))
        CFI V5 load(1, XDATA, add(CFA_XSP16, literal(-7)))
        CFI V4 load(1, XDATA, add(CFA_XSP16, literal(-8)))
        CFI V3 load(1, XDATA, add(CFA_XSP16, literal(-9)))
        CFI V2 load(1, XDATA, add(CFA_XSP16, literal(-10)))
        CFI V1 load(1, XDATA, add(CFA_XSP16, literal(-11)))
        CFI V0 load(1, XDATA, add(CFA_XSP16, literal(-12)))
        CFI VB load(1, XDATA, add(CFA_XSP16, literal(-13)))
        CFI R6 load(1, XDATA, add(CFA_XSP16, literal(-14)))
        CFI CFA_SP SP+0
        CFI CFA_XSP16 add(XSP16, 14)
        ; Saved register size: 14
        ; Auto size: 0
        MOV     A,R2
        MOV     R6,A
        MOV     A,R3
        MOV     R7,A
        MOV     ?V0 + 2,R4
        MOV     ?V0 + 3,R5
// 1464   uint16 length;
// 1465   uint16 offset;
// 1466 
// 1467   offset = findItem( id );
        ; Setup parameters for call to function findItem
        LCALL   ??findItem?relay
        MOV     ?V0 + 0,R2
        MOV     ?V0 + 1,R3
// 1468   if ( offset == OSAL_NV_ITEM_NULL )
        MOV     A,R2
        ORL     A,?V0 + 1
        JNZ     ??osal_nv_delete_0
// 1469   {
// 1470     // NV item does not exist
// 1471     return NV_ITEM_UNINIT;
        MOV     R1,#0x9
        SJMP    ??osal_nv_delete_1
// 1472   }
// 1473 
// 1474   length = osal_nv_item_len( id );
// 1475   if ( length != len )
??osal_nv_delete_0:
        ; Setup parameters for call to function osal_nv_item_len
        MOV     A,R6
        MOV     R2,A
        MOV     A,R7
        MOV     R3,A
        LCALL   ??osal_nv_item_len?relay
        MOV     ?V0 + 4,R2
        MOV     ?V0 + 5,R3
        MOV     A,?V0 + 2
        XRL     A,?V0 + 4
        JNZ     ??osal_nv_delete_2
        MOV     A,?V0 + 3
        XRL     A,?V0 + 5
??osal_nv_delete_2:
        JZ      ??osal_nv_delete_3
// 1476   {
// 1477     // NV item has different length
// 1478     return NV_BAD_ITEM_LEN;
        MOV     R1,#0xc
        SJMP    ??osal_nv_delete_1
// 1479   }
// 1480 
// 1481   // Set item header ID to zero to 'delete' the item
// 1482   setItem( findPg, offset, eNvZero );
??osal_nv_delete_3:
        ; Setup parameters for call to function setItem
        MOV     R4,#0x1
        MOV     R2,?V0 + 0
        MOV     R3,?V0 + 1
        MOV     DPTR,#findPg
        MOVX    A,@DPTR
        MOV     R1,A
        LCALL   ??setItem?relay
// 1483 
// 1484   // Verify that item has been removed
// 1485   offset = findItem( id );
// 1486   if ( offset != OSAL_NV_ITEM_NULL )
        ; Setup parameters for call to function findItem
        MOV     A,R6
        MOV     R2,A
        MOV     A,R7
        MOV     R3,A
        LCALL   ??findItem?relay
        MOV     ?V0 + 1,R3
        MOV     A,R2
        ORL     A,?V0 + 1
        JZ      ??osal_nv_delete_4
// 1487   {
// 1488     // Still there
// 1489     return NV_OPER_FAILED;
        MOV     R1,#0xa
        SJMP    ??osal_nv_delete_1
// 1490   }
// 1491   else
// 1492   {
// 1493     // Yes, it's gone
// 1494     return SUCCESS;
??osal_nv_delete_4:
        MOV     R1,#0x0
// 1495   }
??osal_nv_delete_1:
        LJMP    ??Subroutine53_0 & 0xFFFF
        CFI EndBlock cfiBlock292
// 1496 }

        RSEG BANKED_CODE:CODE:NOROOT(0)
// 1497 void osal_nv_factory_reset(void)
osal_nv_factory_reset:
        CFI Block cfiBlock293 Using cfiCommon0
        CFI Function osal_nv_factory_reset
        CODE
// 1498 {
        FUNCALL osal_nv_factory_reset, HalFlashErase
        LOCFRAME ISTACK, 0, STACK
        LOCFRAME PSTACK, 0, STACK
        LOCFRAME XSTACK, 9, STACK
        LOCFRAME IOVERLAY, 0, STATIC
        LOCFRAME DOVERLAY, 0, STATIC
        ARGFRAME ISTACK, 0, STACK
        ARGFRAME PSTACK, 0, STACK
        ARGFRAME XSTACK, 9, STACK
        ARGFRAME IOVERLAY, 0, STATIC
        ARGFRAME DOVERLAY, 0, STATIC
        MOV     A,#-0x9
        LCALL   ?BANKED_ENTER_XDATA
        CFI DPH0 load(1, XDATA, add(CFA_XSP16, literal(-1)))
        CFI DPL0 load(1, XDATA, add(CFA_XSP16, literal(-2)))
        CFI ?BRET_EXT load(1, XDATA, add(CFA_XSP16, literal(-3)))
        CFI ?RET_HIGH load(1, XDATA, add(CFA_XSP16, literal(-4)))
        CFI ?RET_LOW load(1, XDATA, add(CFA_XSP16, literal(-5)))
        CFI R7 load(1, XDATA, add(CFA_XSP16, literal(-6)))
        CFI V0 load(1, XDATA, add(CFA_XSP16, literal(-7)))
        CFI VB load(1, XDATA, add(CFA_XSP16, literal(-8)))
        CFI R6 load(1, XDATA, add(CFA_XSP16, literal(-9)))
        CFI CFA_SP SP+0
        CFI CFA_XSP16 add(XSP16, 9)
        ; Saved register size: 9
        ; Auto size: 0
// 1499   uint8 pg;
// 1500   for (pg = OSAL_NV_PAGE_BEG; pg <= OSAL_NV_PAGE_END; pg++) {
        MOV     R6,#0x79
// 1501     HalFlashErase(pg);
??osal_nv_factory_reset_0:
        ; Setup parameters for call to function HalFlashErase
        MOV     A,R6
        MOV     R1,A
        LCALL   ??HalFlashErase?relay
// 1502   }
        INC     R6
        MOV     A,R6
        CLR     C
        SUBB    A,#0x7f
        JC      ??osal_nv_factory_reset_0
// 1503 }
        LJMP    ?Subroutine2 & 0xFFFF
        CFI EndBlock cfiBlock293

        RSEG BANK_RELAYS:CODE:REORDER:NOROOT(0)
??initNV?relay:
        LCALL   ?BDISPATCH
        DATA
        DC24    initNV

        RSEG BANK_RELAYS:CODE:REORDER:NOROOT(0)
??initPage?relay:
        LCALL   ?BDISPATCH
        DATA
        DC24    initPage

        RSEG BANK_RELAYS:CODE:REORDER:NOROOT(0)
??erasePage?relay:
        LCALL   ?BDISPATCH
        DATA
        DC24    erasePage

        RSEG BANK_RELAYS:CODE:REORDER:NOROOT(0)
??compactPage?relay:
        LCALL   ?BDISPATCH
        DATA
        DC24    compactPage

        RSEG BANK_RELAYS:CODE:REORDER:NOROOT(0)
??findItem?relay:
        LCALL   ?BDISPATCH
        DATA
        DC24    findItem

        RSEG BANK_RELAYS:CODE:REORDER:NOROOT(0)
??initItem?relay:
        LCALL   ?BDISPATCH
        DATA
        DC24    initItem

        RSEG BANK_RELAYS:CODE:REORDER:NOROOT(0)
??setItem?relay:
        LCALL   ?BDISPATCH
        DATA
        DC24    setItem

        RSEG BANK_RELAYS:CODE:REORDER:NOROOT(0)
??calcChkF?relay:
        LCALL   ?BDISPATCH
        DATA
        DC24    calcChkF

        RSEG BANK_RELAYS:CODE:REORDER:NOROOT(0)
??writeBuf?relay:
        LCALL   ?BDISPATCH
        DATA
        DC24    writeBuf

        RSEG BANK_RELAYS:CODE:REORDER:NOROOT(0)
??xferBuf?relay:
        LCALL   ?BDISPATCH
        DATA
        DC24    xferBuf

        RSEG BANK_RELAYS:CODE:REORDER:NOROOT(0)
??writeItem?relay:
        LCALL   ?BDISPATCH
        DATA
        DC24    writeItem

        RSEG BANK_RELAYS:CODE:REORDER:NOROOT(0)
??osal_nv_init?relay:
        LCALL   ?BDISPATCH
        DATA
        DC24    osal_nv_init

        RSEG BANK_RELAYS:CODE:REORDER:NOROOT(0)
??osal_nv_item_init?relay:
        LCALL   ?BDISPATCH
        DATA
        DC24    osal_nv_item_init

        RSEG BANK_RELAYS:CODE:REORDER:NOROOT(0)
??osal_nv_item_len?relay:
        LCALL   ?BDISPATCH
        DATA
        DC24    osal_nv_item_len

        RSEG BANK_RELAYS:CODE:REORDER:NOROOT(0)
??osal_nv_write?relay:
        LCALL   ?BDISPATCH
        DATA
        DC24    osal_nv_write

        RSEG BANK_RELAYS:CODE:REORDER:NOROOT(0)
??osal_nv_read?relay:
        LCALL   ?BDISPATCH
        DATA
        DC24    osal_nv_read

        RSEG BANK_RELAYS:CODE:REORDER:NOROOT(0)
??osal_nv_delete?relay:
        LCALL   ?BDISPATCH
        DATA
        DC24    osal_nv_delete

        RSEG BANK_RELAYS:CODE:REORDER:NOROOT(0)
??osal_nv_factory_reset?relay:
        LCALL   ?BDISPATCH
        DATA
        DC24    osal_nv_factory_reset

        END
// 1504 /*********************************************************************
// 1505  */
// 
//  6 248 bytes in segment BANKED_CODE
//    108 bytes in segment BANK_RELAYS
//      6 bytes in segment XDATA_ROM_C
//     35 bytes in segment XDATA_Z
// 12 288 bytes in segment ZIGNV_ADDRESS_SPACE
// 
//  6 356 bytes of CODE  memory
//      6 bytes of CONST memory
// 12 323 bytes of XDATA memory
//
//Errors: none
//Warnings: none
