###############################################################################
#                                                                             #
# IAR C/C++ Compiler V8.10.1.10194/W32 for 8051         08/Aug/2017  09:57:21 #
# Copyright 2004-2011 IAR Systems AB.                                         #
#                                                                             #
#    Core               =  plain                                              #
#    Code model         =  banked                                             #
#    Data model         =  large                                              #
#    Calling convention =  xdata reentrant                                    #
#    Constant location  =  data_rom                                           #
#    Dptr setup         =  1,16                                               #
#    Source file        =  D:\work space\Smart Product\Two YHY\Door\v1.03.0   #
#                          Green\ZStack-CC2530-2.5.1a\COMPONENTS\stack\zdo\ZD #
#                          Object.c                                           #
#    Command line       =  -f "D:\work space\Smart Product\Two                #
#                          YHY\Door\v1.03.0  Green\ZStack-CC2530-2.5.1a\Proje #
#                          cts\zstack\HomeAutomation\SmartDoor\CC2530DB\..\To #
#                          ols\CC2530DB\f8wEndev.cfg" (-DCPU32MHZ             #
#                          -DROOT=__near_func -DMAC_CFG_TX_DATA_MAX=3         #
#                          -DMAC_CFG_TX_MAX=6 -DMAC_CFG_RX_MAX=3              #
#                          -DHAL_KEY=FALSE -DHAL_LED=FALSE -DHAL_LCD=FALSE    #
#                          -DHAL_ADC=FALSE -DNV_RESTORE -DNV_INIT             #
#                          -DPOWER_SAVING -DTC_LINKKEY_JOIN) -f "D:\work      #
#                          space\Smart Product\Two YHY\Door\v1.03.0           #
#                          Green\ZStack-CC2530-2.5.1a\Projects\zstack\HomeAut #
#                          omation\SmartDoor\CC2530DB\..\Tools\CC2530DB\f8wCo #
#                          nfig.cfg" (-DZIGBEEPRO -DSECURE=1                  #
#                          -DZG_SECURE_DYNAMIC=0 -DREFLECTOR                  #
#                          -DDEFAULT_CHANLIST=0x06108800                      #
#                          -DZDAPP_CONFIG_PAN_ID=0xFFFF                       #
#                          -DNWK_START_DELAY=100 -DEXTENDED_JOINING_RANDOM_MA #
#                          SK=0x007F -DBEACON_REQUEST_DELAY=100               #
#                          -DBEACON_REQ_DELAY_MASK=0x00FF                     #
#                          -DLINK_STATUS_JITTER_MASK=0x007F                   #
#                          -DROUTE_EXPIRY_TIME=30 -DAPSC_ACK_WAIT_DURATION_PO #
#                          LLED=3000 -DNWK_INDIRECT_MSG_TIMEOUT=7             #
#                          -DMAX_RREQ_ENTRIES=8 -DAPSC_MAX_FRAME_RETRIES=3    #
#                          -DNWK_MAX_DATA_RETRIES=2                           #
#                          -DMAX_POLL_FAILURE_RETRIES=2 -DMAX_BCAST=9         #
#                          -DAPS_MAX_GROUPS=16 -DMAX_RTG_ENTRIES=40           #
#                          -DNWK_MAX_BINDING_ENTRIES=4                        #
#                          -DMAX_BINDING_CLUSTER_IDS=4                        #
#                          -DDEFAULT_KEY={0x58,0x69,0x6E,0x67,0x48,0x75,0x6F, #
#                          0x59,0x75,0x61,0x6E,0x53,0x6D,0x61,0x72,0x74}      #
#                          -DMAC_MAX_FRAME_SIZE=116                           #
#                          -DZDNWKMGR_MIN_TRANSMISSIONS=20 "-DCONST=const     #
#                          __code" -DGENERIC=__generic                        #
#                          -DRFD_RCVC_ALWAYS_ON=FALSE -DPOLL_RATE=0           #
#                          -DQUEUED_POLL_RATE=0 -DRESPONSE_POLL_RATE=0        #
#                          -DREJOIN_POLL_RATE=440) -f "D:\work space\Smart    #
#                          Product\Two YHY\Door\v1.03.0                       #
#                          Green\ZStack-CC2530-2.5.1a\Projects\zstack\HomeAut #
#                          omation\SmartDoor\CC2530DB\..\Tools\CC2530DB\f8wZC #
#                          L.cfg" (-DZCL_READ -DZCL_WRITE -DZCL_REPORT        #
#                          -DZCL_BASIC -DZCL_IDENTIFY -DZCL_ON_OFF            #
#                          -DZCL_KEY_ESTABLISH -DZCL_KEY_ESTABLISHMENT_KEY_GE #
#                          NERATE_TIMEOUT=4 -DZCL_KEY_ESTABLISHMENT_MAC_GENER #
#                          ATE_TIMEOUT=10 -DZCL_KEY_ESTABLISHMENT_EKEY_GENERA #
#                          TE_TIMEOUT=10 -DZCL_LOAD_CONTROL                   #
#                          -DZCL_SIMPLE_METERING -DZCL_PRICING -DZCL_MESSAGE  #
#                          -DZCL_TUNNELING -DZCL_TOU) -DZCL_DEVICE_MGMT       #
#                          "D:\work space\Smart Product\Two YHY\Door\v1.03.0  #
#                           Green\ZStack-CC2530-2.5.1a\COMPONENTS\stack\zdo\Z #
#                          DObject.c" -lC "D:\work space\Smart Product\Two    #
#                          YHY\Door\v1.03.0  Green\ZStack-CC2530-2.5.1a\Proje #
#                          cts\zstack\HomeAutomation\SmartDoor\CC2530DB\EndDe #
#                          viceEB\List\" -lA "D:\work space\Smart             #
#                          Product\Two YHY\Door\v1.03.0                       #
#                          Green\ZStack-CC2530-2.5.1a\Projects\zstack\HomeAut #
#                          omation\SmartDoor\CC2530DB\EndDeviceEB\List\"      #
#                          --diag_suppress Pe001,Pa010 -o "D:\work            #
#                          space\Smart Product\Two YHY\Door\v1.03.0           #
#                          Green\ZStack-CC2530-2.5.1a\Projects\zstack\HomeAut #
#                          omation\SmartDoor\CC2530DB\EndDeviceEB\Obj\" -e    #
#                          --debug --core=plain --dptr=16,1                   #
#                          --data_model=large --code_model=banked             #
#                          --calling_convention=xdata_reentrant               #
#                          --place_constants=data_rom --nr_virtual_regs 16    #
#                          -I "D:\work space\Smart Product\Two                #
#                          YHY\Door\v1.03.0  Green\ZStack-CC2530-2.5.1a\Proje #
#                          cts\zstack\HomeAutomation\SmartDoor\CC2530DB\" -I  #
#                          "D:\work space\Smart Product\Two YHY\Door\v1.03.0  #
#                           Green\ZStack-CC2530-2.5.1a\Projects\zstack\HomeAu #
#                          tomation\SmartDoor\CC2530DB\..\Source\" -I         #
#                          "D:\work space\Smart Product\Two YHY\Door\v1.03.0  #
#                           Green\ZStack-CC2530-2.5.1a\Projects\zstack\HomeAu #
#                          tomation\SmartDoor\CC2530DB\..\..\Source\" -I      #
#                          "D:\work space\Smart Product\Two YHY\Door\v1.03.0  #
#                           Green\ZStack-CC2530-2.5.1a\Projects\zstack\HomeAu #
#                          tomation\SmartDoor\CC2530DB\..\..\..\ZMain\TI2530D #
#                          B\" -I "D:\work space\Smart Product\Two            #
#                          YHY\Door\v1.03.0  Green\ZStack-CC2530-2.5.1a\Proje #
#                          cts\zstack\HomeAutomation\SmartDoor\CC2530DB\..\.. #
#                          \..\..\..\Components\hal\include\" -I "D:\work     #
#                          space\Smart Product\Two YHY\Door\v1.03.0           #
#                          Green\ZStack-CC2530-2.5.1a\Projects\zstack\HomeAut #
#                          omation\SmartDoor\CC2530DB\..\..\..\..\..\Componen #
#                          ts\hal\target\CC2530EB\" -I "D:\work space\Smart   #
#                          Product\Two YHY\Door\v1.03.0                       #
#                          Green\ZStack-CC2530-2.5.1a\Projects\zstack\HomeAut #
#                          omation\SmartDoor\CC2530DB\..\..\..\..\..\Componen #
#                          ts\mac\include\" -I "D:\work space\Smart           #
#                          Product\Two YHY\Door\v1.03.0                       #
#                          Green\ZStack-CC2530-2.5.1a\Projects\zstack\HomeAut #
#                          omation\SmartDoor\CC2530DB\..\..\..\..\..\Componen #
#                          ts\mac\high_level\" -I "D:\work space\Smart        #
#                          Product\Two YHY\Door\v1.03.0                       #
#                          Green\ZStack-CC2530-2.5.1a\Projects\zstack\HomeAut #
#                          omation\SmartDoor\CC2530DB\..\..\..\..\..\Componen #
#                          ts\mac\low_level\srf04\" -I "D:\work space\Smart   #
#                          Product\Two YHY\Door\v1.03.0                       #
#                          Green\ZStack-CC2530-2.5.1a\Projects\zstack\HomeAut #
#                          omation\SmartDoor\CC2530DB\..\..\..\..\..\Componen #
#                          ts\mac\low_level\srf04\single_chip\" -I "D:\work   #
#                          space\Smart Product\Two YHY\Door\v1.03.0           #
#                          Green\ZStack-CC2530-2.5.1a\Projects\zstack\HomeAut #
#                          omation\SmartDoor\CC2530DB\..\..\..\..\..\Componen #
#                          ts\mt\" -I "D:\work space\Smart Product\Two        #
#                          YHY\Door\v1.03.0  Green\ZStack-CC2530-2.5.1a\Proje #
#                          cts\zstack\HomeAutomation\SmartDoor\CC2530DB\..\.. #
#                          \..\..\..\Components\osal\include\" -I "D:\work    #
#                          space\Smart Product\Two YHY\Door\v1.03.0           #
#                          Green\ZStack-CC2530-2.5.1a\Projects\zstack\HomeAut #
#                          omation\SmartDoor\CC2530DB\..\..\..\..\..\Componen #
#                          ts\services\saddr\" -I "D:\work space\Smart        #
#                          Product\Two YHY\Door\v1.03.0                       #
#                          Green\ZStack-CC2530-2.5.1a\Projects\zstack\HomeAut #
#                          omation\SmartDoor\CC2530DB\..\..\..\..\..\Componen #
#                          ts\services\sdata\" -I "D:\work space\Smart        #
#                          Product\Two YHY\Door\v1.03.0                       #
#                          Green\ZStack-CC2530-2.5.1a\Projects\zstack\HomeAut #
#                          omation\SmartDoor\CC2530DB\..\..\..\..\..\Componen #
#                          ts\stack\af\" -I "D:\work space\Smart Product\Two  #
#                          YHY\Door\v1.03.0  Green\ZStack-CC2530-2.5.1a\Proje #
#                          cts\zstack\HomeAutomation\SmartDoor\CC2530DB\..\.. #
#                          \..\..\..\Components\stack\nwk\" -I "D:\work       #
#                          space\Smart Product\Two YHY\Door\v1.03.0           #
#                          Green\ZStack-CC2530-2.5.1a\Projects\zstack\HomeAut #
#                          omation\SmartDoor\CC2530DB\..\..\..\..\..\Componen #
#                          ts\stack\sapi\" -I "D:\work space\Smart            #
#                          Product\Two YHY\Door\v1.03.0                       #
#                          Green\ZStack-CC2530-2.5.1a\Projects\zstack\HomeAut #
#                          omation\SmartDoor\CC2530DB\..\..\..\..\..\Componen #
#                          ts\stack\sec\" -I "D:\work space\Smart             #
#                          Product\Two YHY\Door\v1.03.0                       #
#                          Green\ZStack-CC2530-2.5.1a\Projects\zstack\HomeAut #
#                          omation\SmartDoor\CC2530DB\..\..\..\..\..\Componen #
#                          ts\stack\sys\" -I "D:\work space\Smart             #
#                          Product\Two YHY\Door\v1.03.0                       #
#                          Green\ZStack-CC2530-2.5.1a\Projects\zstack\HomeAut #
#                          omation\SmartDoor\CC2530DB\..\..\..\..\..\Componen #
#                          ts\stack\zcl\" -I "D:\work space\Smart             #
#                          Product\Two YHY\Door\v1.03.0                       #
#                          Green\ZStack-CC2530-2.5.1a\Projects\zstack\HomeAut #
#                          omation\SmartDoor\CC2530DB\..\..\..\..\..\Componen #
#                          ts\stack\zdo\" -I "D:\work space\Smart             #
#                          Product\Two YHY\Door\v1.03.0                       #
#                          Green\ZStack-CC2530-2.5.1a\Projects\zstack\HomeAut #
#                          omation\SmartDoor\CC2530DB\..\..\..\..\..\Componen #
#                          ts\zmac\" -I "D:\work space\Smart Product\Two      #
#                          YHY\Door\v1.03.0  Green\ZStack-CC2530-2.5.1a\Proje #
#                          cts\zstack\HomeAutomation\SmartDoor\CC2530DB\..\.. #
#                          \..\..\..\Components\zmac\f8w\" -Oh                #
#                          --require_prototypes                               #
#    List file          =  D:\work space\Smart Product\Two YHY\Door\v1.03.0   #
#                          Green\ZStack-CC2530-2.5.1a\Projects\zstack\HomeAut #
#                          omation\SmartDoor\CC2530DB\EndDeviceEB\List\ZDObje #
#                          ct.lst                                             #
#    Object file        =  D:\work space\Smart Product\Two YHY\Door\v1.03.0   #
#                          Green\ZStack-CC2530-2.5.1a\Projects\zstack\HomeAut #
#                          omation\SmartDoor\CC2530DB\EndDeviceEB\Obj\ZDObjec #
#                          t.r51                                              #
#                                                                             #
#                                                                             #
###############################################################################

D:\work space\Smart Product\Two YHY\Door\v1.03.0  Green\ZStack-CC2530-2.5.1a\COMPONENTS\stack\zdo\ZDObject.c
      1          /**************************************************************************************************
      2            Filename:       ZDObject.c
      3            Revised:        $Date: 2011-07-13 10:55:53 -0700 (Wed, 13 Jul 2011) $
      4            Revision:       $Revision: 26766 $
      5          
      6            Description:    This is the Zigbee Device Object.
      7          
      8          
      9            Copyright 2004-2011 Texas Instruments Incorporated. All rights reserved.
     10          
     11            IMPORTANT: Your use of this Software is limited to those specific rights
     12            granted under the terms of a software license agreement between the user
     13            who downloaded the software, his/her employer (which must be your employer)
     14            and Texas Instruments Incorporated (the "License"). You may not use this
     15            Software unless you agree to abide by the terms of the License. The License
     16            limits your use, and you acknowledge, that the Software may not be modified,
     17            copied or distributed unless embedded on a Texas Instruments microcontroller
     18            or used solely and exclusively in conjunction with a Texas Instruments radio
     19            frequency transceiver, which is integrated into your product. Other than for
     20            the foregoing purpose, you may not use, reproduce, copy, prepare derivative
     21            works of, modify, distribute, perform, display or sell this Software and/or
     22            its documentation for any purpose.
     23          
     24            YOU FURTHER ACKNOWLEDGE AND AGREE THAT THE SOFTWARE AND DOCUMENTATION ARE
     25            PROVIDED “AS IS?WITHOUT WARRANTY OF ANY KIND, EITHER EXPRESS OR IMPLIED,
     26            INCLUDING WITHOUT LIMITATION, ANY WARRANTY OF MERCHANTABILITY, TITLE,
     27            NON-INFRINGEMENT AND FITNESS FOR A PARTICULAR PURPOSE. IN NO EVENT SHALL
     28            TEXAS INSTRUMENTS OR ITS LICENSORS BE LIABLE OR OBLIGATED UNDER CONTRACT,
     29            NEGLIGENCE, STRICT LIABILITY, CONTRIBUTION, BREACH OF WARRANTY, OR OTHER
     30            LEGAL EQUITABLE THEORY ANY DIRECT OR INDIRECT DAMAGES OR EXPENSES
     31            INCLUDING BUT NOT LIMITED TO ANY INCIDENTAL, SPECIAL, INDIRECT, PUNITIVE
     32            OR CONSEQUENTIAL DAMAGES, LOST PROFITS OR LOST DATA, COST OF PROCUREMENT
     33            OF SUBSTITUTE GOODS, TECHNOLOGY, SERVICES, OR ANY CLAIMS BY THIRD PARTIES
     34            (INCLUDING BUT NOT LIMITED TO ANY DEFENSE THEREOF), OR OTHER SIMILAR COSTS.
     35          
     36            Should you have any questions regarding your right to use this Software,
     37            contact Texas Instruments Incorporated at www.TI.com.
     38          **************************************************************************************************/
     39          
     40          /*********************************************************************
     41           * INCLUDES
     42           */
     43          #include "ZComdef.h"
     44          #include "OSAL.h"
     45          #include "OSAL_Nv.h"
     46          #include "rtg.h"
     47          #include "NLMEDE.h"
     48          #include "nwk_globals.h"
     49          #include "APS.h"
     50          #include "APSMEDE.h"
     51          #include "AssocList.h"
     52          #include "BindingTable.h"
     53          #include "AddrMgr.h"
     54          #include "AF.h"
     55          #include "ZDObject.h"
     56          #include "ZDProfile.h"
     57          #include "ZDConfig.h"
     58          #include "ZDSecMgr.h"
     59          #include "ZDApp.h"
     60          #include "nwk_util.h"   // NLME_IsAddressBroadcast()
     61          #include "ZGlobals.h"
     62          #if defined MT_ZDO_CB_FUNC
     63          #include "MT.h"
     64          #endif
     65          
     66          #if defined( LCD_SUPPORTED )
     67            #include "OnBoard.h"
     68          #endif
     69          
     70          /* HAL */
     71          #include "hal_lcd.h"
     72          
     73          /*********************************************************************
     74           * MACROS
     75           */
     76          
     77          /*********************************************************************
     78           * CONSTANTS
     79           */
     80          // NLME Stub Implementations
     81          #define ZDO_ProcessMgmtPermitJoinTimeout NLME_PermitJoiningTimeout
     82          
     83          // Status fields used by ZDO_ProcessMgmtRtgReq
     84          #define ZDO_MGMT_RTG_ENTRY_ACTIVE             0x00
     85          #define ZDO_MGMT_RTG_ENTRY_DISCOVERY_UNDERWAY 0x01
     86          #define ZDO_MGMT_RTG_ENTRY_DISCOVERY_FAILED   0x02
     87          #define ZDO_MGMT_RTG_ENTRY_INACTIVE           0x03
     88          
     89          /*********************************************************************
     90           * TYPEDEFS
     91           */
     92          #if defined ( REFLECTOR )
     93          typedef struct
     94          {
     95            byte SrcTransSeq;
     96            zAddrType_t SrcAddr;
     97            uint16 LocalCoordinator;
     98            byte epIntf;
     99            uint16 ProfileID;
    100            byte numInClusters;
    101            uint16 *inClusters;
    102            byte numOutClusters;
    103            uint16 *outClusters;
    104            byte SecurityUse;
    105            byte status;
    106          } ZDO_EDBind_t;
    107          #endif // defined ( REFLECTOR )
    108          
    109          enum
    110          {
    111            ZDMATCH_INIT,           // Initialized
    112            ZDMATCH_WAIT_REQ,       // Received first request, waiting for second
    113            ZDMATCH_SENDING_BINDS   // Received both requests, sending unbind/binds
    114          };
    115          
    116          enum
    117          {
    118            ZDMATCH_SENDING_NOT,
    119            ZDMATCH_SENDING_UNBIND,
    120            ZDMATCH_SENDING_BIND
    121          };
    122          
    123          /*********************************************************************
    124           * GLOBAL VARIABLES
    125           */
    126          
    127          /*********************************************************************
    128           * EXTERNAL VARIABLES
    129           */
    130          
    131          /*********************************************************************
    132           * EXTERNAL FUNCTIONS
    133           */
    134          
    135          /*********************************************************************
    136           * LOCAL VARIABLES
    137           */

   \                                 In  segment XDATA_Z, align 1, keep-with-next
    138          static uint16 ZDOBuildBuf[26];  // temp area to build data without allocation
   \                     ZDOBuildBuf:
   \   000000                DS 52
   \   000034                REQUIRE __INIT_XDATA_Z
    139          
    140          #if defined ( REFLECTOR )

   \                                 In  segment XDATA_Z, align 1, keep-with-next
    141          static ZDO_EDBind_t *ZDO_EDBind;     // Null when not used
   \                     ZDO_EDBind:
   \   000000                DS 2
   \   000002                REQUIRE __INIT_XDATA_Z
    142          #endif
    143          
    144          #if defined ( MANAGED_SCAN )
    145            uint32 managedScanNextChannel = 0;
    146            uint32 managedScanChannelMask = 0;
    147            uint8  managedScanTimesPerChannel = 0;
    148          #endif
    149          

   \                                 In  segment XDATA_Z, align 1, keep-with-next
    150          ZDMatchEndDeviceBind_t *matchED = (ZDMatchEndDeviceBind_t *)NULL;
   \                     matchED:
   \   000000                DS 2
   \   000002                REQUIRE __INIT_XDATA_Z
    151          

   \                                 In  segment XDATA_Z, align 1, keep-with-next
    152          uint32 apsChannelMask = 0;
   \                     apsChannelMask:
   \   000000                DS 4
   \   000004                REQUIRE __INIT_XDATA_Z
    153          
    154          /*********************************************************************
    155           * LOCAL FUNCTIONS
    156           */
    157          static void ZDODeviceSetup( void );
    158          #if defined ( MANAGED_SCAN )
    159            static void ZDOManagedScan_Next( void );
    160          #endif
    161          #if defined ( REFLECTOR )
    162            static void ZDO_RemoveEndDeviceBind( void );
    163            static void ZDO_SendEDBindRsp( byte TransSeq, zAddrType_t *dstAddr, byte Status, byte secUse );
    164          #endif
    165          static byte ZDO_CompareClusterLists( byte numList1, uint16 *list1,
    166                                          byte numList2, uint16 *list2, uint16 *pMatches );
    167          static void ZDO_RemoveMatchMemory( void );
    168          static uint8 ZDO_CopyMatchInfo( ZDEndDeviceBind_t *destReq, ZDEndDeviceBind_t *srcReq );
    169          static void ZDO_EndDeviceBindMatchTimeoutCB( void );
    170          uint8 *ZDO_ConvertOTAClusters( uint8 cnt, uint8 *inBuf, uint16 *outList );
    171          static void zdoSendStateChangeMsg(uint8 state, uint8 taskId);
    172          
    173          /*********************************************************************
    174           * @fn          ZDO_Init
    175           *
    176           * @brief       ZDObject and ZDProfile initialization.
    177           *
    178           * @param       none
    179           *
    180           * @return      none
    181           */

   \                                 In  segment BANKED_CODE, align 1, keep-with-next
    182          void ZDO_Init( void )
   \                     ZDO_Init:
    183          {
   \   000000   C082         PUSH    DPL
   \   000002   C083         PUSH    DPH
   \   000004                ; Saved register size: 2
   \   000004                ; Auto size: 0
    184            // Initialize ZD items
    185            #if defined ( REFLECTOR )
    186            ZDO_EDBind = NULL;
   \   000004   90....       MOV     DPTR,#ZDO_EDBind
   \   000007   E4           CLR     A
   \   000008   F0           MOVX    @DPTR,A
   \   000009   A3           INC     DPTR
   \   00000A   F0           MOVX    @DPTR,A
    187            #endif
    188          
    189            // Initialize default ZDO_UseExtendedPANID to the APS one.
    190            osal_cpyExtAddr( ZDO_UseExtendedPANID, AIB_apsUseExtendedPANID );
   \   00000B                ; Setup parameters for call to function sAddrExtCpy
   \   00000B   7C..         MOV     R4,#AIB_apsUseExtendedPANID & 0xff
   \   00000D   7D..         MOV     R5,#(AIB_apsUseExtendedPANID >> 8) & 0xff
   \   00000F   7A..         MOV     R2,#ZDO_UseExtendedPANID & 0xff
   \   000011   7B..         MOV     R3,#(ZDO_UseExtendedPANID >> 8) & 0xff
   \   000013   12....       LCALL   ??sAddrExtCpy?relay
    191          
    192            // Setup the device - type of device to create.
    193            ZDODeviceSetup();
   \   000016   90....       MOV     DPTR,#zgDeviceLogicalType
   \   000019   E0           MOVX    A,@DPTR
   \   00001A   7004         JNZ     ??ZDO_Init_0
   \   00001C   7900         MOV     R1,#0x0
   \   00001E   8002         SJMP    ??ZDO_Init_1
   \                     ??ZDO_Init_0:
   \   000020   7901         MOV     R1,#0x1
   \                     ??ZDO_Init_1:
   \   000022                ; Setup parameters for call to function APS_ReflectorInit
   \   000022   12....       LCALL   ??APS_ReflectorInit?relay
   \   000025                ; Setup parameters for call to function NLME_DeviceJoiningInit
   \   000025   12....       LCALL   ??NLME_DeviceJoiningInit?relay
    194          }
   \   000028   02....       LJMP    ?Subroutine0 & 0xFFFF

   \                                 In  segment BANKED_CODE, align 1, keep-with-next
   \                     ?Subroutine0:
   \   000000   D083         POP     DPH
   \   000002   D082         POP     DPL
   \   000004   02....       LJMP    ?BRET
    195          
    196          #if defined ( MANAGED_SCAN )
    197          /*********************************************************************
    198           * @fn      ZDOManagedScan_Next()
    199           *
    200           * @brief   Setup a managed scan.
    201           *
    202           * @param   none
    203           *
    204           * @return  none
    205           */
    206          static void ZDOManagedScan_Next( void )
    207          {
    208            // Is it the first time
    209            if ( managedScanNextChannel == 0 && managedScanTimesPerChannel == 0 )
    210            {
    211              // Setup the defaults
    212              managedScanNextChannel  = 1;
    213          
    214              while( managedScanNextChannel && (zgDefaultChannelList & managedScanNextChannel) == 0 )
    215                managedScanNextChannel <<= 1;
    216          
    217              managedScanChannelMask = managedScanNextChannel;
    218              managedScanTimesPerChannel = MANAGEDSCAN_TIMES_PRE_CHANNEL;
    219            }
    220            else
    221            {
    222              // Do we need to go to the next channel
    223              if ( managedScanTimesPerChannel == 0 )
    224              {
    225                // Find next active channel
    226                managedScanChannelMask  = managedScanNextChannel;
    227                managedScanTimesPerChannel = MANAGEDSCAN_TIMES_PRE_CHANNEL;
    228              }
    229              else
    230              {
    231                managedScanTimesPerChannel--;
    232          
    233                if ( managedScanTimesPerChannel == 0 )
    234                {
    235                  managedScanNextChannel  <<= 1;
    236                  while( managedScanNextChannel && (zgDefaultChannelList & managedScanNextChannel) == 0 )
    237                    managedScanNextChannel <<= 1;
    238          
    239                  if ( managedScanNextChannel == 0 )
    240                    zdoDiscCounter  = NUM_DISC_ATTEMPTS + 1; // Stop
    241                }
    242              }
    243            }
    244          }
    245          #endif // MANAGED_SCAN
    246          
    247          /*********************************************************************
    248           * @fn      ZDODeviceSetup()
    249           *
    250           * @brief   Call set functions depending on the type of device compiled.
    251           *
    252           * @param   none
    253           *
    254           * @return  none
    255           */
    256          static void ZDODeviceSetup( void )
    257          {
    258            if ( ZG_BUILD_COORDINATOR_TYPE )
    259            {
    260              NLME_CoordinatorInit();
    261            }
    262          
    263          #if defined ( REFLECTOR )
    264            APS_ReflectorInit( (ZG_DEVICE_COORDINATOR_TYPE) ? APS_REFLECTOR_PUBLIC :  APS_REFLECTOR_PRIVATE );
    265          #endif
    266          
    267            if ( ZG_BUILD_JOINING_TYPE )
    268            {
    269              NLME_DeviceJoiningInit();
    270            }
    271          }
    272          
    273          /*********************************************************************
    274           * @fn          ZDO_StartDevice
    275           *
    276           * @brief       This function starts a device in a network.
    277           *
    278           * @param       logicalType     - Device type to start
    279           *              startMode       - indicates mode of device startup
    280           *              beaconOrder     - indicates time betwen beacons
    281           *              superframeOrder - indicates length of active superframe
    282           *
    283           * @return      none
    284           */

   \                                 In  segment BANKED_CODE, align 1, keep-with-next
    285          void ZDO_StartDevice( byte logicalType, devStartModes_t startMode, byte beaconOrder, byte superframeOrder )
   \                     ZDO_StartDevice:
    286          {
   \   000000   74F4         MOV     A,#-0xc
   \   000002   12....       LCALL   ?BANKED_ENTER_XDATA
   \   000005                ; Saved register size: 12
   \   000005                ; Auto size: 11
   \   000005   74F5         MOV     A,#-0xb
   \   000007   12....       LCALL   ?ALLOC_XSTACK8
   \   00000A   E9           MOV     A,R1
   \   00000B   FE           MOV     R6,A
   \   00000C   EA           MOV     A,R2
   \   00000D   FF           MOV     R7,A
    287            ZStatus_t ret;
    288            uint32 u32OrpChanal = 0;//add
    289            if((_NIB.nwkLogicalChannel >= 0x0B)&&(_NIB.nwkLogicalChannel <= 0x1A))
   \   00000E   12....       LCALL   ?Subroutine117 & 0xFFFF
   \                     ??CrossCallReturnLabel_212:
   \   000011   501A         JNC     ??ZDO_StartDevice_0
    290            {
    291              u32OrpChanal = ((uint32)1<<_NIB.nwkLogicalChannel);//add
    292              zgDefaultChannelList=u32OrpChanal;
   \   000013   75..01       MOV     ?V0 + 0,#0x1
   \   000016   75..00       MOV     ?V0 + 1,#0x0
   \   000019   75..00       MOV     ?V0 + 2,#0x0
   \   00001C   75..00       MOV     ?V0 + 3,#0x0
   \   00001F   E8           MOV     A,R0
   \   000020   78..         MOV     R0,#?V0 + 0
   \   000022   12....       LCALL   ?L_SHL
   \   000025   90....       MOV     DPTR,#zgDefaultChannelList
   \   000028   78..         MOV     R0,#?V0 + 0
   \   00002A   12....       LCALL   ?L_MOV_TO_X
    293            }
    294            
    295          #if defined ( ZIGBEE_FREQ_AGILITY )
    296            static uint8 discRetries = 0;
    297          #endif
    298          #if defined ( ZIGBEE_COMMISSIONING )
    299            static uint8 scanCnt = 0;
    300          #endif
    301            
    302            ret = ZUnsupportedMode;
    303            
    304            if ( ZG_BUILD_COORDINATOR_TYPE && logicalType == NODETYPE_COORDINATOR )
    305            {
    306              if ( startMode == MODE_HARD )
    307              {
    308                devState = DEV_COORD_STARTING;
    309                ret = NLME_NetworkFormationRequest( zgConfigPANID, zgApsUseExtendedPANID, zgDefaultChannelList,
    310                                                   zgDefaultStartingScanDuration, beaconOrder,
    311                                                   superframeOrder, false );
    312              }
    313              else if ( startMode == MODE_RESUME )
    314              {
    315                // Just start the coordinator
    316                devState = DEV_COORD_STARTING;
    317                ret = NLME_StartRouterRequest( beaconOrder, beaconOrder, false );
    318              }
    319              else
    320              {
    321          #if defined( LCD_SUPPORTED )
    322                HalLcdWriteScreen( "StartDevice ERR", "MODE unknown" );
    323          #endif
    324              }
    325            }
    326            
    327            if ( ZG_BUILD_JOINING_TYPE && (logicalType == NODETYPE_ROUTER || logicalType == NODETYPE_DEVICE) )
   \                     ??ZDO_StartDevice_0:
   \   00002D   7401         MOV     A,#0x1
   \   00002F   6E           XRL     A,R6
   \   000030   6008         JZ      ??ZDO_StartDevice_1
   \   000032   7402         MOV     A,#0x2
   \   000034   6E           XRL     A,R6
   \   000035   6003         JZ      $+5
   \   000037   02....       LJMP    ??ZDO_StartDevice_2 & 0xFFFF
    328            {
    329              if ( (startMode == MODE_JOIN) || (startMode == MODE_REJOIN) )
   \                     ??ZDO_StartDevice_1:
   \   00003A   EF           MOV     A,R7
   \   00003B   6005         JZ      ??ZDO_StartDevice_3
   \   00003D   7403         MOV     A,#0x3
   \   00003F   6F           XRL     A,R7
   \   000040   704F         JNZ     ??ZDO_StartDevice_4
    330              {
    331                devState = DEV_NWK_DISC;
   \                     ??ZDO_StartDevice_3:
   \   000042   90....       MOV     DPTR,#devState
   \   000045   7402         MOV     A,#0x2
   \   000047   12....       LCALL   ?Subroutine48 & 0xFFFF
    332                
    333          #if defined( MANAGED_SCAN )
    334                ZDOManagedScan_Next();
    335                ret = NLME_NetworkDiscoveryRequest( managedScanChannelMask, BEACON_ORDER_15_MSEC );
    336          #else
    337                ret = NLME_NetworkDiscoveryRequest( zgDefaultChannelList, zgDefaultStartingScanDuration );
   \                     ??CrossCallReturnLabel_78:
   \   00004A   12....       LCALL   ?XLOAD_R2345
   \   00004D   12....       LCALL   ??NLME_NetworkDiscoveryRequest?relay
    338          #if defined ( ZIGBEE_FREQ_AGILITY )
    339                if ( !( ZDO_Config_Node_Descriptor.CapabilityFlags & CAPINFO_RCVR_ON_IDLE ) &&
    340                    ( ret == ZSuccess ) && ( ++discRetries == 4 ) )
    341                {
    342                  // For devices with RxOnWhenIdle equals to FALSE, any network channel
    343                  // change will not be recieved. On these devices or routers that have
    344                  // lost the network, an active scan shall be conducted on the Default
    345                  // Channel list using the extended PANID to find the network. If the
    346                  // extended PANID isn't found using the Default Channel list, an scan
    347                  // should be completed using all channels.
    348                  zgDefaultChannelList = MAX_CHANNELS_24GHZ;
    349                }
    350          #endif // ZIGBEE_FREQ_AGILITY
    351          #if defined ( ZIGBEE_COMMISSIONING )
    352                if (startMode == MODE_REJOIN && scanCnt++ >= 5 )
   \   000050   7403         MOV     A,#0x3
   \   000052   6F           XRL     A,R7
   \   000053   701B         JNZ     ??ZDO_StartDevice_5
   \   000055   90....       MOV     DPTR,#??scanCnt
   \   000058   E0           MOVX    A,@DPTR
   \   000059   F8           MOV     R0,A
   \   00005A   7401         MOV     A,#0x1
   \   00005C   28           ADD     A,R0
   \   00005D   F0           MOVX    @DPTR,A
   \   00005E   E8           MOV     A,R0
   \   00005F   C3           CLR     C
   \   000060   9405         SUBB    A,#0x5
   \   000062   400C         JC      ??ZDO_StartDevice_5
    353                {
    354                  // When ApsUseExtendedPanID is commissioned to a non zero value via
    355                  // application specific means, the device shall conduct an active scan
    356                  // on the Default Channel list and join the PAN with the same
    357                  // ExtendedPanID. If the PAN is not found, an scan should be completed
    358                  // on all channels.
    359                  // When devices rejoin the network and the PAN is not found from
    360                  zgDefaultChannelList = MAX_CHANNELS_24GHZ;
   \   000064   90....       MOV     DPTR,#__Constant_7fff800
   \   000067   12....       LCALL   ?XLOAD_R2345
   \   00006A   90....       MOV     DPTR,#zgDefaultChannelList
   \   00006D   12....       LCALL   ?XSTORE_R2345
    361                }
    362                
    363                if((_NIB.nwkLogicalChannel >= 0x0B)&&(_NIB.nwkLogicalChannel <= 0x1A))  //add
   \                     ??ZDO_StartDevice_5:
   \   000070   12....       LCALL   ?Subroutine117 & 0xFFFF
   \                     ??CrossCallReturnLabel_213:
   \   000073   5062         JNC     ??ZDO_StartDevice_6
    364                {
    365                  u32OrpChanal = ((uint32)1<<_NIB.nwkLogicalChannel);       //add
    366                  zgDefaultChannelList=u32OrpChanal;    //add
   \   000075   75..01       MOV     ?V0 + 0,#0x1
   \   000078   75..00       MOV     ?V0 + 1,#0x0
   \   00007B   75..00       MOV     ?V0 + 2,#0x0
   \   00007E   75..00       MOV     ?V0 + 3,#0x0
   \   000081   E8           MOV     A,R0
   \   000082   78..         MOV     R0,#?V0 + 0
   \   000084   12....       LCALL   ?L_SHL
   \   000087   90....       MOV     DPTR,#zgDefaultChannelList
   \   00008A   78..         MOV     R0,#?V0 + 0
   \   00008C   12....       LCALL   ?L_MOV_TO_X
   \   00008F   8046         SJMP    ??ZDO_StartDevice_6
    367                }
    368          #endif // ZIGBEE_COMMISSIONING
    369          #endif
    370              }
    371              else if ( startMode == MODE_RESUME )
   \                     ??ZDO_StartDevice_4:
   \   000091   7401         MOV     A,#0x1
   \   000093   6F           XRL     A,R7
   \   000094   7044         JNZ     ??ZDO_StartDevice_2
    372              {
    373                if ( logicalType == NODETYPE_ROUTER )
   \   000096   7401         MOV     A,#0x1
   \   000098   6E           XRL     A,R6
   \   000099   90....       MOV     DPTR,#devState
   \   00009C   702E         JNZ     ??ZDO_StartDevice_7
    374                {
    375                  ZMacScanCnf_t scanCnf;
    376                  devState = DEV_NWK_ORPHAN;
   \   00009E   740A         MOV     A,#0xa
   \   0000A0   F0           MOVX    @DPTR,A
    377                  
    378                  /* if router and nvram is available, fake successful orphan scan */
    379                  scanCnf.hdr.Status = ZSUCCESS;
   \   0000A1   7401         MOV     A,#0x1
   \   0000A3   12....       LCALL   ?XSTACK_DISP0_8
   \   0000A6   E4           CLR     A
   \   0000A7   F0           MOVX    @DPTR,A
    380                  scanCnf.ScanType = ZMAC_ORPHAN_SCAN;
   \   0000A8   7402         MOV     A,#0x2
   \   0000AA   12....       LCALL   ?XSTACK_DISP0_8
   \   0000AD   7403         MOV     A,#0x3
   \   0000AF   F0           MOVX    @DPTR,A
    381                  scanCnf.UnscannedChannels = 0;
   \   0000B0   90....       MOV     DPTR,#__Constant_0
   \   0000B3   12....       LCALL   ?XLOAD_R2345
   \   0000B6   7404         MOV     A,#0x4
   \   0000B8   12....       LCALL   ?XSTACK_DISP0_8
   \   0000BB   12....       LCALL   ?XSTORE_R2345
    382                  scanCnf.ResultListSize = 0;
   \   0000BE   7408         MOV     A,#0x8
   \   0000C0   12....       LCALL   ?XSTACK_DISP0_8
   \   0000C3   E4           CLR     A
   \   0000C4   12....       LCALL   ?Subroutine41 & 0xFFFF
    383                  nwk_ScanJoiningOrphan(&scanCnf);
   \                     ??CrossCallReturnLabel_61:
   \   0000C7   12....       LCALL   ??nwk_ScanJoiningOrphan?relay
    384                  
    385                  ret = ZSuccess;
   \   0000CA   801E         SJMP    ??ZDO_StartDevice_8
    386                }
    387                else
    388                {
    389                  devState = DEV_NWK_ORPHAN;
   \                     ??ZDO_StartDevice_7:
   \   0000CC   740A         MOV     A,#0xa
   \   0000CE   12....       LCALL   ?Subroutine48 & 0xFFFF
    390                  ret = NLME_OrphanJoinRequest( zgDefaultChannelList,
    391                                               zgDefaultStartingScanDuration );
    392                }
    393              }
    394              else
    395              {
    396          #if defined( LCD_SUPPORTED )
    397                HalLcdWriteScreen( "StartDevice ERR", "MODE unknown" );
    398          #endif
    399              }
    400            }
   \                     ??CrossCallReturnLabel_79:
   \   0000D1   12....       LCALL   ?XLOAD_R2345
   \   0000D4   12....       LCALL   ??NLME_OrphanJoinRequest?relay
    401            
    402            if ( ret != ZSuccess )
   \                     ??ZDO_StartDevice_6:
   \   0000D7   E9           MOV     A,R1
   \   0000D8   6010         JZ      ??ZDO_StartDevice_8
    403            {
    404              osal_start_timerEx(ZDAppTaskID, ZDO_NETWORK_INIT, NWK_RETRY_DELAY );
   \                     ??ZDO_StartDevice_2:
   \   0000DA                ; Setup parameters for call to function osal_start_timerEx
   \   0000DA   7CE8         MOV     R4,#-0x18
   \   0000DC   7D03         MOV     R5,#0x3
   \   0000DE   7A01         MOV     R2,#0x1
   \   0000E0   7B00         MOV     R3,#0x0
   \   0000E2   90....       MOV     DPTR,#ZDAppTaskID
   \   0000E5   E0           MOVX    A,@DPTR
   \   0000E6   F9           MOV     R1,A
   \   0000E7   12....       LCALL   ??osal_start_timerEx?relay
    405            }
    406          }
   \                     ??ZDO_StartDevice_8:
   \   0000EA   740B         MOV     A,#0xb
   \   0000EC   02....       LJMP    ?Subroutine1 & 0xFFFF

   \                                 In  segment BANKED_CODE, align 1, keep-with-next
   \                     ?Subroutine117:
   \   000000   90....       MOV     DPTR,#_NIB + 22
   \   000003   E0           MOVX    A,@DPTR
   \   000004   F8           MOV     R0,A
   \   000005   74F5         MOV     A,#-0xb
   \   000007   28           ADD     A,R0
   \   000008   C3           CLR     C
   \   000009   9410         SUBB    A,#0x10
   \   00000B   22           RET

   \                                 In  segment BANKED_CODE, align 1, keep-with-next
   \                     ?Subroutine48:
   \   000000   F0           MOVX    @DPTR,A
   \   000001                ; Setup parameters for call to function NLME_NetworkDiscoveryRequest
   \   000001                ; Setup parameters for call to function NLME_OrphanJoinRequest
   \   000001   90....       MOV     DPTR,#zgDefaultStartingScanDuration
   \   000004   E0           MOVX    A,@DPTR
   \   000005   F9           MOV     R1,A
   \   000006   90....       MOV     DPTR,#zgDefaultChannelList
   \   000009   22           RET

   \                                 In  segment BANKED_CODE, align 1, keep-with-next
   \                     ?Subroutine41:
   \   000000   12....       LCALL   ?Subroutine155 & 0xFFFF
   \                     ??CrossCallReturnLabel_281:
   \   000003   AA82         MOV     R2,DPL
   \   000005   AB83         MOV     R3,DPH
   \   000007   22           RET

   \                                 In  segment BANKED_CODE, align 1, keep-with-next
   \                     ?Subroutine1:
   \   000000   12....       LCALL   ?DEALLOC_XSTACK8
   \   000003                REQUIRE ??Subroutine220_0
   \   000003                ; // Fall through to label ??Subroutine220_0

   \                                 In  segment BANKED_CODE, align 1, keep-with-next
   \                     ??Subroutine220_0:
   \   000000   7F04         MOV     R7,#0x4
   \   000002   02....       LJMP    ?BANKED_LEAVE_XDATA

   \                                 In  segment BANKED_CODE, align 1, keep-with-next
   \                     ?Subroutine155:
   \   000000   F0           MOVX    @DPTR,A
   \   000001                ; Setup parameters for call to function nwk_ScanJoiningOrphan
   \   000001                ; Setup parameters for call to function NLME_NwkDiscReq2
   \   000001   85..82       MOV     DPL,?XSP + 0
   \   000004   85..83       MOV     DPH,?XSP + 1
   \   000007   22           RET

   \                                 In  segment XDATA_Z, align 1, keep-with-next
   \                     ??scanCnt:
   \   000000                DS 1
   \   000001                REQUIRE __INIT_XDATA_Z
    407          
    408          /**************************************************************************************************
    409           * @fn          zdoSendStateChangeMsg
    410           *
    411           * @brief       Helper function for ZDO_UpdateNwkStatus.
    412           *
    413           * input parameters
    414           *
    415           * @param       taskId - The OSAL task identifier to which to send the ZDO_STATE_CHANGE_EVT.
    416           * @param       state - The current device state.
    417           *
    418           * output parameters
    419           *
    420           * None.
    421           *
    422           * @return      None.
    423           **************************************************************************************************
    424           */
    425          static void zdoSendStateChangeMsg(uint8 state, uint8 taskId)
    426          {
    427            osal_event_hdr_t *pMsg = (osal_event_hdr_t *)osal_msg_find(taskId, ZDO_STATE_CHANGE);
    428          
    429            if (NULL == pMsg)
    430            {
    431              if (NULL == (pMsg = (osal_event_hdr_t *)osal_msg_allocate(sizeof(osal_event_hdr_t))))
    432              {
    433                // Upon failure to notify any EndPoint of the state change, re-set the ZDO event to
    434                // try again later when more Heap may be available.
    435                osal_set_event(ZDAppTaskID, ZDO_STATE_CHANGE_EVT);
    436              }
    437              else
    438              {
    439                pMsg->event = ZDO_STATE_CHANGE;
    440                pMsg->status = state;
    441          
    442                (void)osal_msg_send(taskId, (uint8 *)pMsg);
    443              }
    444            }
    445            else
    446            {
    447              // Modify in place the status of an existing ZDO_STATE_CHANGE message to the EndPoint.
    448              pMsg->status = state;
    449            }
    450          }
    451          
    452          /**************************************************************************************************
    453           * @fn          ZDO_UpdateNwkStatus
    454           *
    455           * @brief       This function sends a ZDO_STATE_CHANGE message to the task of every EndPoint
    456           *              registered with AF (except, of course, the ZDO_EP). Even if a single task has more
    457           *              than one registered EndPoint, it will only receive one notification per state
    458           *              change. Although the device may go through a sequence of state changes, the
    459           *              Application task may only receive notification of the final, steady-state state
    460           *              because it has the lowest priority and never even runs to receive the intermediate
    461           *              state change notifications.
    462           *
    463           * input parameters
    464           *
    465           * @param       state - The current device state.
    466           *
    467           * output parameters
    468           *
    469           * None.
    470           *
    471           * @return      None.
    472           **************************************************************************************************
    473           */

   \                                 In  segment BANKED_CODE, align 1, keep-with-next
    474          void ZDO_UpdateNwkStatus(devStates_t state)
   \                     ZDO_UpdateNwkStatus:
    475          {
   \   000000   74F4         MOV     A,#-0xc
   \   000002   12....       LCALL   ?BANKED_ENTER_XDATA
   \   000005                ; Saved register size: 12
   \   000005                ; Auto size: 0
   \   000005   89..         MOV     ?V0 + 1,R1
    476            epList_t *pItem = epList;
   \   000007   90....       MOV     DPTR,#epList
   \   00000A   12....       LCALL   ??Subroutine216_0 & 0xFFFF
    477          
    478            while (pItem != NULL)
   \                     ??CrossCallReturnLabel_409:
   \   00000D   4F           ORL     A,R7
   \   00000E   6059         JZ      ??ZDO_UpdateNwkStatus_0
    479            {
    480              if (pItem->epDesc->endPoint != ZDO_EP)
   \                     ??ZDO_UpdateNwkStatus_1:
   \   000010   8E82         MOV     DPL,R6
   \   000012   8F83         MOV     DPH,R7
   \   000014   A3           INC     DPTR
   \   000015   A3           INC     DPTR
   \   000016   12....       LCALL   ?Subroutine107 & 0xFFFF
   \                     ??CrossCallReturnLabel_196:
   \   000019   E0           MOVX    A,@DPTR
   \   00001A   6043         JZ      ??ZDO_UpdateNwkStatus_2
    481              {
    482                zdoSendStateChangeMsg(state, *(pItem->epDesc->task_id));
   \   00001C   A3           INC     DPTR
   \   00001D   12....       LCALL   ??Subroutine210_0 & 0xFFFF
    483              }
   \                     ??CrossCallReturnLabel_364:
   \   000020   F5..         MOV     ?V0 + 0,A
   \   000022                ; Setup parameters for call to function osal_msg_find
   \   000022   7AD1         MOV     R2,#-0x2f
   \   000024   F9           MOV     R1,A
   \   000025   12....       LCALL   ??osal_msg_find?relay
   \   000028   EA           MOV     A,R2
   \   000029   4B           ORL     A,R3
   \   00002A   702B         JNZ     ??ZDO_UpdateNwkStatus_3
   \   00002C                ; Setup parameters for call to function osal_msg_allocate
   \   00002C   7A02         MOV     R2,#0x2
   \   00002E   7B00         MOV     R3,#0x0
   \   000030   12....       LCALL   ??osal_msg_allocate?relay
   \   000033   EA           MOV     A,R2
   \   000034   4B           ORL     A,R3
   \   000035   700E         JNZ     ??ZDO_UpdateNwkStatus_4
   \   000037                ; Setup parameters for call to function osal_set_event
   \   000037   7A10         MOV     R2,#0x10
   \   000039   7B00         MOV     R3,#0x0
   \   00003B   90....       MOV     DPTR,#ZDAppTaskID
   \   00003E   E0           MOVX    A,@DPTR
   \   00003F   F9           MOV     R1,A
   \   000040   12....       LCALL   ??osal_set_event?relay
   \   000043   801A         SJMP    ??ZDO_UpdateNwkStatus_2
   \                     ??ZDO_UpdateNwkStatus_4:
   \   000045   8A82         MOV     DPL,R2
   \   000047   8B83         MOV     DPH,R3
   \   000049   74D1         MOV     A,#-0x2f
   \   00004B   F0           MOVX    @DPTR,A
   \   00004C   A3           INC     DPTR
   \   00004D   E5..         MOV     A,?V0 + 1
   \   00004F   F0           MOVX    @DPTR,A
   \   000050                ; Setup parameters for call to function osal_msg_send
   \   000050   A9..         MOV     R1,?V0 + 0
   \   000052   12....       LCALL   ??osal_msg_send?relay
   \   000055   8008         SJMP    ??ZDO_UpdateNwkStatus_2
   \                     ??ZDO_UpdateNwkStatus_3:
   \   000057   8A82         MOV     DPL,R2
   \   000059   8B83         MOV     DPH,R3
   \   00005B   A3           INC     DPTR
   \   00005C   E5..         MOV     A,?V0 + 1
   \   00005E   F0           MOVX    @DPTR,A
    484          
    485              pItem = pItem->nextDesc;
   \                     ??ZDO_UpdateNwkStatus_2:
   \   00005F   8E82         MOV     DPL,R6
   \   000061   8F83         MOV     DPH,R7
   \   000063   12....       LCALL   ??Subroutine216_0 & 0xFFFF
    486            }
   \                     ??CrossCallReturnLabel_410:
   \   000066   4F           ORL     A,R7
   \   000067   70A7         JNZ     ??ZDO_UpdateNwkStatus_1
    487          #if defined MT_ZDO_CB_FUNC
    488            zdoSendStateChangeMsg(state, MT_TaskID);
    489          #endif
    490          
    491            ZDAppNwkAddr.addr.shortAddr = NLME_GetShortAddr();
   \                     ??ZDO_UpdateNwkStatus_0:
   \   000069                ; Setup parameters for call to function NLME_GetShortAddr
   \   000069   12....       LCALL   ??NLME_GetShortAddr?relay
   \   00006C   90....       MOV     DPTR,#ZDAppNwkAddr
   \   00006F   12....       LCALL   ?Subroutine39 & 0xFFFF
    492            (void)NLME_GetExtAddr();  // Load the saveExtAddr pointer.
   \                     ??CrossCallReturnLabel_49:
   \   000072                ; Setup parameters for call to function NLME_GetExtAddr
   \   000072   12....       LCALL   ??NLME_GetExtAddr?relay
    493          }
   \   000075   02....       LJMP    ??Subroutine220_0 & 0xFFFF

   \                                 In  segment BANKED_CODE, align 1, keep-with-next
   \                     ?Subroutine107:
   \   000000   12....       LCALL   ?Subroutine173 & 0xFFFF
   \                     ??CrossCallReturnLabel_310:
   \   000003   22           RET

   \                                 In  segment BANKED_CODE, align 1, keep-with-next
   \                     ?Subroutine173:
   \   000000   12....       LCALL   ?Subroutine198 & 0xFFFF
   \                     ??CrossCallReturnLabel_351:
   \   000003   22           RET

   \                                 In  segment BANKED_CODE, align 1, keep-with-next
   \                     ?Subroutine198:
   \   000000   12....       LCALL   ??Subroutine233_0 & 0xFFFF
   \                     ??CrossCallReturnLabel_516:
   \   000003   F9           MOV     R1,A
   \   000004   8882         MOV     DPL,R0
   \   000006   8983         MOV     DPH,R1
   \   000008   22           RET

   \                                 In  segment BANKED_CODE, align 1, keep-with-next
   \                     ??Subroutine210_0:
   \   000000   12....       LCALL   ?Subroutine166 & 0xFFFF
   \                     ??CrossCallReturnLabel_373:
   \   000003   22           RET

   \                                 In  segment BANKED_CODE, align 1, keep-with-next
   \                     ?Subroutine166:
   \   000000   12....       LCALL   ?Subroutine199 & 0xFFFF
   \                     ??CrossCallReturnLabel_375:
   \   000003   E0           MOVX    A,@DPTR
   \   000004   22           RET

   \                                 In  segment BANKED_CODE, align 1, keep-with-next
   \                     ?Subroutine199:
   \   000000   12....       LCALL   ??Subroutine233_0 & 0xFFFF
   \                     ??CrossCallReturnLabel_519:
   \   000003   F583         MOV     DPH,A
   \   000005   8882         MOV     DPL,R0
   \   000007   22           RET

   \                                 In  segment BANKED_CODE, align 1, keep-with-next
   \                     ??Subroutine216_0:
   \   000000   E0           MOVX    A,@DPTR
   \   000001   FE           MOV     R6,A
   \   000002   A3           INC     DPTR
   \   000003   E0           MOVX    A,@DPTR
   \   000004   FF           MOV     R7,A
   \   000005                ; Setup parameters for call to function AddrMgrExtAddrValid
   \   000005                ; Setup parameters for call to function sAddrExtCpy
   \   000005   EE           MOV     A,R6
   \   000006   22           RET

   \                                 In  segment BANKED_CODE, align 1, keep-with-next
   \                     ?Subroutine39:
   \   000000   EA           MOV     A,R2
   \   000001   F0           MOVX    @DPTR,A
   \   000002   A3           INC     DPTR
   \   000003   EB           MOV     A,R3
   \   000004   F0           MOVX    @DPTR,A
   \   000005   22           RET

   \                                 In  segment BANKED_CODE, align 1, keep-with-next
   \                     ??Subroutine233_0:
   \   000000   E0           MOVX    A,@DPTR
   \   000001   F8           MOV     R0,A
   \   000002   A3           INC     DPTR
   \   000003   E0           MOVX    A,@DPTR
   \   000004   22           RET
    494          
    495          #if defined ( REFLECTOR )
    496          /*********************************************************************
    497           * @fn          ZDO_RemoveEndDeviceBind
    498           *
    499           * @brief       Remove the end device bind
    500           *
    501           * @param  none
    502           *
    503           * @return      none
    504           */
    505          static void ZDO_RemoveEndDeviceBind( void )
    506          {
    507            if ( ZDO_EDBind != NULL )
    508            {
    509              // Free the RAM
    510              if ( ZDO_EDBind->inClusters != NULL )
    511              {
    512                osal_mem_free( ZDO_EDBind->inClusters );
    513              }
    514              if ( ZDO_EDBind->outClusters != NULL )
    515              {
    516                osal_mem_free( ZDO_EDBind->outClusters );
    517              }
    518              osal_mem_free( ZDO_EDBind );
    519              ZDO_EDBind = NULL;
    520            }
    521          }
    522          #endif // REFLECTOR
    523          
    524          #if defined ( REFLECTOR )
    525          /*********************************************************************
    526           * @fn          ZDO_RemoveEndDeviceBind
    527           *
    528           * @brief       Remove the end device bind
    529           *
    530           * @param  none
    531           *
    532           * @return      none
    533           */
    534          static void ZDO_SendEDBindRsp( byte TransSeq, zAddrType_t *dstAddr, byte Status, byte secUse )
    535          {
    536            ZDP_EndDeviceBindRsp( TransSeq, dstAddr, Status, secUse );
    537          
    538          #if defined( LCD_SUPPORTED )
    539            HalLcdWriteString( "End Device Bind", HAL_LCD_LINE_1 );
    540            if ( Status == ZDP_SUCCESS )
    541            {
    542              HalLcdWriteString( "Success Sent", HAL_LCD_LINE_2 );
    543            }
    544            else
    545            {
    546              HalLcdWriteString( "Timeout", HAL_LCD_LINE_2 );
    547            }
    548          #endif
    549          
    550          }
    551          #endif // REFLECTOR
    552          
    553          /*********************************************************************
    554           * @fn          ZDO_CompareClusterLists
    555           *
    556           * @brief       Compare one list to another list
    557           *
    558           * @param       numList1 - number of items in list 1
    559           * @param       list1 - first list of cluster IDs
    560           * @param       numList2 - number of items in list 2
    561           * @param       list2 - second list of cluster IDs
    562           * @param       pMatches - buffer to put matches
    563           *
    564           * @return      number of matches
    565           */
    566          static byte ZDO_CompareClusterLists( byte numList1, uint16 *list1,
    567                                    byte numList2, uint16 *list2, uint16 *pMatches )
    568          {
    569            byte x, y;
    570            uint16 z;
    571            byte numMatches = 0;
    572          
    573            // Check the first in against the seconds out
    574            for ( x = 0; x < numList1; x++ )
    575            {
    576              for ( y = 0; y < numList2; y++ )
    577              {
    578                z = list2[y];
    579                if ( list1[x] == z )
    580                {
    581                  pMatches[numMatches++] = z;
    582                }
    583              }
    584            }
    585          
    586            return ( numMatches );
    587          }
    588          
    589          /*********************************************************************
    590           * Utility functions
    591           */
    592          
    593          /*********************************************************************
    594           * @fn          ZDO_CompareByteLists
    595           *
    596           * @brief       Compares two lists for matches.
    597           *
    598           * @param       ACnt  - number of entries in list A
    599           * @param       AList  - List A
    600           * @param       BCnt  - number of entries in list B
    601           * @param       BList  - List B
    602           *
    603           * @return      true if a match is found
    604           */

   \                                 In  segment BANKED_CODE, align 1, keep-with-next
    605          byte ZDO_AnyClusterMatches( byte ACnt, uint16 *AList, byte BCnt, uint16 *BList )
   \                     ZDO_AnyClusterMatches:
    606          {
   \   000000   74F3         MOV     A,#-0xd
   \   000002   12....       LCALL   ?BANKED_ENTER_XDATA
   \   000005                ; Saved register size: 13
   \   000005                ; Auto size: 0
   \   000005   E9           MOV     A,R1
   \   000006   FE           MOV     R6,A
   \   000007   EA           MOV     A,R2
   \   000008   F8           MOV     R0,A
   \   000009   EB           MOV     A,R3
   \   00000A   F9           MOV     R1,A
   \   00000B   EC           MOV     A,R4
   \   00000C   FF           MOV     R7,A
   \   00000D   740D         MOV     A,#0xd
   \   00000F   12....       LCALL   ?XSTACK_DISP0_8
   \   000012   12....       LCALL   ??Subroutine212_0 & 0xFFFF
    607            byte x, y;
    608          
    609            for ( x = 0; x < ACnt; x++ )
   \                     ??CrossCallReturnLabel_376:
   \   000015   75..00       MOV     ?V0 + 2,#0x0
   \   000018   E8           MOV     A,R0
   \   000019   FC           MOV     R4,A
   \   00001A   E9           MOV     A,R1
   \   00001B   800A         SJMP    ??ZDO_AnyClusterMatches_0
   \                     ??ZDO_AnyClusterMatches_1:
   \   00001D   05..         INC     ?V0 + 2
   \   00001F   EC           MOV     A,R4
   \   000020   2402         ADD     A,#0x2
   \   000022   0C           INC     R4
   \   000023   0C           INC     R4
   \   000024   ED           MOV     A,R5
   \   000025   3400         ADDC    A,#0x0
   \                     ??ZDO_AnyClusterMatches_0:
   \   000027   FD           MOV     R5,A
   \   000028   E5..         MOV     A,?V0 + 2
   \   00002A   C3           CLR     C
   \   00002B   9E           SUBB    A,R6
   \   00002C   5035         JNC     ??ZDO_AnyClusterMatches_2
    610            {
    611              for ( y = 0; y < BCnt; y++ )
   \   00002E   75..00       MOV     ?V0 + 3,#0x0
   \   000031   EA           MOV     A,R2
   \   000032   F8           MOV     R0,A
   \   000033   EB           MOV     A,R3
   \   000034   800A         SJMP    ??ZDO_AnyClusterMatches_3
   \                     ??ZDO_AnyClusterMatches_4:
   \   000036   05..         INC     ?V0 + 3
   \   000038   E8           MOV     A,R0
   \   000039   2402         ADD     A,#0x2
   \   00003B   08           INC     R0
   \   00003C   08           INC     R0
   \   00003D   E9           MOV     A,R1
   \   00003E   3400         ADDC    A,#0x0
   \                     ??ZDO_AnyClusterMatches_3:
   \   000040   F9           MOV     R1,A
   \   000041   E5..         MOV     A,?V0 + 3
   \   000043   C3           CLR     C
   \   000044   9F           SUBB    A,R7
   \   000045   50D6         JNC     ??ZDO_AnyClusterMatches_1
    612              {
    613                if ( AList[x] == BList[y] )
   \   000047   8C82         MOV     DPL,R4
   \   000049   8D83         MOV     DPH,R5
   \   00004B   12....       LCALL   ?Subroutine100 & 0xFFFF
   \                     ??CrossCallReturnLabel_178:
   \   00004E   F5..         MOV     ?V0 + 1,A
   \   000050   8882         MOV     DPL,R0
   \   000052   8983         MOV     DPH,R1
   \   000054   E0           MOVX    A,@DPTR
   \   000055   65..         XRL     A,?V0 + 0
   \   000057   7004         JNZ     ??ZDO_AnyClusterMatches_5
   \   000059   A3           INC     DPTR
   \   00005A   E0           MOVX    A,@DPTR
   \   00005B   65..         XRL     A,?V0 + 1
   \                     ??ZDO_AnyClusterMatches_5:
   \   00005D   70D7         JNZ     ??ZDO_AnyClusterMatches_4
    614                {
    615                  return true;
   \   00005F   7901         MOV     R1,#0x1
   \   000061   8002         SJMP    ??ZDO_AnyClusterMatches_6
    616                }
    617              }
    618            }
    619          
    620            return false;
   \                     ??ZDO_AnyClusterMatches_2:
   \   000063   7900         MOV     R1,#0x0
   \                     ??ZDO_AnyClusterMatches_6:
   \   000065   7F05         MOV     R7,#0x5
   \   000067   02....       LJMP    ?BANKED_LEAVE_XDATA
    621          }

   \                                 In  segment BANKED_CODE, align 1, keep-with-next
   \                     ?Subroutine100:
   \   000000   E0           MOVX    A,@DPTR
   \   000001   F5..         MOV     ?V0 + 0,A
   \   000003   A3           INC     DPTR
   \   000004   E0           MOVX    A,@DPTR
   \   000005   22           RET

   \                                 In  segment BANKED_CODE, align 1, keep-with-next
   \                     ??Subroutine212_0:
   \   000000   12....       LCALL   ??Subroutine226_0 & 0xFFFF
   \                     ??CrossCallReturnLabel_466:
   \   000003   22           RET

   \                                 In  segment BANKED_CODE, align 1, keep-with-next
   \                     ??Subroutine226_0:
   \   000000   E0           MOVX    A,@DPTR
   \   000001   FA           MOV     R2,A
   \   000002   A3           INC     DPTR
   \   000003   E0           MOVX    A,@DPTR
   \   000004   FB           MOV     R3,A
   \   000005   22           RET
    622          
    623          /*********************************************************************
    624           * Callback functions from ZDProfile
    625           */
    626          
    627          /*********************************************************************
    628           * @fn          ZDO_ProcessNodeDescReq
    629           *
    630           * @brief       This function processes and responds to the
    631           *              Node_Desc_req message.
    632           *
    633           * @param       inMsg - incoming message
    634           *
    635           * @return      none
    636           */

   \                                 In  segment BANKED_CODE, align 1, keep-with-next
    637          void ZDO_ProcessNodeDescReq( zdoIncomingMsg_t *inMsg )
   \                     ZDO_ProcessNodeDescReq:
    638          {
   \   000000   74F6         MOV     A,#-0xa
   \   000002   12....       LCALL   ?BANKED_ENTER_XDATA
   \   000005                ; Saved register size: 10
   \   000005                ; Auto size: 0
   \   000005   12....       LCALL   ?Subroutine66 & 0xFFFF
    639            uint16 aoi = BUILD_UINT16( inMsg->asdu[0], inMsg->asdu[1] );
    640            NodeDescriptorFormat_t *desc = NULL;
    641          
    642            if ( aoi == ZDAppNwkAddr.addr.shortAddr )
   \                     ??CrossCallReturnLabel_123:
   \   000008   7003         JNZ     ??ZDO_ProcessNodeDescReq_0
   \   00000A   A3           INC     DPTR
   \   00000B   E0           MOVX    A,@DPTR
   \   00000C   6D           XRL     A,R5
   \                     ??ZDO_ProcessNodeDescReq_0:
   \   00000D   7017         JNZ     ??ZDO_ProcessNodeDescReq_1
    643            {
    644              desc = &ZDO_Config_Node_Descriptor;
    645            }
    646          
    647            if ( desc != NULL )
    648            {
    649              ZDP_NodeDescMsg( inMsg, aoi, desc );
   \   00000F                ; Setup parameters for call to function ZDP_NodeDescMsg
   \   00000F   75....       MOV     ?V0 + 0,#ZDO_Config_Node_Descriptor & 0xff
   \   000012   75....       MOV     ?V0 + 1,#(ZDO_Config_Node_Descriptor >> 8) & 0xff
   \   000015   78..         MOV     R0,#?V0 + 0
   \   000017   12....       LCALL   ?PUSH_XSTACK_I_TWO
   \   00001A   EE           MOV     A,R6
   \   00001B   FA           MOV     R2,A
   \   00001C   12....       LCALL   ??ZDP_NodeDescMsg?relay
   \   00001F   7402         MOV     A,#0x2
   \   000021   12....       LCALL   ?DEALLOC_XSTACK8
   \   000024   801A         SJMP    ??ZDO_ProcessNodeDescReq_2
    650            }
    651            else
    652            {
    653              ZDP_GenericRsp( inMsg->TransSeq, &(inMsg->srcAddr),
    654                        ZDP_INVALID_REQTYPE, aoi, Node_Desc_rsp, inMsg->SecurityUse );
   \                     ??ZDO_ProcessNodeDescReq_1:
   \   000026                ; Setup parameters for call to function ZDP_GenericRsp
   \   000026   75..02       MOV     ?V0 + 0,#0x2
   \   000029   75..80       MOV     ?V0 + 1,#-0x80
   \   00002C   78..         MOV     R0,#?V0 + 0
   \   00002E   12....       LCALL   ?PUSH_XSTACK_I_TWO
   \   000031   8C..         MOV     ?V0 + 0,R4
   \   000033   8D..         MOV     ?V0 + 1,R5
   \   000035   78..         MOV     R0,#?V0 + 0
   \   000037   12....       LCALL   ?PUSH_XSTACK_I_TWO
   \   00003A   12....       LCALL   ?Subroutine65 & 0xFFFF
    655            }
   \                     ??CrossCallReturnLabel_121:
   \   00003D   12....       LCALL   ?DEALLOC_XSTACK8
    656          }
   \                     ??ZDO_ProcessNodeDescReq_2:
   \   000040   80..         SJMP    ??Subroutine205_0

   \                                 In  segment BANKED_CODE, align 1, keep-with-next
   \                     ??Subroutine205_0:
   \   000000   7F02         MOV     R7,#0x2
   \   000002   02....       LJMP    ?BANKED_LEAVE_XDATA

   \                                 In  segment BANKED_CODE, align 1, keep-with-next
   \                     ?Subroutine66:
   \   000000   EA           MOV     A,R2
   \   000001   FE           MOV     R6,A
   \   000002   EB           MOV     A,R3
   \   000003   FF           MOV     R7,A
   \   000004   12....       LCALL   ?Subroutine190 & 0xFFFF
   \                     ??CrossCallReturnLabel_623:
   \   000007   EF           MOV     A,R7
   \   000008   12....       LCALL   ?Subroutine162 & 0xFFFF
   \                     ??CrossCallReturnLabel_294:
   \   00000B   FA           MOV     R2,A
   \   00000C   A3           INC     DPTR
   \   00000D   E0           MOVX    A,@DPTR
   \   00000E   F9           MOV     R1,A
   \   00000F   EA           MOV     A,R2
   \   000010   2400         ADD     A,#0x0
   \   000012   FC           MOV     R4,A
   \   000013   E4           CLR     A
   \   000014   39           ADDC    A,R1
   \   000015   FD           MOV     R5,A
   \   000016   90....       MOV     DPTR,#ZDAppNwkAddr
   \   000019   E0           MOVX    A,@DPTR
   \   00001A   6C           XRL     A,R4
   \   00001B   22           RET

   \                                 In  segment BANKED_CODE, align 1, keep-with-next
   \                     ?Subroutine65:
   \   000000   EE           MOV     A,R6
   \   000001   240E         ADD     A,#0xe
   \   000003   F582         MOV     DPL,A
   \   000005   EF           MOV     A,R7
   \   000006   12....       LCALL   ??Subroutine219_0 & 0xFFFF
   \                     ??CrossCallReturnLabel_422:
   \   000009   FD           MOV     R5,A
   \   00000A   7C80         MOV     R4,#-0x80
   \   00000C   12....       LCALL   ?Subroutine177 & 0xFFFF
   \                     ??CrossCallReturnLabel_319:
   \   00000F   12....       LCALL   ??ZDP_GenericRsp?relay
   \   000012   7404         MOV     A,#0x4
   \   000014   22           RET

   \                                 In  segment BANKED_CODE, align 1, keep-with-next
   \                     ??Subroutine219_0:
   \   000000   12....       LCALL   ??Subroutine241_0 & 0xFFFF
   \                     ??CrossCallReturnLabel_613:
   \   000003   E0           MOVX    A,@DPTR
   \   000004   22           RET

   \                                 In  segment BANKED_CODE, align 1, keep-with-next
   \                     ?Subroutine177:
   \   000000   EE           MOV     A,R6
   \   000001   2402         ADD     A,#0x2
   \   000003   FA           MOV     R2,A
   \   000004   EF           MOV     A,R7
   \   000005   3400         ADDC    A,#0x0
   \   000007   FB           MOV     R3,A
   \   000008   EE           MOV     A,R6
   \   000009   240F         ADD     A,#0xf
   \   00000B   12....       LCALL   ?Subroutine201 & 0xFFFF
   \                     ??CrossCallReturnLabel_611:
   \   00000E   E0           MOVX    A,@DPTR
   \   00000F   F9           MOV     R1,A
   \   000010   22           RET

   \                                 In  segment BANKED_CODE, align 1, keep-with-next
   \                     ?Subroutine162:
   \   000000   12....       LCALL   ??Subroutine241_0 & 0xFFFF
   \                     ??CrossCallReturnLabel_609:
   \   000003   12....       LCALL   ?Subroutine198 & 0xFFFF
   \                     ??CrossCallReturnLabel_350:
   \   000006   E0           MOVX    A,@DPTR
   \   000007   22           RET

   \                                 In  segment BANKED_CODE, align 1, keep-with-next
   \                     ?Subroutine201:
   \   000000   F582         MOV     DPL,A
   \   000002   EF           MOV     A,R7
   \   000003                REQUIRE ??Subroutine241_0
   \   000003                ; // Fall through to label ??Subroutine241_0

   \                                 In  segment BANKED_CODE, align 1, keep-with-next
   \                     ??Subroutine241_0:
   \   000000   3400         ADDC    A,#0x0
   \   000002   F583         MOV     DPH,A
   \   000004   22           RET

   \                                 In  segment BANKED_CODE, align 1, keep-with-next
   \                     ?Subroutine190:
   \   000000   EE           MOV     A,R6
   \   000001                REQUIRE ??Subroutine251_0
   \   000001                ; // Fall through to label ??Subroutine251_0

   \                                 In  segment BANKED_CODE, align 1, keep-with-next
   \                     ??Subroutine251_0:
   \   000000   2413         ADD     A,#0x13
   \   000002   F582         MOV     DPL,A
   \   000004   22           RET
    657          
    658          /*********************************************************************
    659           * @fn          ZDO_ProcessPowerDescReq
    660           *
    661           * @brief       This function processes and responds to the
    662           *              Node_Power_req message.
    663           *
    664           * @param       inMsg  - incoming request
    665           *
    666           * @return      none
    667           */

   \                                 In  segment BANKED_CODE, align 1, keep-with-next
    668          void ZDO_ProcessPowerDescReq( zdoIncomingMsg_t *inMsg )
   \                     ZDO_ProcessPowerDescReq:
    669          {
   \   000000   74F6         MOV     A,#-0xa
   \   000002   12....       LCALL   ?BANKED_ENTER_XDATA
   \   000005                ; Saved register size: 10
   \   000005                ; Auto size: 0
   \   000005   12....       LCALL   ?Subroutine66 & 0xFFFF
    670            uint16 aoi = BUILD_UINT16( inMsg->asdu[0], inMsg->asdu[1] );
    671            NodePowerDescriptorFormat_t *desc = NULL;
    672          
    673            if ( aoi == ZDAppNwkAddr.addr.shortAddr )
   \                     ??CrossCallReturnLabel_124:
   \   000008   7003         JNZ     ??ZDO_ProcessPowerDescReq_0
   \   00000A   A3           INC     DPTR
   \   00000B   E0           MOVX    A,@DPTR
   \   00000C   6D           XRL     A,R5
   \                     ??ZDO_ProcessPowerDescReq_0:
   \   00000D   7017         JNZ     ??ZDO_ProcessPowerDescReq_1
    674            {
    675              desc = &ZDO_Config_Power_Descriptor;
    676            }
    677          
    678            if ( desc != NULL )
    679            {
    680              ZDP_PowerDescMsg( inMsg, aoi, desc );
   \   00000F                ; Setup parameters for call to function ZDP_PowerDescMsg
   \   00000F   75....       MOV     ?V0 + 0,#ZDO_Config_Power_Descriptor & 0xff
   \   000012   75....       MOV     ?V0 + 1,#(ZDO_Config_Power_Descriptor >> 8) & 0xff
   \   000015   78..         MOV     R0,#?V0 + 0
   \   000017   12....       LCALL   ?PUSH_XSTACK_I_TWO
   \   00001A   EE           MOV     A,R6
   \   00001B   FA           MOV     R2,A
   \   00001C   12....       LCALL   ??ZDP_PowerDescMsg?relay
   \   00001F   7402         MOV     A,#0x2
   \   000021   12....       LCALL   ?DEALLOC_XSTACK8
   \   000024   801A         SJMP    ??ZDO_ProcessPowerDescReq_2
    681            }
    682            else
    683            {
    684              ZDP_GenericRsp( inMsg->TransSeq, &(inMsg->srcAddr),
    685                        ZDP_INVALID_REQTYPE, aoi, Power_Desc_rsp, inMsg->SecurityUse );
   \                     ??ZDO_ProcessPowerDescReq_1:
   \   000026                ; Setup parameters for call to function ZDP_GenericRsp
   \   000026   75..03       MOV     ?V0 + 0,#0x3
   \   000029   75..80       MOV     ?V0 + 1,#-0x80
   \   00002C   78..         MOV     R0,#?V0 + 0
   \   00002E   12....       LCALL   ?PUSH_XSTACK_I_TWO
   \   000031   8C..         MOV     ?V0 + 0,R4
   \   000033   8D..         MOV     ?V0 + 1,R5
   \   000035   78..         MOV     R0,#?V0 + 0
   \   000037   12....       LCALL   ?PUSH_XSTACK_I_TWO
   \   00003A   12....       LCALL   ?Subroutine65 & 0xFFFF
    686            }
   \                     ??CrossCallReturnLabel_122:
   \   00003D   12....       LCALL   ?DEALLOC_XSTACK8
    687          }
   \                     ??ZDO_ProcessPowerDescReq_2:
   \   000040   80..         SJMP    ??Subroutine205_0
    688          
    689          /*********************************************************************
    690           * @fn          ZDO_ProcessSimpleDescReq
    691           *
    692           * @brief       This function processes and responds to the
    693           *              Simple_Desc_req message.
    694           *
    695           * @param       inMsg - incoming message (request)
    696           *
    697           * @return      none
    698           */

   \                                 In  segment BANKED_CODE, align 1, keep-with-next
   \                     ?Subroutine2:
   \   000000   7402         MOV     A,#0x2
   \   000002                REQUIRE ??Subroutine204_0
   \   000002                ; // Fall through to label ??Subroutine204_0

   \                                 In  segment BANKED_CODE, align 1, keep-with-next
   \                     ??Subroutine204_0:
   \   000000   12....       LCALL   ?DEALLOC_XSTACK8
   \   000003                REQUIRE ??Subroutine205_0
   \   000003                ; // Fall through to label ??Subroutine205_0

   \                                 In  segment BANKED_CODE, align 1, keep-with-next
    699          void ZDO_ProcessSimpleDescReq( zdoIncomingMsg_t *inMsg )
   \                     ZDO_ProcessSimpleDescReq:
    700          {
   \   000000   74F6         MOV     A,#-0xa
   \   000002   12....       LCALL   ?BANKED_ENTER_XDATA
   \   000005                ; Saved register size: 10
   \   000005                ; Auto size: 2
   \   000005   74FE         MOV     A,#-0x2
   \   000007   12....       LCALL   ?ALLOC_XSTACK8
   \   00000A   EA           MOV     A,R2
   \   00000B   FE           MOV     R6,A
   \   00000C   EB           MOV     A,R3
   \   00000D   FF           MOV     R7,A
    701            SimpleDescriptionFormat_t *sDesc = NULL;
   \   00000E   85..82       MOV     DPL,?XSP + 0
   \   000011   85..83       MOV     DPH,?XSP + 1
   \   000014   E4           CLR     A
   \   000015   F0           MOVX    @DPTR,A
   \   000016   A3           INC     DPTR
   \   000017   F0           MOVX    @DPTR,A
    702            uint16 aoi = BUILD_UINT16( inMsg->asdu[0], inMsg->asdu[1] );
   \   000018   12....       LCALL   ??Subroutine209_0 & 0xFFFF
   \                     ??CrossCallReturnLabel_362:
   \   00001B   12....       LCALL   ?Subroutine83 & 0xFFFF
   \                     ??CrossCallReturnLabel_152:
   \   00001E   FA           MOV     R2,A
    703            byte endPoint = inMsg->asdu[2];
   \   00001F   8882         MOV     DPL,R0
   \   000021   8983         MOV     DPH,R1
   \   000023   A3           INC     DPTR
   \   000024   A3           INC     DPTR
   \   000025   E0           MOVX    A,@DPTR
   \   000026   F9           MOV     R1,A
    704            byte free = false;
   \   000027   75..00       MOV     ?V0 + 1,#0x0
    705            byte stat = ZDP_SUCCESS;
   \   00002A   75..00       MOV     ?V0 + 0,#0x0
    706          
    707            if ( (endPoint == ZDO_EP) || (endPoint > MAX_ENDPOINTS) )
   \   00002D   6005         JZ      ??ZDO_ProcessSimpleDescReq_0
   \   00002F   C3           CLR     C
   \   000030   94F1         SUBB    A,#-0xf
   \   000032   4005         JC      ??ZDO_ProcessSimpleDescReq_1
    708            {
    709              stat = ZDP_INVALID_EP;
   \                     ??ZDO_ProcessSimpleDescReq_0:
   \   000034   75..82       MOV     ?V0 + 0,#-0x7e
   \   000037   8029         SJMP    ??ZDO_ProcessSimpleDescReq_2
    710            }
    711            else if ( aoi == ZDAppNwkAddr.addr.shortAddr )
   \                     ??ZDO_ProcessSimpleDescReq_1:
   \   000039   90....       MOV     DPTR,#ZDAppNwkAddr
   \   00003C   E0           MOVX    A,@DPTR
   \   00003D   6A           XRL     A,R2
   \   00003E   7003         JNZ     ??ZDO_ProcessSimpleDescReq_3
   \   000040   A3           INC     DPTR
   \   000041   E0           MOVX    A,@DPTR
   \   000042   6B           XRL     A,R3
   \                     ??ZDO_ProcessSimpleDescReq_3:
   \   000043   701A         JNZ     ??ZDO_ProcessSimpleDescReq_4
    712            {
    713              free = afFindSimpleDesc( &sDesc, endPoint );
   \   000045                ; Setup parameters for call to function afFindSimpleDesc
   \   000045   85..82       MOV     DPL,?XSP + 0
   \   000048   85..83       MOV     DPH,?XSP + 1
   \   00004B   AA82         MOV     R2,DPL
   \   00004D   AB83         MOV     R3,DPH
   \   00004F   12....       LCALL   ??afFindSimpleDesc?relay
   \   000052   E9           MOV     A,R1
   \   000053   F5..         MOV     ?V0 + 1,A
    714              if ( sDesc == NULL )
   \   000055   12....       LCALL   ?Subroutine98 & 0xFFFF
   \                     ??CrossCallReturnLabel_446:
   \   000058   7008         JNZ     ??ZDO_ProcessSimpleDescReq_2
    715              {
    716                stat = ZDP_NOT_ACTIVE;
   \   00005A   75..83       MOV     ?V0 + 0,#-0x7d
   \   00005D   8003         SJMP    ??ZDO_ProcessSimpleDescReq_2
    717              }
    718            }
    719            else
    720            {
    721              if ( ZSTACK_ROUTER_BUILD )
    722              {
    723                stat = ZDP_DEVICE_NOT_FOUND;
    724              }
    725              else if ( ZSTACK_END_DEVICE_BUILD )
    726              {
    727                stat = ZDP_INVALID_REQTYPE;
   \                     ??ZDO_ProcessSimpleDescReq_4:
   \   00005F   75..80       MOV     ?V0 + 0,#-0x80
    728              }
    729            }
    730          
    731            ZDP_SimpleDescMsg( inMsg, stat, sDesc );
   \                     ??ZDO_ProcessSimpleDescReq_2:
   \   000062                ; Setup parameters for call to function ZDP_SimpleDescMsg
   \   000062   85..82       MOV     DPL,?XSP + 0
   \   000065   85..83       MOV     DPH,?XSP + 1
   \   000068   E0           MOVX    A,@DPTR
   \   000069   FC           MOV     R4,A
   \   00006A   A3           INC     DPTR
   \   00006B   E0           MOVX    A,@DPTR
   \   00006C   FD           MOV     R5,A
   \   00006D   A9..         MOV     R1,?V0 + 0
   \   00006F   EE           MOV     A,R6
   \   000070   FA           MOV     R2,A
   \   000071   EF           MOV     A,R7
   \   000072   FB           MOV     R3,A
   \   000073   12....       LCALL   ??ZDP_SimpleDescMsg?relay
    732          
    733            if ( free && sDesc )
   \   000076   E5..         MOV     A,?V0 + 1
   \   000078   600E         JZ      ??CrossCallReturnLabel_115
   \   00007A   12....       LCALL   ?Subroutine98 & 0xFFFF
   \                     ??CrossCallReturnLabel_447:
   \   00007D   6009         JZ      ??CrossCallReturnLabel_115
    734            {
    735              osal_mem_free( sDesc );
   \   00007F                ; Setup parameters for call to function osal_mem_free
   \   00007F   85..82       MOV     DPL,?XSP + 0
   \   000082   85..83       MOV     DPH,?XSP + 1
   \   000085   12....       LCALL   ?Subroutine64 & 0xFFFF
    736            }
    737          }
   \                     ??CrossCallReturnLabel_115:
   \   000088   02....       LJMP    ?Subroutine2 & 0xFFFF

   \                                 In  segment BANKED_CODE, align 1, keep-with-next
   \                     ??Subroutine209_0:
   \   000000   12....       LCALL   ?Subroutine190 & 0xFFFF
   \                     ??CrossCallReturnLabel_625:
   \   000003   EF           MOV     A,R7
   \   000004   22           RET

   \                                 In  segment BANKED_CODE, align 1, keep-with-next
   \                     ?Subroutine64:
   \   000000   12....       LCALL   ??Subroutine226_0 & 0xFFFF
   \                     ??CrossCallReturnLabel_459:
   \   000003   12....       LCALL   ??osal_mem_free?relay
   \   000006   22           RET

   \                                 In  segment BANKED_CODE, align 1, keep-with-next
   \                     ?Subroutine83:
   \   000000   12....       LCALL   ?Subroutine162 & 0xFFFF
   \                     ??CrossCallReturnLabel_292:
   \   000003   FC           MOV     R4,A
   \   000004   A3           INC     DPTR
   \   000005   E0           MOVX    A,@DPTR
   \   000006   FB           MOV     R3,A
   \   000007   EC           MOV     A,R4
   \   000008   22           RET

   \                                 In  segment BANKED_CODE, align 1, keep-with-next
   \                     ?Subroutine98:
   \   000000   85..82       MOV     DPL,?XSP + 0
   \   000003   85..83       MOV     DPH,?XSP + 1
   \   000006                REQUIRE ??Subroutine224_0
   \   000006                ; // Fall through to label ??Subroutine224_0

   \                                 In  segment BANKED_CODE, align 1, keep-with-next
   \                     ??Subroutine224_0:
   \   000000   12....       LCALL   ?Subroutine169 & 0xFFFF
   \                     ??CrossCallReturnLabel_450:
   \   000003   22           RET

   \                                 In  segment BANKED_CODE, align 1, keep-with-next
   \                     ?Subroutine169:
   \   000000   12....       LCALL   ??Subroutine233_0 & 0xFFFF
   \                     ??CrossCallReturnLabel_520:
   \   000003   F9           MOV     R1,A
   \   000004   E8           MOV     A,R0
   \   000005   49           ORL     A,R1
   \   000006   22           RET
    738          
    739          /*********************************************************************
    740           * @fn          ZDO_ProcessActiveEPReq
    741           *
    742           * @brief       This function processes and responds to the
    743           *              Active_EP_req message.
    744           *
    745           * @param       inMsg  - incoming message (request)
    746           *
    747           * @return      none
    748           */

   \                                 In  segment BANKED_CODE, align 1, keep-with-next
    749          void ZDO_ProcessActiveEPReq( zdoIncomingMsg_t *inMsg )
   \                     ZDO_ProcessActiveEPReq:
    750          {
   \   000000   74F2         MOV     A,#-0xe
   \   000002   12....       LCALL   ?BANKED_ENTER_XDATA
   \   000005                ; Saved register size: 14
   \   000005                ; Auto size: 0
   \   000005   EA           MOV     A,R2
   \   000006   FE           MOV     R6,A
   \   000007   EB           MOV     A,R3
   \   000008   FF           MOV     R7,A
    751            byte cnt = 0;
   \   000009   75..00       MOV     ?V0 + 2,#0x0
    752            uint16 aoi;
    753            byte stat = ZDP_SUCCESS;
   \   00000C   75..00       MOV     ?V0 + 3,#0x0
    754          
    755            aoi = BUILD_UINT16( inMsg->asdu[0], inMsg->asdu[1] );
   \   00000F   12....       LCALL   ?Subroutine68 & 0xFFFF
    756          
    757            if ( aoi == NLME_GetShortAddr() )
   \                     ??CrossCallReturnLabel_353:
   \   000012                ; Setup parameters for call to function NLME_GetShortAddr
   \   000012   12....       LCALL   ??NLME_GetShortAddr?relay
   \   000015   EA           MOV     A,R2
   \   000016   65..         XRL     A,?V0 + 0
   \   000018   7003         JNZ     ??ZDO_ProcessActiveEPReq_0
   \   00001A   EB           MOV     A,R3
   \   00001B   65..         XRL     A,?V0 + 1
   \                     ??ZDO_ProcessActiveEPReq_0:
   \   00001D   7012         JNZ     ??ZDO_ProcessActiveEPReq_1
    758            {
    759              cnt = afNumEndPoints() - 1;  // -1 for ZDO endpoint descriptor
   \   00001F                ; Setup parameters for call to function afNumEndPoints
   \   00001F   12....       LCALL   ??afNumEndPoints?relay
   \   000022   E9           MOV     A,R1
   \   000023   14           DEC     A
   \   000024   F5..         MOV     ?V0 + 2,A
    760              afEndPoints( (uint8 *)ZDOBuildBuf, true );
   \   000026                ; Setup parameters for call to function afEndPoints
   \   000026   7901         MOV     R1,#0x1
   \   000028   7A..         MOV     R2,#ZDOBuildBuf & 0xff
   \   00002A   7B..         MOV     R3,#(ZDOBuildBuf >> 8) & 0xff
   \   00002C   12....       LCALL   ??afEndPoints?relay
   \   00002F   8003         SJMP    ??ZDO_ProcessActiveEPReq_2
    761            }
    762            else
    763            {
    764              stat = ZDP_INVALID_REQTYPE;
   \                     ??ZDO_ProcessActiveEPReq_1:
   \   000031   75..80       MOV     ?V0 + 3,#-0x80
    765            }
    766          
    767            ZDP_ActiveEPRsp( inMsg->TransSeq, &(inMsg->srcAddr), stat,
    768                            aoi, cnt, (uint8 *)ZDOBuildBuf, inMsg->SecurityUse );
   \                     ??ZDO_ProcessActiveEPReq_2:
   \   000034                ; Setup parameters for call to function ZDP_EPRsp
   \   000034   12....       LCALL   ?Subroutine135 & 0xFFFF
   \                     ??CrossCallReturnLabel_418:
   \   000037   F5..         MOV     ?V0 + 4,A
   \   000039   78..         MOV     R0,#?V0 + 4
   \   00003B   12....       LCALL   ?PUSH_XSTACK_I_ONE
   \   00003E   75....       MOV     ?V0 + 4,#ZDOBuildBuf & 0xff
   \   000041   75....       MOV     ?V0 + 5,#(ZDOBuildBuf >> 8) & 0xff
   \   000044   78..         MOV     R0,#?V0 + 4
   \   000046   12....       LCALL   ?PUSH_XSTACK_I_TWO
   \   000049   78..         MOV     R0,#?V0 + 2
   \   00004B   12....       LCALL   ?PUSH_XSTACK_I_ONE
   \   00004E   78..         MOV     R0,#?V0 + 0
   \   000050   12....       LCALL   ?PUSH_XSTACK_I_TWO
   \   000053   E5..         MOV     A,?V0 + 3
   \   000055   F5..         MOV     ?V0 + 0,A
   \   000057   78..         MOV     R0,#?V0 + 0
   \   000059   12....       LCALL   ?PUSH_XSTACK_I_ONE
   \   00005C   12....       LCALL   ?Subroutine178 & 0xFFFF
   \                     ??CrossCallReturnLabel_321:
   \   00005F   12....       LCALL   ?Subroutine147 & 0xFFFF
   \                     ??CrossCallReturnLabel_268:
   \   000062   EF           MOV     A,R7
   \   000063   12....       LCALL   ?Subroutine126 & 0xFFFF
   \                     ??CrossCallReturnLabel_233:
   \   000066   7A05         MOV     R2,#0x5
   \   000068   7B80         MOV     R3,#-0x80
   \   00006A   12....       LCALL   ??ZDP_EPRsp?relay
   \   00006D   7407         MOV     A,#0x7
   \   00006F   12....       LCALL   ?DEALLOC_XSTACK8
    769          }
   \   000072   02....       LJMP    ?Subroutine3 & 0xFFFF

   \                                 In  segment BANKED_CODE, align 1, keep-with-next
   \                     ?Subroutine68:
   \   000000   12....       LCALL   ?Subroutine190 & 0xFFFF
   \                     ??CrossCallReturnLabel_624:
   \   000003   EF           MOV     A,R7
   \   000004   12....       LCALL   ??Subroutine235_0 & 0xFFFF
   \                     ??CrossCallReturnLabel_601:
   \   000007   12....       LCALL   ?Subroutine173 & 0xFFFF
   \                     ??CrossCallReturnLabel_309:
   \   00000A                REQUIRE ??Subroutine206_0
   \   00000A                ; // Fall through to label ??Subroutine206_0

   \                                 In  segment BANKED_CODE, align 1, keep-with-next
   \                     ??Subroutine206_0:
   \   000000   12....       LCALL   ?Subroutine168 & 0xFFFF
   \                     ??CrossCallReturnLabel_642:
   \   000003   2400         ADD     A,#0x0
   \   000005   F5..         MOV     ?V0 + 0,A
   \   000007   E4           CLR     A
   \   000008   39           ADDC    A,R1
   \   000009   F5..         MOV     ?V0 + 1,A
   \   00000B   22           RET

   \                                 In  segment BANKED_CODE, align 1, keep-with-next
   \                     ?Subroutine147:
   \   000000   240F         ADD     A,#0xf
   \   000002   F582         MOV     DPL,A
   \   000004   22           RET

   \                                 In  segment BANKED_CODE, align 1, keep-with-next
   \                     ?Subroutine126:
   \   000000   12....       LCALL   ??Subroutine219_0 & 0xFFFF
   \                     ??CrossCallReturnLabel_423:
   \   000003   F9           MOV     R1,A
   \   000004   22           RET

   \                                 In  segment BANKED_CODE, align 1, keep-with-next
   \                     ?Subroutine178:
   \   000000   EE           MOV     A,R6
   \   000001   2402         ADD     A,#0x2
   \   000003   FC           MOV     R4,A
   \   000004   EF           MOV     A,R7
   \   000005   3400         ADDC    A,#0x0
   \   000007   FD           MOV     R5,A
   \   000008   EE           MOV     A,R6
   \   000009   22           RET

   \                                 In  segment BANKED_CODE, align 1, keep-with-next
   \                     ?Subroutine135:
   \   000000   EE           MOV     A,R6
   \   000001   240E         ADD     A,#0xe
   \   000003                REQUIRE ??Subroutine217_0
   \   000003                ; // Fall through to label ??Subroutine217_0

   \                                 In  segment BANKED_CODE, align 1, keep-with-next
   \                     ??Subroutine217_0:
   \   000000   F582         MOV     DPL,A
   \   000002   EF           MOV     A,R7
   \   000003                REQUIRE ??Subroutine218_0
   \   000003                ; // Fall through to label ??Subroutine218_0

   \                                 In  segment BANKED_CODE, align 1, keep-with-next
   \                     ??Subroutine218_0:
   \   000000   12....       LCALL   ??Subroutine219_0 & 0xFFFF
   \                     ??CrossCallReturnLabel_426:
   \   000003   22           RET

   \                                 In  segment BANKED_CODE, align 1, keep-with-next
   \                     ??Subroutine235_0:
   \   000000   12....       LCALL   ??Subroutine241_0 & 0xFFFF
   \                     ??CrossCallReturnLabel_614:
   \   000003   22           RET

   \                                 In  segment BANKED_CODE, align 1, keep-with-next
   \                     ?Subroutine3:
   \   000000   7F06         MOV     R7,#0x6
   \   000002   02....       LJMP    ?BANKED_LEAVE_XDATA

   \                                 In  segment BANKED_CODE, align 1, keep-with-next
   \                     ?Subroutine168:
   \   000000   E0           MOVX    A,@DPTR
   \   000001   FA           MOV     R2,A
   \   000002   A3           INC     DPTR
   \   000003   E0           MOVX    A,@DPTR
   \   000004   F9           MOV     R1,A
   \   000005   EA           MOV     A,R2
   \   000006   22           RET
    770          
    771          /*********************************************************************
    772           * @fn          ZDO_ConvertOTAClusters
    773           *
    774           * @brief       This function will convert the over-the-air cluster list
    775           *              format to an internal format.
    776           *
    777           * @param       inMsg  - incoming message (request)
    778           *
    779           * @return      pointer to incremented inBuf
    780           */

   \                                 In  segment BANKED_CODE, align 1, keep-with-next
    781          uint8 *ZDO_ConvertOTAClusters( uint8 cnt, uint8 *inBuf, uint16 *outList )
   \                     ZDO_ConvertOTAClusters:
    782          {
   \   000000   74F6         MOV     A,#-0xa
   \   000002   12....       LCALL   ?BANKED_ENTER_XDATA
   \   000005                ; Saved register size: 10
   \   000005                ; Auto size: 0
   \   000005   E9           MOV     A,R1
    783            uint8 x;
    784          
    785            for ( x = 0; x < cnt; x++ )
   \   000006   6028         JZ      ??ZDO_ConvertOTAClusters_0
   \   000008   FF           MOV     R7,A
    786            {
    787              // convert ota format to internal
    788              outList[x] = BUILD_UINT16( inBuf[0], inBuf[1] );
   \                     ??ZDO_ConvertOTAClusters_1:
   \   000009   8A82         MOV     DPL,R2
   \   00000B   8B83         MOV     DPH,R3
   \   00000D   12....       LCALL   ?Subroutine100 & 0xFFFF
   \                     ??CrossCallReturnLabel_179:
   \   000010   F9           MOV     R1,A
   \   000011   E5..         MOV     A,?V0 + 0
   \   000013   8C82         MOV     DPL,R4
   \   000015   8D83         MOV     DPH,R5
   \   000017   12....       LCALL   ??Subroutine214_0 & 0xFFFF
    789              inBuf += sizeof( uint16 );
   \                     ??CrossCallReturnLabel_387:
   \   00001A   EA           MOV     A,R2
   \   00001B   2402         ADD     A,#0x2
   \   00001D   0A           INC     R2
   \   00001E   0A           INC     R2
   \   00001F   EB           MOV     A,R3
   \   000020   3400         ADDC    A,#0x0
   \   000022   FB           MOV     R3,A
    790            }
   \   000023   EC           MOV     A,R4
   \   000024   2402         ADD     A,#0x2
   \   000026   0C           INC     R4
   \   000027   0C           INC     R4
   \   000028   ED           MOV     A,R5
   \   000029   3400         ADDC    A,#0x0
   \   00002B   FD           MOV     R5,A
   \   00002C   1F           DEC     R7
   \   00002D   EF           MOV     A,R7
   \   00002E   70D9         JNZ     ??ZDO_ConvertOTAClusters_1
    791            return ( inBuf );
   \                     ??ZDO_ConvertOTAClusters_0:
   \   000030   02....       LJMP    ??Subroutine205_0 & 0xFFFF
    792          }

   \                                 In  segment BANKED_CODE, align 1, keep-with-next
   \                     ??Subroutine214_0:
   \   000000   F0           MOVX    @DPTR,A
   \   000001   A3           INC     DPTR
   \   000002   E9           MOV     A,R1
   \   000003   F0           MOVX    @DPTR,A
   \   000004   22           RET
    793          
    794          /*********************************************************************
    795           * @fn          ZDO_ProcessMatchDescReq
    796           *
    797           * @brief       This function processes and responds to the
    798           *              Match_Desc_req message.
    799           *
    800           * @param       inMsg  - incoming message (request)
    801           *
    802           * @return      none
    803           */

   \                                 In  segment BANKED_CODE, align 1, keep-with-next
    804          void ZDO_ProcessMatchDescReq( zdoIncomingMsg_t *inMsg )
   \                     ZDO_ProcessMatchDescReq:
    805          {
   \   000000   74E8         MOV     A,#-0x18
   \   000002   12....       LCALL   ?BANKED_ENTER_XDATA
   \   000005                ; Saved register size: 24
   \   000005                ; Auto size: 17
   \   000005   74EF         MOV     A,#-0x11
   \   000007   12....       LCALL   ?ALLOC_XSTACK8
   \   00000A   7401         MOV     A,#0x1
   \   00000C   12....       LCALL   ?XSTACK_DISP0_8
   \   00000F   12....       LCALL   ?Subroutine39 & 0xFFFF
    806            uint8 epCnt = 0;
   \                     ??CrossCallReturnLabel_50:
   \   000012   7405         MOV     A,#0x5
   \   000014   12....       LCALL   ?XSTACK_DISP0_8
   \   000017   E4           CLR     A
   \   000018   F0           MOVX    @DPTR,A
    807            uint8 numInClusters;
    808            uint16 *inClusters = NULL;
   \   000019   740A         MOV     A,#0xa
   \   00001B   12....       LCALL   ?XSTACK_DISP0_8
   \   00001E   E4           CLR     A
   \   00001F   F0           MOVX    @DPTR,A
   \   000020   A3           INC     DPTR
   \   000021   F0           MOVX    @DPTR,A
    809            uint8 numOutClusters;
    810            uint16 *outClusters = NULL;
   \   000022   7408         MOV     A,#0x8
   \   000024   12....       LCALL   ?XSTACK_DISP0_8
   \   000027   E4           CLR     A
   \   000028   F0           MOVX    @DPTR,A
   \   000029   A3           INC     DPTR
   \   00002A   F0           MOVX    @DPTR,A
    811            epList_t *epDesc;
    812            SimpleDescriptionFormat_t *sDesc = NULL;
    813            uint8 allocated;
    814            uint8 *msg;
    815            uint16 aoi;
    816            uint16 profileID;
    817          
    818            // Parse the incoming message
    819            msg = inMsg->asdu;
   \   00002B   04           INC     A
   \   00002C   12....       LCALL   ?XSTACK_DISP0_8
   \   00002F   E0           MOVX    A,@DPTR
   \   000030   2413         ADD     A,#0x13
   \   000032   12....       LCALL   ?Subroutine102 & 0xFFFF
   \                     ??CrossCallReturnLabel_185:
   \   000035   12....       LCALL   ??Subroutine246_0 & 0xFFFF
    820            aoi = BUILD_UINT16( msg[0], msg[1] );
   \                     ??CrossCallReturnLabel_572:
   \   000038   FA           MOV     R2,A
   \   000039   A3           INC     DPTR
   \   00003A   E0           MOVX    A,@DPTR
   \   00003B   F9           MOV     R1,A
   \   00003C   EA           MOV     A,R2
   \   00003D   2400         ADD     A,#0x0
   \   00003F   F5..         MOV     ?V0 + 8,A
   \   000041   E4           CLR     A
   \   000042   39           ADDC    A,R1
   \   000043   F5..         MOV     ?V0 + 9,A
    821            profileID = BUILD_UINT16( msg[2], msg[3] );
   \   000045   8E82         MOV     DPL,R6
   \   000047   8F83         MOV     DPH,R7
   \   000049   A3           INC     DPTR
   \   00004A   A3           INC     DPTR
   \   00004B   E0           MOVX    A,@DPTR
   \   00004C   FA           MOV     R2,A
   \   00004D   8E82         MOV     DPL,R6
   \   00004F   8F83         MOV     DPH,R7
   \   000051   A3           INC     DPTR
   \   000052   A3           INC     DPTR
   \   000053   A3           INC     DPTR
   \   000054   E0           MOVX    A,@DPTR
   \   000055   F9           MOV     R1,A
   \   000056   EA           MOV     A,R2
   \   000057   F5..         MOV     ?V0 + 12,A
   \   000059   E4           CLR     A
   \   00005A   39           ADDC    A,R1
   \   00005B   F5..         MOV     ?V0 + 13,A
    822            msg += 4;
   \   00005D   EE           MOV     A,R6
   \   00005E   2404         ADD     A,#0x4
   \   000060   FE           MOV     R6,A
   \   000061   EF           MOV     A,R7
   \   000062   3400         ADDC    A,#0x0
   \   000064   FF           MOV     R7,A
    823          
    824            if ( ADDR_BCAST_NOT_ME == NLME_IsAddressBroadcast(aoi) )
   \   000065                ; Setup parameters for call to function NLME_IsAddressBroadcast
   \   000065   AA..         MOV     R2,?V0 + 8
   \   000067   AB..         MOV     R3,?V0 + 9
   \   000069   12....       LCALL   ??NLME_IsAddressBroadcast?relay
   \   00006C   E9           MOV     A,R1
   \   00006D   6401         XRL     A,#0x1
   \   00006F   703C         JNZ     ??ZDO_ProcessMatchDescReq_0
    825            {
    826              ZDP_MatchDescRsp( inMsg->TransSeq, &(inMsg->srcAddr), ZDP_INVALID_REQTYPE,
    827                                    ZDAppNwkAddr.addr.shortAddr, 0, NULL, inMsg->SecurityUse );
   \                     ??ZDO_ProcessMatchDescReq_1:
   \   000071                ; Setup parameters for call to function ZDP_EPRsp
   \   000071   7401         MOV     A,#0x1
   \   000073   12....       LCALL   ?XSTACK_DISP0_8
   \   000076   12....       LCALL   ?Subroutine62 & 0xFFFF
   \                     ??CrossCallReturnLabel_356:
   \   000079   12....       LCALL   ?PUSH_XSTACK_I_ONE
   \   00007C   E4           CLR     A
   \   00007D   F5..         MOV     ?V0 + 0,A
   \   00007F   F5..         MOV     ?V0 + 1,A
   \   000081   78..         MOV     R0,#?V0 + 0
   \   000083   12....       LCALL   ?PUSH_XSTACK_I_TWO
   \   000086   78..         MOV     R0,#?V0 + 0
   \   000088   12....       LCALL   ?PUSH_XSTACK_I_ONE
   \   00008B   90....       MOV     DPTR,#ZDAppNwkAddr
   \   00008E   12....       LCALL   ?PUSH_XSTACK8_X_TWO
   \   000091   75..80       MOV     ?V0 + 0,#-0x80
   \   000094   78..         MOV     R0,#?V0 + 0
   \   000096   12....       LCALL   ?PUSH_XSTACK_I_ONE
   \   000099   7408         MOV     A,#0x8
   \   00009B   12....       LCALL   ?XSTACK_DISP0_8
   \   00009E   12....       LCALL   ?Subroutine103 & 0xFFFF
   \                     ??CrossCallReturnLabel_188:
   \   0000A1   12....       LCALL   ?XSTACK_DISP0_8
   \   0000A4   12....       LCALL   ?Subroutine70 & 0xFFFF
   \                     ??CrossCallReturnLabel_127:
   \   0000A7   12....       LCALL   ?DEALLOC_XSTACK8
    828              return;
   \   0000AA   02....       LJMP    ??CrossCallReturnLabel_118 & 0xFFFF
    829            }
    830            else if ( (ADDR_NOT_BCAST == NLME_IsAddressBroadcast(aoi)) && (aoi != ZDAppNwkAddr.addr.shortAddr) )
   \                     ??ZDO_ProcessMatchDescReq_0:
   \   0000AD                ; Setup parameters for call to function NLME_IsAddressBroadcast
   \   0000AD   AA..         MOV     R2,?V0 + 8
   \   0000AF   AB..         MOV     R3,?V0 + 9
   \   0000B1   12....       LCALL   ??NLME_IsAddressBroadcast?relay
   \   0000B4   E9           MOV     A,R1
   \   0000B5   700E         JNZ     ??ZDO_ProcessMatchDescReq_2
   \   0000B7   90....       MOV     DPTR,#ZDAppNwkAddr
   \   0000BA   E0           MOVX    A,@DPTR
   \   0000BB   65..         XRL     A,?V0 + 8
   \   0000BD   7004         JNZ     ??ZDO_ProcessMatchDescReq_3
   \   0000BF   A3           INC     DPTR
   \   0000C0   E0           MOVX    A,@DPTR
   \   0000C1   65..         XRL     A,?V0 + 9
   \                     ??ZDO_ProcessMatchDescReq_3:
   \   0000C3   70AC         JNZ     ??ZDO_ProcessMatchDescReq_1
    831            {
    832              ZDP_MatchDescRsp( inMsg->TransSeq, &(inMsg->srcAddr), ZDP_INVALID_REQTYPE,
    833                                       ZDAppNwkAddr.addr.shortAddr, 0, NULL, inMsg->SecurityUse );
    834              return;
    835            }
    836          
    837            if ((numInClusters = *msg++) &&
    838                (inClusters = (uint16*)osal_mem_alloc( numInClusters * sizeof( uint16 ) )))
   \                     ??ZDO_ProcessMatchDescReq_2:
   \   0000C5   8E82         MOV     DPL,R6
   \   0000C7   8F83         MOV     DPH,R7
   \   0000C9   E0           MOVX    A,@DPTR
   \   0000CA   F8           MOV     R0,A
   \   0000CB   A3           INC     DPTR
   \   0000CC   AE82         MOV     R6,DPL
   \   0000CE   AF83         MOV     R7,DPH
   \   0000D0   88..         MOV     ?V0 + 7,R0
   \   0000D2   6032         JZ      ??ZDO_ProcessMatchDescReq_4
   \   0000D4                ; Setup parameters for call to function osal_mem_alloc
   \   0000D4   C3           CLR     C
   \   0000D5   33           RLC     A
   \   0000D6   FA           MOV     R2,A
   \   0000D7   E4           CLR     A
   \   0000D8   33           RLC     A
   \   0000D9   FB           MOV     R3,A
   \   0000DA   12....       LCALL   ??osal_mem_alloc?relay
   \   0000DD   740A         MOV     A,#0xa
   \   0000DF   12....       LCALL   ?XSTACK_DISP0_8
   \   0000E2   12....       LCALL   ?Subroutine39 & 0xFFFF
   \                     ??CrossCallReturnLabel_51:
   \   0000E5   740A         MOV     A,#0xa
   \   0000E7   12....       LCALL   ?XSTACK_DISP0_8
   \   0000EA   12....       LCALL   ??Subroutine224_0 & 0xFFFF
   \                     ??CrossCallReturnLabel_435:
   \   0000ED   6017         JZ      ??ZDO_ProcessMatchDescReq_4
    839            {
    840              msg = ZDO_ConvertOTAClusters( numInClusters, msg, inClusters );
   \   0000EF                ; Setup parameters for call to function ZDO_ConvertOTAClusters
   \   0000EF   740A         MOV     A,#0xa
   \   0000F1   12....       LCALL   ?XSTACK_DISP0_8
   \   0000F4   12....       LCALL   ?Subroutine111 & 0xFFFF
    841            }
   \                     ??CrossCallReturnLabel_200:
   \   0000F7   A9..         MOV     R1,?V0 + 7
   \   0000F9   12....       LCALL   ??ZDO_ConvertOTAClusters?relay
   \   0000FC   8A..         MOV     ?V0 + 0,R2
   \   0000FE   8B..         MOV     ?V0 + 1,R3
   \   000100   AE..         MOV     R6,?V0 + 0
   \   000102   AF..         MOV     R7,?V0 + 1
   \   000104   8003         SJMP    ??ZDO_ProcessMatchDescReq_5
    842            else
    843            {
    844              numInClusters = 0;
   \                     ??ZDO_ProcessMatchDescReq_4:
   \   000106   75..00       MOV     ?V0 + 7,#0x0
    845            }
    846          
    847            if ((numOutClusters = *msg++) &&
    848                (outClusters = (uint16 *)osal_mem_alloc( numOutClusters * sizeof( uint16 ) )))
   \                     ??ZDO_ProcessMatchDescReq_5:
   \   000109   8E82         MOV     DPL,R6
   \   00010B   8F83         MOV     DPH,R7
   \   00010D   E0           MOVX    A,@DPTR
   \   00010E   A3           INC     DPTR
   \   00010F   AE82         MOV     R6,DPL
   \   000111   AF83         MOV     R7,DPH
   \   000113   85..82       MOV     DPL,?XSP + 0
   \   000116   85..83       MOV     DPH,?XSP + 1
   \   000119   F0           MOVX    @DPTR,A
   \   00011A   602E         JZ      ??ZDO_ProcessMatchDescReq_6
   \   00011C                ; Setup parameters for call to function osal_mem_alloc
   \   00011C   C3           CLR     C
   \   00011D   33           RLC     A
   \   00011E   FA           MOV     R2,A
   \   00011F   E4           CLR     A
   \   000120   33           RLC     A
   \   000121   FB           MOV     R3,A
   \   000122   12....       LCALL   ??osal_mem_alloc?relay
   \   000125   7408         MOV     A,#0x8
   \   000127   12....       LCALL   ?XSTACK_DISP0_8
   \   00012A   12....       LCALL   ?Subroutine39 & 0xFFFF
   \                     ??CrossCallReturnLabel_52:
   \   00012D   7408         MOV     A,#0x8
   \   00012F   12....       LCALL   ?XSTACK_DISP0_8
   \   000132   12....       LCALL   ??Subroutine224_0 & 0xFFFF
   \                     ??CrossCallReturnLabel_436:
   \   000135   6013         JZ      ??ZDO_ProcessMatchDescReq_6
    849            {
    850              msg = ZDO_ConvertOTAClusters( numOutClusters, msg, outClusters );
   \   000137                ; Setup parameters for call to function ZDO_ConvertOTAClusters
   \   000137   7408         MOV     A,#0x8
   \   000139   12....       LCALL   ?XSTACK_DISP0_8
   \   00013C   12....       LCALL   ?Subroutine111 & 0xFFFF
    851            }
   \                     ??CrossCallReturnLabel_201:
   \   00013F   85..82       MOV     DPL,?XSP + 0
   \   000142   85..83       MOV     DPH,?XSP + 1
   \   000145   12....       LCALL   ?Subroutine118 & 0xFFFF
   \                     ??CrossCallReturnLabel_214:
   \   000148   8008         SJMP    ??ZDO_ProcessMatchDescReq_7
    852            else
    853            {
    854              numOutClusters = 0;
   \                     ??ZDO_ProcessMatchDescReq_6:
   \   00014A   85..82       MOV     DPL,?XSP + 0
   \   00014D   85..83       MOV     DPH,?XSP + 1
   \   000150   E4           CLR     A
   \   000151   F0           MOVX    @DPTR,A
    855            }
    856          
    857            // First count the number of endpoints that match.
    858            epDesc = epList;
   \                     ??ZDO_ProcessMatchDescReq_7:
   \   000152   90....       MOV     DPTR,#epList
   \   000155   12....       LCALL   ??Subroutine236_0 & 0xFFFF
   \                     ??CrossCallReturnLabel_499:
   \   000158   7406         MOV     A,#0x6
   \   00015A   12....       LCALL   ?XSTACK_DISP0_8
   \   00015D   E8           MOV     A,R0
   \   00015E   F0           MOVX    @DPTR,A
   \   00015F   A3           INC     DPTR
   \   000160   E9           MOV     A,R1
   \   000161   12....       LCALL   ?Subroutine23 & 0xFFFF
   \                     ??CrossCallReturnLabel_25:
   \   000164   25..         ADD     A,?V0 + 7
   \   000166   C3           CLR     C
   \   000167   33           RLC     A
   \   000168   240A         ADD     A,#0xa
   \   00016A   F5..         MOV     ?V0 + 10,A
   \   00016C   75..00       MOV     ?V0 + 11,#0x0
   \   00016F   E0           MOVX    A,@DPTR
   \   000170   C3           CLR     C
   \   000171   33           RLC     A
   \   000172   FE           MOV     R6,A
   \   000173   E4           CLR     A
   \   000174   33           RLC     A
   \   000175   FF           MOV     R7,A
   \   000176   E5..         MOV     A,?V0 + 7
   \   000178   33           RLC     A
   \   000179   F5..         MOV     ?V0 + 2,A
   \   00017B   E4           CLR     A
   \   00017C   33           RLC     A
   \   00017D   F5..         MOV     ?V0 + 3,A
   \   00017F   E5..         MOV     A,?V0 + 7
   \   000181   33           RLC     A
   \   000182   F5..         MOV     ?V0 + 0,A
   \   000184   E4           CLR     A
   \   000185   33           RLC     A
   \   000186   F5..         MOV     ?V0 + 1,A
   \   000188   7401         MOV     A,#0x1
   \   00018A   12....       LCALL   ?XSTACK_DISP0_8
   \   00018D   12....       LCALL   ?Subroutine113 & 0xFFFF
   \                     ??CrossCallReturnLabel_204:
   \   000190   740F         MOV     A,#0xf
   \   000192   12....       LCALL   ?XSTACK_DISP0_8
   \   000195   12....       LCALL   ??Subroutine213_0 & 0xFFFF
    859            while ( epDesc )
   \                     ??CrossCallReturnLabel_391:
   \   000198   7406         MOV     A,#0x6
   \   00019A   12....       LCALL   ?XSTACK_DISP0_8
   \   00019D   12....       LCALL   ??Subroutine224_0 & 0xFFFF
   \                     ??CrossCallReturnLabel_437:
   \   0001A0   7003         JNZ     $+5
   \   0001A2   02....       LJMP    ??ZDO_ProcessMatchDescReq_8 & 0xFFFF
    860            {
    861              // Don't search endpoint 0 and check if response is allowed
    862              if ( epDesc->epDesc->endPoint != ZDO_EP && (epDesc->flags&eEP_AllowMatch) )
   \                     ??ZDO_ProcessMatchDescReq_9:
   \   0001A5   7406         MOV     A,#0x6
   \   0001A7   12....       LCALL   ?XSTACK_DISP0_8
   \   0001AA   12....       LCALL   ?Subroutine113 & 0xFFFF
   \                     ??CrossCallReturnLabel_205:
   \   0001AD   740D         MOV     A,#0xd
   \   0001AF   12....       LCALL   ?XSTACK_DISP0_8
   \   0001B2   12....       LCALL   ??Subroutine213_0 & 0xFFFF
   \                     ??CrossCallReturnLabel_392:
   \   0001B5   740D         MOV     A,#0xd
   \   0001B7   12....       LCALL   ?XSTACK_DISP0_8
   \   0001BA   12....       LCALL   ?Subroutine71 & 0xFFFF
   \                     ??CrossCallReturnLabel_129:
   \   0001BD   E8           MOV     A,R0
   \   0001BE   FA           MOV     R2,A
   \   0001BF   E9           MOV     A,R1
   \   0001C0   FB           MOV     R3,A
   \   0001C1   8A82         MOV     DPL,R2
   \   0001C3   8B83         MOV     DPH,R3
   \   0001C5   E0           MOVX    A,@DPTR
   \   0001C6   7003         JNZ     $+5
   \   0001C8   02....       LJMP    ??CrossCallReturnLabel_116 & 0xFFFF
   \   0001CB   7406         MOV     A,#0x6
   \   0001CD   12....       LCALL   ?XSTACK_DISP0_8
   \   0001D0   12....       LCALL   ?Subroutine87 & 0xFFFF
   \                     ??CrossCallReturnLabel_157:
   \   0001D3   A3           INC     DPTR
   \   0001D4   A3           INC     DPTR
   \   0001D5   E0           MOVX    A,@DPTR
   \   0001D6   A2E0         MOV     C,0xE0 /* A   */.0
   \   0001D8   4003         JC      $+5
   \   0001DA   02....       LJMP    ??CrossCallReturnLabel_116 & 0xFFFF
    863              {
    864                if ( epDesc->pfnDescCB )
   \   0001DD   7406         MOV     A,#0x6
   \   0001DF   12....       LCALL   ?XSTACK_DISP0_8
   \   0001E2   12....       LCALL   ?Subroutine114 & 0xFFFF
   \                     ??CrossCallReturnLabel_206:
   \   0001E5   12....       LCALL   ??Subroutine236_0 & 0xFFFF
   \                     ??CrossCallReturnLabel_500:
   \   0001E8   E8           MOV     A,R0
   \   0001E9   FC           MOV     R4,A
   \   0001EA   E9           MOV     A,R1
   \   0001EB   FD           MOV     R5,A
   \   0001EC   EC           MOV     A,R4
   \   0001ED   4D           ORL     A,R5
   \   0001EE   8A82         MOV     DPL,R2
   \   0001F0   8B83         MOV     DPH,R3
   \   0001F2   601C         JZ      ??ZDO_ProcessMatchDescReq_10
    865                {
    866                  sDesc = (SimpleDescriptionFormat_t *)epDesc->pfnDescCB( AF_DESCRIPTOR_SIMPLE, epDesc->epDesc->endPoint );
   \   0001F4                ; Setup parameters for indirect call
   \   0001F4   E0           MOVX    A,@DPTR
   \   0001F5   FA           MOV     R2,A
   \   0001F6   7901         MOV     R1,#0x1
   \   0001F8   8C82         MOV     DPL,R4
   \   0001FA   8D83         MOV     DPH,R5
   \   0001FC   12....       LCALL   ?CALL_IND
   \   0001FF   7403         MOV     A,#0x3
   \   000201   12....       LCALL   ?XSTACK_DISP0_8
   \   000204   12....       LCALL   ?Subroutine39 & 0xFFFF
    867                  allocated = TRUE;
   \                     ??CrossCallReturnLabel_53:
   \   000207   740C         MOV     A,#0xc
   \   000209   12....       LCALL   ?XSTACK_DISP0_8
   \   00020C   7401         MOV     A,#0x1
   \   00020E   8014         SJMP    ??ZDO_ProcessMatchDescReq_11
    868                }
    869                else
    870                {
    871                  sDesc = epDesc->epDesc->simpleDesc;
   \                     ??ZDO_ProcessMatchDescReq_10:
   \   000210   A3           INC     DPTR
   \   000211   A3           INC     DPTR
   \   000212   A3           INC     DPTR
   \   000213   12....       LCALL   ??Subroutine236_0 & 0xFFFF
   \                     ??CrossCallReturnLabel_501:
   \   000216   7403         MOV     A,#0x3
   \   000218   12....       LCALL   ?XSTACK_DISP0_8
   \   00021B   12....       LCALL   ??Subroutine213_0 & 0xFFFF
    872                  allocated = FALSE;
   \                     ??CrossCallReturnLabel_393:
   \   00021E   740C         MOV     A,#0xc
   \   000220   12....       LCALL   ?XSTACK_DISP0_8
   \   000223   E4           CLR     A
   \                     ??ZDO_ProcessMatchDescReq_11:
   \   000224   F0           MOVX    @DPTR,A
    873                }
    874          
    875                if ( sDesc && sDesc->AppProfId == profileID )
   \   000225   7403         MOV     A,#0x3
   \   000227   12....       LCALL   ?XSTACK_DISP0_8
   \   00022A   12....       LCALL   ??Subroutine224_0 & 0xFFFF
   \                     ??CrossCallReturnLabel_438:
   \   00022D   7003         JNZ     $+5
   \   00022F   02....       LJMP    ??ZDO_ProcessMatchDescReq_12 & 0xFFFF
   \   000232   7403         MOV     A,#0x3
   \   000234   12....       LCALL   ?XSTACK_DISP0_8
   \   000237   12....       LCALL   ?Subroutine175 & 0xFFFF
   \                     ??CrossCallReturnLabel_311:
   \   00023A   E0           MOVX    A,@DPTR
   \   00023B   65..         XRL     A,?V0 + 12
   \   00023D   7004         JNZ     ??ZDO_ProcessMatchDescReq_13
   \   00023F   A3           INC     DPTR
   \   000240   E0           MOVX    A,@DPTR
   \   000241   65..         XRL     A,?V0 + 13
   \                     ??ZDO_ProcessMatchDescReq_13:
   \   000243   6003         JZ      $+5
   \   000245   02....       LJMP    ??ZDO_ProcessMatchDescReq_12 & 0xFFFF
    876                {
    877                  uint8 *uint8Buf = (uint8 *)ZDOBuildBuf;
    878          
    879                  // Are there matching input clusters?
    880                  if ((ZDO_AnyClusterMatches( numInClusters, inClusters,
    881                             sDesc->AppNumInClusters, sDesc->pAppInClusterList )) ||
    882                      // Are there matching output clusters?
    883                      (ZDO_AnyClusterMatches( numOutClusters, outClusters,
    884                             sDesc->AppNumOutClusters, sDesc->pAppOutClusterList )))
   \   000248                ; Setup parameters for call to function ZDO_AnyClusterMatches
   \   000248   7403         MOV     A,#0x3
   \   00024A   12....       LCALL   ?XSTACK_DISP0_8
   \   00024D   12....       LCALL   ?Subroutine114 & 0xFFFF
   \                     ??CrossCallReturnLabel_207:
   \   000250   A3           INC     DPTR
   \   000251   A3           INC     DPTR
   \   000252   A3           INC     DPTR
   \   000253   12....       LCALL   ?PUSH_XSTACK8_X_TWO
   \   000256   7405         MOV     A,#0x5
   \   000258   12....       LCALL   ?XSTACK_DISP0_8
   \   00025B   12....       LCALL   ?Subroutine87 & 0xFFFF
   \                     ??CrossCallReturnLabel_158:
   \   00025E   E0           MOVX    A,@DPTR
   \   00025F   FC           MOV     R4,A
   \   000260   740C         MOV     A,#0xc
   \   000262   12....       LCALL   ?XSTACK_DISP0_8
   \   000265   12....       LCALL   ??Subroutine212_0 & 0xFFFF
   \                     ??CrossCallReturnLabel_377:
   \   000268   A9..         MOV     R1,?V0 + 7
   \   00026A   12....       LCALL   ??ZDO_AnyClusterMatches?relay
   \   00026D   7402         MOV     A,#0x2
   \   00026F   12....       LCALL   ?DEALLOC_XSTACK8
   \   000272   E9           MOV     A,R1
   \   000273   7033         JNZ     ??ZDO_ProcessMatchDescReq_14
   \   000275                ; Setup parameters for call to function ZDO_AnyClusterMatches
   \   000275   7403         MOV     A,#0x3
   \   000277   12....       LCALL   ?XSTACK_DISP0_8
   \   00027A   12....       LCALL   ?Subroutine78 & 0xFFFF
   \                     ??CrossCallReturnLabel_141:
   \   00027D   A3           INC     DPTR
   \   00027E   12....       LCALL   ?PUSH_XSTACK8_X_TWO
   \   000281   7405         MOV     A,#0x5
   \   000283   12....       LCALL   ?XSTACK_DISP0_8
   \   000286   12....       LCALL   ?Subroutine78 & 0xFFFF
   \                     ??CrossCallReturnLabel_142:
   \   000289   E0           MOVX    A,@DPTR
   \   00028A   FC           MOV     R4,A
   \   00028B   740A         MOV     A,#0xa
   \   00028D   12....       LCALL   ?XSTACK_DISP0_8
   \   000290   12....       LCALL   ??Subroutine212_0 & 0xFFFF
   \                     ??CrossCallReturnLabel_378:
   \   000293   7402         MOV     A,#0x2
   \   000295   12....       LCALL   ?XSTACK_DISP0_8
   \   000298   E0           MOVX    A,@DPTR
   \   000299   F9           MOV     R1,A
   \   00029A   12....       LCALL   ??ZDO_AnyClusterMatches?relay
   \   00029D   7402         MOV     A,#0x2
   \   00029F   12....       LCALL   ?DEALLOC_XSTACK8
   \   0002A2   E9           MOV     A,R1
   \   0002A3   7003         JNZ     $+5
   \   0002A5   02....       LJMP    ??ZDO_ProcessMatchDescReq_12 & 0xFFFF
    885                  {
    886                    // Notify the endpoint of the match.
    887                    uint8 bufLen = sizeof( ZDO_MatchDescRspSent_t ) + (numOutClusters + numInClusters) * sizeof(uint16);
    888                    ZDO_MatchDescRspSent_t *pRspSent = (ZDO_MatchDescRspSent_t *) osal_msg_allocate( bufLen );
   \                     ??ZDO_ProcessMatchDescReq_14:
   \   0002A8                ; Setup parameters for call to function osal_msg_allocate
   \   0002A8   AA..         MOV     R2,?V0 + 10
   \   0002AA   AB..         MOV     R3,?V0 + 11
   \   0002AC   12....       LCALL   ??osal_msg_allocate?relay
   \   0002AF   8A..         MOV     ?V0 + 14,R2
   \   0002B1   8B..         MOV     ?V0 + 15,R3
    889          
    890                    if (pRspSent)
   \   0002B3   EA           MOV     A,R2
   \   0002B4   45..         ORL     A,?V0 + 15
   \   0002B6   7003         JNZ     $+5
   \   0002B8   02....       LJMP    ??ZDO_ProcessMatchDescReq_15 & 0xFFFF
    891                    {
    892                      pRspSent->hdr.event = ZDO_MATCH_DESC_RSP_SENT;
   \   0002BB   8A82         MOV     DPL,R2
   \   0002BD   8B83         MOV     DPH,R3
   \   0002BF   74D2         MOV     A,#-0x2e
   \   0002C1   F0           MOVX    @DPTR,A
    893                      pRspSent->nwkAddr = inMsg->srcAddr.addr.shortAddr;
   \   0002C2   740F         MOV     A,#0xf
   \   0002C4   12....       LCALL   ?XSTACK_DISP0_8
   \   0002C7   12....       LCALL   ?Subroutine71 & 0xFFFF
   \                     ??CrossCallReturnLabel_130:
   \   0002CA   8A82         MOV     DPL,R2
   \   0002CC   8B83         MOV     DPH,R3
   \   0002CE   A3           INC     DPTR
   \   0002CF   A3           INC     DPTR
   \   0002D0   12....       LCALL   ??Subroutine213_0 & 0xFFFF
    894                      pRspSent->numInClusters = numInClusters;
   \                     ??CrossCallReturnLabel_394:
   \   0002D3   8A82         MOV     DPL,R2
   \   0002D5   8B83         MOV     DPH,R3
   \   0002D7   A3           INC     DPTR
   \   0002D8   A3           INC     DPTR
   \   0002D9   A3           INC     DPTR
   \   0002DA   A3           INC     DPTR
   \   0002DB   E5..         MOV     A,?V0 + 7
   \   0002DD   12....       LCALL   ?Subroutine23 & 0xFFFF
    895                      pRspSent->numOutClusters = numOutClusters;
   \                     ??CrossCallReturnLabel_22:
   \   0002E0   8A82         MOV     DPL,R2
   \   0002E2   8B83         MOV     DPH,R3
   \   0002E4   A3           INC     DPTR
   \   0002E5   A3           INC     DPTR
   \   0002E6   A3           INC     DPTR
   \   0002E7   A3           INC     DPTR
   \   0002E8   A3           INC     DPTR
   \   0002E9   A3           INC     DPTR
   \   0002EA   A3           INC     DPTR
   \   0002EB   F0           MOVX    @DPTR,A
    896          
    897                      if (numInClusters)
   \   0002EC   EA           MOV     A,R2
   \   0002ED   2405         ADD     A,#0x5
   \   0002EF   FA           MOV     R2,A
   \   0002F0   EB           MOV     A,R3
   \   0002F1   3400         ADDC    A,#0x0
   \   0002F3   FB           MOV     R3,A
   \   0002F4   E5..         MOV     A,?V0 + 7
   \   0002F6   6021         JZ      ??ZDO_ProcessMatchDescReq_16
    898                      {
    899                        pRspSent->pInClusters = (uint16*) (pRspSent + 1);
   \   0002F8   E5..         MOV     A,?V0 + 14
   \   0002FA   240A         ADD     A,#0xa
   \   0002FC   F8           MOV     R0,A
   \   0002FD   E5..         MOV     A,?V0 + 15
   \   0002FF   12....       LCALL   ?Subroutine32 & 0xFFFF
    900                        osal_memcpy(pRspSent->pInClusters, inClusters, numInClusters * sizeof(uint16));
   \                     ??CrossCallReturnLabel_405:
   \   000302                ; Setup parameters for call to function osal_memcpy
   \   000302   740A         MOV     A,#0xa
   \   000304   12....       LCALL   ?XSTACK_DISP0_8
   \   000307   12....       LCALL   ?Subroutine95 & 0xFFFF
    901                      }
   \                     ??CrossCallReturnLabel_169:
   \   00030A   12....       LCALL   ?PUSH_XSTACK_I_THREE
   \   00030D   AC..         MOV     R4,?V0 + 0
   \   00030F   AD..         MOV     R5,?V0 + 1
   \   000311   12....       LCALL   ?Subroutine104 & 0xFFFF
   \                     ??CrossCallReturnLabel_190:
   \   000314   12....       LCALL   ?DEALLOC_XSTACK8
   \   000317   8008         SJMP    ??ZDO_ProcessMatchDescReq_17
    902                      else
    903                      {
    904                        pRspSent->pInClusters = NULL;
   \                     ??ZDO_ProcessMatchDescReq_16:
   \   000319   8A82         MOV     DPL,R2
   \   00031B   8B83         MOV     DPH,R3
   \   00031D   E4           CLR     A
   \   00031E   F0           MOVX    @DPTR,A
   \   00031F   A3           INC     DPTR
   \   000320   F0           MOVX    @DPTR,A
    905                      }
    906          
    907                      if (numOutClusters)
   \                     ??ZDO_ProcessMatchDescReq_17:
   \   000321   E5..         MOV     A,?V0 + 14
   \   000323   2408         ADD     A,#0x8
   \   000325   FA           MOV     R2,A
   \   000326   E5..         MOV     A,?V0 + 15
   \   000328   3400         ADDC    A,#0x0
   \   00032A   FB           MOV     R3,A
   \   00032B   85..82       MOV     DPL,?XSP + 0
   \   00032E   85..83       MOV     DPH,?XSP + 1
   \   000331   E0           MOVX    A,@DPTR
   \   000332   6029         JZ      ??ZDO_ProcessMatchDescReq_18
   \   000334   E5..         MOV     A,?V0 + 14
   \   000336   25..         ADD     A,?V0 + 2
   \   000338   F8           MOV     R0,A
   \   000339   E5..         MOV     A,?V0 + 15
   \   00033B   35..         ADDC    A,?V0 + 3
   \   00033D   F9           MOV     R1,A
   \   00033E   E8           MOV     A,R0
   \   00033F   240A         ADD     A,#0xa
   \   000341   F8           MOV     R0,A
   \   000342   E9           MOV     A,R1
   \   000343   12....       LCALL   ?Subroutine32 & 0xFFFF
    908                      {
    909                        pRspSent->pOutClusters = (uint16*)(pRspSent + 1) + numInClusters;
    910                        osal_memcpy(pRspSent->pOutClusters, outClusters, numOutClusters * sizeof(uint16));
   \                     ??CrossCallReturnLabel_406:
   \   000346                ; Setup parameters for call to function osal_memcpy
   \   000346   7408         MOV     A,#0x8
   \   000348   12....       LCALL   ?XSTACK_DISP0_8
   \   00034B   12....       LCALL   ?Subroutine95 & 0xFFFF
    911                      }
   \                     ??CrossCallReturnLabel_170:
   \   00034E   12....       LCALL   ?PUSH_XSTACK_I_THREE
   \   000351   EE           MOV     A,R6
   \   000352   FC           MOV     R4,A
   \   000353   EF           MOV     A,R7
   \   000354   FD           MOV     R5,A
   \   000355   12....       LCALL   ?Subroutine104 & 0xFFFF
   \                     ??CrossCallReturnLabel_191:
   \   000358   12....       LCALL   ?DEALLOC_XSTACK8
   \   00035B   8008         SJMP    ??ZDO_ProcessMatchDescReq_19
    912                      else
    913                      {
    914                        pRspSent->pOutClusters = NULL;
   \                     ??ZDO_ProcessMatchDescReq_18:
   \   00035D   8A82         MOV     DPL,R2
   \   00035F   8B83         MOV     DPH,R3
   \   000361   E4           CLR     A
   \   000362   F0           MOVX    @DPTR,A
   \   000363   A3           INC     DPTR
   \   000364   F0           MOVX    @DPTR,A
    915                      }
    916          
    917                      osal_msg_send( *epDesc->epDesc->task_id, (uint8 *)pRspSent );
   \                     ??ZDO_ProcessMatchDescReq_19:
   \   000365                ; Setup parameters for call to function osal_msg_send
   \   000365   AA..         MOV     R2,?V0 + 14
   \   000367   AB..         MOV     R3,?V0 + 15
   \   000369   740D         MOV     A,#0xd
   \   00036B   12....       LCALL   ?XSTACK_DISP0_8
   \   00036E   12....       LCALL   ??Subroutine210_0 & 0xFFFF
    918                    }
   \                     ??CrossCallReturnLabel_365:
   \   000371   F8           MOV     R0,A
   \   000372   12....       LCALL   ?Subroutine175 & 0xFFFF
   \                     ??CrossCallReturnLabel_312:
   \   000375   12....       LCALL   ??Subroutine210_0 & 0xFFFF
   \                     ??CrossCallReturnLabel_366:
   \   000378   F9           MOV     R1,A
   \   000379   12....       LCALL   ??osal_msg_send?relay
    919          
    920                    uint8Buf[epCnt++] = sDesc->EndPoint;
   \                     ??ZDO_ProcessMatchDescReq_15:
   \   00037C   7403         MOV     A,#0x3
   \   00037E   12....       LCALL   ?XSTACK_DISP0_8
   \   000381   12....       LCALL   ??Subroutine210_0 & 0xFFFF
    921                  }
    922                }
   \                     ??CrossCallReturnLabel_367:
   \   000384   C0E0         PUSH    A
   \   000386   7405         MOV     A,#0x5
   \   000388   12....       LCALL   ?XSTACK_DISP0_8
   \   00038B   E0           MOVX    A,@DPTR
   \   00038C   F8           MOV     R0,A
   \   00038D   74..         MOV     A,#ZDOBuildBuf & 0xff
   \   00038F   28           ADD     A,R0
   \   000390   F582         MOV     DPL,A
   \   000392   74..         MOV     A,#(ZDOBuildBuf >> 8) & 0xff
   \   000394   12....       LCALL   ??Subroutine248_0 & 0xFFFF
   \                     ??CrossCallReturnLabel_573:
   \   000397   D0E0         POP     A
   \   000399   F0           MOVX    @DPTR,A
   \   00039A   7405         MOV     A,#0x5
   \   00039C   12....       LCALL   ?XSTACK_DISP0_8
   \   00039F   E0           MOVX    A,@DPTR
   \   0003A0   04           INC     A
   \   0003A1   F0           MOVX    @DPTR,A
    923          
    924                if ( allocated )
   \                     ??ZDO_ProcessMatchDescReq_12:
   \   0003A2   740C         MOV     A,#0xc
   \   0003A4   12....       LCALL   ?XSTACK_DISP0_8
   \   0003A7   E0           MOVX    A,@DPTR
   \   0003A8   A2E0         MOV     C,0xE0 /* A   */.0
   \   0003AA   5008         JNC     ??CrossCallReturnLabel_116
    925                {
    926                  osal_mem_free( sDesc );
   \   0003AC                ; Setup parameters for call to function osal_mem_free
   \   0003AC   7403         MOV     A,#0x3
   \   0003AE   12....       LCALL   ?XSTACK_DISP0_8
   \   0003B1   12....       LCALL   ?Subroutine64 & 0xFFFF
    927                }
    928              }
    929              epDesc = epDesc->nextDesc;
   \                     ??CrossCallReturnLabel_116:
   \   0003B4   7406         MOV     A,#0x6
   \   0003B6   12....       LCALL   ?XSTACK_DISP0_8
   \   0003B9   12....       LCALL   ?Subroutine71 & 0xFFFF
    930            }
   \                     ??CrossCallReturnLabel_131:
   \   0003BC   7406         MOV     A,#0x6
   \   0003BE   12....       LCALL   ?XSTACK_DISP0_8
   \   0003C1   12....       LCALL   ??Subroutine213_0 & 0xFFFF
   \                     ??CrossCallReturnLabel_395:
   \   0003C4   7406         MOV     A,#0x6
   \   0003C6   12....       LCALL   ?XSTACK_DISP0_8
   \   0003C9   E0           MOVX    A,@DPTR
   \   0003CA   49           ORL     A,R1
   \   0003CB   6003         JZ      $+5
   \   0003CD   02....       LJMP    ??ZDO_ProcessMatchDescReq_9 & 0xFFFF
    931          
    932            if ( epCnt )
   \   0003D0   7405         MOV     A,#0x5
   \   0003D2   12....       LCALL   ?XSTACK_DISP0_8
   \   0003D5   E0           MOVX    A,@DPTR
   \   0003D6   602E         JZ      ??ZDO_ProcessMatchDescReq_8
    933            {
    934              // Send the message if at least one match found.
    935              if ( ZSuccess == ZDP_MatchDescRsp( inMsg->TransSeq, &(inMsg->srcAddr), ZDP_SUCCESS,
    936                        ZDAppNwkAddr.addr.shortAddr, epCnt, (uint8 *)ZDOBuildBuf, inMsg->SecurityUse ) )
   \   0003D8                ; Setup parameters for call to function ZDP_EPRsp
   \   0003D8   7401         MOV     A,#0x1
   \   0003DA   12....       LCALL   ?XSTACK_DISP0_8
   \   0003DD   12....       LCALL   ?Subroutine62 & 0xFFFF
    937              {
    938          #if defined( LCD_SUPPORTED )
    939                HalLcdWriteScreen( "Match Desc Req", "Rsp Sent" );
    940          #endif
    941              }
    942            }
   \                     ??CrossCallReturnLabel_357:
   \   0003E0   12....       LCALL   ?PUSH_XSTACK_I_ONE
   \   0003E3   75....       MOV     ?V0 + 0,#ZDOBuildBuf & 0xff
   \   0003E6   75....       MOV     ?V0 + 1,#(ZDOBuildBuf >> 8) & 0xff
   \   0003E9   78..         MOV     R0,#?V0 + 0
   \   0003EB   12....       LCALL   ?PUSH_XSTACK_I_TWO
   \   0003EE   7408         MOV     A,#0x8
   \   0003F0   12....       LCALL   ?XSTACK_DISP0_8
   \   0003F3   E0           MOVX    A,@DPTR
   \   0003F4   F5..         MOV     ?V0 + 0,A
   \   0003F6   78..         MOV     R0,#?V0 + 0
   \   0003F8   12....       LCALL   ?PUSH_XSTACK_I_ONE
   \   0003FB   90....       MOV     DPTR,#ZDAppNwkAddr
   \   0003FE   12....       LCALL   ?PUSH_XSTACK8_X_TWO
   \   000401   75..00       MOV     ?V0 + 0,#0x0
   \   000404   802E         SJMP    ??ZDO_ProcessMatchDescReq_20
    943            else
    944            {
    945              // No match found
    946              if (ADDR_NOT_BCAST == NLME_IsAddressBroadcast(aoi))
   \                     ??ZDO_ProcessMatchDescReq_8:
   \   000406                ; Setup parameters for call to function NLME_IsAddressBroadcast
   \   000406   AA..         MOV     R2,?V0 + 8
   \   000408   AB..         MOV     R3,?V0 + 9
   \   00040A   12....       LCALL   ??NLME_IsAddressBroadcast?relay
   \   00040D   E9           MOV     A,R1
   \   00040E   703A         JNZ     ??ZDO_ProcessMatchDescReq_21
    947              {
    948                // send response message with match length = 0
    949                ZDP_MatchDescRsp( inMsg->TransSeq, &(inMsg->srcAddr), ZDP_SUCCESS,
    950                                  ZDAppNwkAddr.addr.shortAddr, 0, (uint8 *)ZDOBuildBuf, inMsg->SecurityUse );
   \   000410                ; Setup parameters for call to function ZDP_EPRsp
   \   000410   7401         MOV     A,#0x1
   \   000412   12....       LCALL   ?XSTACK_DISP0_8
   \   000415   12....       LCALL   ?Subroutine62 & 0xFFFF
    951          #if defined( LCD_SUPPORTED )
    952                HalLcdWriteScreen( "Match Desc Req", "Rsp Non Matched" );
    953          #endif
    954              }
    955              else
    956              {
    957                // no response mesage for broadcast message
    958          #if defined( LCD_SUPPORTED )
    959                HalLcdWriteScreen( "Match Desc Req", "Non Matched" );
    960          #endif
    961              }
    962            }
   \                     ??CrossCallReturnLabel_358:
   \   000418   12....       LCALL   ?PUSH_XSTACK_I_ONE
   \   00041B   75....       MOV     ?V0 + 0,#ZDOBuildBuf & 0xff
   \   00041E   75....       MOV     ?V0 + 1,#(ZDOBuildBuf >> 8) & 0xff
   \   000421   78..         MOV     R0,#?V0 + 0
   \   000423   12....       LCALL   ?PUSH_XSTACK_I_TWO
   \   000426   75..00       MOV     ?V0 + 0,#0x0
   \   000429   78..         MOV     R0,#?V0 + 0
   \   00042B   12....       LCALL   ?PUSH_XSTACK_I_ONE
   \   00042E   90....       MOV     DPTR,#ZDAppNwkAddr
   \   000431   12....       LCALL   ?PUSH_XSTACK8_X_TWO
   \                     ??ZDO_ProcessMatchDescReq_20:
   \   000434   78..         MOV     R0,#?V0 + 0
   \   000436   12....       LCALL   ?PUSH_XSTACK_I_ONE
   \   000439   7408         MOV     A,#0x8
   \   00043B   12....       LCALL   ?XSTACK_DISP0_8
   \   00043E   12....       LCALL   ?Subroutine103 & 0xFFFF
   \                     ??CrossCallReturnLabel_189:
   \   000441   12....       LCALL   ?XSTACK_DISP0_8
   \   000444   12....       LCALL   ?Subroutine70 & 0xFFFF
   \                     ??CrossCallReturnLabel_128:
   \   000447   12....       LCALL   ?DEALLOC_XSTACK8
    963          
    964            if ( inClusters != NULL )
   \                     ??ZDO_ProcessMatchDescReq_21:
   \   00044A   740A         MOV     A,#0xa
   \   00044C   12....       LCALL   ?XSTACK_DISP0_8
   \   00044F   12....       LCALL   ??Subroutine224_0 & 0xFFFF
   \                     ??CrossCallReturnLabel_439:
   \   000452   6008         JZ      ??CrossCallReturnLabel_117
    965            {
    966              osal_mem_free( inClusters );
   \   000454                ; Setup parameters for call to function osal_mem_free
   \   000454   740A         MOV     A,#0xa
   \   000456   12....       LCALL   ?XSTACK_DISP0_8
   \   000459   12....       LCALL   ?Subroutine64 & 0xFFFF
    967            }
    968          
    969            if ( outClusters != NULL )
   \                     ??CrossCallReturnLabel_117:
   \   00045C   7408         MOV     A,#0x8
   \   00045E   12....       LCALL   ?XSTACK_DISP0_8
   \   000461   12....       LCALL   ??Subroutine224_0 & 0xFFFF
   \                     ??CrossCallReturnLabel_440:
   \   000464   6008         JZ      ??CrossCallReturnLabel_118
    970            {
    971              osal_mem_free( outClusters );
   \   000466                ; Setup parameters for call to function osal_mem_free
   \   000466   7408         MOV     A,#0x8
   \   000468   12....       LCALL   ?XSTACK_DISP0_8
   \   00046B   12....       LCALL   ?Subroutine64 & 0xFFFF
    972            }
   \                     ??CrossCallReturnLabel_118:
   \   00046E   7411         MOV     A,#0x11
   \   000470                REQUIRE ?Subroutine4
   \   000470                ; // Fall through to label ?Subroutine4
    973          }

   \                                 In  segment BANKED_CODE, align 1, keep-with-next
   \                     ?Subroutine4:
   \   000000   12....       LCALL   ?DEALLOC_XSTACK8
   \   000003                REQUIRE ??Subroutine207_0
   \   000003                ; // Fall through to label ??Subroutine207_0

   \                                 In  segment BANKED_CODE, align 1, keep-with-next
   \                     ??Subroutine207_0:
   \   000000   7F10         MOV     R7,#0x10
   \   000002   02....       LJMP    ?BANKED_LEAVE_XDATA

   \                                 In  segment BANKED_CODE, align 1, keep-with-next
   \                     ?Subroutine114:
   \   000000   12....       LCALL   ?Subroutine175 & 0xFFFF
   \                     ??CrossCallReturnLabel_313:
   \   000003   A3           INC     DPTR
   \   000004   A3           INC     DPTR
   \   000005   A3           INC     DPTR
   \   000006   22           RET

   \                                 In  segment BANKED_CODE, align 1, keep-with-next
   \                     ?Subroutine175:
   \   000000   A3           INC     DPTR
   \   000001   E0           MOVX    A,@DPTR
   \   000002   F583         MOV     DPH,A
   \   000004   8882         MOV     DPL,R0
   \   000006   A3           INC     DPTR
   \   000007   22           RET

   \                                 In  segment BANKED_CODE, align 1, keep-with-next
   \                     ?Subroutine113:
   \   000000   E0           MOVX    A,@DPTR
   \   000001   2402         ADD     A,#0x2
   \   000003   F8           MOV     R0,A
   \   000004   A3           INC     DPTR
   \   000005   E0           MOVX    A,@DPTR
   \   000006   3400         ADDC    A,#0x0
   \   000008   F9           MOV     R1,A
   \   000009   22           RET

   \                                 In  segment BANKED_CODE, align 1, keep-with-next
   \                     ?Subroutine111:
   \   000000   E0           MOVX    A,@DPTR
   \   000001   FC           MOV     R4,A
   \   000002   A3           INC     DPTR
   \   000003   E0           MOVX    A,@DPTR
   \   000004   FD           MOV     R5,A
   \   000005   EE           MOV     A,R6
   \   000006   FA           MOV     R2,A
   \   000007   EF           MOV     A,R7
   \   000008   FB           MOV     R3,A
   \   000009   22           RET

   \                                 In  segment BANKED_CODE, align 1, keep-with-next
   \                     ?Subroutine104:
   \   000000   8A82         MOV     DPL,R2
   \   000002   8B83         MOV     DPH,R3
   \   000004   12....       LCALL   ??Subroutine226_0 & 0xFFFF
   \                     ??CrossCallReturnLabel_461:
   \   000007   12....       LCALL   ?Subroutine192 & 0xFFFF
   \                     ??CrossCallReturnLabel_551:
   \   00000A   22           RET

   \                                 In  segment BANKED_CODE, align 1, keep-with-next
   \                     ?Subroutine103:
   \   000000   E0           MOVX    A,@DPTR
   \   000001   2402         ADD     A,#0x2
   \   000003   FC           MOV     R4,A
   \   000004   A3           INC     DPTR
   \   000005   E0           MOVX    A,@DPTR
   \   000006   3400         ADDC    A,#0x0
   \   000008   FD           MOV     R5,A
   \   000009   7408         MOV     A,#0x8
   \   00000B   22           RET

   \                                 In  segment BANKED_CODE, align 1, keep-with-next
   \                     ?Subroutine95:
   \   000000   12....       LCALL   ?Subroutine170 & 0xFFFF
   \                     ??CrossCallReturnLabel_303:
   \   000003   75..00       MOV     ?V0 + 6,#0x0
   \   000006   78..         MOV     R0,#?V0 + 4
   \   000008   22           RET

   \                                 In  segment BANKED_CODE, align 1, keep-with-next
   \                     ?Subroutine87:
   \   000000   12....       LCALL   ?Subroutine167 & 0xFFFF
   \                     ??CrossCallReturnLabel_301:
   \   000003   22           RET

   \                                 In  segment BANKED_CODE, align 1, keep-with-next
   \                     ?Subroutine167:
   \   000000   12....       LCALL   ?Subroutine199 & 0xFFFF
   \                     ??CrossCallReturnLabel_374:
   \   000003   A3           INC     DPTR
   \   000004   A3           INC     DPTR
   \   000005   A3           INC     DPTR
   \   000006   A3           INC     DPTR
   \   000007   A3           INC     DPTR
   \   000008   A3           INC     DPTR
   \   000009   22           RET

   \                                 In  segment BANKED_CODE, align 1, keep-with-next
   \                     ?Subroutine78:
   \   000000   12....       LCALL   ?Subroutine167 & 0xFFFF
   \                     ??CrossCallReturnLabel_300:
   \   000003   A3           INC     DPTR
   \   000004   A3           INC     DPTR
   \   000005   A3           INC     DPTR
   \   000006   22           RET

   \                                 In  segment BANKED_CODE, align 1, keep-with-next
   \                     ?Subroutine71:
   \   000000   12....       LCALL   ?Subroutine166 & 0xFFFF
   \                     ??CrossCallReturnLabel_372:
   \   000003   F8           MOV     R0,A
   \   000004   A3           INC     DPTR
   \   000005   E0           MOVX    A,@DPTR
   \   000006   F9           MOV     R1,A
   \   000007   22           RET

   \                                 In  segment BANKED_CODE, align 1, keep-with-next
   \                     ?Subroutine70:
   \   000000   E0           MOVX    A,@DPTR
   \   000001   240F         ADD     A,#0xf
   \   000003   12....       LCALL   ?Subroutine164 & 0xFFFF
   \                     ??CrossCallReturnLabel_483:
   \   000006   F9           MOV     R1,A
   \   000007   7A06         MOV     R2,#0x6
   \   000009   7B80         MOV     R3,#-0x80
   \   00000B   12....       LCALL   ??ZDP_EPRsp?relay
   \   00000E   7407         MOV     A,#0x7
   \   000010   22           RET

   \                                 In  segment BANKED_CODE, align 1, keep-with-next
   \                     ?Subroutine62:
   \   000000   E0           MOVX    A,@DPTR
   \   000001   240E         ADD     A,#0xe
   \   000003                REQUIRE ??Subroutine208_0
   \   000003                ; // Fall through to label ??Subroutine208_0

   \                                 In  segment BANKED_CODE, align 1, keep-with-next
   \                     ??Subroutine208_0:
   \   000000   12....       LCALL   ?Subroutine164 & 0xFFFF
   \                     ??CrossCallReturnLabel_487:
   \   000003   F5..         MOV     ?V0 + 0,A
   \   000005   78..         MOV     R0,#?V0 + 0
   \   000007   22           RET

   \                                 In  segment BANKED_CODE, align 1, keep-with-next
   \                     ?Subroutine32:
   \   000000   3400         ADDC    A,#0x0
   \   000002   F9           MOV     R1,A
   \   000003   8A82         MOV     DPL,R2
   \   000005   8B83         MOV     DPH,R3
   \   000007                REQUIRE ??Subroutine213_0
   \   000007                ; // Fall through to label ??Subroutine213_0

   \                                 In  segment BANKED_CODE, align 1, keep-with-next
   \                     ??Subroutine213_0:
   \   000000   E8           MOV     A,R0
   \   000001                REQUIRE ??Subroutine214_0
   \   000001                ; // Fall through to label ??Subroutine214_0

   \                                 In  segment BANKED_CODE, align 1, keep-with-next
   \                     ?Subroutine23:
   \   000000   12....       LCALL   ?Subroutine155 & 0xFFFF
   \                     ??CrossCallReturnLabel_283:
   \   000003   E0           MOVX    A,@DPTR
   \   000004   22           RET

   \                                 In  segment BANKED_CODE, align 1, keep-with-next
   \                     ?Subroutine170:
   \   000000   E0           MOVX    A,@DPTR
   \   000001   F5..         MOV     ?V0 + 4,A
   \   000003   A3           INC     DPTR
   \   000004   E0           MOVX    A,@DPTR
   \   000005   F5..         MOV     ?V0 + 5,A
   \   000007   22           RET

   \                                 In  segment BANKED_CODE, align 1, keep-with-next
   \                     ?Subroutine192:
   \   000000   12....       LCALL   ??osal_memcpy?relay
   \   000003   7403         MOV     A,#0x3
   \   000005   22           RET

   \                                 In  segment BANKED_CODE, align 1, keep-with-next
   \                     ?Subroutine102:
   \   000000   12....       LCALL   ?Subroutine165 & 0xFFFF
   \                     ??CrossCallReturnLabel_299:
   \   000003   22           RET

   \                                 In  segment BANKED_CODE, align 1, keep-with-next
   \                     ?Subroutine165:
   \   000000   F8           MOV     R0,A
   \   000001   12....       LCALL   ?Subroutine197 & 0xFFFF
   \                     ??CrossCallReturnLabel_490:
   \   000004   22           RET

   \                                 In  segment BANKED_CODE, align 1, keep-with-next
   \                     ?Subroutine197:
   \   000000   A3           INC     DPTR
   \   000001   E0           MOVX    A,@DPTR
   \   000002   12....       LCALL   ?Subroutine203 & 0xFFFF
   \                     ??CrossCallReturnLabel_494:
   \   000005   22           RET

   \                                 In  segment BANKED_CODE, align 1, keep-with-next
   \                     ?Subroutine203:
   \   000000   3400         ADDC    A,#0x0
   \   000002   F9           MOV     R1,A
   \   000003   8882         MOV     DPL,R0
   \   000005   8983         MOV     DPH,R1
   \   000007   22           RET

   \                                 In  segment BANKED_CODE, align 1, keep-with-next
   \                     ?Subroutine164:
   \   000000   F8           MOV     R0,A
   \   000001                REQUIRE ??Subroutine232_0
   \   000001                ; // Fall through to label ??Subroutine232_0

   \                                 In  segment BANKED_CODE, align 1, keep-with-next
   \                     ??Subroutine232_0:
   \   000000   12....       LCALL   ?Subroutine197 & 0xFFFF
   \                     ??CrossCallReturnLabel_491:
   \   000003   E0           MOVX    A,@DPTR
   \   000004   22           RET

   \                                 In  segment BANKED_CODE, align 1, keep-with-next
   \                     ?Subroutine118:
   \   000000   E0           MOVX    A,@DPTR
   \   000001   F9           MOV     R1,A
   \   000002   12....       LCALL   ??ZDO_ConvertOTAClusters?relay
   \   000005   22           RET

   \                                 In  segment BANKED_CODE, align 1, keep-with-next
   \                     ??Subroutine236_0:
   \   000000   12....       LCALL   ?Subroutine174 & 0xFFFF
   \                     ??CrossCallReturnLabel_515:
   \   000003   22           RET

   \                                 In  segment BANKED_CODE, align 1, keep-with-next
   \                     ?Subroutine174:
   \   000000   12....       LCALL   ??Subroutine233_0 & 0xFFFF
   \                     ??CrossCallReturnLabel_521:
   \   000003   F9           MOV     R1,A
   \   000004   22           RET

   \                                 In  segment BANKED_CODE, align 1, keep-with-next
   \                     ??Subroutine246_0:
   \   000000   E0           MOVX    A,@DPTR
   \   000001   FE           MOV     R6,A
   \   000002   A3           INC     DPTR
   \   000003   E0           MOVX    A,@DPTR
   \   000004   FF           MOV     R7,A
   \   000005   8E82         MOV     DPL,R6
   \   000007   8F83         MOV     DPH,R7
   \   000009   E0           MOVX    A,@DPTR
   \   00000A   22           RET

   \                                 In  segment BANKED_CODE, align 1, keep-with-next
   \                     ??Subroutine248_0:
   \   000000   12....       LCALL   ??Subroutine235_0 & 0xFFFF
   \                     ??CrossCallReturnLabel_608:
   \   000003   22           RET
    974          
    975          /*********************************************************************
    976           * @fn      ZDO_ProcessBindUnbindReq()
    977           *
    978           * @brief   Called to process a Bind or Unbind Request message.
    979           *
    980           * @param   inMsg  - incoming message (request)
    981           * @param   pReq - place to put parsed information
    982           *
    983           * @return  none
    984           */

   \                                 In  segment BANKED_CODE, align 1, keep-with-next
    985          void ZDO_ProcessBindUnbindReq( zdoIncomingMsg_t *inMsg, ZDO_BindUnbindReq_t *pReq )
   \                     ZDO_ProcessBindUnbindReq:
    986          {
   \   000000   74F1         MOV     A,#-0xf
   \   000002   12....       LCALL   ?BANKED_ENTER_XDATA
   \   000005                ; Saved register size: 15
   \   000005                ; Auto size: 12
   \   000005   74F4         MOV     A,#-0xc
   \   000007   12....       LCALL   ?ALLOC_XSTACK8
   \   00000A   EA           MOV     A,R2
   \   00000B   FE           MOV     R6,A
   \   00000C   EB           MOV     A,R3
   \   00000D   FF           MOV     R7,A
   \   00000E   8C..         MOV     ?V0 + 0,R4
   \   000010   8D..         MOV     ?V0 + 1,R5
    987            zAddrType_t SourceAddr;       // Binding Source addres
    988            byte bindStat;
    989          
    990            SourceAddr.addrMode = Addr64Bit;
   \   000012   740B         MOV     A,#0xb
   \   000014   12....       LCALL   ?XSTACK_DISP0_8
   \   000017   7403         MOV     A,#0x3
   \   000019   F0           MOVX    @DPTR,A
    991            osal_cpyExtAddr( SourceAddr.addr.extAddr, pReq->srcAddress );
   \   00001A                ; Setup parameters for call to function sAddrExtCpy
   \   00001A   12....       LCALL   ?XSTACK_DISP0_8
   \   00001D   AA82         MOV     R2,DPL
   \   00001F   AB83         MOV     R3,DPH
   \   000021   12....       LCALL   ??sAddrExtCpy?relay
    992          
    993            // If the local device is not the primary binding cache
    994            // check the src address of the bind request.
    995            // If it is not the local device's extended address
    996            // discard the request.
    997            if ( !osal_ExtAddrEqual( SourceAddr.addr.extAddr, NLME_GetExtAddr()) ||
    998                  (pReq->dstAddress.addrMode != Addr64Bit &&
    999                   pReq->dstAddress.addrMode != AddrGroup) )
   \   000024                ; Setup parameters for call to function sAddrExtCmp
   \   000024                ; Setup parameters for call to function NLME_GetExtAddr
   \   000024   12....       LCALL   ??NLME_GetExtAddr?relay
   \   000027   EA           MOV     A,R2
   \   000028   FC           MOV     R4,A
   \   000029   EB           MOV     A,R3
   \   00002A   FD           MOV     R5,A
   \   00002B   7403         MOV     A,#0x3
   \   00002D   12....       LCALL   ?XSTACK_DISP0_8
   \   000030   AA82         MOV     R2,DPL
   \   000032   AB83         MOV     R3,DPH
   \   000034   12....       LCALL   ??sAddrExtCmp?relay
   \   000037   E9           MOV     A,R1
   \   000038   6016         JZ      ??ZDO_ProcessBindUnbindReq_0
   \   00003A   E5..         MOV     A,?V0 + 0
   \   00003C   2413         ADD     A,#0x13
   \   00003E   F5..         MOV     ?V0 + 2,A
   \   000040   E5..         MOV     A,?V0 + 1
   \   000042   12....       LCALL   ?Subroutine131 & 0xFFFF
   \                     ??CrossCallReturnLabel_243:
   \   000045   FA           MOV     R2,A
   \   000046   7403         MOV     A,#0x3
   \   000048   6A           XRL     A,R2
   \   000049   6010         JZ      ??ZDO_ProcessBindUnbindReq_1
   \   00004B   7401         MOV     A,#0x1
   \   00004D   6A           XRL     A,R2
   \   00004E   600B         JZ      ??ZDO_ProcessBindUnbindReq_1
   1000            {
   1001              bindStat = ZDP_NOT_SUPPORTED;
   \                     ??ZDO_ProcessBindUnbindReq_0:
   \   000050   85..82       MOV     DPL,?XSP + 0
   \   000053   85..83       MOV     DPH,?XSP + 1
   \   000056   7484         MOV     A,#-0x7c
   \   000058   02....       LJMP    ??ZDO_ProcessBindUnbindReq_2 & 0xFFFF
   1002            }
   1003            else
   1004            {
   1005              // Check source & destination endpoints
   1006              if ( (pReq->srcEndpoint == 0 || pReq->srcEndpoint > MAX_ENDPOINTS)
   1007                  || (( pReq->dstAddress.addrMode == Addr64Bit ) &&
   1008                      (pReq->dstEndpoint == 0 || pReq->dstEndpoint > MAX_ENDPOINTS)) )
   \                     ??ZDO_ProcessBindUnbindReq_1:
   \   00005B   E5..         MOV     A,?V0 + 0
   \   00005D   2408         ADD     A,#0x8
   \   00005F   F8           MOV     R0,A
   \   000060   E5..         MOV     A,?V0 + 1
   \   000062   3400         ADDC    A,#0x0
   \   000064   F9           MOV     R1,A
   \   000065   88..         MOV     ?V0 + 4,R0
   \   000067   89..         MOV     ?V0 + 5,R1
   \   000069   8882         MOV     DPL,R0
   \   00006B   F583         MOV     DPH,A
   \   00006D   E0           MOVX    A,@DPTR
   \   00006E   F5..         MOV     ?V0 + 6,A
   \   000070   6024         JZ      ??ZDO_ProcessBindUnbindReq_3
   \   000072   C3           CLR     C
   \   000073   94F1         SUBB    A,#-0xf
   \   000075   501F         JNC     ??ZDO_ProcessBindUnbindReq_3
   \   000077   E5..         MOV     A,?V0 + 0
   \   000079   2414         ADD     A,#0x14
   \   00007B   F8           MOV     R0,A
   \   00007C   E5..         MOV     A,?V0 + 1
   \   00007E   3400         ADDC    A,#0x0
   \   000080   F9           MOV     R1,A
   \   000081   E8           MOV     A,R0
   \   000082   FC           MOV     R4,A
   \   000083   E9           MOV     A,R1
   \   000084   FD           MOV     R5,A
   \   000085   7403         MOV     A,#0x3
   \   000087   6A           XRL     A,R2
   \   000088   7017         JNZ     ??ZDO_ProcessBindUnbindReq_4
   \   00008A   8C82         MOV     DPL,R4
   \   00008C   8D83         MOV     DPH,R5
   \   00008E   E0           MOVX    A,@DPTR
   \   00008F   6005         JZ      ??ZDO_ProcessBindUnbindReq_3
   \   000091   C3           CLR     C
   \   000092   94F1         SUBB    A,#-0xf
   \   000094   400B         JC      ??ZDO_ProcessBindUnbindReq_4
   1009              {
   1010                bindStat = ZDP_INVALID_EP;
   \                     ??ZDO_ProcessBindUnbindReq_3:
   \   000096   85..82       MOV     DPL,?XSP + 0
   \   000099   85..83       MOV     DPH,?XSP + 1
   \   00009C   7482         MOV     A,#-0x7e
   \   00009E   02....       LJMP    ??ZDO_ProcessBindUnbindReq_2 & 0xFFFF
   1011              }
   1012              else
   1013              {
   1014                if ( inMsg->clusterID == Bind_req )
   \                     ??ZDO_ProcessBindUnbindReq_4:
   \   0000A1   E5..         MOV     A,?V0 + 0
   \   0000A3   2409         ADD     A,#0x9
   \   0000A5   F8           MOV     R0,A
   \   0000A6   E5..         MOV     A,?V0 + 1
   \   0000A8   3400         ADDC    A,#0x0
   \   0000AA   F9           MOV     R1,A
   \   0000AB   E8           MOV     A,R0
   \   0000AC   FA           MOV     R2,A
   \   0000AD   E9           MOV     A,R1
   \   0000AE   FB           MOV     R3,A
   \   0000AF   E5..         MOV     A,?V0 + 0
   \   0000B1   240B         ADD     A,#0xb
   \   0000B3   12....       LCALL   ?Subroutine144 & 0xFFFF
   \                     ??CrossCallReturnLabel_566:
   \   0000B6   EE           MOV     A,R6
   \   0000B7   240C         ADD     A,#0xc
   \   0000B9   12....       LCALL   ??Subroutine217_0 & 0xFFFF
   \                     ??CrossCallReturnLabel_414:
   \   0000BC   6421         XRL     A,#0x21
   \   0000BE   7002         JNZ     ??ZDO_ProcessBindUnbindReq_5
   \   0000C0   A3           INC     DPTR
   \   0000C1   E0           MOVX    A,@DPTR
   \                     ??ZDO_ProcessBindUnbindReq_5:
   \   0000C2   706B         JNZ     ??ZDO_ProcessBindUnbindReq_6
   1015                {
   1016                  // Assume the table is full
   1017                  bindStat = ZDP_TABLE_FULL;
   \   0000C4   85..82       MOV     DPL,?XSP + 0
   \   0000C7   85..83       MOV     DPH,?XSP + 1
   \   0000CA   748C         MOV     A,#-0x74
   \   0000CC   F0           MOVX    @DPTR,A
   1018          
   1019          #if defined( APP_TP ) || defined( APP_TP2 )
   1020                  // For ZigBee Conformance Testing
   1021                  if ( bindNumOfEntries() < gNWK_MAX_BINDING_ENTRIES )
   1022          #endif
   1023                  {
   1024                    if ( APSME_BindRequest( pReq->srcEndpoint, pReq->clusterID,
   1025                                   &(pReq->dstAddress), pReq->dstEndpoint ) == ZSuccess )
   \   0000CD                ; Setup parameters for call to function APSME_BindRequest
   \   0000CD   8C82         MOV     DPL,R4
   \   0000CF   8D83         MOV     DPH,R5
   \   0000D1   E0           MOVX    A,@DPTR
   \   0000D2   F5..         MOV     ?V0 + 6,A
   \   0000D4   78..         MOV     R0,#?V0 + 6
   \   0000D6   12....       LCALL   ?PUSH_XSTACK_I_ONE
   \   0000D9   AC..         MOV     R4,?V0 + 0
   \   0000DB   AD..         MOV     R5,?V0 + 1
   \   0000DD   8A82         MOV     DPL,R2
   \   0000DF   8B83         MOV     DPH,R3
   \   0000E1   12....       LCALL   ??Subroutine212_0 & 0xFFFF
   \                     ??CrossCallReturnLabel_379:
   \   0000E4   85..82       MOV     DPL,?V0 + 4
   \   0000E7   85..83       MOV     DPH,?V0 + 5
   \   0000EA   E0           MOVX    A,@DPTR
   \   0000EB   F9           MOV     R1,A
   \   0000EC   12....       LCALL   ??APSME_BindRequest?relay
   \   0000EF   7401         MOV     A,#0x1
   \   0000F1   12....       LCALL   ?DEALLOC_XSTACK8
   \   0000F4   E9           MOV     A,R1
   \   0000F5   706C         JNZ     ??ZDO_ProcessBindUnbindReq_7
   1026                    {
   1027                      uint16 nwkAddr;
   1028          
   1029                      // valid entry
   1030                      bindStat = ZDP_SUCCESS;
   \   0000F7   85..82       MOV     DPL,?XSP + 0
   \   0000FA   85..83       MOV     DPH,?XSP + 1
   \   0000FD   E4           CLR     A
   \   0000FE   F0           MOVX    @DPTR,A
   1031          
   1032                      // Notify to save info into NV
   1033                      ZDApp_NVUpdate();
   \   0000FF                ; Setup parameters for call to function ZDApp_NVUpdate
   \   0000FF   12....       LCALL   ??ZDApp_NVUpdate?relay
   1034          
   1035                      // Check for the destination address
   1036                      if ( pReq->dstAddress.addrMode == Addr64Bit )
   \   000102   85..82       MOV     DPL,?V0 + 2
   \   000105   85..83       MOV     DPH,?V0 + 3
   \   000108   E0           MOVX    A,@DPTR
   \   000109   6403         XRL     A,#0x3
   \   00010B   7056         JNZ     ??ZDO_ProcessBindUnbindReq_7
   1037                      {
   1038                        if ( APSME_LookupNwkAddr( pReq->dstAddress.addr.extAddr, &nwkAddr ) == FALSE )
   \   00010D                ; Setup parameters for call to function APSME_LookupNwkAddr
   \   00010D   7401         MOV     A,#0x1
   \   00010F   12....       LCALL   ?XSTACK_DISP0_8
   \   000112   AC82         MOV     R4,DPL
   \   000114   AD83         MOV     R5,DPH
   \   000116   AA..         MOV     R2,?V0 + 0
   \   000118   AB..         MOV     R3,?V0 + 1
   \   00011A   12....       LCALL   ??APSME_LookupNwkAddr?relay
   \   00011D   E9           MOV     A,R1
   \   00011E   7043         JNZ     ??ZDO_ProcessBindUnbindReq_7
   1039                        {
   1040                          ZDP_NwkAddrReq( pReq->dstAddress.addr.extAddr, ZDP_ADDR_REQTYPE_SINGLE, 0, 0 );
   \   000120                ; Setup parameters for call to function ZDP_NwkAddrReq
   \   000120   7D00         MOV     R5,#0x0
   \   000122   7C00         MOV     R4,#0x0
   \   000124   7900         MOV     R1,#0x0
   \   000126   AA..         MOV     R2,?V0 + 0
   \   000128   AB..         MOV     R3,?V0 + 1
   \   00012A   12....       LCALL   ??ZDP_NwkAddrReq?relay
   \   00012D   8034         SJMP    ??ZDO_ProcessBindUnbindReq_7
   1041                        }
   1042                      }
   1043                    }
   1044                  }
   1045                }
   1046                else // Unbind_req
   1047                {
   1048                  if ( APSME_UnBindRequest( pReq->srcEndpoint, pReq->clusterID,
   1049                                 &(pReq->dstAddress), pReq->dstEndpoint ) == ZSuccess )
   \                     ??ZDO_ProcessBindUnbindReq_6:
   \   00012F                ; Setup parameters for call to function APSME_UnBindRequest
   \   00012F   8C82         MOV     DPL,R4
   \   000131   8D83         MOV     DPH,R5
   \   000133   E0           MOVX    A,@DPTR
   \   000134   F5..         MOV     ?V0 + 2,A
   \   000136   78..         MOV     R0,#?V0 + 2
   \   000138   12....       LCALL   ?PUSH_XSTACK_I_ONE
   \   00013B   AC..         MOV     R4,?V0 + 0
   \   00013D   AD..         MOV     R5,?V0 + 1
   \   00013F   8A82         MOV     DPL,R2
   \   000141   8B83         MOV     DPH,R3
   \   000143   12....       LCALL   ??Subroutine212_0 & 0xFFFF
   \                     ??CrossCallReturnLabel_380:
   \   000146   A9..         MOV     R1,?V0 + 6
   \   000148   12....       LCALL   ??APSME_UnBindRequest?relay
   \   00014B   7401         MOV     A,#0x1
   \   00014D   12....       LCALL   ?DEALLOC_XSTACK8
   \   000150   E9           MOV     A,R1
   \   000151   85..82       MOV     DPL,?XSP + 0
   \   000154   85..83       MOV     DPH,?XSP + 1
   \   000157   7007         JNZ     ??ZDO_ProcessBindUnbindReq_8
   1050                  {
   1051                    bindStat = ZDP_SUCCESS;
   \   000159   E4           CLR     A
   \   00015A   F0           MOVX    @DPTR,A
   1052          
   1053                    // Notify to save info into NV
   1054                    ZDApp_NVUpdate();
   \   00015B                ; Setup parameters for call to function ZDApp_NVUpdate
   \   00015B   12....       LCALL   ??ZDApp_NVUpdate?relay
   \   00015E   8003         SJMP    ??ZDO_ProcessBindUnbindReq_7
   1055                  }
   1056                  else
   1057                    bindStat = ZDP_NO_ENTRY;
   \                     ??ZDO_ProcessBindUnbindReq_8:
   \   000160   7488         MOV     A,#-0x78
   \                     ??ZDO_ProcessBindUnbindReq_2:
   \   000162   F0           MOVX    @DPTR,A
   1058                }
   1059              }
   1060            }
   1061          
   1062            // Send back a response message
   1063            ZDP_SendData( &(inMsg->TransSeq), &(inMsg->srcAddr),
   1064                         (inMsg->clusterID | ZDO_RESPONSE_BIT), 1, &bindStat,
   1065                         inMsg->SecurityUse );
   \                     ??ZDO_ProcessBindUnbindReq_7:
   \   000163                ; Setup parameters for call to function ZDP_SendData
   \   000163   12....       LCALL   ?Subroutine135 & 0xFFFF
   \                     ??CrossCallReturnLabel_419:
   \   000166   F5..         MOV     ?V0 + 0,A
   \   000168   78..         MOV     R0,#?V0 + 0
   \   00016A   12....       LCALL   ?PUSH_XSTACK_I_ONE
   \   00016D   7401         MOV     A,#0x1
   \   00016F   12....       LCALL   ?XSTACK_DISP0_8
   \   000172   8582..       MOV     ?V0 + 0,DPL
   \   000175   8583..       MOV     ?V0 + 1,DPH
   \   000178   78..         MOV     R0,#?V0 + 0
   \   00017A   12....       LCALL   ?PUSH_XSTACK_I_TWO
   \   00017D   EE           MOV     A,R6
   \   00017E   240C         ADD     A,#0xc
   \   000180   F582         MOV     DPL,A
   \   000182   EF           MOV     A,R7
   \   000183   12....       LCALL   ??Subroutine248_0 & 0xFFFF
   \                     ??CrossCallReturnLabel_574:
   \   000186   12....       LCALL   ?Subroutine100 & 0xFFFF
   \                     ??CrossCallReturnLabel_180:
   \   000189   4480         ORL     A,#0x80
   \   00018B   F5..         MOV     ?V0 + 1,A
   \   00018D   78..         MOV     R0,#?V0 + 0
   \   00018F   12....       LCALL   ?PUSH_XSTACK_I_TWO
   \   000192   12....       LCALL   ?Subroutine119 & 0xFFFF
   \                     ??CrossCallReturnLabel_217:
   \   000195   12....       LCALL   ?DEALLOC_XSTACK8
   1066          }
   \   000198   740C         MOV     A,#0xc
   \   00019A                REQUIRE ?Subroutine5
   \   00019A                ; // Fall through to label ?Subroutine5

   \                                 In  segment BANKED_CODE, align 1, keep-with-next
   \                     ?Subroutine5:
   \   000000   12....       LCALL   ?DEALLOC_XSTACK8
   \   000003   7F07         MOV     R7,#0x7
   \   000005   02....       LJMP    ?BANKED_LEAVE_XDATA

   \                                 In  segment BANKED_CODE, align 1, keep-with-next
   \                     ?Subroutine119:
   \   000000   7901         MOV     R1,#0x1
   \   000002   12....       LCALL   ?Subroutine178 & 0xFFFF
   \                     ??CrossCallReturnLabel_322:
   \   000005   240F         ADD     A,#0xf
   \   000007   FA           MOV     R2,A
   \   000008   EF           MOV     A,R7
   \   000009   12....       LCALL   ?Subroutine187 & 0xFFFF
   \                     ??CrossCallReturnLabel_331:
   \   00000C   22           RET

   \                                 In  segment BANKED_CODE, align 1, keep-with-next
   \                     ?Subroutine187:
   \   000000   3400         ADDC    A,#0x0
   \   000002   FB           MOV     R3,A
   \   000003   12....       LCALL   ??ZDP_SendData?relay
   \   000006   7405         MOV     A,#0x5
   \   000008   22           RET

   \                                 In  segment BANKED_CODE, align 1, keep-with-next
   \                     ?Subroutine131:
   \   000000   12....       LCALL   ?Subroutine181 & 0xFFFF
   \                     ??CrossCallReturnLabel_526:
   \   000003   22           RET

   \                                 In  segment BANKED_CODE, align 1, keep-with-next
   \                     ?Subroutine181:
   \   000000   3400         ADDC    A,#0x0
   \   000002   F5..         MOV     ?V0 + 3,A
   \   000004   85..82       MOV     DPL,?V0 + 2
   \   000007   F583         MOV     DPH,A
   \   000009   E0           MOVX    A,@DPTR
   \   00000A   22           RET

   \                                 In  segment BANKED_CODE, align 1, keep-with-next
   \                     ?Subroutine144:
   \   000000   F5..         MOV     ?V0 + 0,A
   \   000002   E5..         MOV     A,?V0 + 1
   \   000004                REQUIRE ??Subroutine244_0
   \   000004                ; // Fall through to label ??Subroutine244_0

   \                                 In  segment BANKED_CODE, align 1, keep-with-next
   \                     ??Subroutine244_0:
   \   000000   3400         ADDC    A,#0x0
   \   000002   F5..         MOV     ?V0 + 1,A
   \   000004   22           RET
   1067          
   1068          /*********************************************************************
   1069           * @fn      ZDO_UpdateAddrManager
   1070           *
   1071           * @brief   Update the Address Manager.
   1072           *
   1073           * @param   nwkAddr - network address
   1074           * @param   extAddr - extended address
   1075           *
   1076           * @return  none
   1077           */

   \                                 In  segment BANKED_CODE, align 1, keep-with-next
   1078          void ZDO_UpdateAddrManager( uint16 nwkAddr, uint8 *extAddr )
   \                     ZDO_UpdateAddrManager:
   1079          {
   \   000000   C082         PUSH    DPL
   \   000002   C083         PUSH    DPH
   \   000004                ; Saved register size: 2
   \   000004                ; Auto size: 13
   \   000004   74F3         MOV     A,#-0xd
   \   000006   12....       LCALL   ?ALLOC_XSTACK8
   1080            AddrMgrEntry_t addrEntry;
   1081          
   1082            // Update the address manager
   1083            addrEntry.user = ADDRMGR_USER_DEFAULT;
   \   000009   85..82       MOV     DPL,?XSP + 0
   \   00000C   85..83       MOV     DPH,?XSP + 1
   \   00000F   E4           CLR     A
   \   000010   F0           MOVX    @DPTR,A
   1084            addrEntry.nwkAddr = nwkAddr;
   \   000011   04           INC     A
   \   000012   12....       LCALL   ?XSTACK_DISP0_8
   \   000015   12....       LCALL   ?Subroutine39 & 0xFFFF
   1085            AddrMgrExtAddrSet( addrEntry.extAddr, extAddr );
   \                     ??CrossCallReturnLabel_54:
   \   000018                ; Setup parameters for call to function AddrMgrExtAddrSet
   \   000018   7403         MOV     A,#0x3
   \   00001A   12....       LCALL   ?XSTACK_DISP0_8
   \   00001D   AA82         MOV     R2,DPL
   \   00001F   AB83         MOV     R3,DPH
   \   000021   12....       LCALL   ??AddrMgrExtAddrSet?relay
   1086            AddrMgrEntryUpdate( &addrEntry );
   \   000024                ; Setup parameters for call to function AddrMgrEntryUpdate
   \   000024   85..82       MOV     DPL,?XSP + 0
   \   000027   85..83       MOV     DPH,?XSP + 1
   \   00002A   AA82         MOV     R2,DPL
   \   00002C   AB83         MOV     R3,DPH
   \   00002E   12....       LCALL   ??AddrMgrEntryUpdate?relay
   1087          }
   \   000031   740D         MOV     A,#0xd
   \   000033   12....       LCALL   ?DEALLOC_XSTACK8
   \   000036   02....       LJMP    ?Subroutine0 & 0xFFFF
   1088          
   1089          /*********************************************************************
   1090           * @fn      ZDO_ProcessServerDiscReq
   1091           *
   1092           * @brief   Process the Server_Discovery_req message.
   1093           *
   1094           * @param   inMsg  - incoming message (request)
   1095           *
   1096           * @return  none
   1097           */

   \                                 In  segment BANKED_CODE, align 1, keep-with-next
   1098          void ZDO_ProcessServerDiscReq( zdoIncomingMsg_t *inMsg )
   \                     ZDO_ProcessServerDiscReq:
   1099          {
   \   000000   74F6         MOV     A,#-0xa
   \   000002   12....       LCALL   ?BANKED_ENTER_XDATA
   \   000005                ; Saved register size: 10
   \   000005                ; Auto size: 0
   \   000005   12....       LCALL   ?Subroutine145 & 0xFFFF
   1100            uint16 serverMask = BUILD_UINT16( inMsg->asdu[0], inMsg->asdu[1] );
   1101            uint16 matchMask = serverMask & ZDO_Config_Node_Descriptor.ServerMask;
   \                     ??CrossCallReturnLabel_359:
   \   000008   12....       LCALL   ??Subroutine248_0 & 0xFFFF
   \                     ??CrossCallReturnLabel_575:
   \   00000B   12....       LCALL   ?Subroutine107 & 0xFFFF
   \                     ??CrossCallReturnLabel_197:
   \   00000E   12....       LCALL   ??Subroutine254_0 & 0xFFFF
   \                     ??CrossCallReturnLabel_637:
   \   000011   F8           MOV     R0,A
   \   000012   90....       MOV     DPTR,#ZDO_Config_Node_Descriptor + 8
   \   000015   E0           MOVX    A,@DPTR
   \   000016   58           ANL     A,R0
   \   000017   F5..         MOV     ?V0 + 0,A
   \   000019   A3           INC     DPTR
   \   00001A   E0           MOVX    A,@DPTR
   \   00001B   59           ANL     A,R1
   \   00001C   F5..         MOV     ?V0 + 1,A
   1102          
   1103            if ( matchMask )
   \   00001E   E5..         MOV     A,?V0 + 0
   \   000020   45..         ORL     A,?V0 + 1
   \   000022   601C         JZ      ??ZDO_ProcessServerDiscReq_0
   1104            {
   1105              ZDP_ServerDiscRsp( inMsg->TransSeq, &(inMsg->srcAddr), ZSUCCESS,
   1106                          ZDAppNwkAddr.addr.shortAddr, matchMask, inMsg->SecurityUse );
   \   000024                ; Setup parameters for call to function ZDP_ServerDiscRsp
   \   000024   78..         MOV     R0,#?V0 + 0
   \   000026   12....       LCALL   ?PUSH_XSTACK_I_TWO
   \   000029   90....       MOV     DPTR,#ZDAppNwkAddr
   \   00002C   12....       LCALL   ?PUSH_XSTACK8_X_TWO
   \   00002F   12....       LCALL   ?Subroutine135 & 0xFFFF
   1107            }
   \                     ??CrossCallReturnLabel_420:
   \   000032   FD           MOV     R5,A
   \   000033   7C00         MOV     R4,#0x0
   \   000035   12....       LCALL   ?Subroutine120 & 0xFFFF
   \                     ??CrossCallReturnLabel_220:
   \   000038   12....       LCALL   ??ZDP_ServerDiscRsp?relay
   \   00003B   7404         MOV     A,#0x4
   \   00003D   12....       LCALL   ?DEALLOC_XSTACK8
   1108          }
   \                     ??ZDO_ProcessServerDiscReq_0:
   \   000040   02....       LJMP    ??Subroutine205_0 & 0xFFFF

   \                                 In  segment BANKED_CODE, align 1, keep-with-next
   \                     ?Subroutine145:
   \   000000   EA           MOV     A,R2
   \   000001   FE           MOV     R6,A
   \   000002   EB           MOV     A,R3
   \   000003   FF           MOV     R7,A
   \   000004                ; Setup parameters for call to function NLME_PermitJoiningRequest
   \   000004                REQUIRE ??Subroutine209_0
   \   000004                ; // Fall through to label ??Subroutine209_0

   \                                 In  segment BANKED_CODE, align 1, keep-with-next
   \                     ?Subroutine120:
   \   000000   12....       LCALL   ?Subroutine177 & 0xFFFF
   \                     ??CrossCallReturnLabel_320:
   \   000003   22           RET

   \                                 In  segment BANKED_CODE, align 1, keep-with-next
   \                     ??Subroutine254_0:
   \   000000   12....       LCALL   ?Subroutine168 & 0xFFFF
   \                     ??CrossCallReturnLabel_643:
   \   000003   22           RET
   1109          
   1110          /*********************************************************************
   1111           * Call Back Functions from APS  - API
   1112           */
   1113          
   1114          /*********************************************************************
   1115           * @fn          ZDO_EndDeviceTimeoutCB
   1116           *
   1117           * @brief       This function handles the binding timer for the End
   1118           *              Device Bind command.
   1119           *
   1120           * @param       none
   1121           *
   1122           * @return      none
   1123           */

   \                                 In  segment BANKED_CODE, align 1, keep-with-next
   1124          void ZDO_EndDeviceTimeoutCB( void )
   \                     ZDO_EndDeviceTimeoutCB:
   1125          {
   \   000000   74F6         MOV     A,#-0xa
   \   000002   12....       LCALL   ?BANKED_ENTER_XDATA
   \   000005                ; Saved register size: 10
   \   000005                ; Auto size: 2
   \   000005   74FE         MOV     A,#-0x2
   \   000007   12....       LCALL   ?ALLOC_XSTACK8
   1126          #if defined ( REFLECTOR )
   1127            byte stat;
   1128            if ( ZDO_EDBind )
   \   00000A   90....       MOV     DPTR,#ZDO_EDBind
   \   00000D   12....       LCALL   ??Subroutine224_0 & 0xFFFF
   \                     ??CrossCallReturnLabel_441:
   \   000010   7003         JNZ     $+5
   \   000012   02....       LJMP    ??ZDO_EndDeviceTimeoutCB_0 & 0xFFFF
   1129            {
   1130              stat = ZDO_EDBind->status;
   1131          
   1132              // Send the response message to the first sent
   1133              ZDO_SendEDBindRsp( ZDO_EDBind->SrcTransSeq, &(ZDO_EDBind->SrcAddr),
   1134                                  stat, ZDO_EDBind->SecurityUse );
   \   000015   90....       MOV     DPTR,#ZDO_EDBind
   \   000018   E0           MOVX    A,@DPTR
   \   000019   2415         ADD     A,#0x15
   \   00001B   12....       LCALL   ?Subroutine91 & 0xFFFF
   \                     ??CrossCallReturnLabel_453:
   \   00001E   FA           MOV     R2,A
   \   00001F   90....       MOV     DPTR,#ZDO_EDBind
   \   000022   E0           MOVX    A,@DPTR
   \   000023   2416         ADD     A,#0x16
   \   000025   08           INC     R0
   \   000026   12....       LCALL   ??Subroutine225_0 & 0xFFFF
   \                     ??CrossCallReturnLabel_451:
   \   000029   C0E0         PUSH    A
   \   00002B   7401         MOV     A,#0x1
   \   00002D   12....       LCALL   ?XSTACK_DISP0_8
   \   000030   D0E0         POP     A
   \   000032   F0           MOVX    @DPTR,A
   \   000033   90....       MOV     DPTR,#ZDO_EDBind
   \   000036   E0           MOVX    A,@DPTR
   \   000037   2401         ADD     A,#0x1
   \   000039   FC           MOV     R4,A
   \   00003A   A3           INC     DPTR
   \   00003B   E0           MOVX    A,@DPTR
   \   00003C   3400         ADDC    A,#0x0
   \   00003E   FD           MOV     R5,A
   \   00003F   90....       MOV     DPTR,#ZDO_EDBind
   \   000042   12....       LCALL   ??Subroutine210_0 & 0xFFFF
   \                     ??CrossCallReturnLabel_368:
   \   000045   85..82       MOV     DPL,?XSP + 0
   \   000048   85..83       MOV     DPH,?XSP + 1
   \   00004B   F0           MOVX    @DPTR,A
   \   00004C                ; Setup parameters for call to function ZDP_SendData
   \   00004C   EA           MOV     A,R2
   \   00004D   F5..         MOV     ?V0 + 0,A
   \   00004F   78..         MOV     R0,#?V0 + 0
   \   000051   12....       LCALL   ?PUSH_XSTACK_I_ONE
   \   000054   7402         MOV     A,#0x2
   \   000056   12....       LCALL   ?XSTACK_DISP0_8
   \   000059   8582..       MOV     ?V0 + 0,DPL
   \   00005C   8583..       MOV     ?V0 + 1,DPH
   \   00005F   78..         MOV     R0,#?V0 + 0
   \   000061   12....       LCALL   ?PUSH_XSTACK_I_TWO
   \   000064   75..20       MOV     ?V0 + 0,#0x20
   \   000067   75..80       MOV     ?V0 + 1,#-0x80
   \   00006A   78..         MOV     R0,#?V0 + 0
   \   00006C   12....       LCALL   ?PUSH_XSTACK_I_TWO
   \   00006F   7901         MOV     R1,#0x1
   \   000071   7405         MOV     A,#0x5
   \   000073   12....       LCALL   ?XSTACK_DISP0_8
   \   000076   AA82         MOV     R2,DPL
   \   000078   AB83         MOV     R3,DPH
   \   00007A   12....       LCALL   ?Subroutine193 & 0xFFFF
   \                     ??CrossCallReturnLabel_339:
   \   00007D   12....       LCALL   ?DEALLOC_XSTACK8
   1135          
   1136              ZDO_RemoveEndDeviceBind();
   \   000080   90....       MOV     DPTR,#ZDO_EDBind
   \   000083   12....       LCALL   ??Subroutine224_0 & 0xFFFF
   1137            }
   \                     ??CrossCallReturnLabel_442:
   \   000086   6029         JZ      ??ZDO_EndDeviceTimeoutCB_0
   \   000088   90....       MOV     DPTR,#ZDO_EDBind
   \   00008B   E0           MOVX    A,@DPTR
   \   00008C   2410         ADD     A,#0x10
   \   00008E   12....       LCALL   ?Subroutine59 & 0xFFFF
   \                     ??CrossCallReturnLabel_101:
   \   000091   6003         JZ      ??ZDO_EndDeviceTimeoutCB_1
   \   000093                ; Setup parameters for call to function osal_mem_free
   \   000093   12....       LCALL   ??osal_mem_free?relay
   \                     ??ZDO_EndDeviceTimeoutCB_1:
   \   000096   90....       MOV     DPTR,#ZDO_EDBind
   \   000099   E0           MOVX    A,@DPTR
   \   00009A   2413         ADD     A,#0x13
   \   00009C   12....       LCALL   ?Subroutine59 & 0xFFFF
   \                     ??CrossCallReturnLabel_102:
   \   00009F   6003         JZ      ??ZDO_EndDeviceTimeoutCB_2
   \   0000A1                ; Setup parameters for call to function osal_mem_free
   \   0000A1   12....       LCALL   ??osal_mem_free?relay
   \                     ??ZDO_EndDeviceTimeoutCB_2:
   \   0000A4                ; Setup parameters for call to function osal_mem_free
   \   0000A4   90....       MOV     DPTR,#ZDO_EDBind
   \   0000A7   12....       LCALL   ?Subroutine64 & 0xFFFF
   \                     ??CrossCallReturnLabel_120:
   \   0000AA   90....       MOV     DPTR,#ZDO_EDBind
   \   0000AD   E4           CLR     A
   \   0000AE   F0           MOVX    @DPTR,A
   \   0000AF   A3           INC     DPTR
   \   0000B0   F0           MOVX    @DPTR,A
   1138          #endif  // REFLECTOR
   1139          }
   \                     ??ZDO_EndDeviceTimeoutCB_0:
   \   0000B1   02....       LJMP    ?Subroutine2 & 0xFFFF

   \                                 In  segment BANKED_CODE, align 1, keep-with-next
   \                     ?Subroutine91:
   \   000000   F8           MOV     R0,A
   \   000001                REQUIRE ??Subroutine225_0
   \   000001                ; // Fall through to label ??Subroutine225_0

   \                                 In  segment BANKED_CODE, align 1, keep-with-next
   \                     ??Subroutine225_0:
   \   000000   12....       LCALL   ??Subroutine232_0 & 0xFFFF
   \                     ??CrossCallReturnLabel_481:
   \   000003   22           RET

   \                                 In  segment BANKED_CODE, align 1, keep-with-next
   \                     ?Subroutine163:
   \   000000   12....       LCALL   ?Subroutine197 & 0xFFFF
   \                     ??CrossCallReturnLabel_489:
   \   000003                REQUIRE ??Subroutine226_0
   \   000003                ; // Fall through to label ??Subroutine226_0

   \                                 In  segment BANKED_CODE, align 1, keep-with-next
   \                     ?Subroutine59:
   \   000000   F8           MOV     R0,A
   \   000001   12....       LCALL   ?Subroutine163 & 0xFFFF
   \                     ??CrossCallReturnLabel_464:
   \   000004   EA           MOV     A,R2
   \   000005   4B           ORL     A,R3
   \   000006   22           RET
   1140          
   1141          /*********************************************************************
   1142           * Optional Management Messages
   1143           */
   1144          
   1145          /*********************************************************************
   1146           * @fn          ZDO_ProcessMgmtLqiReq
   1147           *
   1148           * @brief       This function handles parsing the incoming Management
   1149           *              LQI request and generate the response.
   1150           *
   1151           *   Note:      This function will limit the number of items returned
   1152           *              to ZDO_MAX_LQI_ITEMS items.
   1153           *
   1154           * @param       inMsg - incoming message (request)
   1155           *
   1156           * @return      none
   1157           */

   \                                 In  segment BANKED_CODE, align 1, keep-with-next
   1158          void ZDO_ProcessMgmtLqiReq( zdoIncomingMsg_t *inMsg )
   \                     ZDO_ProcessMgmtLqiReq:
   1159          {
   \   000000   74E8         MOV     A,#-0x18
   \   000002   12....       LCALL   ?BANKED_ENTER_XDATA
   \   000005                ; Saved register size: 24
   \   000005                ; Auto size: 37
   \   000005   74DB         MOV     A,#-0x25
   \   000007   12....       LCALL   ?ALLOC_XSTACK8
   \   00000A   8A..         MOV     ?V0 + 14,R2
   \   00000C   8B..         MOV     ?V0 + 15,R3
   1160            byte x;
   1161            byte index;
   1162            byte numItems;
   1163            byte maxItems;
   1164            ZDP_MgmtLqiItem_t* table = NULL;
   \   00000E   75..00       MOV     ?V0 + 10,#0x0
   \   000011   75..00       MOV     ?V0 + 11,#0x0
   1165            ZDP_MgmtLqiItem_t* item;
   1166            neighborEntry_t    entry;
   1167            byte aItems;
   1168            associated_devices_t *aDevice;
   1169            AddrMgrEntry_t  nwkEntry;
   1170            uint8 StartIndex = inMsg->asdu[0];
   \   000014   12....       LCALL   ?Subroutine67 & 0xFFFF
   1171          
   1172            // Get the number of neighbor items
   1173            NLME_GetRequest( nwkNumNeighborTableEntries, 0, &maxItems );
   \                     ??CrossCallReturnLabel_125:
   \   000017   799C         MOV     R1,#-0x64
   \   000019   12....       LCALL   ??NLME_GetRequest?relay
   1174          
   1175            // Get the number of associated items
   1176            aItems = (uint8)AssocCount( PARENT, CHILD_FFD_RX_IDLE );
   \   00001C                ; Setup parameters for call to function AssocCount
   \   00001C   7A04         MOV     R2,#0x4
   \   00001E   7900         MOV     R1,#0x0
   \   000020   12....       LCALL   ??AssocCount?relay
   \   000023   EA           MOV     A,R2
   \   000024   F5..         MOV     ?V0 + 2,A
   1177          
   1178            // Total number of items
   1179            maxItems += aItems;
   \   000026   85..82       MOV     DPL,?XSP + 0
   \   000029   85..83       MOV     DPH,?XSP + 1
   \   00002C   E0           MOVX    A,@DPTR
   \   00002D   25..         ADD     A,?V0 + 2
   \   00002F   F0           MOVX    @DPTR,A
   1180          
   1181            // Start with the supplied index
   1182            if ( maxItems > StartIndex )
   \   000030   F8           MOV     R0,A
   \   000031   E5..         MOV     A,?V0 + 4
   \   000033   C3           CLR     C
   \   000034   98           SUBB    A,R0
   \   000035   4003         JC      $+5
   \   000037   02....       LJMP    ??ZDO_ProcessMgmtLqiReq_0 & 0xFFFF
   1183            {
   1184              numItems = maxItems - StartIndex;
   \   00003A   E0           MOVX    A,@DPTR
   \   00003B   C3           CLR     C
   \   00003C   95..         SUBB    A,?V0 + 4
   \   00003E   F5..         MOV     ?V0 + 1,A
   1185          
   1186              // limit the size of the list
   1187              if ( numItems > ZDO_MAX_LQI_ITEMS )
   \   000040   C3           CLR     C
   \   000041   9404         SUBB    A,#0x4
   \   000043   4003         JC      ??ZDO_ProcessMgmtLqiReq_1
   1188                numItems = ZDO_MAX_LQI_ITEMS;
   \   000045   75..03       MOV     ?V0 + 1,#0x3
   1189          
   1190              // Allocate the memory to build the table
   1191              table = (ZDP_MgmtLqiItem_t*)osal_mem_alloc( (short)
   1192                        ( numItems * sizeof( ZDP_MgmtLqiItem_t ) ) );
   \                     ??ZDO_ProcessMgmtLqiReq_1:
   \   000048                ; Setup parameters for call to function osal_mem_alloc
   \   000048   E5..         MOV     A,?V0 + 1
   \   00004A   75F01A       MOV     B,#0x1a
   \   00004D   A4           MUL     AB
   \   00004E   FA           MOV     R2,A
   \   00004F   ABF0         MOV     R3,B
   \   000051   12....       LCALL   ??osal_mem_alloc?relay
   \   000054   8A..         MOV     ?V0 + 10,R2
   \   000056   8B..         MOV     ?V0 + 11,R3
   1193          
   1194              if ( table != NULL )
   \   000058   EA           MOV     A,R2
   \   000059   45..         ORL     A,?V0 + 11
   \   00005B   7003         JNZ     $+5
   \   00005D   02....       LJMP    ??ZDO_ProcessMgmtLqiReq_2 & 0xFFFF
   1195              {
   1196                x = 0;
   \   000060   75..00       MOV     ?V0 + 3,#0x0
   1197                item = table;
   \   000063   AE..         MOV     R6,?V0 + 10
   \   000065   AF..         MOV     R7,?V0 + 11
   1198                index = StartIndex;
   \   000067   85....       MOV     ?V0 + 0,?V0 + 4
   \   00006A   02....       LJMP    ??CrossCallReturnLabel_63 & 0xFFFF
   1199          
   1200                // Loop through associated items and build list
   1201                for ( ; x < numItems; x++ )
   1202                {
   1203                  if ( index < aItems )
   1204                  {
   1205                    // get next associated device
   1206                    aDevice = AssocFindDevice( index++ );
   1207          
   1208                    // set basic fields
   1209                    item->panID   = _NIB.nwkPanId;
   1210                    osal_cpyExtAddr( item->extPanID, _NIB.extendedPANID );
   1211                    item->nwkAddr = aDevice->shortAddr;
   1212                    item->permit  = ZDP_MGMT_BOOL_UNKNOWN;
   1213                    item->depth   = 0xFF;
   1214                    item->lqi     = aDevice->linkInfo.rxLqi;
   1215          
   1216                    // set extented address
   1217                    nwkEntry.user    = ADDRMGR_USER_DEFAULT;
   1218                    nwkEntry.nwkAddr = aDevice->shortAddr;
   1219          
   1220                    if ( AddrMgrEntryLookupNwk( &nwkEntry ) == TRUE )
   1221                    {
   1222                      osal_cpyExtAddr( item->extAddr, nwkEntry.extAddr );
   1223                    }
   1224                    else
   1225                    {
   1226                      osal_memset( item->extAddr, 0xFF, Z_EXTADDR_LEN );
   \                     ??ZDO_ProcessMgmtLqiReq_3:
   \   00006D                ; Setup parameters for call to function osal_memset
   \   00006D   7C08         MOV     R4,#0x8
   \   00006F   7D00         MOV     R5,#0x0
   \   000071   79FF         MOV     R1,#-0x1
   \   000073   AA..         MOV     R2,?V0 + 12
   \   000075   AB..         MOV     R3,?V0 + 13
   \   000077   12....       LCALL   ??osal_memset?relay
   1227                    }
   1228          
   1229                    // use association info to set other fields
   1230                    if ( aDevice->nodeRelation == PARENT )
   \                     ??ZDO_ProcessMgmtLqiReq_4:
   \   00007A   E5..         MOV     A,?V0 + 6
   \   00007C   2404         ADD     A,#0x4
   \   00007E   F8           MOV     R0,A
   \   00007F   E5..         MOV     A,?V0 + 7
   \   000081   3400         ADDC    A,#0x0
   \   000083   F9           MOV     R1,A
   \   000084   EE           MOV     A,R6
   \   000085   2414         ADD     A,#0x14
   \   000087   FA           MOV     R2,A
   \   000088   EF           MOV     A,R7
   \   000089   12....       LCALL   ?Subroutine139 & 0xFFFF
   \                     ??CrossCallReturnLabel_252:
   \   00008C   7023         JNZ     ??ZDO_ProcessMgmtLqiReq_5
   1231                    {
   1232                      if (  aDevice->shortAddr == 0 )
   \   00008E   85..82       MOV     DPL,?V0 + 6
   \   000091   85..83       MOV     DPH,?V0 + 7
   \   000094   12....       LCALL   ?Subroutine97 & 0xFFFF
   \                     ??CrossCallReturnLabel_173:
   \   000097   7004         JNZ     ??ZDO_ProcessMgmtLqiReq_6
   1233                      {
   1234                        item->devType = ZDP_MGMT_DT_COORD;
   \   000099   E4           CLR     A
   \   00009A   F0           MOVX    @DPTR,A
   1235                        item->depth = 0;
   \   00009B   8008         SJMP    ??ZDO_ProcessMgmtLqiReq_7
   1236                      }
   1237                      else
   1238                      {
   1239                        item->devType = ZDP_MGMT_DT_ROUTER;
   \                     ??ZDO_ProcessMgmtLqiReq_6:
   \   00009D   7401         MOV     A,#0x1
   \   00009F   F0           MOVX    @DPTR,A
   1240                        item->depth = _NIB.nodeDepth - 1;
   \   0000A0   90....       MOV     DPTR,#_NIB + 52
   \   0000A3   E0           MOVX    A,@DPTR
   \   0000A4   14           DEC     A
   \                     ??ZDO_ProcessMgmtLqiReq_7:
   \   0000A5   85..82       MOV     DPL,?V0 + 8
   \   0000A8   85..83       MOV     DPH,?V0 + 9
   1241                      }
   1242          
   1243                      item->rxOnIdle = ZDP_MGMT_BOOL_UNKNOWN;
   1244                      item->relation = ZDP_MGMT_REL_PARENT;
   1245                    }
   \   0000AB   12....       LCALL   ?Subroutine15 & 0xFFFF
   \                     ??CrossCallReturnLabel_5:
   \   0000AE   E4           CLR     A
   \   0000AF   803C         SJMP    ??ZDO_ProcessMgmtLqiReq_8
   1246                    else
   1247                    {
   1248                      // If not parent, then it's a child
   1249                      item->depth = _NIB.nodeDepth + 1;
   \                     ??ZDO_ProcessMgmtLqiReq_5:
   \   0000B1   90....       MOV     DPTR,#_NIB + 52
   \   0000B4   E0           MOVX    A,@DPTR
   \   0000B5   04           INC     A
   \   0000B6   85..82       MOV     DPL,?V0 + 8
   \   0000B9   85..83       MOV     DPH,?V0 + 9
   \   0000BC   12....       LCALL   ??Subroutine240_0 & 0xFFFF
   1250          
   1251                      if ( aDevice->nodeRelation < CHILD_FFD )
   \                     ??CrossCallReturnLabel_538:
   \   0000BF   C3           CLR     C
   \   0000C0   9403         SUBB    A,#0x3
   \   0000C2   8A82         MOV     DPL,R2
   \   0000C4   8B83         MOV     DPH,R3
   \   0000C6   4003         JC      $+5
   \   0000C8   02....       LJMP    ??ZDO_ProcessMgmtLqiReq_9 & 0xFFFF
   1252                      {
   1253                        item->devType = ZDP_MGMT_DT_ENDDEV;
   \   0000CB   7402         MOV     A,#0x2
   \   0000CD   12....       LCALL   ??Subroutine240_0 & 0xFFFF
   1254          
   1255                        if ( aDevice->nodeRelation == CHILD_RFD )
   \                     ??CrossCallReturnLabel_539:
   \   0000D0   6401         XRL     A,#0x1
   \   0000D2   6003         JZ      $+5
   \   0000D4   02....       LJMP    ??ZDO_ProcessMgmtLqiReq_10 & 0xFFFF
   1256                        {
   1257                          item->rxOnIdle = FALSE;
   \                     ??ZDO_ProcessMgmtLqiReq_11:
   \   0000D7   EE           MOV     A,R6
   \   0000D8   2415         ADD     A,#0x15
   \   0000DA   F582         MOV     DPL,A
   \   0000DC   EF           MOV     A,R7
   \   0000DD   12....       LCALL   ??Subroutine248_0 & 0xFFFF
   1258                        }
   \                     ??CrossCallReturnLabel_576:
   \   0000E0   E4           CLR     A
   \                     ??ZDO_ProcessMgmtLqiReq_12:
   \   0000E1   F0           MOVX    @DPTR,A
   1259                        else
   1260                        {
   1261                          item->rxOnIdle = TRUE;
   1262                        }
   1263                      }
   1264                      else
   1265                      {
   1266                        item->devType = ZDP_MGMT_DT_ROUTER;
   1267          
   1268                        if ( aDevice->nodeRelation == CHILD_FFD )
   1269                        {
   1270                          item->rxOnIdle = FALSE;
   1271                        }
   1272                        else
   1273                        {
   1274                          item->rxOnIdle = TRUE;
   1275                        }
   1276                      }
   1277          
   1278                      item->relation = ZDP_MGMT_REL_CHILD;
   \   0000E2   EE           MOV     A,R6
   \   0000E3   2416         ADD     A,#0x16
   \   0000E5   F582         MOV     DPL,A
   \   0000E7   EF           MOV     A,R7
   \   0000E8   12....       LCALL   ??Subroutine248_0 & 0xFFFF
   \                     ??CrossCallReturnLabel_577:
   \   0000EB   7401         MOV     A,#0x1
   \                     ??ZDO_ProcessMgmtLqiReq_8:
   \   0000ED   12....       LCALL   ?Subroutine42 & 0xFFFF
   \                     ??CrossCallReturnLabel_63:
   \   0000F0   E5..         MOV     A,?V0 + 3
   \   0000F2   C3           CLR     C
   \   0000F3   95..         SUBB    A,?V0 + 1
   \   0000F5   4003         JC      $+5
   \   0000F7   02....       LJMP    ??ZDO_ProcessMgmtLqiReq_2 & 0xFFFF
   \   0000FA   E5..         MOV     A,?V0 + 0
   \   0000FC   C3           CLR     C
   \   0000FD   95..         SUBB    A,?V0 + 2
   \   0000FF   4003         JC      $+5
   \   000101   02....       LJMP    ??ZDO_ProcessMgmtLqiReq_13 & 0xFFFF
   \   000104                ; Setup parameters for call to function AssocFindDevice
   \   000104   A9..         MOV     R1,?V0 + 0
   \   000106   12....       LCALL   ??AssocFindDevice?relay
   \   000109   8A..         MOV     ?V0 + 6,R2
   \   00010B   8B..         MOV     ?V0 + 7,R3
   \   00010D   05..         INC     ?V0 + 0
   \   00010F   90....       MOV     DPTR,#_NIB + 33
   \   000112   12....       LCALL   ?Subroutine19 & 0xFFFF
   \                     ??CrossCallReturnLabel_13:
   \   000115   85..82       MOV     DPL,?V0 + 6
   \   000118   85..83       MOV     DPH,?V0 + 7
   \   00011B   12....       LCALL   ??Subroutine236_0 & 0xFFFF
   \                     ??CrossCallReturnLabel_502:
   \   00011E   EE           MOV     A,R6
   \   00011F   2412         ADD     A,#0x12
   \   000121   12....       LCALL   ?Subroutine136 & 0xFFFF
   \                     ??CrossCallReturnLabel_496:
   \   000124   F0           MOVX    @DPTR,A
   \   000125   A3           INC     DPTR
   \   000126   E9           MOV     A,R1
   \   000127   12....       LCALL   ?Subroutine26 & 0xFFFF
   \                     ??CrossCallReturnLabel_30:
   \   00012A   12....       LCALL   ?Subroutine184 & 0xFFFF
   \                     ??CrossCallReturnLabel_327:
   \   00012D   74FF         MOV     A,#-0x1
   \   00012F   F0           MOVX    @DPTR,A
   \   000130   85..82       MOV     DPL,?V0 + 6
   \   000133   85..83       MOV     DPH,?V0 + 7
   \   000136   A3           INC     DPTR
   \   000137   A3           INC     DPTR
   \   000138   A3           INC     DPTR
   \   000139   A3           INC     DPTR
   \   00013A   A3           INC     DPTR
   \   00013B   A3           INC     DPTR
   \   00013C   A3           INC     DPTR
   \   00013D   A3           INC     DPTR
   \   00013E   A3           INC     DPTR
   \   00013F   A3           INC     DPTR
   \   000140   E0           MOVX    A,@DPTR
   \   000141   C0E0         PUSH    A
   \   000143   EE           MOV     A,R6
   \   000144   2419         ADD     A,#0x19
   \   000146   F582         MOV     DPL,A
   \   000148   EF           MOV     A,R7
   \   000149   12....       LCALL   ??Subroutine248_0 & 0xFFFF
   \                     ??CrossCallReturnLabel_578:
   \   00014C   D0E0         POP     A
   \   00014E   F0           MOVX    @DPTR,A
   \   00014F   7401         MOV     A,#0x1
   \   000151   12....       LCALL   ?XSTACK_DISP0_8
   \   000154   E4           CLR     A
   \   000155   F0           MOVX    @DPTR,A
   \   000156   85..82       MOV     DPL,?V0 + 6
   \   000159   85..83       MOV     DPH,?V0 + 7
   \   00015C   12....       LCALL   ??Subroutine236_0 & 0xFFFF
   \                     ??CrossCallReturnLabel_503:
   \   00015F   7402         MOV     A,#0x2
   \   000161   12....       LCALL   ?XSTACK_DISP0_8
   \   000164   12....       LCALL   ??Subroutine213_0 & 0xFFFF
   \                     ??CrossCallReturnLabel_396:
   \   000167   EE           MOV     A,R6
   \   000168   240A         ADD     A,#0xa
   \   00016A   F5..         MOV     ?V0 + 12,A
   \   00016C   EF           MOV     A,R7
   \   00016D   3400         ADDC    A,#0x0
   \   00016F   F5..         MOV     ?V0 + 13,A
   \   000171                ; Setup parameters for call to function AddrMgrEntryLookupNwk
   \   000171   7401         MOV     A,#0x1
   \   000173   12....       LCALL   ?XSTACK_DISP0_8
   \   000176   AA82         MOV     R2,DPL
   \   000178   AB83         MOV     R3,DPH
   \   00017A   12....       LCALL   ??AddrMgrEntryLookupNwk?relay
   \   00017D   E9           MOV     A,R1
   \   00017E   6401         XRL     A,#0x1
   \   000180   6003         JZ      $+5
   \   000182   02....       LJMP    ??ZDO_ProcessMgmtLqiReq_3 & 0xFFFF
   \   000185                ; Setup parameters for call to function sAddrExtCpy
   \   000185   7404         MOV     A,#0x4
   \   000187   12....       LCALL   ?XSTACK_DISP0_8
   \   00018A   AC82         MOV     R4,DPL
   \   00018C   AD83         MOV     R5,DPH
   \   00018E   AA..         MOV     R2,?V0 + 12
   \   000190   AB..         MOV     R3,?V0 + 13
   \   000192   12....       LCALL   ??sAddrExtCpy?relay
   \   000195   02....       LJMP    ??ZDO_ProcessMgmtLqiReq_4 & 0xFFFF
   \                     ??ZDO_ProcessMgmtLqiReq_9:
   \   000198   7401         MOV     A,#0x1
   \   00019A   12....       LCALL   ??Subroutine240_0 & 0xFFFF
   \                     ??CrossCallReturnLabel_540:
   \   00019D   6403         XRL     A,#0x3
   \   00019F   7003         JNZ     $+5
   \   0001A1   02....       LJMP    ??ZDO_ProcessMgmtLqiReq_11 & 0xFFFF
   \                     ??ZDO_ProcessMgmtLqiReq_10:
   \   0001A4   EE           MOV     A,R6
   \   0001A5   2415         ADD     A,#0x15
   \   0001A7   F582         MOV     DPL,A
   \   0001A9   EF           MOV     A,R7
   \   0001AA   12....       LCALL   ??Subroutine248_0 & 0xFFFF
   1279                    }
   1280          
   1281                    item++;
   1282                  }
   \                     ??CrossCallReturnLabel_579:
   \   0001AD   7401         MOV     A,#0x1
   \   0001AF   02....       LJMP    ??ZDO_ProcessMgmtLqiReq_12 & 0xFFFF
   1283                  else
   1284                  {
   1285                    if ( StartIndex <= aItems )
   \                     ??ZDO_ProcessMgmtLqiReq_13:
   \   0001B2   E5..         MOV     A,?V0 + 2
   \   0001B4   C3           CLR     C
   \   0001B5   95..         SUBB    A,?V0 + 4
   \   0001B7   4005         JC      ??ZDO_ProcessMgmtLqiReq_14
   1286                      // Start with 1st neighbor
   1287                      index = 0;
   \   0001B9   75..00       MOV     ?V0 + 0,#0x0
   \   0001BC   8007         SJMP    ??ZDO_ProcessMgmtLqiReq_15
   1288                    else
   1289                      // Start with >1st neighbor
   1290                      index = StartIndex - aItems;
   \                     ??ZDO_ProcessMgmtLqiReq_14:
   \   0001BE   E5..         MOV     A,?V0 + 4
   \   0001C0   C3           CLR     C
   \   0001C1   95..         SUBB    A,?V0 + 2
   \   0001C3   F5..         MOV     ?V0 + 0,A
   1291                    break;
   1292                  }
   1293                }
   1294          
   1295                // Loop through neighbor items and finish list
   1296                for ( ; x < numItems; x++ )
   1297                {
   1298                  // Add next neighbor table item
   1299                  NLME_GetRequest( nwkNeighborTable, index++, &entry );
   \                     ??ZDO_ProcessMgmtLqiReq_15:
   \   0001C5                ; Setup parameters for call to function NLME_GetRequest
   \   0001C5   740E         MOV     A,#0xe
   \   0001C7   12....       LCALL   ?XSTACK_DISP0_8
   \   0001CA   AC82         MOV     R4,DPL
   \   0001CC   AD83         MOV     R5,DPH
   \   0001CE   85....       MOV     ?V0 + 6,?V0 + 0
   \   0001D1   AA..         MOV     R2,?V0 + 6
   \   0001D3   7B00         MOV     R3,#0x0
   \   0001D5   7987         MOV     R1,#-0x79
   \   0001D7   12....       LCALL   ??NLME_GetRequest?relay
   \   0001DA   05..         INC     ?V0 + 0
   1300          
   1301                  // set ZDP_MgmtLqiItem_t fields
   1302                  item->panID    = entry.panId;
   \   0001DC   7418         MOV     A,#0x18
   \   0001DE   12....       LCALL   ?XSTACK_DISP0_8
   \   0001E1   12....       LCALL   ?Subroutine19 & 0xFFFF
   1303                  osal_cpyExtAddr( item->extPanID, _NIB.extendedPANID );
   1304                  osal_memset( item->extAddr, 0xFF, Z_EXTADDR_LEN );
   \                     ??CrossCallReturnLabel_14:
   \   0001E4                ; Setup parameters for call to function osal_memset
   \   0001E4   7C08         MOV     R4,#0x8
   \   0001E6   7D00         MOV     R5,#0x0
   \   0001E8   79FF         MOV     R1,#-0x1
   \   0001EA   EE           MOV     A,R6
   \   0001EB   240A         ADD     A,#0xa
   \   0001ED   FA           MOV     R2,A
   \   0001EE   EF           MOV     A,R7
   \   0001EF   3400         ADDC    A,#0x0
   \   0001F1   FB           MOV     R3,A
   \   0001F2   12....       LCALL   ??osal_memset?relay
   1305                  item->nwkAddr  = entry.neighborAddress;
   \   0001F5   EE           MOV     A,R6
   \   0001F6   2412         ADD     A,#0x12
   \   0001F8   F8           MOV     R0,A
   \   0001F9   EF           MOV     A,R7
   \   0001FA   3400         ADDC    A,#0x0
   \   0001FC   F9           MOV     R1,A
   \   0001FD   740E         MOV     A,#0xe
   \   0001FF   12....       LCALL   ?XSTACK_DISP0_8
   \   000202   12....       LCALL   ??Subroutine212_0 & 0xFFFF
   \                     ??CrossCallReturnLabel_381:
   \   000205   8882         MOV     DPL,R0
   \   000207   8983         MOV     DPH,R1
   \   000209   EA           MOV     A,R2
   \   00020A   F0           MOVX    @DPTR,A
   \   00020B   A3           INC     DPTR
   \   00020C   EB           MOV     A,R3
   \   00020D   12....       LCALL   ?Subroutine15 & 0xFFFF
   1306                  item->rxOnIdle = ZDP_MGMT_BOOL_UNKNOWN;
   1307                  item->relation = ZDP_MGMT_REL_UNKNOWN;
   \                     ??CrossCallReturnLabel_6:
   \   000210   7403         MOV     A,#0x3
   \   000212   12....       LCALL   ?Subroutine26 & 0xFFFF
   1308                  item->permit   = ZDP_MGMT_BOOL_UNKNOWN;
   1309                  item->depth    = 0xFF;
   \                     ??CrossCallReturnLabel_31:
   \   000215   F582         MOV     DPL,A
   \   000217   EF           MOV     A,R7
   \   000218   12....       LCALL   ??Subroutine248_0 & 0xFFFF
   \                     ??CrossCallReturnLabel_580:
   \   00021B   74FF         MOV     A,#-0x1
   \   00021D   F0           MOVX    @DPTR,A
   1310                  item->lqi      = entry.linkInfo.rxLqi;
   \   00021E   741D         MOV     A,#0x1d
   \   000220   12....       LCALL   ?XSTACK_DISP0_8
   \   000223   E0           MOVX    A,@DPTR
   \   000224   C0E0         PUSH    A
   \   000226   EE           MOV     A,R6
   \   000227   2419         ADD     A,#0x19
   \   000229   F582         MOV     DPL,A
   \   00022B   EF           MOV     A,R7
   \   00022C   12....       LCALL   ??Subroutine248_0 & 0xFFFF
   \                     ??CrossCallReturnLabel_581:
   \   00022F   D0E0         POP     A
   \   000231   F0           MOVX    @DPTR,A
   1311          
   1312                  if ( item->nwkAddr == 0 )
   \   000232   EE           MOV     A,R6
   \   000233   2414         ADD     A,#0x14
   \   000235   FA           MOV     R2,A
   \   000236   EF           MOV     A,R7
   \   000237   3400         ADDC    A,#0x0
   \   000239   FB           MOV     R3,A
   \   00023A   8882         MOV     DPL,R0
   \   00023C   8983         MOV     DPH,R1
   \   00023E   12....       LCALL   ?Subroutine97 & 0xFFFF
   \                     ??CrossCallReturnLabel_174:
   \   000241   7003         JNZ     ??ZDO_ProcessMgmtLqiReq_16
   1313                  {
   1314                    item->devType = ZDP_MGMT_DT_COORD;
   \   000243   E4           CLR     A
   \   000244   8002         SJMP    ??ZDO_ProcessMgmtLqiReq_17
   1315                  }
   1316                  else
   1317                  {
   1318                    item->devType = ZDP_MGMT_DT_ROUTER;
   \                     ??ZDO_ProcessMgmtLqiReq_16:
   \   000246   7401         MOV     A,#0x1
   1319                  }
   1320          
   1321                  item++;
   1322                }
   1323              }
   1324            }
   \                     ??ZDO_ProcessMgmtLqiReq_17:
   \   000248   12....       LCALL   ?Subroutine42 & 0xFFFF
   \                     ??CrossCallReturnLabel_64:
   \   00024B   E5..         MOV     A,?V0 + 3
   \   00024D   C3           CLR     C
   \   00024E   95..         SUBB    A,?V0 + 1
   \   000250   5006         JNC     ??ZDO_ProcessMgmtLqiReq_2
   \   000252   02....       LJMP    ??ZDO_ProcessMgmtLqiReq_15 & 0xFFFF
   1325            else
   1326            {
   1327              numItems = 0;
   \                     ??ZDO_ProcessMgmtLqiReq_0:
   \   000255   75..00       MOV     ?V0 + 1,#0x0
   1328            }
   1329          
   1330            // Send response
   1331            ZDP_MgmtLqiRsp( inMsg->TransSeq, &(inMsg->srcAddr), ZSuccess, maxItems,
   1332                            StartIndex, numItems, table, false );
   \                     ??ZDO_ProcessMgmtLqiReq_2:
   \   000258                ; Setup parameters for call to function ZDP_MgmtLqiRsp
   \   000258   75..00       MOV     ?V0 + 2,#0x0
   \   00025B   78..         MOV     R0,#?V0 + 2
   \   00025D   12....       LCALL   ?PUSH_XSTACK_I_ONE
   \   000260   78..         MOV     R0,#?V0 + 10
   \   000262   12....       LCALL   ?PUSH_XSTACK_I_TWO
   \   000265   78..         MOV     R0,#?V0 + 1
   \   000267   12....       LCALL   ?PUSH_XSTACK_I_ONE
   \   00026A   E5..         MOV     A,?V0 + 4
   \   00026C   F5..         MOV     ?V0 + 1,A
   \   00026E   78..         MOV     R0,#?V0 + 1
   \   000270   12....       LCALL   ?PUSH_XSTACK_I_ONE
   \   000273   7405         MOV     A,#0x5
   \   000275   12....       LCALL   ?XSTACK_DISP0_8
   \   000278   E0           MOVX    A,@DPTR
   \   000279   FD           MOV     R5,A
   \   00027A   7C00         MOV     R4,#0x0
   \   00027C   E5..         MOV     A,?V0 + 14
   \   00027E   2402         ADD     A,#0x2
   \   000280   FA           MOV     R2,A
   \   000281   E5..         MOV     A,?V0 + 15
   \   000283   3400         ADDC    A,#0x0
   \   000285   FB           MOV     R3,A
   \   000286   E5..         MOV     A,?V0 + 14
   \   000288   12....       LCALL   ?Subroutine147 & 0xFFFF
   \                     ??CrossCallReturnLabel_269:
   \   00028B   E5..         MOV     A,?V0 + 15
   \   00028D   12....       LCALL   ?Subroutine126 & 0xFFFF
   \                     ??CrossCallReturnLabel_234:
   \   000290   12....       LCALL   ??ZDP_MgmtLqiRsp?relay
   \   000293   7405         MOV     A,#0x5
   \   000295   12....       LCALL   ?DEALLOC_XSTACK8
   1333          
   1334            if ( table )
   \   000298   E5..         MOV     A,?V0 + 10
   \   00029A   45..         ORL     A,?V0 + 11
   \   00029C   6007         JZ      ??ZDO_ProcessMgmtLqiReq_18
   1335            {
   1336              osal_mem_free( table );
   \   00029E                ; Setup parameters for call to function osal_mem_free
   \   00029E   AA..         MOV     R2,?V0 + 10
   \   0002A0   AB..         MOV     R3,?V0 + 11
   \   0002A2   12....       LCALL   ??osal_mem_free?relay
   1337            }
   1338          }
   \                     ??ZDO_ProcessMgmtLqiReq_18:
   \   0002A5   7425         MOV     A,#0x25
   \   0002A7   02....       LJMP    ?Subroutine4 & 0xFFFF

   \                                 In  segment BANKED_CODE, align 1, keep-with-next
   \                     ?Subroutine97:
   \   000000   12....       LCALL   ?Subroutine169 & 0xFFFF
   \                     ??CrossCallReturnLabel_449:
   \   000003   8A82         MOV     DPL,R2
   \   000005   8B83         MOV     DPH,R3
   \   000007   22           RET

   \                                 In  segment BANKED_CODE, align 1, keep-with-next
   \                     ?Subroutine42:
   \   000000   F0           MOVX    @DPTR,A
   \   000001   EE           MOV     A,R6
   \   000002   241A         ADD     A,#0x1a
   \   000004   FE           MOV     R6,A
   \   000005   EF           MOV     A,R7
   \   000006   3400         ADDC    A,#0x0
   \   000008   FF           MOV     R7,A
   \   000009   05..         INC     ?V0 + 3
   \   00000B   22           RET

   \                                 In  segment BANKED_CODE, align 1, keep-with-next
   \                     ?Subroutine26:
   \   000000   F0           MOVX    @DPTR,A
   \   000001   EE           MOV     A,R6
   \   000002   2417         ADD     A,#0x17
   \   000004   12....       LCALL   ?Subroutine185 & 0xFFFF
   \                     ??CrossCallReturnLabel_329:
   \   000007   2418         ADD     A,#0x18
   \   000009   22           RET

   \                                 In  segment BANKED_CODE, align 1, keep-with-next
   \                     ?Subroutine19:
   \   000000   12....       LCALL   ?Subroutine174 & 0xFFFF
   \                     ??CrossCallReturnLabel_512:
   \   000003   8E82         MOV     DPL,R6
   \   000005   8F83         MOV     DPH,R7
   \   000007   E8           MOV     A,R0
   \   000008   F0           MOVX    @DPTR,A
   \   000009   A3           INC     DPTR
   \   00000A   E9           MOV     A,R1
   \   00000B   F0           MOVX    @DPTR,A
   \   00000C                ; Setup parameters for call to function sAddrExtCpy
   \   00000C                ; Setup parameters for call to function sAddrExtCpy
   \   00000C   7C..         MOV     R4,#(_NIB + 53) & 0xff
   \   00000E   7D..         MOV     R5,#((_NIB + 53) >> 8) & 0xff
   \   000010   EE           MOV     A,R6
   \   000011   2402         ADD     A,#0x2
   \   000013   FA           MOV     R2,A
   \   000014   EF           MOV     A,R7
   \   000015   3400         ADDC    A,#0x0
   \   000017   FB           MOV     R3,A
   \   000018   12....       LCALL   ??sAddrExtCpy?relay
   \   00001B   22           RET

   \                                 In  segment BANKED_CODE, align 1, keep-with-next
   \                     ?Subroutine15:
   \   000000   F0           MOVX    @DPTR,A
   \   000001   EE           MOV     A,R6
   \   000002   2415         ADD     A,#0x15
   \   000004   12....       LCALL   ?Subroutine185 & 0xFFFF
   \                     ??CrossCallReturnLabel_330:
   \   000007   2416         ADD     A,#0x16
   \   000009   F582         MOV     DPL,A
   \   00000B   EF           MOV     A,R7
   \   00000C   12....       LCALL   ??Subroutine235_0 & 0xFFFF
   \                     ??CrossCallReturnLabel_600:
   \   00000F   22           RET

   \                                 In  segment BANKED_CODE, align 1, keep-with-next
   \                     ?Subroutine185:
   \   000000   12....       LCALL   ?Subroutine201 & 0xFFFF
   \                     ??CrossCallReturnLabel_612:
   \   000003   7402         MOV     A,#0x2
   \   000005   F0           MOVX    @DPTR,A
   \   000006   EE           MOV     A,R6
   \   000007   22           RET

   \                                 In  segment BANKED_CODE, align 1, keep-with-next
   \                     ?Subroutine67:
   \   000000   12....       LCALL   ?Subroutine186 & 0xFFFF
   \                     ??CrossCallReturnLabel_604:
   \   000003   12....       LCALL   ?Subroutine166 & 0xFFFF
   \                     ??CrossCallReturnLabel_371:
   \   000006   F5..         MOV     ?V0 + 4,A
   \   000008                ; Setup parameters for call to function NLME_GetRequest
   \   000008                ; Setup parameters for call to function APSME_GetRequest
   \   000008   85..82       MOV     DPL,?XSP + 0
   \   00000B   85..83       MOV     DPH,?XSP + 1
   \   00000E   AC82         MOV     R4,DPL
   \   000010   AD83         MOV     R5,DPH
   \   000012   7A00         MOV     R2,#0x0
   \   000014   7B00         MOV     R3,#0x0
   \   000016   22           RET

   \                                 In  segment BANKED_CODE, align 1, keep-with-next
   \                     ?Subroutine136:
   \   000000   F582         MOV     DPL,A
   \   000002   EF           MOV     A,R7
   \   000003                REQUIRE ??Subroutine234_0
   \   000003                ; // Fall through to label ??Subroutine234_0

   \                                 In  segment BANKED_CODE, align 1, keep-with-next
   \                     ??Subroutine234_0:
   \   000000   12....       LCALL   ??Subroutine235_0 & 0xFFFF
   \                     ??CrossCallReturnLabel_606:
   \   000003   E8           MOV     A,R0
   \   000004   22           RET

   \                                 In  segment BANKED_CODE, align 1, keep-with-next
   \                     ?Subroutine186:
   \   000000   EA           MOV     A,R2
   \   000001   2413         ADD     A,#0x13
   \   000003   F582         MOV     DPL,A
   \   000005   EB           MOV     A,R3
   \   000006                REQUIRE ??Subroutine235_0
   \   000006                ; // Fall through to label ??Subroutine235_0

   \                                 In  segment BANKED_CODE, align 1, keep-with-next
   \                     ?Subroutine184:
   \   000000   F5..         MOV     ?V0 + 8,A
   \   000002   EF           MOV     A,R7
   \   000003   3400         ADDC    A,#0x0
   \   000005   F5..         MOV     ?V0 + 9,A
   \   000007   85..82       MOV     DPL,?V0 + 8
   \   00000A   F583         MOV     DPH,A
   \   00000C   22           RET

   \                                 In  segment BANKED_CODE, align 1, keep-with-next
   \                     ?Subroutine139:
   \   000000   3400         ADDC    A,#0x0
   \   000002   FB           MOV     R3,A
   \   000003   8882         MOV     DPL,R0
   \   000005   8983         MOV     DPH,R1
   \   000007   E0           MOVX    A,@DPTR
   \   000008   22           RET

   \                                 In  segment BANKED_CODE, align 1, keep-with-next
   \                     ??Subroutine240_0:
   \   000000   12....       LCALL   ?Subroutine157 & 0xFFFF
   \                     ??CrossCallReturnLabel_546:
   \   000003   22           RET

   \                                 In  segment BANKED_CODE, align 1, keep-with-next
   \                     ?Subroutine157:
   \   000000   F0           MOVX    @DPTR,A
   \   000001   8882         MOV     DPL,R0
   \   000003   8983         MOV     DPH,R1
   \   000005   E0           MOVX    A,@DPTR
   \   000006   22           RET
   1339          
   1340          /*********************************************************************
   1341           * @fn          ZDO_ProcessMgmtNwkDiscReq
   1342           *
   1343           * @brief       This function handles parsing the incoming Management
   1344           *              Network Discover request and starts the request.
   1345           *
   1346           * @param       inMsg - incoming message (request)
   1347           *
   1348           * @return      none
   1349           */

   \                                 In  segment BANKED_CODE, align 1, keep-with-next
   1350          void ZDO_ProcessMgmtNwkDiscReq( zdoIncomingMsg_t *inMsg )
   \                     ZDO_ProcessMgmtNwkDiscReq:
   1351          {
   \   000000   74F6         MOV     A,#-0xa
   \   000002   12....       LCALL   ?BANKED_ENTER_XDATA
   \   000005                ; Saved register size: 10
   \   000005                ; Auto size: 7
   \   000005   74F9         MOV     A,#-0x7
   \   000007   12....       LCALL   ?ALLOC_XSTACK8
   \   00000A   8A..         MOV     ?V0 + 0,R2
   \   00000C   8B..         MOV     ?V0 + 1,R3
   1352            NLME_ScanFields_t scan;
   1353            uint8             index;
   1354            uint8             *msg;
   1355          
   1356            msg = inMsg->asdu;
   \   00000E   12....       LCALL   ?Subroutine84 & 0xFFFF
   1357            scan.channels = osal_build_uint32( msg, 4 );
   \                     ??CrossCallReturnLabel_153:
   \   000011   85..82       MOV     DPL,?XSP + 0
   \   000014   85..83       MOV     DPH,?XSP + 1
   \   000017   12....       LCALL   ?XSTORE_R2345
   1358            msg += 4;
   \   00001A   12....       LCALL   ?Subroutine141 & 0xFFFF
   1359            scan.duration = *msg++;
   \                     ??CrossCallReturnLabel_256:
   \   00001D   C0E0         PUSH    A
   \   00001F   7404         MOV     A,#0x4
   \   000021   12....       LCALL   ?XSTACK_DISP0_8
   \   000024   D0E0         POP     A
   \   000026   12....       LCALL   ?Subroutine53 & 0xFFFF
   1360            index         = *msg;
   \                     ??CrossCallReturnLabel_92:
   \   000029   E0           MOVX    A,@DPTR
   \   00002A   FA           MOV     R2,A
   1361            scan.scanType = ZMAC_ACTIVE_SCAN;
   \   00002B   7405         MOV     A,#0x5
   \   00002D   12....       LCALL   ?XSTACK_DISP0_8
   \   000030   7401         MOV     A,#0x1
   \   000032   F0           MOVX    @DPTR,A
   1362            scan.scanApp  = NLME_DISC_SCAN;
   \   000033   7406         MOV     A,#0x6
   \   000035   12....       LCALL   ?XSTACK_DISP0_8
   \   000038   7401         MOV     A,#0x1
   \   00003A   F0           MOVX    @DPTR,A
   1363          
   1364            // Save off the information to be used for the response
   1365            zdappMgmtNwkDiscReqInProgress          = true;
   \   00003B   90....       MOV     DPTR,#zdappMgmtNwkDiscReqInProgress
   \   00003E   F0           MOVX    @DPTR,A
   1366            zdappMgmtNwkDiscRspAddr.addrMode       = Addr16Bit;
   \   00003F   90....       MOV     DPTR,#zdappMgmtNwkDiscRspAddr + 8
   \   000042   04           INC     A
   \   000043   F0           MOVX    @DPTR,A
   1367            zdappMgmtNwkDiscRspAddr.addr.shortAddr = inMsg->srcAddr.addr.shortAddr;
   \   000044   85..82       MOV     DPL,?V0 + 0
   \   000047   85..83       MOV     DPH,?V0 + 1
   \   00004A   A3           INC     DPTR
   \   00004B   A3           INC     DPTR
   \   00004C   12....       LCALL   ??Subroutine236_0 & 0xFFFF
   \                     ??CrossCallReturnLabel_504:
   \   00004F   90....       MOV     DPTR,#zdappMgmtNwkDiscRspAddr
   \   000052   12....       LCALL   ??Subroutine213_0 & 0xFFFF
   1368            zdappMgmtNwkDiscStartIndex             = index;
   \                     ??CrossCallReturnLabel_397:
   \   000055   EA           MOV     A,R2
   \   000056   90....       MOV     DPTR,#zdappMgmtNwkDiscStartIndex
   \   000059   F0           MOVX    @DPTR,A
   1369            zdappMgmtNwkDiscRspTransSeq            = inMsg->TransSeq;
   \   00005A   E5..         MOV     A,?V0 + 0
   \   00005C   12....       LCALL   ?Subroutine147 & 0xFFFF
   \                     ??CrossCallReturnLabel_270:
   \   00005F   E5..         MOV     A,?V0 + 1
   \   000061   12....       LCALL   ??Subroutine218_0 & 0xFFFF
   \                     ??CrossCallReturnLabel_411:
   \   000064   90....       MOV     DPTR,#zdappMgmtNwkDiscRspTransSeq
   \   000067   12....       LCALL   ?Subroutine41 & 0xFFFF
   1370          
   1371            if ( NLME_NwkDiscReq2( &scan ) != ZSuccess )
   \                     ??CrossCallReturnLabel_62:
   \   00006A   12....       LCALL   ??NLME_NwkDiscReq2?relay
   \   00006D   E9           MOV     A,R1
   \   00006E   6003         JZ      ??ZDO_ProcessMgmtNwkDiscReq_0
   1372            {
   1373              NLME_NwkDiscTerm();
   \   000070                ; Setup parameters for call to function NLME_NwkDiscTerm
   \   000070   12....       LCALL   ??NLME_NwkDiscTerm?relay
   1374          
   1375              // zdappMgmtNwkDiscReqInProgress will be reset in the confirm callback
   1376            }
   1377          }
   \                     ??ZDO_ProcessMgmtNwkDiscReq_0:
   \   000073   7407         MOV     A,#0x7
   \   000075   02....       LJMP    ??Subroutine204_0 & 0xFFFF

   \                                 In  segment BANKED_CODE, align 1, keep-with-next
   \                     ?Subroutine183:
   \   000000   F582         MOV     DPL,A
   \   000002   EB           MOV     A,R3
   \   000003                REQUIRE ??Subroutine219_0
   \   000003                ; // Fall through to label ??Subroutine219_0

   \                                 In  segment BANKED_CODE, align 1, keep-with-next
   \                     ?Subroutine53:
   \   000000   12....       LCALL   ?Subroutine195 & 0xFFFF
   \                     ??CrossCallReturnLabel_345:
   \   000003   22           RET

   \                                 In  segment BANKED_CODE, align 1, keep-with-next
   \                     ?Subroutine195:
   \   000000   F0           MOVX    @DPTR,A
   \   000001   8E82         MOV     DPL,R6
   \   000003   8F83         MOV     DPH,R7
   \   000005   A3           INC     DPTR
   \   000006   22           RET

   \                                 In  segment BANKED_CODE, align 1, keep-with-next
   \                     ?Subroutine141:
   \   000000   EE           MOV     A,R6
   \   000001   2404         ADD     A,#0x4
   \   000003   12....       LCALL   ?Subroutine189 & 0xFFFF
   \                     ??CrossCallReturnLabel_336:
   \   000006   22           RET

   \                                 In  segment BANKED_CODE, align 1, keep-with-next
   \                     ?Subroutine189:
   \   000000   FE           MOV     R6,A
   \   000001   EF           MOV     A,R7
   \   000002   3400         ADDC    A,#0x0
   \   000004   FF           MOV     R7,A
   \   000005   8E82         MOV     DPL,R6
   \   000007   8F83         MOV     DPH,R7
   \   000009   E0           MOVX    A,@DPTR
   \   00000A   22           RET

   \                                 In  segment BANKED_CODE, align 1, keep-with-next
   \                     ?Subroutine84:
   \   000000   EA           MOV     A,R2
   \   000001   2413         ADD     A,#0x13
   \   000003   12....       LCALL   ?Subroutine183 & 0xFFFF
   \                     ??CrossCallReturnLabel_424:
   \   000006   FE           MOV     R6,A
   \   000007   A3           INC     DPTR
   \   000008   E0           MOVX    A,@DPTR
   \   000009   FF           MOV     R7,A
   \   00000A                ; Setup parameters for call to function osal_build_uint32
   \   00000A                ; Setup parameters for call to function osal_build_uint32
   \   00000A   7904         MOV     R1,#0x4
   \   00000C   EE           MOV     A,R6
   \   00000D   FA           MOV     R2,A
   \   00000E   EF           MOV     A,R7
   \   00000F   FB           MOV     R3,A
   \   000010   12....       LCALL   ??osal_build_uint32?relay
   \   000013   22           RET
   1378          
   1379          #if defined ( ZDO_MGMT_NWKDISC_RESPONSE )
   1380          /*********************************************************************
   1381           * @fn          ZDO_FinishProcessingMgmtNwkDiscReq
   1382           *
   1383           * @brief       This function finishes the processing of the Management
   1384           *              Network Discover Request and generates the response.
   1385           *
   1386           *   Note:      This function will limit the number of items returned
   1387           *              to ZDO_MAX_NWKDISC_ITEMS items.
   1388           *
   1389           * @param       ResultCountSrcAddr - source of the request
   1390           * @param       msg - pointer to incoming message
   1391           * @param       SecurityUse -
   1392           *
   1393           * @return      none
   1394           */
   1395          void ZDO_FinishProcessingMgmtNwkDiscReq( void )
   1396          {
   1397            byte count, i, ResultCount = 0;
   1398            networkDesc_t *newDesc = NULL, *pList, *NetworkList;
   1399          
   1400            NetworkList = nwk_getNwkDescList();
   1401          
   1402            // Count the number of nwk descriptors in the list
   1403            pList = nwk_getNwkDescList();
   1404            while (pList)
   1405            {
   1406              ResultCount++;
   1407              pList = pList->nextDesc;
   1408            }
   1409          
   1410            if ( ZSTACK_ROUTER_BUILD )
   1411            {
   1412              // Look for my PanID.
   1413              pList = nwk_getNwkDescList();
   1414              while ( pList )
   1415              {
   1416                if ( pList->panId == _NIB.nwkPanId )
   1417                {
   1418                  break;
   1419                }
   1420          
   1421          
   1422                if ( !pList->nextDesc )
   1423                {
   1424                  break;
   1425                }
   1426                pList = pList->nextDesc;
   1427              }
   1428          
   1429          
   1430              // If my Pan not present (query to a star network ZC or an isolated ZR?),
   1431              // prepend it.
   1432              if ( !pList || (pList->panId != _NIB.nwkPanId) )
   1433              {
   1434                newDesc = (networkDesc_t *)osal_mem_alloc( sizeof( networkDesc_t ) );
   1435                if ( newDesc )
   1436                {
   1437                  byte pJoin;
   1438          
   1439                  newDesc->panId = _NIB.nwkPanId;
   1440                  newDesc->logicalChannel = _NIB.nwkLogicalChannel;
   1441                  newDesc->version = NLME_GetProtocolVersion();
   1442                  newDesc->stackProfile = zgStackProfile;
   1443          
   1444                  //Extended PanID
   1445                  osal_cpyExtAddr( newDesc->extendedPANID, _NIB.extendedPANID);
   1446          
   1447                  ZMacGetReq( ZMacAssociationPermit, &pJoin );
   1448                  newDesc->chosenRouter = ((pJoin) ? ZDAppNwkAddr.addr.shortAddr :
   1449                                                     INVALID_NODE_ADDR);
   1450          
   1451                  newDesc->nextDesc = NetworkList;
   1452                  NetworkList = newDesc;
   1453                  ResultCount++;
   1454                }
   1455              }
   1456            }
   1457          
   1458            // Calc the count and apply a max count.
   1459            if ( zdappMgmtNwkDiscStartIndex > ResultCount )
   1460            {
   1461              count = 0;
   1462            }
   1463            else
   1464            {
   1465              count = ResultCount - zdappMgmtNwkDiscStartIndex;
   1466              if ( count > ZDO_MAX_NWKDISC_ITEMS )
   1467              {
   1468                count = ZDO_MAX_NWKDISC_ITEMS;
   1469              }
   1470          
   1471              // Move the list pointer up to the start index.
   1472              for ( i = 0; i < zdappMgmtNwkDiscStartIndex; i++ )
   1473              {
   1474                NetworkList = NetworkList->nextDesc;
   1475              }
   1476            }
   1477          
   1478            ZDP_MgmtNwkDiscRsp( zdappMgmtNwkDiscRspTransSeq,
   1479                               &zdappMgmtNwkDiscRspAddr, ZSuccess, ResultCount,
   1480                                zdappMgmtNwkDiscStartIndex,
   1481                                count,
   1482                                NetworkList,
   1483                                false );
   1484          
   1485            if ( ZSTACK_ROUTER_BUILD )
   1486            {
   1487              if ( newDesc != NULL )
   1488              {
   1489                osal_mem_free( newDesc );
   1490              }
   1491            }
   1492          
   1493            NLME_NwkDiscTerm();
   1494          }
   1495          #endif
   1496          
   1497          /*********************************************************************
   1498           * @fn          ZDO_ProcessMgmtRtgReq
   1499           *
   1500           * @brief       This function finishes the processing of the Management
   1501           *              Routing Request and generates the response.
   1502           *
   1503           *   Note:      This function will limit the number of items returned
   1504           *              to ZDO_MAX_RTG_ITEMS items.
   1505           *
   1506           * @param       inMsg - incoming message (request)
   1507           *
   1508           * @return      none
   1509           */

   \                                 In  segment BANKED_CODE, align 1, keep-with-next
   \                     ?Subroutine72:
   \   000000   12....       LCALL   ??Subroutine235_0 & 0xFFFF
   \                     ??CrossCallReturnLabel_602:
   \   000003                REQUIRE ??Subroutine210_0
   \   000003                ; // Fall through to label ??Subroutine210_0

   \                                 In  segment BANKED_CODE, align 1, keep-with-next
   1510          void ZDO_ProcessMgmtRtgReq( zdoIncomingMsg_t *inMsg )
   \                     ZDO_ProcessMgmtRtgReq:
   1511          {
   \   000000   74EC         MOV     A,#-0x14
   \   000002   12....       LCALL   ?BANKED_ENTER_XDATA
   \   000005                ; Saved register size: 20
   \   000005                ; Auto size: 1
   \   000005   74FF         MOV     A,#-0x1
   \   000007   12....       LCALL   ?ALLOC_XSTACK8
   \   00000A   8A..         MOV     ?V0 + 4,R2
   \   00000C   8B..         MOV     ?V0 + 5,R3
   1512            byte x;
   1513            byte maxNumItems;
   1514            byte numItems = 0;
   \   00000E   7F00         MOV     R7,#0x0
   1515            uint8 *pBuf = NULL;
   \   000010   8F..         MOV     ?V0 + 8,R7
   \   000012   8F..         MOV     ?V0 + 9,R7
   1516            rtgItem_t *pList;
   1517            uint8 StartIndex = inMsg->asdu[0];
   \   000014   12....       LCALL   ?Subroutine146 & 0xFFFF
   \                     ??CrossCallReturnLabel_264:
   \   000017   12....       LCALL   ?Subroutine72 & 0xFFFF
   \                     ??CrossCallReturnLabel_369:
   \   00001A   FE           MOV     R6,A
   1518          
   1519            // Get the number of table items
   1520            NLME_GetRequest( nwkNumRoutingTableEntries, 0, &maxNumItems );
   \   00001B                ; Setup parameters for call to function NLME_GetRequest
   \   00001B   85..82       MOV     DPL,?XSP + 0
   \   00001E   85..83       MOV     DPH,?XSP + 1
   \   000021   AC82         MOV     R4,DPL
   \   000023   AD83         MOV     R5,DPH
   \   000025   7A00         MOV     R2,#0x0
   \   000027   7B00         MOV     R3,#0x0
   \   000029   799D         MOV     R1,#-0x63
   \   00002B   12....       LCALL   ??NLME_GetRequest?relay
   1521          
   1522            if ( maxNumItems > StartIndex )
   \   00002E   85..82       MOV     DPL,?XSP + 0
   \   000031   85..83       MOV     DPH,?XSP + 1
   \   000034   E0           MOVX    A,@DPTR
   \   000035   F8           MOV     R0,A
   \   000036   EE           MOV     A,R6
   \   000037   C3           CLR     C
   \   000038   98           SUBB    A,R0
   \   000039   507A         JNC     ??ZDO_ProcessMgmtRtgReq_0
   1523            {
   1524              numItems = maxNumItems - StartIndex;    // Start at the passed in index
   \   00003B   E0           MOVX    A,@DPTR
   \   00003C   C3           CLR     C
   \   00003D   9E           SUBB    A,R6
   \   00003E   FF           MOV     R7,A
   1525          
   1526              // limit the size of the list
   1527              if ( numItems > ZDO_MAX_RTG_ITEMS )
   \   00003F   C3           CLR     C
   \   000040   940B         SUBB    A,#0xb
   \   000042   4002         JC      ??ZDO_ProcessMgmtRtgReq_1
   1528              {
   1529                numItems = ZDO_MAX_RTG_ITEMS;
   \   000044   7F0A         MOV     R7,#0xa
   1530              }
   1531          
   1532              // Allocate the memory to build the table
   1533              pBuf = osal_mem_alloc( (short)(sizeof( rtgItem_t ) * numItems) );
   \                     ??ZDO_ProcessMgmtRtgReq_1:
   \   000046                ; Setup parameters for call to function osal_mem_alloc
   \   000046   EF           MOV     A,R7
   \   000047   75F007       MOV     B,#0x7
   \   00004A   A4           MUL     AB
   \   00004B   FA           MOV     R2,A
   \   00004C   ABF0         MOV     R3,B
   \   00004E   12....       LCALL   ??osal_mem_alloc?relay
   \   000051   8A..         MOV     ?V0 + 0,R2
   \   000053   8B..         MOV     ?V0 + 1,R3
   \   000055   8A..         MOV     ?V0 + 8,R2
   \   000057   8B..         MOV     ?V0 + 9,R3
   1534          
   1535              if ( pBuf != NULL )
   \   000059   EA           MOV     A,R2
   \   00005A   45..         ORL     A,?V0 + 9
   \   00005C   6055         JZ      ??ZDO_ProcessMgmtRtgReq_2
   1536              {
   1537                // Convert buffer to list
   1538                pList = (rtgItem_t *)pBuf;
   1539          
   1540                // Loop through items and build list
   1541                for ( x = 0; x < numItems; x++ )
   \   00005E   75..00       MOV     ?V0 + 6,#0x0
   \   000061   EF           MOV     A,R7
   \   000062   6051         JZ      ??ZDO_ProcessMgmtRtgReq_0
   \   000064   8E82         MOV     DPL,R6
   \   000066   8582..       MOV     ?V0 + 2,DPL
   1542                {
   1543                  NLME_GetRequest( nwkRoutingTable, (uint16)(x + StartIndex), (void*)pList );
   \                     ??ZDO_ProcessMgmtRtgReq_3:
   \   000069                ; Setup parameters for call to function NLME_GetRequest
   \   000069   AC..         MOV     R4,?V0 + 0
   \   00006B   AD..         MOV     R5,?V0 + 1
   \   00006D   85....       MOV     ?V0 + 10,?V0 + 6
   \   000070   E5..         MOV     A,?V0 + 10
   \   000072   25..         ADD     A,?V0 + 2
   \   000074   FA           MOV     R2,A
   \   000075   E4           CLR     A
   \   000076   3400         ADDC    A,#0x0
   \   000078   FB           MOV     R3,A
   \   000079   798B         MOV     R1,#-0x75
   \   00007B   12....       LCALL   ??NLME_GetRequest?relay
   1544          
   1545                  // Remap the status to the RoutingTableList Record Format defined in the ZigBee spec
   1546                  switch( pList->status )
   \   00007E   E5..         MOV     A,?V0 + 0
   \   000080   2405         ADD     A,#0x5
   \   000082   F582         MOV     DPL,A
   \   000084   E5..         MOV     A,?V0 + 1
   \   000086   12....       LCALL   ??Subroutine218_0 & 0xFFFF
   \                     ??CrossCallReturnLabel_412:
   \   000089   14           DEC     A
   \   00008A   6008         JZ      ??ZDO_ProcessMgmtRtgReq_4
   \   00008C   14           DEC     A
   \   00008D   6008         JZ      ??ZDO_ProcessMgmtRtgReq_5
   \   00008F   14           DEC     A
   \   000090   6009         JZ      ??ZDO_ProcessMgmtRtgReq_6
   \   000092   800B         SJMP    ??ZDO_ProcessMgmtRtgReq_7
   1547                  {
   1548                    case RT_ACTIVE:
   1549                      pList->status = ZDO_MGMT_RTG_ENTRY_ACTIVE;
   \                     ??ZDO_ProcessMgmtRtgReq_4:
   \   000094   E4           CLR     A
   \   000095   800A         SJMP    ??ZDO_ProcessMgmtRtgReq_8
   1550                      break;
   1551          
   1552                    case RT_DISC:
   1553                      pList->status = ZDO_MGMT_RTG_ENTRY_DISCOVERY_UNDERWAY;
   \                     ??ZDO_ProcessMgmtRtgReq_5:
   \   000097   7401         MOV     A,#0x1
   \   000099   8006         SJMP    ??ZDO_ProcessMgmtRtgReq_8
   1554                      break;
   1555          
   1556                    case RT_LINK_FAIL:
   1557                      pList->status = ZDO_MGMT_RTG_ENTRY_DISCOVERY_FAILED;
   \                     ??ZDO_ProcessMgmtRtgReq_6:
   \   00009B   7402         MOV     A,#0x2
   \   00009D   8002         SJMP    ??ZDO_ProcessMgmtRtgReq_8
   1558                      break;
   1559          
   1560                    case RT_INIT:
   1561                    case RT_REPAIR:
   1562                    default:
   1563                      pList->status = ZDO_MGMT_RTG_ENTRY_INACTIVE;
   \                     ??ZDO_ProcessMgmtRtgReq_7:
   \   00009F   7403         MOV     A,#0x3
   \                     ??ZDO_ProcessMgmtRtgReq_8:
   \   0000A1   F0           MOVX    @DPTR,A
   1564                      break;
   1565                  }
   1566          
   1567                  // Increment pointer to next record
   1568                  pList++;
   \   0000A2   E5..         MOV     A,?V0 + 0
   \   0000A4   2407         ADD     A,#0x7
   \   0000A6   12....       LCALL   ?Subroutine144 & 0xFFFF
   1569                }
   \                     ??CrossCallReturnLabel_567:
   \   0000A9   05..         INC     ?V0 + 6
   \   0000AB   E5..         MOV     A,?V0 + 6
   \   0000AD   C3           CLR     C
   \   0000AE   9F           SUBB    A,R7
   \   0000AF   5004         JNC     ??ZDO_ProcessMgmtRtgReq_0
   \   0000B1   80B6         SJMP    ??ZDO_ProcessMgmtRtgReq_3
   1570              }
   1571              else
   1572              {
   1573                numItems = 0;
   \                     ??ZDO_ProcessMgmtRtgReq_2:
   \   0000B3   7F00         MOV     R7,#0x0
   1574              }
   1575            }
   1576          
   1577            // Send response
   1578            ZDP_MgmtRtgRsp( inMsg->TransSeq, &(inMsg->srcAddr), ZSuccess, maxNumItems, StartIndex, numItems,
   1579                                  (rtgItem_t *)pBuf, false );
   \                     ??ZDO_ProcessMgmtRtgReq_0:
   \   0000B5                ; Setup parameters for call to function ZDP_MgmtRtgRsp
   \   0000B5   75..00       MOV     ?V0 + 0,#0x0
   \   0000B8   78..         MOV     R0,#?V0 + 0
   \   0000BA   12....       LCALL   ?PUSH_XSTACK_I_ONE
   \   0000BD   78..         MOV     R0,#?V0 + 8
   \   0000BF   12....       LCALL   ?PUSH_XSTACK_I_TWO
   \   0000C2   EF           MOV     A,R7
   \   0000C3   F5..         MOV     ?V0 + 0,A
   \   0000C5   78..         MOV     R0,#?V0 + 0
   \   0000C7   12....       LCALL   ?PUSH_XSTACK_I_ONE
   \   0000CA   EE           MOV     A,R6
   \   0000CB   F5..         MOV     ?V0 + 0,A
   \   0000CD   78..         MOV     R0,#?V0 + 0
   \   0000CF   12....       LCALL   ?PUSH_XSTACK_I_ONE
   \   0000D2   7405         MOV     A,#0x5
   \   0000D4   12....       LCALL   ?XSTACK_DISP0_8
   \   0000D7   E0           MOVX    A,@DPTR
   \   0000D8   FD           MOV     R5,A
   \   0000D9   7C00         MOV     R4,#0x0
   \   0000DB   E5..         MOV     A,?V0 + 4
   \   0000DD   2402         ADD     A,#0x2
   \   0000DF   FA           MOV     R2,A
   \   0000E0   E5..         MOV     A,?V0 + 5
   \   0000E2   3400         ADDC    A,#0x0
   \   0000E4   FB           MOV     R3,A
   \   0000E5   E5..         MOV     A,?V0 + 4
   \   0000E7   12....       LCALL   ?Subroutine147 & 0xFFFF
   \                     ??CrossCallReturnLabel_271:
   \   0000EA   E5..         MOV     A,?V0 + 5
   \   0000EC   12....       LCALL   ?Subroutine126 & 0xFFFF
   \                     ??CrossCallReturnLabel_235:
   \   0000EF   12....       LCALL   ??ZDP_MgmtRtgRsp?relay
   \   0000F2   7405         MOV     A,#0x5
   \   0000F4   12....       LCALL   ?DEALLOC_XSTACK8
   1580          
   1581            if ( pBuf != NULL )
   \   0000F7   E5..         MOV     A,?V0 + 8
   \   0000F9   45..         ORL     A,?V0 + 9
   \   0000FB   6007         JZ      ??ZDO_ProcessMgmtRtgReq_9
   1582            {
   1583              osal_mem_free( pBuf );
   \   0000FD                ; Setup parameters for call to function osal_mem_free
   \   0000FD   AA..         MOV     R2,?V0 + 8
   \   0000FF   AB..         MOV     R3,?V0 + 9
   \   000101   12....       LCALL   ??osal_mem_free?relay
   1584            }
   1585          }
   \                     ??ZDO_ProcessMgmtRtgReq_9:
   \   000104   7401         MOV     A,#0x1
   \   000106                REQUIRE ?Subroutine6
   \   000106                ; // Fall through to label ?Subroutine6

   \                                 In  segment BANKED_CODE, align 1, keep-with-next
   \                     ?Subroutine6:
   \   000000   12....       LCALL   ?DEALLOC_XSTACK8
   \   000003                REQUIRE ??Subroutine215_0
   \   000003                ; // Fall through to label ??Subroutine215_0

   \                                 In  segment BANKED_CODE, align 1, keep-with-next
   \                     ??Subroutine215_0:
   \   000000   7F0C         MOV     R7,#0xc
   \   000002   02....       LJMP    ?BANKED_LEAVE_XDATA

   \                                 In  segment BANKED_CODE, align 1, keep-with-next
   \                     ?Subroutine146:
   \   000000   EA           MOV     A,R2
   \   000001   12....       LCALL   ??Subroutine251_0 & 0xFFFF
   \                     ??CrossCallReturnLabel_622:
   \   000004   EB           MOV     A,R3
   \   000005   22           RET
   1586          
   1587          /*********************************************************************
   1588           * @fn          ZDO_ProcessMgmtBindReq
   1589           *
   1590           * @brief       This function finishes the processing of the Management
   1591           *              Bind Request and generates the response.
   1592           *
   1593           *   Note:      This function will limit the number of items returned
   1594           *              to ZDO_MAX_BIND_ITEMS items.
   1595           *
   1596           * @param       inMsg - incoming message (request)
   1597           *
   1598           * @return      none
   1599           */

   \                                 In  segment BANKED_CODE, align 1, keep-with-next
   1600          void ZDO_ProcessMgmtBindReq( zdoIncomingMsg_t *inMsg )
   \                     ZDO_ProcessMgmtBindReq:
   1601          {
   \   000000   74EA         MOV     A,#-0x16
   \   000002   12....       LCALL   ?BANKED_ENTER_XDATA
   \   000005                ; Saved register size: 22
   \   000005                ; Auto size: 2
   \   000005   74FE         MOV     A,#-0x2
   \   000007   12....       LCALL   ?ALLOC_XSTACK8
   \   00000A   8A..         MOV     ?V0 + 12,R2
   \   00000C   8B..         MOV     ?V0 + 13,R3
   1602          #if defined ( REFLECTOR )
   1603            byte x;
   1604            uint16 maxNumItems;
   1605            uint16 numItems;
   1606            uint8 *pBuf = NULL;
   \   00000E   75..00       MOV     ?V0 + 0,#0x0
   \   000011   75..00       MOV     ?V0 + 1,#0x0
   1607            apsBindingItem_t *pList;
   1608            uint8 StartIndex = inMsg->asdu[0];
   \   000014   12....       LCALL   ?Subroutine67 & 0xFFFF
   1609            uint8 status;
   1610          
   1611            // Get the number of table items
   1612            APSME_GetRequest( apsNumBindingTableEntries, 0, (byte*)(&maxNumItems) );
   \                     ??CrossCallReturnLabel_126:
   \   000017   79A3         MOV     R1,#-0x5d
   \   000019   12....       LCALL   ??APSME_GetRequest?relay
   1613          
   1614            if ( maxNumItems > StartIndex )
   \   00001C   85..82       MOV     DPL,?V0 + 4
   \   00001F   AA82         MOV     R2,DPL
   \   000021   12....       LCALL   ?Subroutine108 & 0xFFFF
   \                     ??CrossCallReturnLabel_509:
   \   000024   C3           CLR     C
   \   000025   EA           MOV     A,R2
   \   000026   98           SUBB    A,R0
   \   000027   E4           CLR     A
   \   000028   99           SUBB    A,R1
   \   000029   4003         JC      $+5
   \   00002B   02....       LJMP    ??ZDO_ProcessMgmtBindReq_0 & 0xFFFF
   1615            {
   1616              numItems = maxNumItems - StartIndex;    // Start at the passed in index
   \   00002E   85..82       MOV     DPL,?XSP + 0
   \   000031   85..83       MOV     DPH,?XSP + 1
   \   000034   E0           MOVX    A,@DPTR
   \   000035   C3           CLR     C
   \   000036   9A           SUBB    A,R2
   \   000037   FE           MOV     R6,A
   \   000038   A3           INC     DPTR
   \   000039   E0           MOVX    A,@DPTR
   \   00003A   9400         SUBB    A,#0x0
   \   00003C   FF           MOV     R7,A
   1617            }
   1618            else
   1619            {
   1620              numItems = 0;
   1621            }
   1622          
   1623            // limit the size of the list
   1624            if ( numItems > ZDO_MAX_BIND_ITEMS )
   \   00003D   C3           CLR     C
   \   00003E   EE           MOV     A,R6
   \   00003F   9404         SUBB    A,#0x4
   \   000041   EF           MOV     A,R7
   \   000042   9400         SUBB    A,#0x0
   \   000044   4006         JC      ??ZDO_ProcessMgmtBindReq_1
   1625            {
   1626              numItems = ZDO_MAX_BIND_ITEMS;
   \   000046   7E03         MOV     R6,#0x3
   \   000048   7F00         MOV     R7,#0x0
   \   00004A   8004         SJMP    ??ZDO_ProcessMgmtBindReq_2
   1627            }
   1628          
   1629            // Allocate the memory to build the table
   1630            if ( numItems && (pBuf = osal_mem_alloc( sizeof( apsBindingItem_t ) * numItems )) )
   \                     ??ZDO_ProcessMgmtBindReq_1:
   \   00004C   EE           MOV     A,R6
   \   00004D   4F           ORL     A,R7
   \   00004E   605F         JZ      ??ZDO_ProcessMgmtBindReq_0
   \                     ??ZDO_ProcessMgmtBindReq_2:
   \   000050                ; Setup parameters for call to function osal_mem_alloc
   \   000050   EE           MOV     A,R6
   \   000051   FA           MOV     R2,A
   \   000052   EF           MOV     A,R7
   \   000053   FB           MOV     R3,A
   \   000054   EA           MOV     A,R2
   \   000055   75F015       MOV     B,#0x15
   \   000058   A4           MUL     AB
   \   000059   FA           MOV     R2,A
   \   00005A   A8F0         MOV     R0,B
   \   00005C   75F015       MOV     B,#0x15
   \   00005F   EB           MOV     A,R3
   \   000060   A4           MUL     AB
   \   000061   28           ADD     A,R0
   \   000062   FB           MOV     R3,A
   \   000063   12....       LCALL   ??osal_mem_alloc?relay
   \   000066   8A..         MOV     ?V0 + 2,R2
   \   000068   8B..         MOV     ?V0 + 3,R3
   \   00006A   8A..         MOV     ?V0 + 0,R2
   \   00006C   8B..         MOV     ?V0 + 1,R3
   \   00006E   EA           MOV     A,R2
   \   00006F   45..         ORL     A,?V0 + 1
   \   000071   603C         JZ      ??ZDO_ProcessMgmtBindReq_0
   1631            {
   1632              status = ZSuccess;
   \   000073   75..00       MOV     ?V0 + 5,#0x0
   1633          
   1634              // Convert buffer to list
   1635              pList = (apsBindingItem_t *)pBuf;
   1636          
   1637              // Loop through items and build list
   1638              for ( x = 0; x < numItems; x++ )
   \   000076   75..00       MOV     ?V0 + 6,#0x0
   \   000079   85..82       MOV     DPL,?V0 + 4
   \   00007C   8582..       MOV     ?V0 + 8,DPL
   1639              {
   1640                APSME_GetRequest( apsBindingTable, (x + StartIndex), (void*)pList );
   \                     ??ZDO_ProcessMgmtBindReq_3:
   \   00007F                ; Setup parameters for call to function APSME_GetRequest
   \   00007F   AC..         MOV     R4,?V0 + 2
   \   000081   AD..         MOV     R5,?V0 + 3
   \   000083   85....       MOV     ?V0 + 10,?V0 + 6
   \   000086   E5..         MOV     A,?V0 + 10
   \   000088   25..         ADD     A,?V0 + 8
   \   00008A   FA           MOV     R2,A
   \   00008B   E4           CLR     A
   \   00008C   3400         ADDC    A,#0x0
   \   00008E   FB           MOV     R3,A
   \   00008F   79A2         MOV     R1,#-0x5e
   \   000091   12....       LCALL   ??APSME_GetRequest?relay
   1641                pList++;
   \   000094   E5..         MOV     A,?V0 + 2
   \   000096   2415         ADD     A,#0x15
   \   000098   F5..         MOV     ?V0 + 2,A
   \   00009A   E5..         MOV     A,?V0 + 3
   \   00009C   3400         ADDC    A,#0x0
   \   00009E   F5..         MOV     ?V0 + 3,A
   1642              }
   \   0000A0   05..         INC     ?V0 + 6
   \   0000A2   85....       MOV     ?V0 + 10,?V0 + 6
   \   0000A5   C3           CLR     C
   \   0000A6   E5..         MOV     A,?V0 + 10
   \   0000A8   9E           SUBB    A,R6
   \   0000A9   E4           CLR     A
   \   0000AA   9F           SUBB    A,R7
   \   0000AB   5007         JNC     ??ZDO_ProcessMgmtBindReq_4
   \   0000AD   80D0         SJMP    ??ZDO_ProcessMgmtBindReq_3
   1643          
   1644            }
   1645            else
   1646            {
   1647              status = ZDP_NOT_PERMITTED;
   \                     ??ZDO_ProcessMgmtBindReq_0:
   \   0000AF   75..8B       MOV     ?V0 + 5,#-0x75
   1648              numItems = 0;
   \   0000B2   7E00         MOV     R6,#0x0
   1649            }
   1650          
   1651            // Send response
   1652            ZDP_MgmtBindRsp( inMsg->TransSeq, &(inMsg->srcAddr), status, (byte)maxNumItems, StartIndex,
   1653                             (byte)numItems, (apsBindingItem_t *)pBuf, false );
   \                     ??ZDO_ProcessMgmtBindReq_4:
   \   0000B4                ; Setup parameters for call to function ZDP_MgmtBindRsp
   \   0000B4   75..00       MOV     ?V0 + 2,#0x0
   \   0000B7   78..         MOV     R0,#?V0 + 2
   \   0000B9   12....       LCALL   ?PUSH_XSTACK_I_ONE
   \   0000BC   78..         MOV     R0,#?V0 + 0
   \   0000BE   12....       LCALL   ?PUSH_XSTACK_I_TWO
   \   0000C1   EE           MOV     A,R6
   \   0000C2   F5..         MOV     ?V0 + 2,A
   \   0000C4   78..         MOV     R0,#?V0 + 2
   \   0000C6   12....       LCALL   ?PUSH_XSTACK_I_ONE
   \   0000C9   E5..         MOV     A,?V0 + 4
   \   0000CB   F5..         MOV     ?V0 + 2,A
   \   0000CD   78..         MOV     R0,#?V0 + 2
   \   0000CF   12....       LCALL   ?PUSH_XSTACK_I_ONE
   \   0000D2   7405         MOV     A,#0x5
   \   0000D4   12....       LCALL   ?XSTACK_DISP0_8
   \   0000D7   E0           MOVX    A,@DPTR
   \   0000D8   FD           MOV     R5,A
   \   0000D9   AC..         MOV     R4,?V0 + 5
   \   0000DB   E5..         MOV     A,?V0 + 12
   \   0000DD   2402         ADD     A,#0x2
   \   0000DF   FA           MOV     R2,A
   \   0000E0   E5..         MOV     A,?V0 + 13
   \   0000E2   3400         ADDC    A,#0x0
   \   0000E4   FB           MOV     R3,A
   \   0000E5   E5..         MOV     A,?V0 + 12
   \   0000E7   12....       LCALL   ?Subroutine147 & 0xFFFF
   \                     ??CrossCallReturnLabel_272:
   \   0000EA   E5..         MOV     A,?V0 + 13
   \   0000EC   12....       LCALL   ?Subroutine126 & 0xFFFF
   \                     ??CrossCallReturnLabel_236:
   \   0000EF   12....       LCALL   ??ZDP_MgmtBindRsp?relay
   \   0000F2   7405         MOV     A,#0x5
   \   0000F4   12....       LCALL   ?DEALLOC_XSTACK8
   1654          
   1655            if ( pBuf )
   \   0000F7   E5..         MOV     A,?V0 + 0
   \   0000F9   45..         ORL     A,?V0 + 1
   \   0000FB   6007         JZ      ??ZDO_ProcessMgmtBindReq_5
   1656            {
   1657              osal_mem_free( pBuf );
   \   0000FD                ; Setup parameters for call to function osal_mem_free
   \   0000FD   AA..         MOV     R2,?V0 + 0
   \   0000FF   AB..         MOV     R3,?V0 + 1
   \   000101   12....       LCALL   ??osal_mem_free?relay
   1658            }
   1659          #else
   1660            (void)inMsg;
   1661          #endif
   1662          }
   \                     ??ZDO_ProcessMgmtBindReq_5:
   \   000104   7402         MOV     A,#0x2
   \   000106   12....       LCALL   ?DEALLOC_XSTACK8
   \   000109   7F0E         MOV     R7,#0xe
   \   00010B   02....       LJMP    ?BANKED_LEAVE_XDATA

   \                                 In  segment BANKED_CODE, align 1, keep-with-next
   \                     ?Subroutine108:
   \   000000   85..82       MOV     DPL,?XSP + 0
   \   000003   85..83       MOV     DPH,?XSP + 1
   \   000006                REQUIRE ??Subroutine236_0
   \   000006                ; // Fall through to label ??Subroutine236_0
   1663          
   1664          /*********************************************************************
   1665           * @fn          ZDO_ProcessMgmtDirectJoinReq
   1666           *
   1667           * @brief       This function finishes the processing of the Management
   1668           *              Direct Join Request and generates the response.
   1669           *
   1670           * @param       inMsg - incoming message (request)
   1671           *
   1672           * @return      none
   1673           */

   \                                 In  segment BANKED_CODE, align 1, keep-with-next
   1674          void ZDO_ProcessMgmtDirectJoinReq( zdoIncomingMsg_t *inMsg )
   \                     ZDO_ProcessMgmtDirectJoinReq:
   1675          {
   \   000000   74F6         MOV     A,#-0xa
   \   000002   12....       LCALL   ?BANKED_ENTER_XDATA
   \   000005                ; Saved register size: 10
   \   000005                ; Auto size: 1
   \   000005   74FF         MOV     A,#-0x1
   \   000007   12....       LCALL   ?ALLOC_XSTACK8
   \   00000A   12....       LCALL   ?Subroutine145 & 0xFFFF
   1676            uint8 *deviceAddr;
   1677            uint8 capInfo;
   1678            uint8 stat;
   1679          
   1680            // Parse the message
   1681            deviceAddr = inMsg->asdu;
   1682            capInfo = inMsg->asdu[Z_EXTADDR_LEN];
   1683          
   1684            stat = (byte) NLME_DirectJoinRequest( deviceAddr, capInfo );
   \                     ??CrossCallReturnLabel_360:
   \   00000D   12....       LCALL   ??Subroutine248_0 & 0xFFFF
   \                     ??CrossCallReturnLabel_582:
   \   000010   12....       LCALL   ??Subroutine212_0 & 0xFFFF
   \                     ??CrossCallReturnLabel_382:
   \   000013                ; Setup parameters for call to function NLME_DirectJoinRequest
   \   000013   8A82         MOV     DPL,R2
   \   000015   8B83         MOV     DPH,R3
   \   000017   A3           INC     DPTR
   \   000018   A3           INC     DPTR
   \   000019   A3           INC     DPTR
   \   00001A   A3           INC     DPTR
   \   00001B   A3           INC     DPTR
   \   00001C   A3           INC     DPTR
   \   00001D   A3           INC     DPTR
   \   00001E   A3           INC     DPTR
   \   00001F   E0           MOVX    A,@DPTR
   \   000020   F9           MOV     R1,A
   \   000021   12....       LCALL   ??NLME_DirectJoinRequest?relay
   \   000024   E9           MOV     A,R1
   \   000025   85..82       MOV     DPL,?XSP + 0
   \   000028   85..83       MOV     DPH,?XSP + 1
   \   00002B   F0           MOVX    @DPTR,A
   1685          
   1686            ZDP_MgmtDirectJoinRsp( inMsg->TransSeq, &(inMsg->srcAddr), stat, false );
   \   00002C                ; Setup parameters for call to function ZDP_SendData
   \   00002C   75..00       MOV     ?V0 + 0,#0x0
   \   00002F   78..         MOV     R0,#?V0 + 0
   \   000031   12....       LCALL   ?PUSH_XSTACK_I_ONE
   \   000034   7401         MOV     A,#0x1
   \   000036   12....       LCALL   ?XSTACK_DISP0_8
   \   000039   8582..       MOV     ?V0 + 0,DPL
   \   00003C   8583..       MOV     ?V0 + 1,DPH
   \   00003F   78..         MOV     R0,#?V0 + 0
   \   000041   12....       LCALL   ?PUSH_XSTACK_I_TWO
   \   000044   75..35       MOV     ?V0 + 0,#0x35
   \   000047   75..80       MOV     ?V0 + 1,#-0x80
   \   00004A   78..         MOV     R0,#?V0 + 0
   \   00004C   12....       LCALL   ?PUSH_XSTACK_I_TWO
   \   00004F   12....       LCALL   ?Subroutine119 & 0xFFFF
   \                     ??CrossCallReturnLabel_218:
   \   000052   12....       LCALL   ?DEALLOC_XSTACK8
   1687          }
   \   000055                REQUIRE ?Subroutine10
   \   000055                ; // Fall through to label ?Subroutine10

   \                                 In  segment BANKED_CODE, align 1, keep-with-next
   \                     ?Subroutine10:
   \   000000   7401         MOV     A,#0x1
   \   000002   02....       LJMP    ??Subroutine204_0 & 0xFFFF
   1688          
   1689          /*********************************************************************
   1690           * @fn          ZDO_ProcessMgmtLeaveReq
   1691           *
   1692           * @brief       This function processes a Management Leave Request
   1693           *              and generates the response.
   1694           *
   1695           * @param       inMsg - incoming message (request)
   1696           *
   1697           * @return      none
   1698           */

   \                                 In  segment BANKED_CODE, align 1, keep-with-next
   1699          void ZDO_ProcessMgmtLeaveReq( zdoIncomingMsg_t *inMsg )
   \                     ZDO_ProcessMgmtLeaveReq:
   1700          {
   \   000000   74F4         MOV     A,#-0xc
   \   000002   12....       LCALL   ?BANKED_ENTER_XDATA
   \   000005                ; Saved register size: 12
   \   000005                ; Auto size: 6
   \   000005   74FA         MOV     A,#-0x6
   \   000007   12....       LCALL   ?ALLOC_XSTACK8
   \   00000A   8A..         MOV     ?V0 + 0,R2
   \   00000C   8B..         MOV     ?V0 + 1,R3
   1701            NLME_LeaveReq_t req;
   1702            ZStatus_t       status;
   1703            uint8           option;
   1704            uint8 *msg = inMsg->asdu;
   \   00000E   12....       LCALL   ?Subroutine94 & 0xFFFF
   1705          
   1706            if ( ( AddrMgrExtAddrValid( msg ) == FALSE                 ) ||
   1707                 ( osal_ExtAddrEqual( msg, NLME_GetExtAddr() ) == TRUE )    )
   \                     ??CrossCallReturnLabel_407:
   \   000011   FA           MOV     R2,A
   \   000012   EF           MOV     A,R7
   \   000013   FB           MOV     R3,A
   \   000014   12....       LCALL   ??AddrMgrExtAddrValid?relay
   \   000017   E9           MOV     A,R1
   \   000018   6013         JZ      ??ZDO_ProcessMgmtLeaveReq_0
   \   00001A                ; Setup parameters for call to function sAddrExtCmp
   \   00001A                ; Setup parameters for call to function NLME_GetExtAddr
   \   00001A   12....       LCALL   ??NLME_GetExtAddr?relay
   \   00001D   EA           MOV     A,R2
   \   00001E   FC           MOV     R4,A
   \   00001F   EB           MOV     A,R3
   \   000020   FD           MOV     R5,A
   \   000021   EE           MOV     A,R6
   \   000022   FA           MOV     R2,A
   \   000023   EF           MOV     A,R7
   \   000024   FB           MOV     R3,A
   \   000025   12....       LCALL   ??sAddrExtCmp?relay
   \   000028   E9           MOV     A,R1
   \   000029   6401         XRL     A,#0x1
   \   00002B   700A         JNZ     ??ZDO_ProcessMgmtLeaveReq_1
   1708            {
   1709              // Remove this device
   1710              req.extAddr = NULL;
   \                     ??ZDO_ProcessMgmtLeaveReq_0:
   \   00002D   7401         MOV     A,#0x1
   \   00002F   12....       LCALL   ?XSTACK_DISP0_8
   \   000032   E4           CLR     A
   \   000033   F0           MOVX    @DPTR,A
   \   000034   A3           INC     DPTR
   \   000035   8009         SJMP    ??ZDO_ProcessMgmtLeaveReq_2
   1711            }
   1712            else
   1713            {
   1714              // Remove child device
   1715              req.extAddr = msg;
   \                     ??ZDO_ProcessMgmtLeaveReq_1:
   \   000037   7401         MOV     A,#0x1
   \   000039   12....       LCALL   ?XSTACK_DISP0_8
   \   00003C   EE           MOV     A,R6
   \   00003D   F0           MOVX    @DPTR,A
   \   00003E   A3           INC     DPTR
   \   00003F   EF           MOV     A,R7
   1716            }
   \                     ??ZDO_ProcessMgmtLeaveReq_2:
   \   000040   12....       LCALL   ?Subroutine52 & 0xFFFF
   1717          
   1718            option = msg[Z_EXTADDR_LEN];
   \                     ??CrossCallReturnLabel_87:
   \   000043   A3           INC     DPTR
   \   000044   A3           INC     DPTR
   \   000045   A3           INC     DPTR
   \   000046   A3           INC     DPTR
   \   000047   A3           INC     DPTR
   \   000048   E0           MOVX    A,@DPTR
   \   000049   F8           MOV     R0,A
   1719            if ( option & ZDP_MGMT_LEAVE_REQ_RC )
   \   00004A   A2E6         MOV     C,0xE0 /* A   */.6
   \   00004C   5008         JNC     ??ZDO_ProcessMgmtLeaveReq_3
   1720            {
   1721              req.removeChildren = TRUE;
   \   00004E   7403         MOV     A,#0x3
   \   000050   12....       LCALL   ?XSTACK_DISP0_8
   \   000053   7401         MOV     A,#0x1
   \   000055   F0           MOVX    @DPTR,A
   1722            }
   1723          
   1724            if ( option & ZDP_MGMT_LEAVE_REQ_REJOIN )
   \                     ??ZDO_ProcessMgmtLeaveReq_3:
   \   000056   E8           MOV     A,R0
   \   000057   A2E7         MOV     C,0xE0 /* A   */.7
   \   000059   5008         JNC     ??ZDO_ProcessMgmtLeaveReq_4
   1725            {
   1726               req.rejoin = TRUE;
   \   00005B   7404         MOV     A,#0x4
   \   00005D   12....       LCALL   ?XSTACK_DISP0_8
   \   000060   7401         MOV     A,#0x1
   \   000062   F0           MOVX    @DPTR,A
   1727            }
   1728          
   1729            req.silent = FALSE;
   \                     ??ZDO_ProcessMgmtLeaveReq_4:
   \   000063   7405         MOV     A,#0x5
   \   000065   12....       LCALL   ?XSTACK_DISP0_8
   \   000068   E4           CLR     A
   \   000069   F0           MOVX    @DPTR,A
   1730          
   1731            status = NLME_LeaveReq( &req );
   \   00006A                ; Setup parameters for call to function NLME_LeaveReq
   \   00006A   04           INC     A
   \   00006B   12....       LCALL   ?XSTACK_DISP0_8
   \   00006E   AA82         MOV     R2,DPL
   \   000070   AB83         MOV     R3,DPH
   \   000072   12....       LCALL   ??NLME_LeaveReq?relay
   \   000075   E9           MOV     A,R1
   \   000076   85..82       MOV     DPL,?XSP + 0
   \   000079   85..83       MOV     DPH,?XSP + 1
   \   00007C   F0           MOVX    @DPTR,A
   1732          
   1733            ZDP_MgmtLeaveRsp( inMsg->TransSeq, &(inMsg->srcAddr), status, FALSE );
   \   00007D                ; Setup parameters for call to function ZDP_SendData
   \   00007D   75..00       MOV     ?V0 + 2,#0x0
   \   000080   78..         MOV     R0,#?V0 + 2
   \   000082   12....       LCALL   ?PUSH_XSTACK_I_ONE
   \   000085   7401         MOV     A,#0x1
   \   000087   12....       LCALL   ?XSTACK_DISP0_8
   \   00008A   8582..       MOV     ?V0 + 2,DPL
   \   00008D   8583..       MOV     ?V0 + 3,DPH
   \   000090   78..         MOV     R0,#?V0 + 2
   \   000092   12....       LCALL   ?PUSH_XSTACK_I_TWO
   \   000095   75..34       MOV     ?V0 + 2,#0x34
   \   000098   75..80       MOV     ?V0 + 3,#-0x80
   \   00009B   78..         MOV     R0,#?V0 + 2
   \   00009D   12....       LCALL   ?PUSH_XSTACK_I_TWO
   \   0000A0   7901         MOV     R1,#0x1
   \   0000A2   E5..         MOV     A,?V0 + 0
   \   0000A4   2402         ADD     A,#0x2
   \   0000A6   FC           MOV     R4,A
   \   0000A7   E5..         MOV     A,?V0 + 1
   \   0000A9   3400         ADDC    A,#0x0
   \   0000AB   FD           MOV     R5,A
   \   0000AC   E5..         MOV     A,?V0 + 0
   \   0000AE   240F         ADD     A,#0xf
   \   0000B0   FA           MOV     R2,A
   \   0000B1   E5..         MOV     A,?V0 + 1
   \   0000B3   12....       LCALL   ?Subroutine140 & 0xFFFF
   \                     ??CrossCallReturnLabel_254:
   \   0000B6   12....       LCALL   ?DEALLOC_XSTACK8
   1734          }
   \   0000B9   7406         MOV     A,#0x6
   \   0000BB   02....       LJMP    ?Subroutine1 & 0xFFFF

   \                                 In  segment BANKED_CODE, align 1, keep-with-next
   \                     ?Subroutine94:
   \   000000   12....       LCALL   ?Subroutine186 & 0xFFFF
   \                     ??CrossCallReturnLabel_605:
   \   000003                REQUIRE ??Subroutine216_0
   \   000003                ; // Fall through to label ??Subroutine216_0

   \                                 In  segment BANKED_CODE, align 1, keep-with-next
   \                     ?Subroutine140:
   \   000000   12....       LCALL   ?Subroutine187 & 0xFFFF
   \                     ??CrossCallReturnLabel_332:
   \   000003   22           RET

   \                                 In  segment BANKED_CODE, align 1, keep-with-next
   \                     ?Subroutine52:
   \   000000   12....       LCALL   ?Subroutine160 & 0xFFFF
   \                     ??CrossCallReturnLabel_288:
   \   000003   22           RET

   \                                 In  segment BANKED_CODE, align 1, keep-with-next
   \                     ?Subroutine160:
   \   000000   12....       LCALL   ?Subroutine195 & 0xFFFF
   \                     ??CrossCallReturnLabel_346:
   \   000003   A3           INC     DPTR
   \   000004   A3           INC     DPTR
   \   000005   22           RET
   1735          
   1736          
   1737          /*********************************************************************
   1738           * @fn          ZDO_ProcessMgmtPermitJoinReq
   1739           *
   1740           * @brief       This function processes a Management Permit Join Request
   1741           *              and generates the response.
   1742           *
   1743           * @param       inMsg - incoming message (request)
   1744           *
   1745           * @return      none
   1746           */

   \                                 In  segment BANKED_CODE, align 1, keep-with-next
   1747          void ZDO_ProcessMgmtPermitJoinReq( zdoIncomingMsg_t *inMsg )
   \                     ZDO_ProcessMgmtPermitJoinReq:
   1748          {
   \   000000   74F6         MOV     A,#-0xa
   \   000002   12....       LCALL   ?BANKED_ENTER_XDATA
   \   000005                ; Saved register size: 10
   \   000005                ; Auto size: 1
   \   000005   74FF         MOV     A,#-0x1
   \   000007   12....       LCALL   ?ALLOC_XSTACK8
   \   00000A   12....       LCALL   ?Subroutine145 & 0xFFFF
   1749            uint8 stat;
   1750            uint8 duration;
   1751            uint8 tcsig;
   1752          
   1753            duration = inMsg->asdu[ZDP_MGMT_PERMIT_JOIN_REQ_DURATION];
   1754            tcsig    = inMsg->asdu[ZDP_MGMT_PERMIT_JOIN_REQ_TC_SIG];
   1755          
   1756            // Set the network layer permit join duration
   1757            stat = (byte) NLME_PermitJoiningRequest( duration );
   \                     ??CrossCallReturnLabel_361:
   \   00000D   12....       LCALL   ?Subroutine72 & 0xFFFF
   \                     ??CrossCallReturnLabel_370:
   \   000010   F9           MOV     R1,A
   \   000011   12....       LCALL   ??NLME_PermitJoiningRequest?relay
   \   000014   E9           MOV     A,R1
   \   000015   85..82       MOV     DPL,?XSP + 0
   \   000018   85..83       MOV     DPH,?XSP + 1
   \   00001B   F0           MOVX    @DPTR,A
   1758          
   1759            // Handle the Trust Center Significance
   1760            if ( ZG_SECURE_ENABLED && ZG_BUILD_COORDINATOR_TYPE && ZG_DEVICE_COORDINATOR_TYPE )
   1761            {
   1762              if ( tcsig == TRUE )
   1763              {
   1764                ZDSecMgrPermitJoining( duration );
   1765              }
   1766            }
   1767          
   1768            // Send a response if unicast
   1769            if ( !inMsg->wasBroadcast )
   \   00001C   EE           MOV     A,R6
   \   00001D   240B         ADD     A,#0xb
   \   00001F   12....       LCALL   ??Subroutine217_0 & 0xFFFF
   \                     ??CrossCallReturnLabel_415:
   \   000022   7029         JNZ     ??ZDO_ProcessMgmtPermitJoinReq_0
   1770            {
   1771              ZDP_MgmtPermitJoinRsp( inMsg->TransSeq, &(inMsg->srcAddr), stat, false );
   \   000024                ; Setup parameters for call to function ZDP_SendData
   \   000024   75..00       MOV     ?V0 + 0,#0x0
   \   000027   78..         MOV     R0,#?V0 + 0
   \   000029   12....       LCALL   ?PUSH_XSTACK_I_ONE
   \   00002C   7401         MOV     A,#0x1
   \   00002E   12....       LCALL   ?XSTACK_DISP0_8
   \   000031   8582..       MOV     ?V0 + 0,DPL
   \   000034   8583..       MOV     ?V0 + 1,DPH
   \   000037   78..         MOV     R0,#?V0 + 0
   \   000039   12....       LCALL   ?PUSH_XSTACK_I_TWO
   \   00003C   75..36       MOV     ?V0 + 0,#0x36
   \   00003F   75..80       MOV     ?V0 + 1,#-0x80
   \   000042   78..         MOV     R0,#?V0 + 0
   \   000044   12....       LCALL   ?PUSH_XSTACK_I_TWO
   \   000047   12....       LCALL   ?Subroutine119 & 0xFFFF
   1772            }
   \                     ??CrossCallReturnLabel_219:
   \   00004A   12....       LCALL   ?DEALLOC_XSTACK8
   1773          }
   \                     ??ZDO_ProcessMgmtPermitJoinReq_0:
   \   00004D   02....       LJMP    ?Subroutine10 & 0xFFFF
   1774          
   1775          /*
   1776           * This function stub allows the next higher layer to be notified of
   1777           * a permit joining timeout.
   1778           */
   1779          /*********************************************************************
   1780           * @fn          ZDO_ProcessMgmtPermitJoinTimeout
   1781           *
   1782           * @brief       This function stub allows the next higher layer to be
   1783           *              notified of a permit joining timeout. Currently, this
   1784           *              directly bypasses the APS layer.
   1785           *
   1786           * @param       none
   1787           *
   1788           * @return      none
   1789           */

   \                                 In  segment BANKED_CODE, align 1, keep-with-next
   1790          void ZDO_ProcessMgmtPermitJoinTimeout( void )
   \                     NLME_PermitJoiningTimeout:
   1791          {
   \   000000                ; Saved register size: 0
   \   000000                ; Auto size: 0
   1792            #if defined( ZDO_MGMT_PERMIT_JOIN_RESPONSE )
   1793            // Currently, only the ZDSecMgr needs to be notified
   1794            if ( ZG_SECURE_ENABLED && ZG_BUILD_COORDINATOR_TYPE && ZG_DEVICE_COORDINATOR_TYPE )
   1795            {
   1796              ZDSecMgrPermitJoiningTimeout();
   1797            }
   1798            #endif
   1799          }
   \   000000   02....       LJMP    ?BRET
   1800          
   1801          /*********************************************************************
   1802           * @fn          ZDO_ProcessUserDescReq
   1803           *
   1804           * @brief       This function finishes the processing of the User
   1805           *              Descriptor Request and generates the response.
   1806           *
   1807           * @param       inMsg - incoming message (request)
   1808           *
   1809           * @return      none
   1810           */

   \                                 In  segment BANKED_CODE, align 1, keep-with-next
   1811          void ZDO_ProcessUserDescReq( zdoIncomingMsg_t *inMsg )
   \                     ZDO_ProcessUserDescReq:
   1812          {
   \   000000   74F4         MOV     A,#-0xc
   \   000002   12....       LCALL   ?BANKED_ENTER_XDATA
   \   000005                ; Saved register size: 12
   \   000005                ; Auto size: 17
   \   000005   74EF         MOV     A,#-0x11
   \   000007   12....       LCALL   ?ALLOC_XSTACK8
   \   00000A   EA           MOV     A,R2
   \   00000B   FE           MOV     R6,A
   \   00000C   EB           MOV     A,R3
   \   00000D   FF           MOV     R7,A
   1813            uint16 aoi = BUILD_UINT16( inMsg->asdu[0], inMsg->asdu[1] );
   \   00000E   12....       LCALL   ?Subroutine68 & 0xFFFF
   1814            UserDescriptorFormat_t userDesc;
   1815          
   1816            if ( (aoi == ZDAppNwkAddr.addr.shortAddr) && (ZSUCCESS == osal_nv_read(
   1817                       ZCD_NV_USERDESC, 0, sizeof(UserDescriptorFormat_t), &userDesc )) )
   \                     ??CrossCallReturnLabel_354:
   \   000011   90....       MOV     DPTR,#ZDAppNwkAddr
   \   000014   E0           MOVX    A,@DPTR
   \   000015   65..         XRL     A,?V0 + 0
   \   000017   7004         JNZ     ??ZDO_ProcessUserDescReq_0
   \   000019   A3           INC     DPTR
   \   00001A   E0           MOVX    A,@DPTR
   \   00001B   65..         XRL     A,?V0 + 1
   \                     ??ZDO_ProcessUserDescReq_0:
   \   00001D   7058         JNZ     ??ZDO_ProcessUserDescReq_1
   \   00001F                ; Setup parameters for call to function osal_nv_read
   \   00001F   85..82       MOV     DPL,?XSP + 0
   \   000022   85..83       MOV     DPH,?XSP + 1
   \   000025   8582..       MOV     ?V0 + 2,DPL
   \   000028   8583..       MOV     ?V0 + 3,DPH
   \   00002B   78..         MOV     R0,#?V0 + 2
   \   00002D   12....       LCALL   ?PUSH_XSTACK_I_TWO
   \   000030   75..11       MOV     ?V0 + 2,#0x11
   \   000033   75..00       MOV     ?V0 + 3,#0x0
   \   000036   78..         MOV     R0,#?V0 + 2
   \   000038   12....       LCALL   ?PUSH_XSTACK_I_TWO
   \   00003B   7C00         MOV     R4,#0x0
   \   00003D   7D00         MOV     R5,#0x0
   \   00003F   7A81         MOV     R2,#-0x7f
   \   000041   7B00         MOV     R3,#0x0
   \   000043   12....       LCALL   ??osal_nv_read?relay
   \   000046   7404         MOV     A,#0x4
   \   000048   12....       LCALL   ?DEALLOC_XSTACK8
   \   00004B   E9           MOV     A,R1
   \   00004C   7029         JNZ     ??ZDO_ProcessUserDescReq_1
   1818            {
   1819              ZDP_UserDescRsp( inMsg->TransSeq, &(inMsg->srcAddr), aoi, &userDesc, false );
   \   00004E                ; Setup parameters for call to function ZDP_UserDescRsp
   \   00004E   75..00       MOV     ?V0 + 2,#0x0
   \   000051   78..         MOV     R0,#?V0 + 2
   \   000053   12....       LCALL   ?PUSH_XSTACK_I_ONE
   \   000056   7401         MOV     A,#0x1
   \   000058   12....       LCALL   ?XSTACK_DISP0_8
   \   00005B   8582..       MOV     ?V0 + 2,DPL
   \   00005E   8583..       MOV     ?V0 + 3,DPH
   \   000061   78..         MOV     R0,#?V0 + 2
   \   000063   12....       LCALL   ?PUSH_XSTACK_I_TWO
   \   000066   AC..         MOV     R4,?V0 + 0
   \   000068   AD..         MOV     R5,?V0 + 1
   \   00006A   12....       LCALL   ?Subroutine120 & 0xFFFF
   1820            }
   \                     ??CrossCallReturnLabel_221:
   \   00006D   12....       LCALL   ??ZDP_UserDescRsp?relay
   \   000070   7403         MOV     A,#0x3
   \   000072   12....       LCALL   ?DEALLOC_XSTACK8
   \   000075   8021         SJMP    ??ZDO_ProcessUserDescReq_2
   1821            else
   1822            {
   1823              ZDP_GenericRsp(inMsg->TransSeq, &(inMsg->srcAddr),
   1824                     ZDP_NOT_SUPPORTED, aoi, User_Desc_rsp, inMsg->SecurityUse );
   \                     ??ZDO_ProcessUserDescReq_1:
   \   000077                ; Setup parameters for call to function ZDP_GenericRsp
   \   000077   75..11       MOV     ?V0 + 2,#0x11
   \   00007A   75..80       MOV     ?V0 + 3,#-0x80
   \   00007D   78..         MOV     R0,#?V0 + 2
   \   00007F   12....       LCALL   ?PUSH_XSTACK_I_TWO
   \   000082   78..         MOV     R0,#?V0 + 0
   \   000084   12....       LCALL   ?PUSH_XSTACK_I_TWO
   \   000087   12....       LCALL   ?Subroutine135 & 0xFFFF
   1825            }
   \                     ??CrossCallReturnLabel_421:
   \   00008A   FD           MOV     R5,A
   \   00008B   7C84         MOV     R4,#-0x7c
   \   00008D   12....       LCALL   ?Subroutine120 & 0xFFFF
   \                     ??CrossCallReturnLabel_222:
   \   000090   12....       LCALL   ??ZDP_GenericRsp?relay
   \   000093   7404         MOV     A,#0x4
   \   000095   12....       LCALL   ?DEALLOC_XSTACK8
   1826          }
   \                     ??ZDO_ProcessUserDescReq_2:
   \   000098   7411         MOV     A,#0x11
   \   00009A                REQUIRE ?Subroutine1
   \   00009A                ; // Fall through to label ?Subroutine1
   1827          
   1828          /*********************************************************************
   1829           * @fn          ZDO_ProcessUserDescSet
   1830           *
   1831           * @brief       This function finishes the processing of the User
   1832           *              Descriptor Set and generates the response.
   1833           *
   1834           * @param       inMsg - incoming message (request)
   1835           *
   1836           * @return      none
   1837           */

   \                                 In  segment BANKED_CODE, align 1, keep-with-next
   1838          void ZDO_ProcessUserDescSet( zdoIncomingMsg_t *inMsg )
   \                     ZDO_ProcessUserDescSet:
   1839          {
   \   000000   74F1         MOV     A,#-0xf
   \   000002   12....       LCALL   ?BANKED_ENTER_XDATA
   \   000005                ; Saved register size: 15
   \   000005                ; Auto size: 21
   \   000005   74EB         MOV     A,#-0x15
   \   000007   12....       LCALL   ?ALLOC_XSTACK8
   \   00000A   8A..         MOV     ?V0 + 2,R2
   \   00000C   8B..         MOV     ?V0 + 3,R3
   1840            uint8 *msg;
   1841            uint16 aoi;
   1842            UserDescriptorFormat_t userDesc;
   1843            uint8 outMsg[3];
   1844            uint8 status;
   1845          
   1846            msg = inMsg->asdu;
   \   00000E   12....       LCALL   ?Subroutine146 & 0xFFFF
   \                     ??CrossCallReturnLabel_265:
   \   000011   12....       LCALL   ?Subroutine83 & 0xFFFF
   1847            aoi = BUILD_UINT16( msg[0], msg[1] );
   \                     ??CrossCallReturnLabel_151:
   \   000014   2400         ADD     A,#0x0
   \   000016   FE           MOV     R6,A
   \   000017   E4           CLR     A
   \   000018   3B           ADDC    A,R3
   \   000019   FF           MOV     R7,A
   1848          
   1849            if ( aoi == ZDAppNwkAddr.addr.shortAddr )
   \   00001A   90....       MOV     DPTR,#ZDAppNwkAddr
   \   00001D   E0           MOVX    A,@DPTR
   \   00001E   6E           XRL     A,R6
   \   00001F   7003         JNZ     ??ZDO_ProcessUserDescSet_0
   \   000021   A3           INC     DPTR
   \   000022   E0           MOVX    A,@DPTR
   \   000023   6F           XRL     A,R7
   \                     ??ZDO_ProcessUserDescSet_0:
   \   000024   6003         JZ      $+5
   \   000026   02....       LJMP    ??ZDO_ProcessUserDescSet_1 & 0xFFFF
   1850            {
   1851              userDesc.len = (msg[2] < AF_MAX_USER_DESCRIPTOR_LEN) ? msg[2] : AF_MAX_USER_DESCRIPTOR_LEN;
   \   000029   8882         MOV     DPL,R0
   \   00002B   8983         MOV     DPH,R1
   \   00002D   A3           INC     DPTR
   \   00002E   A3           INC     DPTR
   \   00002F   E0           MOVX    A,@DPTR
   \   000030   FA           MOV     R2,A
   \   000031   9410         SUBB    A,#0x10
   \   000033   5004         JNC     ??ZDO_ProcessUserDescSet_2
   \   000035   8A..         MOV     ?V0 + 0,R2
   \   000037   8003         SJMP    ??ZDO_ProcessUserDescSet_3
   \                     ??ZDO_ProcessUserDescSet_2:
   \   000039   75..10       MOV     ?V0 + 0,#0x10
   \                     ??ZDO_ProcessUserDescSet_3:
   \   00003C   7404         MOV     A,#0x4
   \   00003E   12....       LCALL   ?XSTACK_DISP0_8
   \   000041   E5..         MOV     A,?V0 + 0
   \   000043   12....       LCALL   ?Subroutine51 & 0xFFFF
   1852              msg ++;  // increment one for the length field
   1853          
   1854              osal_memcpy( userDesc.desc, &msg[2], userDesc.len );
   \                     ??CrossCallReturnLabel_84:
   \   000046   A3           INC     DPTR
   \   000047   A3           INC     DPTR
   \   000048   A982         MOV     R1,DPL
   \   00004A   AA83         MOV     R2,DPH
   \   00004C   89..         MOV     ?V0 + 4,R1
   \   00004E   8A..         MOV     ?V0 + 5,R2
   \   000050   75..00       MOV     ?V0 + 6,#0x0
   \   000053   78..         MOV     R0,#?V0 + 4
   \   000055   12....       LCALL   ?PUSH_XSTACK_I_THREE
   \   000058   7407         MOV     A,#0x7
   \   00005A   12....       LCALL   ?XSTACK_DISP0_8
   \   00005D   E0           MOVX    A,@DPTR
   \   00005E   FC           MOV     R4,A
   \   00005F   7D00         MOV     R5,#0x0
   \   000061   7408         MOV     A,#0x8
   \   000063   12....       LCALL   ?XSTACK_DISP0_8
   \   000066   AA82         MOV     R2,DPL
   \   000068   AB83         MOV     R3,DPH
   \   00006A   12....       LCALL   ??Subroutine231_0 & 0xFFFF
   \                     ??CrossCallReturnLabel_477:
   \   00006D   12....       LCALL   ?DEALLOC_XSTACK8
   1855              osal_nv_write( ZCD_NV_USERDESC, 0, sizeof(UserDescriptorFormat_t), &userDesc );
   \   000070                ; Setup parameters for call to function osal_nv_write
   \   000070   7404         MOV     A,#0x4
   \   000072   12....       LCALL   ?XSTACK_DISP0_8
   \   000075   8582..       MOV     ?V0 + 4,DPL
   \   000078   8583..       MOV     ?V0 + 5,DPH
   \   00007B   78..         MOV     R0,#?V0 + 4
   \   00007D   12....       LCALL   ?PUSH_XSTACK_I_TWO
   \   000080   75..11       MOV     ?V0 + 4,#0x11
   \   000083   75..00       MOV     ?V0 + 5,#0x0
   \   000086   78..         MOV     R0,#?V0 + 4
   \   000088   12....       LCALL   ?PUSH_XSTACK_I_TWO
   \   00008B   7C00         MOV     R4,#0x0
   \   00008D   7D00         MOV     R5,#0x0
   \   00008F   7A81         MOV     R2,#-0x7f
   \   000091   7B00         MOV     R3,#0x0
   \   000093   12....       LCALL   ??osal_nv_write?relay
   \   000096   7404         MOV     A,#0x4
   \   000098   12....       LCALL   ?DEALLOC_XSTACK8
   1856              if ( userDesc.len != 0 )
   \   00009B   7404         MOV     A,#0x4
   \   00009D   12....       LCALL   ?XSTACK_DISP0_8
   \   0000A0   E0           MOVX    A,@DPTR
   \   0000A1   90....       MOV     DPTR,#ZDO_Config_Node_Descriptor
   \   0000A4   6005         JZ      ??ZDO_ProcessUserDescSet_4
   1857              {
   1858                ZDO_Config_Node_Descriptor.UserDescAvail = TRUE;
   \   0000A6   E0           MOVX    A,@DPTR
   \   0000A7   D2E4         SETB    0xE0 /* A   */.4
   \   0000A9   8003         SJMP    ??ZDO_ProcessUserDescSet_5
   1859              }
   1860              else
   1861              {
   1862                ZDO_Config_Node_Descriptor.UserDescAvail = FALSE;
   \                     ??ZDO_ProcessUserDescSet_4:
   \   0000AB   E0           MOVX    A,@DPTR
   \   0000AC   C2E4         CLR     0xE0 /* A   */.4
   1863              }
   1864          
   1865              status = ZDP_SUCCESS;
   1866            }
   \                     ??ZDO_ProcessUserDescSet_5:
   \   0000AE   12....       LCALL   ?Subroutine155 & 0xFFFF
   \                     ??CrossCallReturnLabel_282:
   \   0000B1   E4           CLR     A
   \   0000B2   8008         SJMP    ??ZDO_ProcessUserDescSet_6
   1867            else
   1868            {
   1869              status =  ZDP_NOT_SUPPORTED;
   \                     ??ZDO_ProcessUserDescSet_1:
   \   0000B4   85..82       MOV     DPL,?XSP + 0
   \   0000B7   85..83       MOV     DPH,?XSP + 1
   \   0000BA   7484         MOV     A,#-0x7c
   \                     ??ZDO_ProcessUserDescSet_6:
   \   0000BC   F0           MOVX    @DPTR,A
   1870            }
   1871          
   1872            outMsg[0] = status;
   \   0000BD   E0           MOVX    A,@DPTR
   \   0000BE   C0E0         PUSH    A
   \   0000C0   7401         MOV     A,#0x1
   \   0000C2   12....       LCALL   ?XSTACK_DISP0_8
   \   0000C5   D0E0         POP     A
   \   0000C7   F0           MOVX    @DPTR,A
   1873            outMsg[1] = LO_UINT16( aoi );
   \   0000C8   7402         MOV     A,#0x2
   \   0000CA   12....       LCALL   ?XSTACK_DISP0_8
   \   0000CD   EE           MOV     A,R6
   \   0000CE   F0           MOVX    @DPTR,A
   1874            outMsg[2] = LO_UINT16( aoi );
   \   0000CF   7403         MOV     A,#0x3
   \   0000D1   12....       LCALL   ?XSTACK_DISP0_8
   \   0000D4   EE           MOV     A,R6
   \   0000D5   F0           MOVX    @DPTR,A
   1875          
   1876            ZDP_SendData( &(inMsg->TransSeq), &(inMsg->srcAddr), User_Desc_conf, 3, outMsg,
   1877                         inMsg->SecurityUse );
   \   0000D6                ; Setup parameters for call to function ZDP_SendData
   \   0000D6   E5..         MOV     A,?V0 + 2
   \   0000D8   240E         ADD     A,#0xe
   \   0000DA   F582         MOV     DPL,A
   \   0000DC   E5..         MOV     A,?V0 + 3
   \   0000DE   12....       LCALL   ??Subroutine218_0 & 0xFFFF
   \                     ??CrossCallReturnLabel_413:
   \   0000E1   F5..         MOV     ?V0 + 1,A
   \   0000E3   78..         MOV     R0,#?V0 + 1
   \   0000E5   12....       LCALL   ?PUSH_XSTACK_I_ONE
   \   0000E8   7402         MOV     A,#0x2
   \   0000EA   12....       LCALL   ?XSTACK_DISP0_8
   \   0000ED   8582..       MOV     ?V0 + 4,DPL
   \   0000F0   8583..       MOV     ?V0 + 5,DPH
   \   0000F3   78..         MOV     R0,#?V0 + 4
   \   0000F5   12....       LCALL   ?PUSH_XSTACK_I_TWO
   \   0000F8   75..14       MOV     ?V0 + 4,#0x14
   \   0000FB   75..80       MOV     ?V0 + 5,#-0x80
   \   0000FE   78..         MOV     R0,#?V0 + 4
   \   000100   12....       LCALL   ?PUSH_XSTACK_I_TWO
   \   000103   7903         MOV     R1,#0x3
   \   000105   E5..         MOV     A,?V0 + 2
   \   000107   2402         ADD     A,#0x2
   \   000109   FC           MOV     R4,A
   \   00010A   E5..         MOV     A,?V0 + 3
   \   00010C   3400         ADDC    A,#0x0
   \   00010E   FD           MOV     R5,A
   \   00010F   E5..         MOV     A,?V0 + 2
   \   000111   240F         ADD     A,#0xf
   \   000113   FA           MOV     R2,A
   \   000114   E5..         MOV     A,?V0 + 3
   \   000116   12....       LCALL   ?Subroutine140 & 0xFFFF
   \                     ??CrossCallReturnLabel_255:
   \   000119   12....       LCALL   ?DEALLOC_XSTACK8
   1878          }
   \   00011C   7415         MOV     A,#0x15
   \   00011E   02....       LJMP    ?Subroutine5 & 0xFFFF

   \                                 In  segment BANKED_CODE, align 1, keep-with-next
   \                     ??Subroutine231_0:
   \   000000   12....       LCALL   ?Subroutine192 & 0xFFFF
   \                     ??CrossCallReturnLabel_552:
   \   000003   22           RET

   \                                 In  segment BANKED_CODE, align 1, keep-with-next
   \                     ?Subroutine51:
   \   000000   12....       LCALL   ?Subroutine158 & 0xFFFF
   \                     ??CrossCallReturnLabel_533:
   \   000003   22           RET

   \                                 In  segment BANKED_CODE, align 1, keep-with-next
   \                     ?Subroutine158:
   \   000000   F0           MOVX    @DPTR,A
   \   000001                ; Setup parameters for call to function osal_memcpy
   \   000001   8882         MOV     DPL,R0
   \   000003   8983         MOV     DPH,R1
   \   000005   A3           INC     DPTR
   \   000006   22           RET
   1879          
   1880          /*********************************************************************
   1881           * @fn          ZDO_ProcessDeviceAnnce
   1882           *
   1883           * @brief       This function processes a device annouce message.
   1884           *
   1885           * @param       inMsg - incoming message
   1886           *
   1887           * @return      none
   1888           */

   \                                 In  segment BANKED_CODE, align 1, keep-with-next
   \                     ?Subroutine110:
   \   000000   AC82         MOV     R4,DPL
   \   000002   AD83         MOV     R5,DPH
   \   000004                REQUIRE ??Subroutine211_0
   \   000004                ; // Fall through to label ??Subroutine211_0

   \                                 In  segment BANKED_CODE, align 1, keep-with-next
   \                     ??Subroutine211_0:
   \   000000   85..82       MOV     DPL,?XSP + 0
   \   000003   85..83       MOV     DPH,?XSP + 1
   \   000006                REQUIRE ??Subroutine212_0
   \   000006                ; // Fall through to label ??Subroutine212_0

   \                                 In  segment BANKED_CODE, align 1, keep-with-next
   1889          void ZDO_ProcessDeviceAnnce( zdoIncomingMsg_t *inMsg )
   \                     ZDO_ProcessDeviceAnnce:
   1890          {
   \   000000   74F6         MOV     A,#-0xa
   \   000002   12....       LCALL   ?BANKED_ENTER_XDATA
   \   000005                ; Saved register size: 10
   \   000005                ; Auto size: 32
   \   000005   74E0         MOV     A,#-0x20
   \   000007   12....       LCALL   ?ALLOC_XSTACK8
   1891            ZDO_DeviceAnnce_t Annce;
   1892            AddrMgrEntry_t addrEntry;
   1893            uint8 parentExt[Z_EXTADDR_LEN];
   1894          
   1895            // Parse incoming message
   1896            ZDO_ParseDeviceAnnce( inMsg, &Annce );
   \   00000A                ; Setup parameters for call to function ZDO_ParseDeviceAnnce
   \   00000A   85..82       MOV     DPL,?XSP + 0
   \   00000D   85..83       MOV     DPH,?XSP + 1
   \   000010   AC82         MOV     R4,DPL
   \   000012   AD83         MOV     R5,DPH
   \   000014   12....       LCALL   ??ZDO_ParseDeviceAnnce?relay
   1897          
   1898            if ( ZSTACK_END_DEVICE_BUILD )
   1899            {
   1900              // Make sure the message didn't come from myself - end device only
   1901              if ( osal_ExtAddrEqual( NLME_GetExtAddr(), Annce.extAddr ) && Annce.nwkAddr == NLME_GetShortAddr() )
   \   000017                ; Setup parameters for call to function sAddrExtCmp
   \   000017   7402         MOV     A,#0x2
   \   000019   12....       LCALL   ?XSTACK_DISP0_8
   \   00001C   AE82         MOV     R6,DPL
   \   00001E   AF83         MOV     R7,DPH
   \   000020                ; Setup parameters for call to function NLME_GetExtAddr
   \   000020   12....       LCALL   ??NLME_GetExtAddr?relay
   \   000023   EE           MOV     A,R6
   \   000024   FC           MOV     R4,A
   \   000025   EF           MOV     A,R7
   \   000026   FD           MOV     R5,A
   \   000027   12....       LCALL   ??sAddrExtCmp?relay
   \   00002A   E9           MOV     A,R1
   \   00002B   601D         JZ      ??ZDO_ProcessDeviceAnnce_0
   \   00002D                ; Setup parameters for call to function NLME_GetShortAddr
   \   00002D   12....       LCALL   ??NLME_GetShortAddr?relay
   \   000030   8A..         MOV     ?V0 + 0,R2
   \   000032   8B..         MOV     ?V0 + 1,R3
   \   000034   A8..         MOV     R0,?V0 + 0
   \   000036   A9..         MOV     R1,?V0 + 1
   \   000038   85..82       MOV     DPL,?XSP + 0
   \   00003B   85..83       MOV     DPH,?XSP + 1
   \   00003E   E0           MOVX    A,@DPTR
   \   00003F   68           XRL     A,R0
   \   000040   7003         JNZ     ??ZDO_ProcessDeviceAnnce_1
   \   000042   A3           INC     DPTR
   \   000043   E0           MOVX    A,@DPTR
   \   000044   69           XRL     A,R1
   \                     ??ZDO_ProcessDeviceAnnce_1:
   \   000045   7003         JNZ     $+5
   \   000047   02....       LJMP    ??ZDO_ProcessDeviceAnnce_2 & 0xFFFF
   1902              {
   1903                return;
   1904              }
   1905            }
   1906          
   1907          #if defined ( ZIGBEE_STOCHASTIC_ADDRESSING )
   1908            // Clean up the neighbor table
   1909            nwkNeighborRemoveAllStranded();
   \                     ??ZDO_ProcessDeviceAnnce_0:
   \   00004A                ; Setup parameters for call to function nwkNeighborRemoveAllStranded
   \   00004A   12....       LCALL   ??nwkNeighborRemoveAllStranded?relay
   1910          
   1911            // If address conflict is detected, no need to update the address manager
   1912            if ( NLME_CheckNewAddrSet( Annce.nwkAddr, Annce.extAddr )== ZFailure )
   \   00004D                ; Setup parameters for call to function NLME_CheckNewAddrSet
   \   00004D   7402         MOV     A,#0x2
   \   00004F   12....       LCALL   ?XSTACK_DISP0_8
   \   000052   12....       LCALL   ?Subroutine110 & 0xFFFF
   \                     ??CrossCallReturnLabel_385:
   \   000055   12....       LCALL   ??NLME_CheckNewAddrSet?relay
   \   000058   E9           MOV     A,R1
   \   000059   6401         XRL     A,#0x1
   \   00005B   7003         JNZ     $+5
   \   00005D   02....       LJMP    ??ZDO_ProcessDeviceAnnce_2 & 0xFFFF
   1913            {
   1914              return;
   1915            }
   1916          #endif
   1917          
   1918          #if defined ( ZIGBEE_STOCHASTIC_ADDRESSING )
   1919            // Check for parent's address
   1920            NLME_GetCoordExtAddr( parentExt );
   \   000060                ; Setup parameters for call to function NLME_GetCoordExtAddr
   \   000060   7418         MOV     A,#0x18
   \   000062   12....       LCALL   ?XSTACK_DISP0_8
   \   000065   AA82         MOV     R2,DPL
   \   000067   AB83         MOV     R3,DPH
   \   000069   12....       LCALL   ??NLME_GetCoordExtAddr?relay
   1921            if ( osal_ExtAddrEqual( parentExt, Annce.extAddr ) )
   \   00006C                ; Setup parameters for call to function sAddrExtCmp
   \   00006C   7402         MOV     A,#0x2
   \   00006E   12....       LCALL   ?XSTACK_DISP0_8
   \   000071   AC82         MOV     R4,DPL
   \   000073   AD83         MOV     R5,DPH
   \   000075   7418         MOV     A,#0x18
   \   000077   12....       LCALL   ?XSTACK_DISP0_8
   \   00007A   AA82         MOV     R2,DPL
   \   00007C   AB83         MOV     R3,DPH
   \   00007E   12....       LCALL   ??sAddrExtCmp?relay
   \   000081   E9           MOV     A,R1
   \   000082   602C         JZ      ??ZDO_ProcessDeviceAnnce_3
   1922            {
   1923              if ( Annce.nwkAddr != NLME_GetCoordShortAddr() )
   \   000084                ; Setup parameters for call to function NLME_GetCoordShortAddr
   \   000084   12....       LCALL   ??NLME_GetCoordShortAddr?relay
   \   000087   8A..         MOV     ?V0 + 0,R2
   \   000089   8B..         MOV     ?V0 + 1,R3
   \   00008B   A8..         MOV     R0,?V0 + 0
   \   00008D   A9..         MOV     R1,?V0 + 1
   \   00008F   85..82       MOV     DPL,?XSP + 0
   \   000092   85..83       MOV     DPH,?XSP + 1
   \   000095   E0           MOVX    A,@DPTR
   \   000096   68           XRL     A,R0
   \   000097   7003         JNZ     ??ZDO_ProcessDeviceAnnce_4
   \   000099   A3           INC     DPTR
   \   00009A   E0           MOVX    A,@DPTR
   \   00009B   69           XRL     A,R1
   \                     ??ZDO_ProcessDeviceAnnce_4:
   \   00009C   6012         JZ      ??ZDO_ProcessDeviceAnnce_3
   1924              {
   1925                // Set the Parent's MAC's new short address
   1926                _NIB.nwkCoordAddress = Annce.nwkAddr;
   \   00009E   12....       LCALL   ?Subroutine108 & 0xFFFF
   \                     ??CrossCallReturnLabel_510:
   \   0000A1   90....       MOV     DPTR,#_NIB + 23
   \   0000A4   12....       LCALL   ??Subroutine213_0 & 0xFFFF
   1927                ZMacSetReq( ZMacCoordShortAddress, (byte*)&(_NIB.nwkCoordAddress) );
   \                     ??CrossCallReturnLabel_398:
   \   0000A7                ; Setup parameters for call to function ZMacSetReq
   \   0000A7   7A..         MOV     R2,#(_NIB + 23) & 0xff
   \   0000A9   7B..         MOV     R3,#((_NIB + 23) >> 8) & 0xff
   \   0000AB   794B         MOV     R1,#0x4b
   \   0000AD   12....       LCALL   ??ZMacSetReq?relay
   1928              }
   1929            }
   1930          
   1931            if ( ZSTACK_ROUTER_BUILD )
   1932            {
   1933              // If the device annce comes from a end device child that has moved
   1934              // to another parent, remove it from associated device list
   1935          
   1936              // If the dev annce is coming from other device's children,
   1937              // (The dev annce from its own children shall be unicast to itself,
   1938              // So check the mac destination address)
   1939              // Remove it from the associated device list. If it is not
   1940              // a child, no action will be taken in AssocRemove() anyway.
   1941              if ( inMsg->macDestAddr != NLME_GetShortAddr() )
   1942              {
   1943                associated_devices_t *dev_ptr;
   1944          
   1945                // If it's an end device child
   1946                dev_ptr = AssocGetWithExt( Annce.extAddr );
   1947                if ( dev_ptr )
   1948                {
   1949                  if ( dev_ptr->nodeRelation == CHILD_RFD ||
   1950                       dev_ptr->nodeRelation == CHILD_RFD_RX_IDLE )
   1951                  {
   1952                    AssocRemove( Annce.extAddr );
   1953                  }
   1954                }
   1955              }
   1956          
   1957              if ( Annce.nwkAddr != NLME_GetShortAddr() )
   1958              {
   1959                // If an associated device is found with matched extended Address,
   1960                // update its short address
   1961                if ( AssocChangeNwkAddr( Annce.nwkAddr, Annce.extAddr ) )
   1962                {
   1963                  // Set event to save NV
   1964                  ZDApp_NVUpdate();
   1965                }
   1966              }
   1967            }
   1968          
   1969            // Update the neighbor table
   1970            nwkNeighborUpdateNwkAddr( Annce.nwkAddr, Annce.extAddr );
   \                     ??ZDO_ProcessDeviceAnnce_3:
   \   0000B0                ; Setup parameters for call to function nwkNeighborUpdateNwkAddr
   \   0000B0   7402         MOV     A,#0x2
   \   0000B2   12....       LCALL   ?XSTACK_DISP0_8
   \   0000B5   12....       LCALL   ?Subroutine110 & 0xFFFF
   \                     ??CrossCallReturnLabel_386:
   \   0000B8   12....       LCALL   ??nwkNeighborUpdateNwkAddr?relay
   1971          
   1972            // Assume that the device has moved, remove existing routing entries
   1973            RTG_RemoveRtgEntry( Annce.nwkAddr, 0 );
   \   0000BB                ; Setup parameters for call to function RTG_RemoveRtgEntry
   \   0000BB   7900         MOV     R1,#0x0
   \   0000BD   12....       LCALL   ??Subroutine211_0 & 0xFFFF
   \                     ??CrossCallReturnLabel_384:
   \   0000C0   12....       LCALL   ??RTG_RemoveRtgEntry?relay
   1974          
   1975          #endif // ZIGBEE_STOCHASTIC_ADDRESSING
   1976          
   1977            // Fill in the extended address in address manager if we don't have it already.
   1978            addrEntry.user = ADDRMGR_USER_DEFAULT;
   \   0000C3   740B         MOV     A,#0xb
   \   0000C5   12....       LCALL   ?XSTACK_DISP0_8
   \   0000C8   E4           CLR     A
   \   0000C9   12....       LCALL   ?Subroutine23 & 0xFFFF
   1979            addrEntry.nwkAddr = Annce.nwkAddr;
   \                     ??CrossCallReturnLabel_23:
   \   0000CC   F8           MOV     R0,A
   \   0000CD   A3           INC     DPTR
   \   0000CE   E0           MOVX    A,@DPTR
   \   0000CF   F9           MOV     R1,A
   \   0000D0   740C         MOV     A,#0xc
   \   0000D2   12....       LCALL   ?XSTACK_DISP0_8
   \   0000D5   12....       LCALL   ??Subroutine213_0 & 0xFFFF
   1980            if ( AddrMgrEntryLookupNwk( &addrEntry ) )
   \                     ??CrossCallReturnLabel_399:
   \   0000D8                ; Setup parameters for call to function AddrMgrEntryLookupNwk
   \   0000D8   740B         MOV     A,#0xb
   \   0000DA   12....       LCALL   ?XSTACK_DISP0_8
   \   0000DD   AA82         MOV     R2,DPL
   \   0000DF   AB83         MOV     R3,DPH
   \   0000E1   12....       LCALL   ??AddrMgrEntryLookupNwk?relay
   \   0000E4   E9           MOV     A,R1
   \   0000E5   604B         JZ      ??ZDO_ProcessDeviceAnnce_5
   1981            {
   1982              osal_memset( parentExt, 0, Z_EXTADDR_LEN );
   \   0000E7                ; Setup parameters for call to function osal_memset
   \   0000E7   7C08         MOV     R4,#0x8
   \   0000E9   7D00         MOV     R5,#0x0
   \   0000EB   7900         MOV     R1,#0x0
   \   0000ED   7418         MOV     A,#0x18
   \   0000EF   12....       LCALL   ?XSTACK_DISP0_8
   \   0000F2   AA82         MOV     R2,DPL
   \   0000F4   AB83         MOV     R3,DPH
   \   0000F6   12....       LCALL   ??osal_memset?relay
   1983              if ( osal_ExtAddrEqual( parentExt, addrEntry.extAddr ) )
   \   0000F9                ; Setup parameters for call to function sAddrExtCmp
   \   0000F9   740E         MOV     A,#0xe
   \   0000FB   12....       LCALL   ?XSTACK_DISP0_8
   \   0000FE   AC82         MOV     R4,DPL
   \   000100   AD83         MOV     R5,DPH
   \   000102   7418         MOV     A,#0x18
   \   000104   12....       LCALL   ?XSTACK_DISP0_8
   \   000107   AA82         MOV     R2,DPL
   \   000109   AB83         MOV     R3,DPH
   \   00010B   12....       LCALL   ??sAddrExtCmp?relay
   \   00010E   E9           MOV     A,R1
   \   00010F   6021         JZ      ??ZDO_ProcessDeviceAnnce_5
   1984              {
   1985                AddrMgrExtAddrSet( addrEntry.extAddr, Annce.extAddr );
   \   000111                ; Setup parameters for call to function AddrMgrExtAddrSet
   \   000111   7402         MOV     A,#0x2
   \   000113   12....       LCALL   ?XSTACK_DISP0_8
   \   000116   AC82         MOV     R4,DPL
   \   000118   AD83         MOV     R5,DPH
   \   00011A   740E         MOV     A,#0xe
   \   00011C   12....       LCALL   ?XSTACK_DISP0_8
   \   00011F   AA82         MOV     R2,DPL
   \   000121   AB83         MOV     R3,DPH
   \   000123   12....       LCALL   ??AddrMgrExtAddrSet?relay
   1986                AddrMgrEntryUpdate( &addrEntry );
   \   000126                ; Setup parameters for call to function AddrMgrEntryUpdate
   \   000126   740B         MOV     A,#0xb
   \   000128   12....       LCALL   ?XSTACK_DISP0_8
   \   00012B   AA82         MOV     R2,DPL
   \   00012D   AB83         MOV     R3,DPH
   \   00012F   12....       LCALL   ??AddrMgrEntryUpdate?relay
   1987              }
   1988            }
   1989          
   1990            // Update the short address in address manager if it's been changed
   1991            AddrMgrExtAddrSet( addrEntry.extAddr, Annce.extAddr );
   \                     ??ZDO_ProcessDeviceAnnce_5:
   \   000132                ; Setup parameters for call to function AddrMgrExtAddrSet
   \   000132   7402         MOV     A,#0x2
   \   000134   12....       LCALL   ?XSTACK_DISP0_8
   \   000137   AC82         MOV     R4,DPL
   \   000139   AD83         MOV     R5,DPH
   \   00013B   740E         MOV     A,#0xe
   \   00013D   12....       LCALL   ?XSTACK_DISP0_8
   \   000140   AA82         MOV     R2,DPL
   \   000142   AB83         MOV     R3,DPH
   \   000144   12....       LCALL   ??AddrMgrExtAddrSet?relay
   1992            if ( AddrMgrEntryLookupExt( &addrEntry ) )
   \   000147                ; Setup parameters for call to function AddrMgrEntryLookupExt
   \   000147   740B         MOV     A,#0xb
   \   000149   12....       LCALL   ?XSTACK_DISP0_8
   \   00014C   AA82         MOV     R2,DPL
   \   00014E   AB83         MOV     R3,DPH
   \   000150   12....       LCALL   ??AddrMgrEntryLookupExt?relay
   \   000153   E9           MOV     A,R1
   \   000154   602E         JZ      ??ZDO_ProcessDeviceAnnce_2
   1993            {
   1994              if ( addrEntry.nwkAddr != Annce.nwkAddr )
   \   000156   740C         MOV     A,#0xc
   \   000158   12....       LCALL   ?XSTACK_DISP0_8
   \   00015B   12....       LCALL   ??Subroutine236_0 & 0xFFFF
   \                     ??CrossCallReturnLabel_505:
   \   00015E   85..82       MOV     DPL,?XSP + 0
   \   000161   85..83       MOV     DPH,?XSP + 1
   \   000164   E0           MOVX    A,@DPTR
   \   000165   68           XRL     A,R0
   \   000166   7003         JNZ     ??ZDO_ProcessDeviceAnnce_6
   \   000168   A3           INC     DPTR
   \   000169   E0           MOVX    A,@DPTR
   \   00016A   69           XRL     A,R1
   \                     ??ZDO_ProcessDeviceAnnce_6:
   \   00016B   6017         JZ      ??ZDO_ProcessDeviceAnnce_2
   1995              {
   1996                addrEntry.nwkAddr = Annce.nwkAddr;
   \   00016D   12....       LCALL   ?Subroutine108 & 0xFFFF
   \                     ??CrossCallReturnLabel_511:
   \   000170   740C         MOV     A,#0xc
   \   000172   12....       LCALL   ?XSTACK_DISP0_8
   \   000175   12....       LCALL   ??Subroutine213_0 & 0xFFFF
   1997                AddrMgrEntryUpdate( &addrEntry );
   \                     ??CrossCallReturnLabel_400:
   \   000178                ; Setup parameters for call to function AddrMgrEntryUpdate
   \   000178   740B         MOV     A,#0xb
   \   00017A   12....       LCALL   ?XSTACK_DISP0_8
   \   00017D   AA82         MOV     R2,DPL
   \   00017F   AB83         MOV     R3,DPH
   \   000181   12....       LCALL   ??AddrMgrEntryUpdate?relay
   \                     ??ZDO_ProcessDeviceAnnce_2:
   \   000184   7420         MOV     A,#0x20
   1998              }
   1999            }
   \   000186   02....       LJMP    ??Subroutine204_0 & 0xFFFF
   2000          }
   2001          
   2002          /*********************************************************************
   2003           * @fn          ZDO_BuildSimpleDescBuf
   2004           *
   2005           * @brief       Build a byte sequence representation of a Simple Descriptor.
   2006           *
   2007           * @param       buf  - pointer to a byte array big enough for data.
   2008           * @param       desc - SimpleDescriptionFormat_t *
   2009           *
   2010           * @return      none
   2011           */

   \                                 In  segment BANKED_CODE, align 1, keep-with-next
   2012          void ZDO_BuildSimpleDescBuf( uint8 *buf, SimpleDescriptionFormat_t *desc )
   \                     ZDO_BuildSimpleDescBuf:
   2013          {
   \   000000   74F5         MOV     A,#-0xb
   \   000002   12....       LCALL   ?BANKED_ENTER_XDATA
   \   000005                ; Saved register size: 11
   \   000005                ; Auto size: 0
   2014            byte cnt;
   2015            uint16 *ptr;
   2016          
   2017            *buf++ = desc->EndPoint;
   \   000005   8C82         MOV     DPL,R4
   \   000007   8D83         MOV     DPH,R5
   \   000009   12....       LCALL   ?Subroutine40 & 0xFFFF
   2018            *buf++ = HI_UINT16( desc->AppProfId );
   \                     ??CrossCallReturnLabel_59:
   \   00000C   A882         MOV     R0,DPL
   \   00000E   A983         MOV     R1,DPH
   \   000010   12....       LCALL   ?Subroutine22 & 0xFFFF
   2019            *buf++ = LO_UINT16( desc->AppProfId );
   2020            *buf++ = HI_UINT16( desc->AppDeviceId );
   \                     ??CrossCallReturnLabel_20:
   \   000013   EC           MOV     A,R4
   \   000014   2403         ADD     A,#0x3
   \   000016   F8           MOV     R0,A
   \   000017   ED           MOV     A,R5
   \   000018   12....       LCALL   ?Subroutine203 & 0xFFFF
   \                     ??CrossCallReturnLabel_492:
   \   00001B   12....       LCALL   ?Subroutine22 & 0xFFFF
   2021            *buf++ = LO_UINT16( desc->AppDeviceId );
   2022          
   2023            *buf++ = (byte)(desc->AppDevVer << 4);
   \                     ??CrossCallReturnLabel_21:
   \   00001E   8C82         MOV     DPL,R4
   \   000020   8D83         MOV     DPH,R5
   \   000022   A3           INC     DPTR
   \   000023   A3           INC     DPTR
   \   000024   A3           INC     DPTR
   \   000025   A3           INC     DPTR
   \   000026   A3           INC     DPTR
   \   000027   E0           MOVX    A,@DPTR
   \   000028   C4           SWAP    A
   \   000029   54F0         ANL     A,#0xf0
   \   00002B   12....       LCALL   ??Subroutine222_0 & 0xFFFF
   2024          
   2025            *buf++ = desc->AppNumInClusters;
   \                     ??CrossCallReturnLabel_427:
   \   00002E   EC           MOV     A,R4
   \   00002F   2406         ADD     A,#0x6
   \   000031   08           INC     R0
   \   000032   08           INC     R0
   \   000033   08           INC     R0
   \   000034   ED           MOV     A,R5
   \   000035   3400         ADDC    A,#0x0
   \   000037   F9           MOV     R1,A
   \   000038   E8           MOV     A,R0
   \   000039   FE           MOV     R6,A
   \   00003A   E9           MOV     A,R1
   \   00003B   FF           MOV     R7,A
   \   00003C   8E82         MOV     DPL,R6
   \   00003E   8F83         MOV     DPH,R7
   \   000040   12....       LCALL   ??Subroutine221_0 & 0xFFFF
   2026            ptr = desc->pAppInClusterList;
   \                     ??CrossCallReturnLabel_428:
   \   000043   8C82         MOV     DPL,R4
   \   000045   8D83         MOV     DPH,R5
   \   000047   12....       LCALL   ?Subroutine89 & 0xFFFF
   2027            for ( cnt = 0; cnt < desc->AppNumInClusters; ptr++, cnt++ )
   \                     ??CrossCallReturnLabel_161:
   \   00004A   600C         JZ      ??ZDO_BuildSimpleDescBuf_0
   2028            {
   2029              *buf++ = HI_UINT16( *ptr );
   \                     ??ZDO_BuildSimpleDescBuf_1:
   \   00004C   12....       LCALL   ?Subroutine14 & 0xFFFF
   2030              *buf++ = LO_UINT16( *ptr );
   2031            }
   \                     ??CrossCallReturnLabel_3:
   \   00004F   F5..         MOV     ?V0 + 0,A
   \   000051   E5..         MOV     A,?V0 + 2
   \   000053   C3           CLR     C
   \   000054   95..         SUBB    A,?V0 + 0
   \   000056   40F4         JC      ??ZDO_BuildSimpleDescBuf_1
   2032          
   2033            *buf++ = desc->AppNumOutClusters;
   \                     ??ZDO_BuildSimpleDescBuf_0:
   \   000058   EC           MOV     A,R4
   \   000059   2409         ADD     A,#0x9
   \   00005B   ED           MOV     A,R5
   \   00005C   3400         ADDC    A,#0x0
   \   00005E   0E           INC     R6
   \   00005F   0E           INC     R6
   \   000060   0E           INC     R6
   \   000061   FF           MOV     R7,A
   \   000062   8E82         MOV     DPL,R6
   \   000064   8F83         MOV     DPH,R7
   \   000066   12....       LCALL   ?Subroutine40 & 0xFFFF
   2034            ptr = desc->pAppOutClusterList;
   \                     ??CrossCallReturnLabel_60:
   \   000069   A3           INC     DPTR
   \   00006A   A3           INC     DPTR
   \   00006B   12....       LCALL   ?Subroutine89 & 0xFFFF
   2035            for ( cnt = 0; cnt < desc->AppNumOutClusters; ptr++, cnt++ )
   \                     ??CrossCallReturnLabel_162:
   \   00006E   600A         JZ      ??ZDO_BuildSimpleDescBuf_2
   2036            {
   2037              *buf++ = HI_UINT16( *ptr );
   \                     ??ZDO_BuildSimpleDescBuf_3:
   \   000070   12....       LCALL   ?Subroutine14 & 0xFFFF
   2038              *buf++ = LO_UINT16( *ptr );
   2039            }
   \                     ??CrossCallReturnLabel_4:
   \   000073   FC           MOV     R4,A
   \   000074   E5..         MOV     A,?V0 + 2
   \   000076   C3           CLR     C
   \   000077   9C           SUBB    A,R4
   \   000078   40F6         JC      ??ZDO_BuildSimpleDescBuf_3
   2040          }
   \                     ??ZDO_BuildSimpleDescBuf_2:
   \   00007A   7F03         MOV     R7,#0x3
   \   00007C   02....       LJMP    ?BANKED_LEAVE_XDATA

   \                                 In  segment BANKED_CODE, align 1, keep-with-next
   \                     ?Subroutine89:
   \   000000   A3           INC     DPTR
   \   000001   A3           INC     DPTR
   \   000002   A3           INC     DPTR
   \   000003   A3           INC     DPTR
   \   000004   A3           INC     DPTR
   \   000005   A3           INC     DPTR
   \   000006   A3           INC     DPTR
   \   000007   12....       LCALL   ?Subroutine174 & 0xFFFF
   \                     ??CrossCallReturnLabel_513:
   \   00000A   75..00       MOV     ?V0 + 2,#0x0
   \   00000D   8E82         MOV     DPL,R6
   \   00000F   8F83         MOV     DPH,R7
   \   000011   E0           MOVX    A,@DPTR
   \   000012   22           RET

   \                                 In  segment BANKED_CODE, align 1, keep-with-next
   \                     ?Subroutine40:
   \   000000   12....       LCALL   ?Subroutine171 & 0xFFFF
   \                     ??CrossCallReturnLabel_306:
   \   000003   8C82         MOV     DPL,R4
   \   000005   8D83         MOV     DPH,R5
   \   000007   A3           INC     DPTR
   \   000008   22           RET

   \                                 In  segment BANKED_CODE, align 1, keep-with-next
   \                     ?Subroutine22:
   \   000000   A3           INC     DPTR
   \   000001   12....       LCALL   ??Subroutine221_0 & 0xFFFF
   \                     ??CrossCallReturnLabel_429:
   \   000004   12....       LCALL   ?Subroutine154 & 0xFFFF
   \                     ??CrossCallReturnLabel_431:
   \   000007   22           RET

   \                                 In  segment BANKED_CODE, align 1, keep-with-next
   \                     ?Subroutine154:
   \   000000   8882         MOV     DPL,R0
   \   000002   8983         MOV     DPH,R1
   \   000004                REQUIRE ??Subroutine221_0
   \   000004                ; // Fall through to label ??Subroutine221_0

   \                                 In  segment BANKED_CODE, align 1, keep-with-next
   \                     ??Subroutine221_0:
   \   000000   E0           MOVX    A,@DPTR
   \   000001                REQUIRE ??Subroutine222_0
   \   000001                ; // Fall through to label ??Subroutine222_0

   \                                 In  segment BANKED_CODE, align 1, keep-with-next
   \                     ??Subroutine222_0:
   \   000000   8A82         MOV     DPL,R2
   \   000002   8B83         MOV     DPH,R3
   \   000004   F0           MOVX    @DPTR,A
   \   000005   A3           INC     DPTR
   \   000006   0A           INC     R2
   \   000007   AB83         MOV     R3,DPH
   \   000009   22           RET

   \                                 In  segment BANKED_CODE, align 1, keep-with-next
   \                     ?Subroutine14:
   \   000000   8882         MOV     DPL,R0
   \   000002   8983         MOV     DPH,R1
   \   000004   A3           INC     DPTR
   \   000005   12....       LCALL   ?Subroutine171 & 0xFFFF
   \                     ??CrossCallReturnLabel_305:
   \   000008   12....       LCALL   ?Subroutine154 & 0xFFFF
   \                     ??CrossCallReturnLabel_430:
   \   00000B   12....       LCALL   ?Subroutine176 & 0xFFFF
   \                     ??CrossCallReturnLabel_314:
   \   00000E   05..         INC     ?V0 + 2
   \   000010   8E82         MOV     DPL,R6
   \   000012   8F83         MOV     DPH,R7
   \   000014   E0           MOVX    A,@DPTR
   \   000015   22           RET

   \                                 In  segment BANKED_CODE, align 1, keep-with-next
   \                     ?Subroutine171:
   \   000000   E0           MOVX    A,@DPTR
   \   000001   8A82         MOV     DPL,R2
   \   000003   8B83         MOV     DPH,R3
   \   000005   F0           MOVX    @DPTR,A
   \   000006   A3           INC     DPTR
   \   000007   AA82         MOV     R2,DPL
   \   000009   AB83         MOV     R3,DPH
   \   00000B   22           RET

   \                                 In  segment BANKED_CODE, align 1, keep-with-next
   \                     ?Subroutine176:
   \   000000   E8           MOV     A,R0
   \   000001   2402         ADD     A,#0x2
   \   000003   08           INC     R0
   \   000004   08           INC     R0
   \   000005   E9           MOV     A,R1
   \   000006   3400         ADDC    A,#0x0
   \   000008   F9           MOV     R1,A
   \   000009   22           RET
   2041          
   2042          /*********************************************************************
   2043           * @fn      ZDO_MatchEndDeviceBind()
   2044           *
   2045           * @brief
   2046           *
   2047           *   Called to match end device binding requests
   2048           *
   2049           * @param  bindReq  - binding request information
   2050           * @param  SecurityUse - Security enable/disable
   2051           *
   2052           * @return  none
   2053           */

   \                                 In  segment BANKED_CODE, align 1, keep-with-next
   2054          void ZDO_MatchEndDeviceBind( ZDEndDeviceBind_t *bindReq )
   \                     ZDO_MatchEndDeviceBind:
   2055          {
   \   000000   74EC         MOV     A,#-0x14
   \   000002   12....       LCALL   ?BANKED_ENTER_XDATA
   \   000005                ; Saved register size: 20
   \   000005                ; Auto size: 10
   \   000005   74F6         MOV     A,#-0xa
   \   000007   12....       LCALL   ?ALLOC_XSTACK8
   \   00000A   EA           MOV     A,R2
   \   00000B   FE           MOV     R6,A
   \   00000C   EB           MOV     A,R3
   \   00000D   FF           MOV     R7,A
   2056            zAddrType_t dstAddr;
   2057            uint8 sendRsp = FALSE;
   \   00000E   75..00       MOV     ?V0 + 2,#0x0
   2058            uint8 status;
   2059          
   2060            // Is this the first request?
   2061            if ( matchED == NULL )
   \   000011   90....       MOV     DPTR,#matchED
   \   000014   12....       LCALL   ??Subroutine224_0 & 0xFFFF
   \                     ??CrossCallReturnLabel_443:
   \   000017   7042         JNZ     ??ZDO_MatchEndDeviceBind_0
   2062            {
   2063              // Create match info structure
   2064              matchED = (ZDMatchEndDeviceBind_t *)osal_mem_alloc( sizeof ( ZDMatchEndDeviceBind_t ) );
   \   000019                ; Setup parameters for call to function osal_mem_alloc
   \   000019   7A37         MOV     R2,#0x37
   \   00001B   7B00         MOV     R3,#0x0
   \   00001D   12....       LCALL   ??Subroutine223_0 & 0xFFFF
   \                     ??CrossCallReturnLabel_434:
   \   000020   12....       LCALL   ?Subroutine39 & 0xFFFF
   2065              if ( matchED )
   \                     ??CrossCallReturnLabel_55:
   \   000023   90....       MOV     DPTR,#matchED
   \   000026   12....       LCALL   ??Subroutine224_0 & 0xFFFF
   \                     ??CrossCallReturnLabel_444:
   \   000029   6019         JZ      ??ZDO_MatchEndDeviceBind_1
   2066              {
   2067                // Clear the structure
   2068                osal_memset( (uint8 *)matchED, 0, sizeof ( ZDMatchEndDeviceBind_t ) );
   \   00002B                ; Setup parameters for call to function osal_memset
   \   00002B   7C37         MOV     R4,#0x37
   \   00002D   7D00         MOV     R5,#0x0
   \   00002F   7900         MOV     R1,#0x0
   \   000031   12....       LCALL   ??osal_memset?relay
   2069          
   2070                // Copy the first request's information
   2071                if ( !ZDO_CopyMatchInfo( &(matchED->ed1), bindReq ) )
   \   000034                ; Setup parameters for call to function ZDO_CopyMatchInfo
   \   000034   EE           MOV     A,R6
   \   000035   FC           MOV     R4,A
   \   000036   EF           MOV     A,R7
   \   000037   FD           MOV     R5,A
   \   000038   90....       MOV     DPTR,#matchED
   \   00003B   12....       LCALL   ??Subroutine212_0 & 0xFFFF
   \                     ??CrossCallReturnLabel_383:
   \   00003E   12....       LCALL   ??ZDO_CopyMatchInfo?relay
   \   000041   E9           MOV     A,R1
   \   000042   700B         JNZ     ??ZDO_MatchEndDeviceBind_2
   2072                {
   2073                  status = ZDP_NO_ENTRY;
   \                     ??ZDO_MatchEndDeviceBind_1:
   \   000044   85..82       MOV     DPL,?XSP + 0
   \   000047   85..83       MOV     DPH,?XSP + 1
   \   00004A   7488         MOV     A,#-0x78
   \   00004C   02....       LJMP    ??ZDO_MatchEndDeviceBind_3 & 0xFFFF
   2074                  sendRsp = TRUE;
   2075                }
   2076              }
   2077              else
   2078              {
   2079                status = ZDP_NO_ENTRY;
   2080                sendRsp = TRUE;
   2081              }
   2082          
   2083              if ( !sendRsp )
   2084              {
   2085                // Set into the correct state
   2086                matchED->state = ZDMATCH_WAIT_REQ;
   \                     ??ZDO_MatchEndDeviceBind_2:
   \   00004F   12....       LCALL   ?Subroutine92 & 0xFFFF
   \                     ??CrossCallReturnLabel_165:
   \   000052   7401         MOV     A,#0x1
   \   000054   F0           MOVX    @DPTR,A
   2087          
   2088                // Setup the timeout
   2089                APS_SetEndDeviceBindTimeout( AIB_MaxBindingTime, ZDO_EndDeviceBindMatchTimeoutCB );
   \   000055                ; Setup parameters for call to function APS_SetEndDeviceBindTimeout
   \   000055   12....       LCALL   ?Subroutine109 & 0xFFFF
   2090              }
   2091            }
   \                     ??CrossCallReturnLabel_198:
   \   000058   02....       LJMP    ??ZDO_MatchEndDeviceBind_4 & 0xFFFF
   2092            else
   2093            {
   2094                matchED->state = ZDMATCH_SENDING_BINDS;
   \                     ??ZDO_MatchEndDeviceBind_0:
   \   00005B   12....       LCALL   ?Subroutine92 & 0xFFFF
   \                     ??CrossCallReturnLabel_166:
   \   00005E   7402         MOV     A,#0x2
   \   000060   F0           MOVX    @DPTR,A
   2095          
   2096                // Copy the 2nd request's information
   2097                if ( !ZDO_CopyMatchInfo( &(matchED->ed2), bindReq ) )
   \   000061                ; Setup parameters for call to function ZDO_CopyMatchInfo
   \   000061   EE           MOV     A,R6
   \   000062   FC           MOV     R4,A
   \   000063   EF           MOV     A,R7
   \   000064   FD           MOV     R5,A
   \   000065   12....       LCALL   ?Subroutine116 & 0xFFFF
   \                     ??CrossCallReturnLabel_210:
   \   000068   12....       LCALL   ??ZDO_CopyMatchInfo?relay
   \   00006B   E9           MOV     A,R1
   \   00006C   700C         JNZ     ??ZDO_MatchEndDeviceBind_5
   2098                {
   2099                  status = ZDP_NO_ENTRY;
   \   00006E   85..82       MOV     DPL,?XSP + 0
   \   000071   85..83       MOV     DPH,?XSP + 1
   \   000074   7488         MOV     A,#-0x78
   \   000076   F0           MOVX    @DPTR,A
   2100                  sendRsp = TRUE;
   \   000077   75..01       MOV     ?V0 + 2,#0x1
   2101                }
   2102          
   2103                // Make a source match for ed1
   2104                matchED->ed1numMatched = ZDO_CompareClusterLists(
   2105                            matchED->ed1.numOutClusters, matchED->ed1.outClusters,
   2106                            matchED->ed2.numInClusters, matchED->ed2.inClusters, ZDOBuildBuf );
   \                     ??ZDO_MatchEndDeviceBind_5:
   \   00007A   90....       MOV     DPTR,#matchED
   \   00007D   E0           MOVX    A,@DPTR
   \   00007E   2429         ADD     A,#0x29
   \   000080   12....       LCALL   ?Subroutine79 & 0xFFFF
   \                     ??CrossCallReturnLabel_143:
   \   000083   2428         ADD     A,#0x28
   \   000085   12....       LCALL   ?Subroutine86 & 0xFFFF
   \                     ??CrossCallReturnLabel_155:
   \   000088   2414         ADD     A,#0x14
   \   00008A   12....       LCALL   ?Subroutine91 & 0xFFFF
   \                     ??CrossCallReturnLabel_454:
   \   00008D   F5..         MOV     ?V0 + 0,A
   \   00008F   75..00       MOV     ?V0 + 4,#0x0
   \   000092   6053         JZ      ??ZDO_MatchEndDeviceBind_6
   \   000094   90....       MOV     DPTR,#matchED
   \   000097   E0           MOVX    A,@DPTR
   \   000098   2415         ADD     A,#0x15
   \   00009A   12....       LCALL   ?Subroutine90 & 0xFFFF
   \                     ??CrossCallReturnLabel_163:
   \   00009D   85....       MOV     ?V0 + 7,?V0 + 0
   \                     ??ZDO_MatchEndDeviceBind_7:
   \   0000A0   E5..         MOV     A,?V0 + 5
   \   0000A2   603A         JZ      ??ZDO_MatchEndDeviceBind_8
   \   0000A4   EC           MOV     A,R4
   \   0000A5   F8           MOV     R0,A
   \   0000A6   ED           MOV     A,R5
   \   0000A7   F9           MOV     R1,A
   \   0000A8   85....       MOV     ?V0 + 3,?V0 + 5
   \                     ??ZDO_MatchEndDeviceBind_9:
   \   0000AB   12....       LCALL   ?Subroutine88 & 0xFFFF
   \                     ??CrossCallReturnLabel_159:
   \   0000AE   7004         JNZ     ??ZDO_MatchEndDeviceBind_10
   \   0000B0   A3           INC     DPTR
   \   0000B1   E0           MOVX    A,@DPTR
   \   0000B2   65..         XRL     A,?V0 + 9
   \                     ??ZDO_MatchEndDeviceBind_10:
   \   0000B4   701F         JNZ     ??ZDO_MatchEndDeviceBind_11
   \   0000B6   E5..         MOV     A,?V0 + 4
   \   0000B8   C3           CLR     C
   \   0000B9   33           RLC     A
   \   0000BA   F5..         MOV     ?V0 + 0,A
   \   0000BC   E4           CLR     A
   \   0000BD   33           RLC     A
   \   0000BE   F5..         MOV     ?V0 + 1,A
   \   0000C0   74..         MOV     A,#ZDOBuildBuf & 0xff
   \   0000C2   25..         ADD     A,?V0 + 0
   \   0000C4   F582         MOV     DPL,A
   \   0000C6   74..         MOV     A,#(ZDOBuildBuf >> 8) & 0xff
   \   0000C8   35..         ADDC    A,?V0 + 1
   \   0000CA   F583         MOV     DPH,A
   \   0000CC   E5..         MOV     A,?V0 + 8
   \   0000CE   F0           MOVX    @DPTR,A
   \   0000CF   A3           INC     DPTR
   \   0000D0   E5..         MOV     A,?V0 + 9
   \   0000D2   F0           MOVX    @DPTR,A
   \   0000D3   05..         INC     ?V0 + 4
   \                     ??ZDO_MatchEndDeviceBind_11:
   \   0000D5   12....       LCALL   ?Subroutine123 & 0xFFFF
   \                     ??CrossCallReturnLabel_227:
   \   0000D8   15..         DEC     ?V0 + 3
   \   0000DA   E5..         MOV     A,?V0 + 3
   \   0000DC   70CD         JNZ     ??ZDO_MatchEndDeviceBind_9
   \                     ??ZDO_MatchEndDeviceBind_8:
   \   0000DE   12....       LCALL   ?Subroutine124 & 0xFFFF
   \                     ??CrossCallReturnLabel_229:
   \   0000E1   15..         DEC     ?V0 + 7
   \   0000E3   E5..         MOV     A,?V0 + 7
   \   0000E5   70B9         JNZ     ??ZDO_MatchEndDeviceBind_7
   \                     ??ZDO_MatchEndDeviceBind_6:
   \   0000E7   90....       MOV     DPTR,#matchED
   \   0000EA   E0           MOVX    A,@DPTR
   \   0000EB   2431         ADD     A,#0x31
   \   0000ED   12....       LCALL   ?Subroutine101 & 0xFFFF
   2107                if ( matchED->ed1numMatched )
   \                     ??CrossCallReturnLabel_183:
   \   0000F0   12....       LCALL   ?Subroutine61 & 0xFFFF
   \                     ??CrossCallReturnLabel_111:
   \   0000F3   6030         JZ      ??ZDO_MatchEndDeviceBind_12
   2108                {
   2109                  // Save the match list
   2110                  matchED->ed1Matched = osal_mem_alloc( (short)(matchED->ed1numMatched * sizeof ( uint16 )) );
   \   0000F5                ; Setup parameters for call to function osal_mem_alloc
   \   0000F5   12....       LCALL   ?Subroutine148 & 0xFFFF
   \                     ??CrossCallReturnLabel_432:
   \   0000F8   E0           MOVX    A,@DPTR
   \   0000F9   2432         ADD     A,#0x32
   \   0000FB   12....       LCALL   ?Subroutine36 & 0xFFFF
   2111                  if ( matchED->ed1Matched )
   \                     ??CrossCallReturnLabel_45:
   \   0000FE   6019         JZ      ??ZDO_MatchEndDeviceBind_13
   2112                  {
   2113                    osal_memcpy( matchED->ed1Matched, ZDOBuildBuf, (matchED->ed1numMatched * sizeof ( uint16 )) );
   \   000100                ; Setup parameters for call to function osal_memcpy
   \   000100   75....       MOV     ?V0 + 4,#ZDOBuildBuf & 0xff
   \   000103   75....       MOV     ?V0 + 5,#(ZDOBuildBuf >> 8) & 0xff
   \   000106   75..00       MOV     ?V0 + 6,#0x0
   \   000109   78..         MOV     R0,#?V0 + 4
   \   00010B   12....       LCALL   ?PUSH_XSTACK_I_THREE
   \   00010E   12....       LCALL   ?Subroutine61 & 0xFFFF
   2114                  }
   \                     ??CrossCallReturnLabel_112:
   \   000111   12....       LCALL   ?Subroutine149 & 0xFFFF
   \                     ??CrossCallReturnLabel_475:
   \   000114   12....       LCALL   ?DEALLOC_XSTACK8
   \   000117   800C         SJMP    ??ZDO_MatchEndDeviceBind_12
   2115                  else
   2116                  {
   2117                    // Allocation error, stop
   2118                    status = ZDP_NO_ENTRY;
   \                     ??ZDO_MatchEndDeviceBind_13:
   \   000119   85..82       MOV     DPL,?XSP + 0
   \   00011C   85..83       MOV     DPH,?XSP + 1
   \   00011F   7488         MOV     A,#-0x78
   \   000121   F0           MOVX    @DPTR,A
   2119                    sendRsp = TRUE;
   \   000122   75..01       MOV     ?V0 + 2,#0x1
   2120                  }
   2121                }
   2122          
   2123                // Make a source match for ed2
   2124                matchED->ed2numMatched = ZDO_CompareClusterLists(
   2125                            matchED->ed2.numOutClusters, matchED->ed2.outClusters,
   2126                            matchED->ed1.numInClusters, matchED->ed1.inClusters, ZDOBuildBuf );
   \                     ??ZDO_MatchEndDeviceBind_12:
   \   000125   90....       MOV     DPTR,#matchED
   \   000128   E0           MOVX    A,@DPTR
   \   000129   2412         ADD     A,#0x12
   \   00012B   12....       LCALL   ?Subroutine79 & 0xFFFF
   \                     ??CrossCallReturnLabel_144:
   \   00012E   2411         ADD     A,#0x11
   \   000130   12....       LCALL   ?Subroutine86 & 0xFFFF
   \                     ??CrossCallReturnLabel_156:
   \   000133   242B         ADD     A,#0x2b
   \   000135   12....       LCALL   ?Subroutine91 & 0xFFFF
   \                     ??CrossCallReturnLabel_455:
   \   000138   F5..         MOV     ?V0 + 1,A
   \   00013A   75..00       MOV     ?V0 + 4,#0x0
   \   00013D   6053         JZ      ??ZDO_MatchEndDeviceBind_14
   \   00013F   90....       MOV     DPTR,#matchED
   \   000142   E0           MOVX    A,@DPTR
   \   000143   242C         ADD     A,#0x2c
   \   000145   12....       LCALL   ?Subroutine90 & 0xFFFF
   \                     ??CrossCallReturnLabel_164:
   \   000148   85....       MOV     ?V0 + 0,?V0 + 1
   \                     ??ZDO_MatchEndDeviceBind_15:
   \   00014B   E5..         MOV     A,?V0 + 5
   \   00014D   603A         JZ      ??ZDO_MatchEndDeviceBind_16
   \   00014F   EC           MOV     A,R4
   \   000150   F8           MOV     R0,A
   \   000151   ED           MOV     A,R5
   \   000152   F9           MOV     R1,A
   \   000153   85....       MOV     ?V0 + 1,?V0 + 5
   \                     ??ZDO_MatchEndDeviceBind_17:
   \   000156   12....       LCALL   ?Subroutine88 & 0xFFFF
   \                     ??CrossCallReturnLabel_160:
   \   000159   7004         JNZ     ??ZDO_MatchEndDeviceBind_18
   \   00015B   A3           INC     DPTR
   \   00015C   E0           MOVX    A,@DPTR
   \   00015D   65..         XRL     A,?V0 + 9
   \                     ??ZDO_MatchEndDeviceBind_18:
   \   00015F   701F         JNZ     ??ZDO_MatchEndDeviceBind_19
   \   000161   E5..         MOV     A,?V0 + 4
   \   000163   C3           CLR     C
   \   000164   33           RLC     A
   \   000165   F5..         MOV     ?V0 + 10,A
   \   000167   E4           CLR     A
   \   000168   33           RLC     A
   \   000169   F5..         MOV     ?V0 + 11,A
   \   00016B   74..         MOV     A,#ZDOBuildBuf & 0xff
   \   00016D   25..         ADD     A,?V0 + 10
   \   00016F   F582         MOV     DPL,A
   \   000171   74..         MOV     A,#(ZDOBuildBuf >> 8) & 0xff
   \   000173   35..         ADDC    A,?V0 + 11
   \   000175   F583         MOV     DPH,A
   \   000177   E5..         MOV     A,?V0 + 8
   \   000179   F0           MOVX    @DPTR,A
   \   00017A   A3           INC     DPTR
   \   00017B   E5..         MOV     A,?V0 + 9
   \   00017D   F0           MOVX    @DPTR,A
   \   00017E   05..         INC     ?V0 + 4
   \                     ??ZDO_MatchEndDeviceBind_19:
   \   000180   12....       LCALL   ?Subroutine123 & 0xFFFF
   \                     ??CrossCallReturnLabel_228:
   \   000183   15..         DEC     ?V0 + 1
   \   000185   E5..         MOV     A,?V0 + 1
   \   000187   70CD         JNZ     ??ZDO_MatchEndDeviceBind_17
   \                     ??ZDO_MatchEndDeviceBind_16:
   \   000189   12....       LCALL   ?Subroutine124 & 0xFFFF
   \                     ??CrossCallReturnLabel_230:
   \   00018C   15..         DEC     ?V0 + 0
   \   00018E   E5..         MOV     A,?V0 + 0
   \   000190   70B9         JNZ     ??ZDO_MatchEndDeviceBind_15
   \                     ??ZDO_MatchEndDeviceBind_14:
   \   000192   90....       MOV     DPTR,#matchED
   \   000195   E0           MOVX    A,@DPTR
   \   000196   2434         ADD     A,#0x34
   \   000198   12....       LCALL   ?Subroutine101 & 0xFFFF
   2127                if ( matchED->ed2numMatched )
   \                     ??CrossCallReturnLabel_184:
   \   00019B   12....       LCALL   ?Subroutine69 & 0xFFFF
   \                     ??CrossCallReturnLabel_473:
   \   00019E   6022         JZ      ??ZDO_MatchEndDeviceBind_20
   2128                {
   2129                  // Save the match list
   2130                  matchED->ed2Matched = osal_mem_alloc( (short)(matchED->ed2numMatched * sizeof ( uint16 )) );
   \   0001A0                ; Setup parameters for call to function osal_mem_alloc
   \   0001A0   12....       LCALL   ?Subroutine148 & 0xFFFF
   \                     ??CrossCallReturnLabel_433:
   \   0001A3   E0           MOVX    A,@DPTR
   \   0001A4   2435         ADD     A,#0x35
   \   0001A6   12....       LCALL   ?Subroutine36 & 0xFFFF
   2131                  if ( matchED->ed2Matched )
   \                     ??CrossCallReturnLabel_46:
   \   0001A9   6033         JZ      ??ZDO_MatchEndDeviceBind_21
   2132                  {
   2133                    osal_memcpy( matchED->ed2Matched, ZDOBuildBuf, (matchED->ed2numMatched * sizeof ( uint16 )) );
   \   0001AB                ; Setup parameters for call to function osal_memcpy
   \   0001AB   75....       MOV     ?V0 + 4,#ZDOBuildBuf & 0xff
   \   0001AE   75....       MOV     ?V0 + 5,#(ZDOBuildBuf >> 8) & 0xff
   \   0001B1   75..00       MOV     ?V0 + 6,#0x0
   \   0001B4   78..         MOV     R0,#?V0 + 4
   \   0001B6   12....       LCALL   ?PUSH_XSTACK_I_THREE
   \   0001B9   12....       LCALL   ?Subroutine69 & 0xFFFF
   2134                  }
   2135                  else
   2136                  {
   2137                    // Allocation error, stop
   2138                    status = ZDP_NO_ENTRY;
   2139                    sendRsp = TRUE;
   2140                  }
   2141                }
   \                     ??CrossCallReturnLabel_474:
   \   0001BC   12....       LCALL   ?Subroutine149 & 0xFFFF
   \                     ??CrossCallReturnLabel_476:
   \   0001BF   12....       LCALL   ?DEALLOC_XSTACK8
   2142          
   2143                if ( (sendRsp == FALSE) && (matchED->ed1numMatched || matchED->ed2numMatched) )
   \                     ??ZDO_MatchEndDeviceBind_20:
   \   0001C2   E5..         MOV     A,?V0 + 2
   \   0001C4   A2E0         MOV     C,0xE0 /* A   */.0
   \   0001C6   4016         JC      ??ZDO_MatchEndDeviceBind_21
   \   0001C8   12....       LCALL   ?Subroutine61 & 0xFFFF
   \                     ??CrossCallReturnLabel_113:
   \   0001CB   7005         JNZ     ??ZDO_MatchEndDeviceBind_22
   \   0001CD   12....       LCALL   ?Subroutine81 & 0xFFFF
   \                     ??CrossCallReturnLabel_147:
   \   0001D0   600C         JZ      ??ZDO_MatchEndDeviceBind_21
   2144                {
   2145                  // Do the first unbind/bind state
   2146                  ZDMatchSendState( ZDMATCH_REASON_START, ZDP_SUCCESS, 0 );
   \                     ??ZDO_MatchEndDeviceBind_22:
   \   0001D2                ; Setup parameters for call to function ZDMatchSendState
   \   0001D2   7B00         MOV     R3,#0x0
   \   0001D4   7A00         MOV     R2,#0x0
   \   0001D6   7900         MOV     R1,#0x0
   \   0001D8   12....       LCALL   ??ZDMatchSendState?relay
   2147                }
   2148                else
   2149                {
   2150                  status = ZDP_NO_MATCH;
   2151                  sendRsp = TRUE;
   2152                }
   2153            }
   2154          
   2155            if ( sendRsp )
   \   0001DB   02....       LJMP    ??ZDO_MatchEndDeviceBind_4 & 0xFFFF
   \                     ??ZDO_MatchEndDeviceBind_21:
   \   0001DE   85..82       MOV     DPL,?XSP + 0
   \   0001E1   85..83       MOV     DPH,?XSP + 1
   \   0001E4   7486         MOV     A,#-0x7a
   \                     ??ZDO_MatchEndDeviceBind_3:
   \   0001E6   F0           MOVX    @DPTR,A
   2156            {
   2157              // send response to this requester
   2158              dstAddr.addrMode = Addr16Bit;
   \   0001E7   7409         MOV     A,#0x9
   \   0001E9   12....       LCALL   ?XSTACK_DISP0_8
   \   0001EC   7402         MOV     A,#0x2
   \   0001EE   12....       LCALL   ?Subroutine53 & 0xFFFF
   2159              dstAddr.addr.shortAddr = bindReq->srcAddr;
   \                     ??CrossCallReturnLabel_89:
   \   0001F1   12....       LCALL   ??Subroutine228_0 & 0xFFFF
   \                     ??CrossCallReturnLabel_468:
   \   0001F4   12....       LCALL   ?XSTACK_DISP0_8
   \   0001F7   12....       LCALL   ??Subroutine213_0 & 0xFFFF
   2160              ZDP_EndDeviceBindRsp( bindReq->TransSeq, &dstAddr, status, bindReq->SecurityUse );
   \                     ??CrossCallReturnLabel_401:
   \   0001FA                ; Setup parameters for call to function ZDP_SendData
   \   0001FA   8E82         MOV     DPL,R6
   \   0001FC   8F83         MOV     DPH,R7
   \   0001FE   A3           INC     DPTR
   \   0001FF   E0           MOVX    A,@DPTR
   \   000200   F5..         MOV     ?V0 + 2,A
   \   000202   78..         MOV     R0,#?V0 + 2
   \   000204   12....       LCALL   ?PUSH_XSTACK_I_ONE
   \   000207   7401         MOV     A,#0x1
   \   000209   12....       LCALL   ?XSTACK_DISP0_8
   \   00020C   8582..       MOV     ?V0 + 4,DPL
   \   00020F   8583..       MOV     ?V0 + 5,DPH
   \   000212   78..         MOV     R0,#?V0 + 4
   \   000214   12....       LCALL   ?PUSH_XSTACK_I_TWO
   \   000217   75..20       MOV     ?V0 + 4,#0x20
   \   00021A   75..80       MOV     ?V0 + 5,#-0x80
   \   00021D   78..         MOV     R0,#?V0 + 4
   \   00021F   12....       LCALL   ?PUSH_XSTACK_I_TWO
   \   000222   7901         MOV     R1,#0x1
   \   000224   7406         MOV     A,#0x6
   \   000226   12....       LCALL   ?XSTACK_DISP0_8
   \   000229   AC82         MOV     R4,DPL
   \   00022B   AD83         MOV     R5,DPH
   \   00022D   EE           MOV     A,R6
   \   00022E   FA           MOV     R2,A
   \   00022F   EF           MOV     A,R7
   \   000230   FB           MOV     R3,A
   \   000231   12....       LCALL   ?Subroutine193 & 0xFFFF
   \                     ??CrossCallReturnLabel_340:
   \   000234   12....       LCALL   ?DEALLOC_XSTACK8
   2161          
   2162              if ( matchED->state == ZDMATCH_SENDING_BINDS )
   \   000237   12....       LCALL   ?Subroutine80 & 0xFFFF
   \                     ??CrossCallReturnLabel_145:
   \   00023A   7042         JNZ     ??ZDO_MatchEndDeviceBind_23
   2163              {
   2164                // send response to first requester
   2165                dstAddr.addrMode = Addr16Bit;
   \   00023C   7409         MOV     A,#0x9
   \   00023E   12....       LCALL   ?XSTACK_DISP0_8
   \   000241   7402         MOV     A,#0x2
   \   000243   12....       LCALL   ?Subroutine54 & 0xFFFF
   2166                dstAddr.addr.shortAddr = matchED->ed1.srcAddr;
   2167                ZDP_EndDeviceBindRsp( matchED->ed1.TransSeq, &dstAddr, status, matchED->ed1.SecurityUse );
   2168              }
   \                     ??CrossCallReturnLabel_93:
   \   000246   12....       LCALL   ?Subroutine75 & 0xFFFF
   \                     ??CrossCallReturnLabel_470:
   \   000249   12....       LCALL   ?XSTACK_DISP0_8
   \   00024C   12....       LCALL   ?Subroutine25 & 0xFFFF
   \                     ??CrossCallReturnLabel_28:
   \   00024F   F5..         MOV     ?V0 + 2,A
   \   000251   78..         MOV     R0,#?V0 + 2
   \   000253   12....       LCALL   ?PUSH_XSTACK_I_ONE
   \   000256   7401         MOV     A,#0x1
   \   000258   12....       LCALL   ?XSTACK_DISP0_8
   \   00025B   8582..       MOV     ?V0 + 4,DPL
   \   00025E   8583..       MOV     ?V0 + 5,DPH
   \   000261   78..         MOV     R0,#?V0 + 4
   \   000263   12....       LCALL   ?PUSH_XSTACK_I_TWO
   \   000266   75..20       MOV     ?V0 + 4,#0x20
   \   000269   75..80       MOV     ?V0 + 5,#-0x80
   \   00026C   78..         MOV     R0,#?V0 + 4
   \   00026E   12....       LCALL   ?PUSH_XSTACK_I_TWO
   \   000271   7901         MOV     R1,#0x1
   \   000273   7406         MOV     A,#0x6
   \   000275   12....       LCALL   ?XSTACK_DISP0_8
   \   000278   12....       LCALL   ?Subroutine105 & 0xFFFF
   \                     ??CrossCallReturnLabel_192:
   \   00027B   12....       LCALL   ?DEALLOC_XSTACK8
   2169          
   2170              // Process ended - release memory used
   2171              ZDO_RemoveMatchMemory();
   \                     ??ZDO_MatchEndDeviceBind_23:
   \   00027E                ; Setup parameters for call to function ZDO_RemoveMatchMemory
   \   00027E   12....       LCALL   ??ZDO_RemoveMatchMemory?relay
   2172            }
   2173          }
   \                     ??ZDO_MatchEndDeviceBind_4:
   \   000281   740A         MOV     A,#0xa
   \   000283   02....       LJMP    ?Subroutine6 & 0xFFFF

   \                                 In  segment BANKED_CODE, align 1, keep-with-next
   \                     ?Subroutine148:
   \   000000   C3           CLR     C
   \   000001   33           RLC     A
   \   000002   FA           MOV     R2,A
   \   000003   E4           CLR     A
   \   000004   33           RLC     A
   \   000005   FB           MOV     R3,A
   \   000006                REQUIRE ??Subroutine223_0
   \   000006                ; // Fall through to label ??Subroutine223_0

   \                                 In  segment BANKED_CODE, align 1, keep-with-next
   \                     ??Subroutine223_0:
   \   000000   12....       LCALL   ??osal_mem_alloc?relay
   \   000003   90....       MOV     DPTR,#matchED
   \   000006   22           RET

   \                                 In  segment BANKED_CODE, align 1, keep-with-next
   \                     ?Subroutine101:
   \   000000   12....       LCALL   ?Subroutine165 & 0xFFFF
   \                     ??CrossCallReturnLabel_298:
   \   000003   E5..         MOV     A,?V0 + 4
   \   000005   F0           MOVX    @DPTR,A
   \   000006   22           RET

   \                                 In  segment BANKED_CODE, align 1, keep-with-next
   \                     ?Subroutine92:
   \   000000   90....       MOV     DPTR,#matchED
   \   000003   E0           MOVX    A,@DPTR
   \   000004   242E         ADD     A,#0x2e
   \   000006   12....       LCALL   ?Subroutine165 & 0xFFFF
   \                     ??CrossCallReturnLabel_296:
   \   000009   22           RET

   \                                 In  segment BANKED_CODE, align 1, keep-with-next
   \                     ?Subroutine86:
   \   000000   18           DEC     R0
   \   000001   12....       LCALL   ??Subroutine232_0 & 0xFFFF
   \                     ??CrossCallReturnLabel_480:
   \   000004   F5..         MOV     ?V0 + 5,A
   \   000006   90....       MOV     DPTR,#matchED
   \   000009   E0           MOVX    A,@DPTR
   \   00000A   22           RET

   \                                 In  segment BANKED_CODE, align 1, keep-with-next
   \                     ?Subroutine79:
   \   000000   12....       LCALL   ?Subroutine164 & 0xFFFF
   \                     ??CrossCallReturnLabel_484:
   \   000003   FC           MOV     R4,A
   \   000004   A3           INC     DPTR
   \   000005   E0           MOVX    A,@DPTR
   \   000006   FD           MOV     R5,A
   \   000007   90....       MOV     DPTR,#matchED
   \   00000A   E0           MOVX    A,@DPTR
   \   00000B   22           RET

   \                                 In  segment BANKED_CODE, align 1, keep-with-next
   \                     ?Subroutine75:
   \   000000   F583         MOV     DPH,A
   \   000002   8882         MOV     DPL,R0
   \   000004                REQUIRE ??Subroutine227_0
   \   000004                ; // Fall through to label ??Subroutine227_0

   \                                 In  segment BANKED_CODE, align 1, keep-with-next
   \                     ??Subroutine227_0:
   \   000000   A3           INC     DPTR
   \   000001                REQUIRE ??Subroutine228_0
   \   000001                ; // Fall through to label ??Subroutine228_0

   \                                 In  segment BANKED_CODE, align 1, keep-with-next
   \                     ??Subroutine228_0:
   \   000000   A3           INC     DPTR
   \   000001                REQUIRE ??Subroutine229_0
   \   000001                ; // Fall through to label ??Subroutine229_0

   \                                 In  segment BANKED_CODE, align 1, keep-with-next
   \                     ??Subroutine229_0:
   \   000000   12....       LCALL   ?Subroutine174 & 0xFFFF
   \                     ??CrossCallReturnLabel_514:
   \   000003   7401         MOV     A,#0x1
   \   000005   22           RET

   \                                 In  segment BANKED_CODE, align 1, keep-with-next
   \                     ?Subroutine69:
   \   000000   90....       MOV     DPTR,#matchED
   \   000003                REQUIRE ??Subroutine230_0
   \   000003                ; // Fall through to label ??Subroutine230_0

   \                                 In  segment BANKED_CODE, align 1, keep-with-next
   \                     ??Subroutine230_0:
   \   000000   E0           MOVX    A,@DPTR
   \   000001   2434         ADD     A,#0x34
   \   000003   12....       LCALL   ?Subroutine164 & 0xFFFF
   \                     ??CrossCallReturnLabel_488:
   \   000006   22           RET

   \                                 In  segment BANKED_CODE, align 1, keep-with-next
   \                     ?Subroutine36:
   \   000000   12....       LCALL   ?Subroutine165 & 0xFFFF
   \                     ??CrossCallReturnLabel_295:
   \   000003   EA           MOV     A,R2
   \   000004   F0           MOVX    @DPTR,A
   \   000005   A3           INC     DPTR
   \   000006   EB           MOV     A,R3
   \   000007   12....       LCALL   ?Subroutine157 & 0xFFFF
   \                     ??CrossCallReturnLabel_545:
   \   00000A   FA           MOV     R2,A
   \   00000B   4B           ORL     A,R3
   \   00000C   22           RET

   \                                 In  segment BANKED_CODE, align 1, keep-with-next
   \                     ?Subroutine149:
   \   000000   C3           CLR     C
   \   000001   33           RLC     A
   \   000002   FC           MOV     R4,A
   \   000003   E4           CLR     A
   \   000004   33           RLC     A
   \   000005   FD           MOV     R5,A
   \   000006                REQUIRE ??Subroutine231_0
   \   000006                ; // Fall through to label ??Subroutine231_0

   \                                 In  segment BANKED_CODE, align 1, keep-with-next
   \                     ?Subroutine116:
   \   000000   90....       MOV     DPTR,#matchED
   \   000003   E0           MOVX    A,@DPTR
   \   000004   2417         ADD     A,#0x17
   \   000006   FA           MOV     R2,A
   \   000007   A3           INC     DPTR
   \   000008   E0           MOVX    A,@DPTR
   \   000009   3400         ADDC    A,#0x0
   \   00000B   FB           MOV     R3,A
   \   00000C   22           RET

   \                                 In  segment BANKED_CODE, align 1, keep-with-next
   \                     ?Subroutine109:
   \   000000   7C..         MOV     R4,#??ZDO_EndDeviceBindMatchTimeoutCB?relay & 0xff
   \   000002   7D..         MOV     R5,#(??ZDO_EndDeviceBindMatchTimeoutCB?relay >> 8) & 0xff
   \   000004   90....       MOV     DPTR,#AIB_MaxBindingTime
   \   000007   12....       LCALL   ??Subroutine226_0 & 0xFFFF
   \                     ??CrossCallReturnLabel_463:
   \   00000A   12....       LCALL   ??APS_SetEndDeviceBindTimeout?relay
   \   00000D   22           RET

   \                                 In  segment BANKED_CODE, align 1, keep-with-next
   \                     ?Subroutine105:
   \   000000   AC82         MOV     R4,DPL
   \   000002   AD83         MOV     R5,DPH
   \   000004   90....       MOV     DPTR,#matchED
   \   000007   12....       LCALL   ??Subroutine226_0 & 0xFFFF
   \                     ??CrossCallReturnLabel_462:
   \   00000A   12....       LCALL   ?Subroutine193 & 0xFFFF
   \                     ??CrossCallReturnLabel_342:
   \   00000D   22           RET

   \                                 In  segment BANKED_CODE, align 1, keep-with-next
   \                     ?Subroutine193:
   \   000000   12....       LCALL   ??ZDP_SendData?relay
   \   000003   7405         MOV     A,#0x5
   \   000005   22           RET

   \                                 In  segment BANKED_CODE, align 1, keep-with-next
   \                     ?Subroutine81:
   \   000000   90....       MOV     DPTR,#matchED
   \   000003   E0           MOVX    A,@DPTR
   \   000004   2434         ADD     A,#0x34
   \   000006   08           INC     R0
   \   000007   08           INC     R0
   \   000008   08           INC     R0
   \   000009   12....       LCALL   ??Subroutine232_0 & 0xFFFF
   \                     ??CrossCallReturnLabel_479:
   \   00000C   22           RET

   \                                 In  segment BANKED_CODE, align 1, keep-with-next
   \                     ?Subroutine80:
   \   000000   90....       MOV     DPTR,#matchED
   \   000003   E0           MOVX    A,@DPTR
   \   000004   242E         ADD     A,#0x2e
   \   000006   12....       LCALL   ?Subroutine164 & 0xFFFF
   \                     ??CrossCallReturnLabel_485:
   \   000009   6402         XRL     A,#0x2
   \   00000B   22           RET

   \                                 In  segment BANKED_CODE, align 1, keep-with-next
   \                     ?Subroutine61:
   \   000000   90....       MOV     DPTR,#matchED
   \   000003   E0           MOVX    A,@DPTR
   \   000004   2431         ADD     A,#0x31
   \   000006   12....       LCALL   ?Subroutine164 & 0xFFFF
   \                     ??CrossCallReturnLabel_482:
   \   000009   22           RET

   \                                 In  segment BANKED_CODE, align 1, keep-with-next
   \                     ?Subroutine54:
   \   000000   12....       LCALL   ?Subroutine159 & 0xFFFF
   \                     ??CrossCallReturnLabel_286:
   \   000003   22           RET

   \                                 In  segment BANKED_CODE, align 1, keep-with-next
   \                     ?Subroutine159:
   \   000000   F0           MOVX    @DPTR,A
   \   000001                ; Setup parameters for call to function ZDP_SendData
   \   000001                ; Setup parameters for call to function ZDP_SendData
   \   000001   12....       LCALL   ?Subroutine202 & 0xFFFF
   \                     ??CrossCallReturnLabel_518:
   \   000004   22           RET

   \                                 In  segment BANKED_CODE, align 1, keep-with-next
   \                     ?Subroutine202:
   \   000000   90....       MOV     DPTR,#matchED
   \   000003                REQUIRE ??Subroutine233_0
   \   000003                ; // Fall through to label ??Subroutine233_0

   \                                 In  segment BANKED_CODE, align 1, keep-with-next
   \                     ?Subroutine25:
   \   000000   E8           MOV     A,R0
   \   000001   F0           MOVX    @DPTR,A
   \   000002   A3           INC     DPTR
   \   000003   E9           MOV     A,R1
   \   000004   12....       LCALL   ?Subroutine159 & 0xFFFF
   \                     ??CrossCallReturnLabel_287:
   \   000007   F583         MOV     DPH,A
   \   000009   8882         MOV     DPL,R0
   \   00000B   A3           INC     DPTR
   \   00000C   E0           MOVX    A,@DPTR
   \   00000D   22           RET
   2174          
   2175          /*********************************************************************
   2176           * @fn      ZDO_RemoveMatchMemory()
   2177           *
   2178           * @brief   Called to clear the memory used for the end device bind.
   2179           *
   2180           * @param  none
   2181           *
   2182           * @return  none
   2183           */

   \                                 In  segment BANKED_CODE, align 1, keep-with-next
   2184          static void ZDO_RemoveMatchMemory( void )
   \                     ZDO_RemoveMatchMemory:
   2185          {
   \   000000   C082         PUSH    DPL
   \   000002   C083         PUSH    DPH
   \   000004                ; Saved register size: 2
   \   000004                ; Auto size: 0
   2186            if ( matchED != NULL )
   \   000004   90....       MOV     DPTR,#matchED
   \   000007   12....       LCALL   ??Subroutine224_0 & 0xFFFF
   \                     ??CrossCallReturnLabel_445:
   \   00000A   6061         JZ      ??ZDO_RemoveMatchMemory_0
   2187            {
   2188              if ( matchED->ed2Matched != NULL )
   \   00000C   90....       MOV     DPTR,#matchED
   \   00000F   E0           MOVX    A,@DPTR
   \   000010   2435         ADD     A,#0x35
   \   000012   12....       LCALL   ?Subroutine59 & 0xFFFF
   \                     ??CrossCallReturnLabel_103:
   \   000015   6003         JZ      ??ZDO_RemoveMatchMemory_1
   2189              {
   2190                osal_mem_free( matchED->ed2Matched );
   \   000017                ; Setup parameters for call to function osal_mem_free
   \   000017   12....       LCALL   ??osal_mem_free?relay
   2191              }
   2192              if ( matchED->ed1Matched != NULL )
   \                     ??ZDO_RemoveMatchMemory_1:
   \   00001A   90....       MOV     DPTR,#matchED
   \   00001D   E0           MOVX    A,@DPTR
   \   00001E   2432         ADD     A,#0x32
   \   000020   12....       LCALL   ?Subroutine59 & 0xFFFF
   \                     ??CrossCallReturnLabel_104:
   \   000023   6003         JZ      ??ZDO_RemoveMatchMemory_2
   2193              {
   2194                osal_mem_free( matchED->ed1Matched );
   \   000025                ; Setup parameters for call to function osal_mem_free
   \   000025   12....       LCALL   ??osal_mem_free?relay
   2195              }
   2196              if ( matchED->ed1.inClusters != NULL )
   \                     ??ZDO_RemoveMatchMemory_2:
   \   000028   90....       MOV     DPTR,#matchED
   \   00002B   E0           MOVX    A,@DPTR
   \   00002C   2412         ADD     A,#0x12
   \   00002E   12....       LCALL   ?Subroutine59 & 0xFFFF
   \                     ??CrossCallReturnLabel_105:
   \   000031   6003         JZ      ??ZDO_RemoveMatchMemory_3
   2197              {
   2198                osal_mem_free( matchED->ed1.inClusters );
   \   000033                ; Setup parameters for call to function osal_mem_free
   \   000033   12....       LCALL   ??osal_mem_free?relay
   2199              }
   2200              if ( matchED->ed1.outClusters != NULL )
   \                     ??ZDO_RemoveMatchMemory_3:
   \   000036   90....       MOV     DPTR,#matchED
   \   000039   E0           MOVX    A,@DPTR
   \   00003A   2415         ADD     A,#0x15
   \   00003C   12....       LCALL   ?Subroutine59 & 0xFFFF
   \                     ??CrossCallReturnLabel_106:
   \   00003F   6003         JZ      ??ZDO_RemoveMatchMemory_4
   2201              {
   2202                osal_mem_free( matchED->ed1.outClusters );
   \   000041                ; Setup parameters for call to function osal_mem_free
   \   000041   12....       LCALL   ??osal_mem_free?relay
   2203              }
   2204              if ( matchED->ed2.inClusters != NULL )
   \                     ??ZDO_RemoveMatchMemory_4:
   \   000044   90....       MOV     DPTR,#matchED
   \   000047   E0           MOVX    A,@DPTR
   \   000048   2429         ADD     A,#0x29
   \   00004A   12....       LCALL   ?Subroutine59 & 0xFFFF
   \                     ??CrossCallReturnLabel_107:
   \   00004D   6003         JZ      ??ZDO_RemoveMatchMemory_5
   2205              {
   2206                osal_mem_free( matchED->ed2.inClusters );
   \   00004F                ; Setup parameters for call to function osal_mem_free
   \   00004F   12....       LCALL   ??osal_mem_free?relay
   2207              }
   2208              if ( matchED->ed2.outClusters != NULL )
   \                     ??ZDO_RemoveMatchMemory_5:
   \   000052   90....       MOV     DPTR,#matchED
   \   000055   E0           MOVX    A,@DPTR
   \   000056   242C         ADD     A,#0x2c
   \   000058   12....       LCALL   ?Subroutine59 & 0xFFFF
   \                     ??CrossCallReturnLabel_108:
   \   00005B   6003         JZ      ??ZDO_RemoveMatchMemory_6
   2209              {
   2210                osal_mem_free( matchED->ed2.outClusters );
   \   00005D                ; Setup parameters for call to function osal_mem_free
   \   00005D   12....       LCALL   ??osal_mem_free?relay
   2211              }
   2212          
   2213              osal_mem_free( matchED );
   \                     ??ZDO_RemoveMatchMemory_6:
   \   000060                ; Setup parameters for call to function osal_mem_free
   \   000060   90....       MOV     DPTR,#matchED
   \   000063   12....       LCALL   ?Subroutine64 & 0xFFFF
   2214              matchED = (ZDMatchEndDeviceBind_t *)NULL;
   \                     ??CrossCallReturnLabel_119:
   \   000066   90....       MOV     DPTR,#matchED
   \   000069   E4           CLR     A
   \   00006A   F0           MOVX    @DPTR,A
   \   00006B   A3           INC     DPTR
   \   00006C   F0           MOVX    @DPTR,A
   2215            }
   2216          }
   \                     ??ZDO_RemoveMatchMemory_0:
   \   00006D                REQUIRE ?Subroutine0
   \   00006D                ; // Fall through to label ?Subroutine0
   2217          
   2218          /*********************************************************************
   2219           * @fn      ZDO_CopyMatchInfo()
   2220           *
   2221           * @brief   Called to copy memory used for the end device bind.
   2222           *
   2223           * @param  srcReq - source information
   2224           * @param  dstReq - destination location
   2225           *
   2226           * @return  TRUE if copy was successful.
   2227           */

   \                                 In  segment BANKED_CODE, align 1, keep-with-next
   2228          static uint8 ZDO_CopyMatchInfo( ZDEndDeviceBind_t *destReq, ZDEndDeviceBind_t *srcReq )
   \                     ZDO_CopyMatchInfo:
   2229          {
   \   000000   74EC         MOV     A,#-0x14
   \   000002   12....       LCALL   ?BANKED_ENTER_XDATA
   \   000005                ; Saved register size: 20
   \   000005                ; Auto size: 0
   \   000005   EA           MOV     A,R2
   \   000006   FE           MOV     R6,A
   \   000007   EB           MOV     A,R3
   \   000008   FF           MOV     R7,A
   \   000009   8C..         MOV     ?V0 + 0,R4
   \   00000B   8D..         MOV     ?V0 + 1,R5
   2230            uint8 allOK = TRUE;
   \   00000D   75..01       MOV     ?V0 + 2,#0x1
   2231          
   2232            // Copy bind information into the match info structure
   2233            osal_memcpy( (uint8 *)destReq, srcReq, sizeof ( ZDEndDeviceBind_t ) );
   \   000010                ; Setup parameters for call to function osal_memcpy
   \   000010   8C..         MOV     ?V0 + 4,R4
   \   000012   8D..         MOV     ?V0 + 5,R5
   \   000014   75..00       MOV     ?V0 + 6,#0x0
   \   000017   78..         MOV     R0,#?V0 + 4
   \   000019   12....       LCALL   ?PUSH_XSTACK_I_THREE
   \   00001C   7C17         MOV     R4,#0x17
   \   00001E   7D00         MOV     R5,#0x0
   \   000020   12....       LCALL   ??Subroutine231_0 & 0xFFFF
   \                     ??CrossCallReturnLabel_478:
   \   000023   12....       LCALL   ?DEALLOC_XSTACK8
   2234          
   2235            // Initialize the destination cluster pointers
   2236            destReq->inClusters = NULL;
   \   000026   EE           MOV     A,R6
   \   000027   2412         ADD     A,#0x12
   \   000029   12....       LCALL   ?Subroutine130 & 0xFFFF
   \                     ??CrossCallReturnLabel_240:
   \   00002C   F0           MOVX    @DPTR,A
   2237            destReq->outClusters = NULL;
   \   00002D   EE           MOV     A,R6
   \   00002E   2415         ADD     A,#0x15
   \   000030   12....       LCALL   ?Subroutine142 & 0xFFFF
   \                     ??CrossCallReturnLabel_260:
   \   000033   E4           CLR     A
   \   000034   F0           MOVX    @DPTR,A
   \   000035   A3           INC     DPTR
   \   000036   F0           MOVX    @DPTR,A
   2238          
   2239            // Copy input cluster IDs
   2240            if ( srcReq->numInClusters )
   \   000037   E5..         MOV     A,?V0 + 0
   \   000039   2411         ADD     A,#0x11
   \   00003B   12....       LCALL   ?Subroutine132 & 0xFFFF
   \                     ??CrossCallReturnLabel_244:
   \   00003E   601C         JZ      ??ZDO_CopyMatchInfo_0
   2241            {
   2242              destReq->inClusters = osal_mem_alloc( (short)(srcReq->numInClusters * sizeof ( uint16 )) );
   \   000040                ; Setup parameters for call to function osal_mem_alloc
   \   000040   12....       LCALL   ?Subroutine38 & 0xFFFF
   2243              if ( destReq->inClusters )
   \                     ??CrossCallReturnLabel_47:
   \   000043   FA           MOV     R2,A
   \   000044   4B           ORL     A,R3
   \   000045   6012         JZ      ??ZDO_CopyMatchInfo_1
   2244              {
   2245                // Copy the clusters
   2246                osal_memcpy( (uint8*)(destReq->inClusters), (uint8 *)(srcReq->inClusters),
   2247                                (srcReq->numInClusters * sizeof ( uint16 )) );
   \   000047                ; Setup parameters for call to function osal_memcpy
   \   000047   E5..         MOV     A,?V0 + 0
   \   000049   2412         ADD     A,#0x12
   \   00004B   12....       LCALL   ?Subroutine112 & 0xFFFF
   2248              }
   \                     ??CrossCallReturnLabel_202:
   \   00004E   12....       LCALL   ?PUSH_XSTACK_I_THREE
   \   000051   12....       LCALL   ?Subroutine96 & 0xFFFF
   \                     ??CrossCallReturnLabel_171:
   \   000054   12....       LCALL   ?DEALLOC_XSTACK8
   \   000057   8003         SJMP    ??ZDO_CopyMatchInfo_0
   2249              else
   2250              {
   2251                allOK = FALSE;
   \                     ??ZDO_CopyMatchInfo_1:
   \   000059   75..00       MOV     ?V0 + 2,#0x0
   2252              }
   2253            }
   2254          
   2255            // Copy output cluster IDs
   2256            if ( srcReq->numOutClusters )
   \                     ??ZDO_CopyMatchInfo_0:
   \   00005C   E5..         MOV     A,?V0 + 0
   \   00005E   2414         ADD     A,#0x14
   \   000060   12....       LCALL   ?Subroutine132 & 0xFFFF
   \                     ??CrossCallReturnLabel_245:
   \   000063   6029         JZ      ??ZDO_CopyMatchInfo_2
   2257            {
   2258              destReq->outClusters = osal_mem_alloc( (short)(srcReq->numOutClusters * sizeof ( uint16 )) );
   \   000065                ; Setup parameters for call to function osal_mem_alloc
   \   000065   C3           CLR     C
   \   000066   33           RLC     A
   \   000067   FA           MOV     R2,A
   \   000068   E4           CLR     A
   \   000069   33           RLC     A
   \   00006A   FB           MOV     R3,A
   \   00006B   12....       LCALL   ??osal_mem_alloc?relay
   \   00006E   8E82         MOV     DPL,R6
   \   000070   8F83         MOV     DPH,R7
   \   000072   12....       LCALL   ?Subroutine39 & 0xFFFF
   2259              if ( destReq->outClusters )
   \                     ??CrossCallReturnLabel_56:
   \   000075   8E82         MOV     DPL,R6
   \   000077   8F83         MOV     DPH,R7
   \   000079   E0           MOVX    A,@DPTR
   \   00007A   FA           MOV     R2,A
   \   00007B   4B           ORL     A,R3
   \   00007C   6035         JZ      ??ZDO_CopyMatchInfo_3
   2260              {
   2261                // Copy the clusters
   2262                osal_memcpy( (uint8 *)(destReq->outClusters), (uint8 *)(srcReq->outClusters),
   2263                                (srcReq->numOutClusters * sizeof ( uint16 )) );
   \   00007E                ; Setup parameters for call to function osal_memcpy
   \   00007E   E5..         MOV     A,?V0 + 0
   \   000080   2415         ADD     A,#0x15
   \   000082   12....       LCALL   ?Subroutine112 & 0xFFFF
   2264              }
   \                     ??CrossCallReturnLabel_203:
   \   000085   12....       LCALL   ?PUSH_XSTACK_I_THREE
   \   000088   12....       LCALL   ?Subroutine96 & 0xFFFF
   \                     ??CrossCallReturnLabel_172:
   \   00008B   12....       LCALL   ?DEALLOC_XSTACK8
   2265              else
   2266              {
   2267                allOK = FALSE;
   2268              }
   2269            }
   2270          
   2271            if ( allOK == FALSE )
   \                     ??ZDO_CopyMatchInfo_2:
   \   00008E   E5..         MOV     A,?V0 + 2
   \   000090   A2E0         MOV     C,0xE0 /* A   */.0
   \   000092   401A         JC      ??ZDO_CopyMatchInfo_4
   2272            {
   2273              if ( destReq->inClusters != NULL )
   \                     ??ZDO_CopyMatchInfo_5:
   \   000094   85..82       MOV     DPL,?V0 + 8
   \   000097   85..83       MOV     DPH,?V0 + 9
   \   00009A   12....       LCALL   ?Subroutine99 & 0xFFFF
   \                     ??CrossCallReturnLabel_175:
   \   00009D   6003         JZ      ??ZDO_CopyMatchInfo_6
   2274              {
   2275                osal_mem_free( destReq->inClusters );
   \   00009F                ; Setup parameters for call to function osal_mem_free
   \   00009F   12....       LCALL   ??osal_mem_free?relay
   2276              }
   2277              if ( destReq->outClusters != NULL )
   \                     ??ZDO_CopyMatchInfo_6:
   \   0000A2   8E82         MOV     DPL,R6
   \   0000A4   8F83         MOV     DPH,R7
   \   0000A6   12....       LCALL   ?Subroutine99 & 0xFFFF
   \                     ??CrossCallReturnLabel_176:
   \   0000A9   6003         JZ      ??ZDO_CopyMatchInfo_4
   2278              {
   2279                osal_mem_free( destReq->outClusters );
   \   0000AB                ; Setup parameters for call to function osal_mem_free
   \   0000AB   12....       LCALL   ??osal_mem_free?relay
   2280              }
   2281            }
   2282          
   2283            return ( allOK );
   \                     ??ZDO_CopyMatchInfo_4:
   \   0000AE   A9..         MOV     R1,?V0 + 2
   \   0000B0   02....       LJMP    ??Subroutine215_0 & 0xFFFF
   \                     ??ZDO_CopyMatchInfo_3:
   \   0000B3   75..00       MOV     ?V0 + 2,#0x0
   \   0000B6   80DC         SJMP    ??ZDO_CopyMatchInfo_5
   2284          }

   \                                 In  segment BANKED_CODE, align 1, keep-with-next
   \                     ?Subroutine132:
   \   000000   F5..         MOV     ?V0 + 10,A
   \   000002   E5..         MOV     A,?V0 + 1
   \   000004   3400         ADDC    A,#0x0
   \   000006   F5..         MOV     ?V0 + 11,A
   \   000008   85..82       MOV     DPL,?V0 + 10
   \   00000B   F583         MOV     DPH,A
   \   00000D   E0           MOVX    A,@DPTR
   \   00000E   22           RET

   \                                 In  segment BANKED_CODE, align 1, keep-with-next
   \                     ?Subroutine112:
   \   000000   F582         MOV     DPL,A
   \   000002   E5..         MOV     A,?V0 + 1
   \   000004   12....       LCALL   ??Subroutine235_0 & 0xFFFF
   \                     ??CrossCallReturnLabel_603:
   \   000007   12....       LCALL   ?Subroutine170 & 0xFFFF
   \                     ??CrossCallReturnLabel_304:
   \   00000A   78..         MOV     R0,#?V0 + 4
   \   00000C   22           RET

   \                                 In  segment BANKED_CODE, align 1, keep-with-next
   \                     ?Subroutine96:
   \   000000   85..82       MOV     DPL,?V0 + 10
   \   000003   85..83       MOV     DPH,?V0 + 11
   \   000006   E0           MOVX    A,@DPTR
   \   000007   C3           CLR     C
   \   000008   33           RLC     A
   \   000009   FC           MOV     R4,A
   \   00000A   E4           CLR     A
   \   00000B   33           RLC     A
   \   00000C   FD           MOV     R5,A
   \   00000D   12....       LCALL   ?Subroutine192 & 0xFFFF
   \                     ??CrossCallReturnLabel_553:
   \   000010   22           RET

   \                                 In  segment BANKED_CODE, align 1, keep-with-next
   \                     ?Subroutine130:
   \   000000   12....       LCALL   ?Subroutine184 & 0xFFFF
   \                     ??CrossCallReturnLabel_328:
   \   000003   E4           CLR     A
   \   000004   F0           MOVX    @DPTR,A
   \   000005   A3           INC     DPTR
   \   000006   22           RET

   \                                 In  segment BANKED_CODE, align 1, keep-with-next
   \                     ?Subroutine38:
   \   000000   C3           CLR     C
   \   000001   33           RLC     A
   \   000002   FA           MOV     R2,A
   \   000003   E4           CLR     A
   \   000004   33           RLC     A
   \   000005   FB           MOV     R3,A
   \   000006   12....       LCALL   ??osal_mem_alloc?relay
   \   000009   85..82       MOV     DPL,?V0 + 8
   \   00000C   85..83       MOV     DPH,?V0 + 9
   \   00000F   EA           MOV     A,R2
   \   000010   F0           MOVX    @DPTR,A
   \   000011   A3           INC     DPTR
   \   000012   EB           MOV     A,R3
   \   000013   F0           MOVX    @DPTR,A
   \   000014   85..82       MOV     DPL,?V0 + 8
   \   000017   85..83       MOV     DPH,?V0 + 9
   \   00001A   E0           MOVX    A,@DPTR
   \   00001B   22           RET

   \                                 In  segment BANKED_CODE, align 1, keep-with-next
   \                     ?Subroutine142:
   \   000000   FE           MOV     R6,A
   \   000001   EF           MOV     A,R7
   \   000002   3400         ADDC    A,#0x0
   \   000004   FF           MOV     R7,A
   \   000005   8E82         MOV     DPL,R6
   \   000007   8F83         MOV     DPH,R7
   \   000009   22           RET

   \                                 In  segment BANKED_CODE, align 1, keep-with-next
   \                     ?Subroutine99:
   \   000000   12....       LCALL   ??Subroutine226_0 & 0xFFFF
   \                     ??CrossCallReturnLabel_460:
   \   000003   EA           MOV     A,R2
   \   000004   4B           ORL     A,R3
   \   000005   22           RET
   2285          
   2286          /*********************************************************************
   2287           * @fn      ZDMatchSendState()
   2288           *
   2289           * @brief   State machine for the End device match message algorithm.
   2290           *
   2291           * @param  reason - state of algoritm
   2292           * @param  status - initial message status
   2293           * @param  TransSeq - next transaction sequence number
   2294           *
   2295           * @return  FALSE if error and we are not currently matching, TRUE
   2296           *          if success.
   2297           */

   \                                 In  segment BANKED_CODE, align 1, keep-with-next
   2298          uint8 ZDMatchSendState( uint8 reason, uint8 status, uint8 TransSeq )
   \                     ZDMatchSendState:
   2299          {
   \   000000   74EE         MOV     A,#-0x12
   \   000002   12....       LCALL   ?BANKED_ENTER_XDATA
   \   000005                ; Saved register size: 18
   \   000005                ; Auto size: 19
   \   000005   74ED         MOV     A,#-0x13
   \   000007   12....       LCALL   ?ALLOC_XSTACK8
   \   00000A   89..         MOV     ?V0 + 2,R1
   \   00000C   8A..         MOV     ?V0 + 6,R2
   \   00000E   8B..         MOV     ?V0 + 7,R3
   2300            uint8 *dstIEEEAddr = NULL;
   \   000010   75..00       MOV     ?V0 + 4,#0x0
   \   000013   75..00       MOV     ?V0 + 5,#0x0
   2301            uint8 dstEP = 0xFF;
   \   000016   75..FF       MOV     ?V0 + 3,#-0x1
   2302            zAddrType_t dstAddr;
   2303            zAddrType_t destinationAddr;
   2304            uint16 msgType;
   2305            uint16 clusterID = 0xFFFF;
   \   000019   75..FF       MOV     ?V0 + 8,#-0x1
   \   00001C   75..FF       MOV     ?V0 + 9,#-0x1
   2306            ZDEndDeviceBind_t *ed = NULL;
   \   00001F   75..00       MOV     ?V0 + 0,#0x0
   \   000022   75..00       MOV     ?V0 + 1,#0x0
   2307            uint8 rspStatus = ZDP_SUCCESS;
   \   000025   85..82       MOV     DPL,?XSP + 0
   \   000028   85..83       MOV     DPH,?XSP + 1
   \   00002B   E4           CLR     A
   \   00002C   12....       LCALL   ?Subroutine54 & 0xFFFF
   2308          
   2309            if ( matchED == NULL )
   \                     ??CrossCallReturnLabel_94:
   \   00002F   F9           MOV     R1,A
   \   000030   E8           MOV     A,R0
   \   000031   49           ORL     A,R1
   \   000032   7005         JNZ     ??ZDMatchSendState_0
   2310            {
   2311              return ( FALSE );
   \                     ??ZDMatchSendState_1:
   \   000034   7900         MOV     R1,#0x0
   \   000036   02....       LJMP    ??ZDMatchSendState_2 & 0xFFFF
   2312            }
   2313          
   2314            // Check sequence number
   2315            if ( reason == ZDMATCH_REASON_BIND_RSP || reason == ZDMATCH_REASON_UNBIND_RSP )
   \                     ??ZDMatchSendState_0:
   \   000039   7403         MOV     A,#0x3
   \   00003B   65..         XRL     A,?V0 + 2
   \   00003D   6006         JZ      ??ZDMatchSendState_3
   \   00003F   7402         MOV     A,#0x2
   \   000041   65..         XRL     A,?V0 + 2
   \   000043   700D         JNZ     ??ZDMatchSendState_4
   2316            {
   2317              if ( TransSeq != matchED->transSeq )
   \                     ??ZDMatchSendState_3:
   \   000045   90....       MOV     DPTR,#matchED
   \   000048   E0           MOVX    A,@DPTR
   \   000049   2430         ADD     A,#0x30
   \   00004B   12....       LCALL   ?Subroutine91 & 0xFFFF
   2318              {
   2319                return( FALSE ); // ignore the message
   2320              }
   2321            }
   \                     ??CrossCallReturnLabel_456:
   \   00004E   65..         XRL     A,?V0 + 7
   \   000050   70E2         JNZ     ??ZDMatchSendState_1
   2322          
   2323            // turn off timer
   2324            APS_SetEndDeviceBindTimeout( 0, ZDO_EndDeviceBindMatchTimeoutCB );
   \                     ??ZDMatchSendState_4:
   \   000052                ; Setup parameters for call to function APS_SetEndDeviceBindTimeout
   \   000052   7C..         MOV     R4,#??ZDO_EndDeviceBindMatchTimeoutCB?relay & 0xff
   \   000054   7D..         MOV     R5,#(??ZDO_EndDeviceBindMatchTimeoutCB?relay >> 8) & 0xff
   \   000056   7A00         MOV     R2,#0x0
   \   000058   7B00         MOV     R3,#0x0
   \   00005A   12....       LCALL   ??APS_SetEndDeviceBindTimeout?relay
   2325          
   2326            if ( reason == ZDMATCH_REASON_TIMEOUT )
   \   00005D   7401         MOV     A,#0x1
   \   00005F   65..         XRL     A,?V0 + 2
   \   000061   700B         JNZ     ??ZDMatchSendState_5
   2327            {
   2328              rspStatus = ZDP_TIMEOUT;    // The process will stop
   \   000063   85..82       MOV     DPL,?XSP + 0
   \   000066   85..83       MOV     DPH,?XSP + 1
   \   000069   7485         MOV     A,#-0x7b
   \                     ??ZDMatchSendState_6:
   \   00006B   F0           MOVX    @DPTR,A
   \   00006C   803B         SJMP    ??ZDMatchSendState_7
   2329            }
   2330          
   2331            if ( reason == ZDMATCH_REASON_START || reason == ZDMATCH_REASON_BIND_RSP )
   \                     ??ZDMatchSendState_5:
   \   00006E   E5..         MOV     A,?V0 + 2
   \   000070   6006         JZ      ??ZDMatchSendState_8
   \   000072   7403         MOV     A,#0x3
   \   000074   65..         XRL     A,?V0 + 2
   \   000076   7018         JNZ     ??ZDMatchSendState_9
   2332            {
   2333              matchED->sending = ZDMATCH_SENDING_UNBIND;
   \                     ??ZDMatchSendState_8:
   \   000078   12....       LCALL   ?Subroutine93 & 0xFFFF
   \                     ??CrossCallReturnLabel_167:
   \   00007B   7401         MOV     A,#0x1
   \   00007D   F0           MOVX    @DPTR,A
   2334          
   2335              if ( reason == ZDMATCH_REASON_BIND_RSP && status != ZDP_SUCCESS )
   \   00007E   7403         MOV     A,#0x3
   \   000080   65..         XRL     A,?V0 + 2
   \   000082   7021         JNZ     ??ZDMatchSendState_10
   \   000084   E5..         MOV     A,?V0 + 6
   \   000086   6021         JZ      ??ZDMatchSendState_7
   2336              {
   2337                rspStatus = status;
   \   000088   85..82       MOV     DPL,?XSP + 0
   \   00008B   85..83       MOV     DPH,?XSP + 1
   \   00008E   80DB         SJMP    ??ZDMatchSendState_6
   2338              }
   2339            }
   2340            else if ( reason == ZDMATCH_REASON_UNBIND_RSP )
   \                     ??ZDMatchSendState_9:
   \   000090   7402         MOV     A,#0x2
   \   000092   65..         XRL     A,?V0 + 2
   \   000094   7013         JNZ     ??ZDMatchSendState_7
   2341            {
   2342              if ( status == ZDP_SUCCESS )
   \   000096   12....       LCALL   ?Subroutine93 & 0xFFFF
   \                     ??CrossCallReturnLabel_168:
   \   000099   E5..         MOV     A,?V0 + 6
   \   00009B   7004         JNZ     ??ZDMatchSendState_11
   2343              {
   2344                matchED->sending = ZDMATCH_SENDING_UNBIND;
   \   00009D   7401         MOV     A,#0x1
   \   00009F   80CA         SJMP    ??ZDMatchSendState_6
   2345              }
   2346              else
   2347              {
   2348                matchED->sending = ZDMATCH_SENDING_BIND;
   \                     ??ZDMatchSendState_11:
   \   0000A1   7402         MOV     A,#0x2
   \   0000A3   80C6         SJMP    ??ZDMatchSendState_6
   2349              }
   2350            }
   2351          
   2352            if ( reason != ZDMATCH_REASON_START && matchED->sending == ZDMATCH_SENDING_UNBIND )
   \                     ??ZDMatchSendState_10:
   \   0000A5   E5..         MOV     A,?V0 + 2
   \   0000A7   6019         JZ      ??ZDMatchSendState_12
   \                     ??ZDMatchSendState_7:
   \   0000A9   12....       LCALL   ?Subroutine82 & 0xFFFF
   \                     ??CrossCallReturnLabel_149:
   \   0000AC   7014         JNZ     ??ZDMatchSendState_12
   2353            {
   2354              // Move to the next cluster ID
   2355              if ( matchED->ed1numMatched )
   \   0000AE   90....       MOV     DPTR,#matchED
   \   0000B1   E0           MOVX    A,@DPTR
   \   0000B2   2431         ADD     A,#0x31
   \   0000B4   08           INC     R0
   \   0000B5   08           INC     R0
   \   0000B6   12....       LCALL   ??Subroutine225_0 & 0xFFFF
   \                     ??CrossCallReturnLabel_452:
   \   0000B9   7005         JNZ     ??ZDMatchSendState_13
   2356              {
   2357                matchED->ed1numMatched--;
   2358              }
   2359              else if ( matchED->ed2numMatched )
   \   0000BB   12....       LCALL   ?Subroutine81 & 0xFFFF
   \                     ??CrossCallReturnLabel_148:
   \   0000BE   6002         JZ      ??ZDMatchSendState_12
   2360              {
   2361                matchED->ed2numMatched--;
   \                     ??ZDMatchSendState_13:
   \   0000C0   14           DEC     A
   \   0000C1   F0           MOVX    @DPTR,A
   2362              }
   2363            }
   2364          
   2365            // What message do we send now
   2366            if ( matchED->ed1numMatched )
   \                     ??ZDMatchSendState_12:
   \   0000C2   12....       LCALL   ?Subroutine61 & 0xFFFF
   \                     ??CrossCallReturnLabel_114:
   \   0000C5   F8           MOV     R0,A
   \   0000C6   90....       MOV     DPTR,#matchED
   \   0000C9   601E         JZ      ??ZDMatchSendState_14
   2367            {
   2368              ed = &(matchED->ed1);
   \   0000CB   12....       LCALL   ?Subroutine100 & 0xFFFF
   \                     ??CrossCallReturnLabel_181:
   \   0000CE   F5..         MOV     ?V0 + 1,A
   2369              clusterID = matchED->ed1Matched[matchED->ed1numMatched-1];
   \   0000D0   E8           MOV     A,R0
   \   0000D1   C3           CLR     C
   \   0000D2   33           RLC     A
   \   0000D3   F8           MOV     R0,A
   \   0000D4   E4           CLR     A
   \   0000D5   33           RLC     A
   \   0000D6   F9           MOV     R1,A
   \   0000D7   90....       MOV     DPTR,#matchED
   \   0000DA   E0           MOVX    A,@DPTR
   \   0000DB   2432         ADD     A,#0x32
   \   0000DD   12....       LCALL   ?Subroutine60 & 0xFFFF
   2370              dstIEEEAddr = matchED->ed2.ieeeAddr;
   2371              dstEP = matchED->ed2.endpoint;
   2372            }
   \                     ??CrossCallReturnLabel_109:
   \   0000E0   241D         ADD     A,#0x1d
   \   0000E2   12....       LCALL   ?Subroutine115 & 0xFFFF
   \                     ??CrossCallReturnLabel_208:
   \   0000E5   2425         ADD     A,#0x25
   \   0000E7   802A         SJMP    ??ZDMatchSendState_15
   2373            else if ( matchED->ed2numMatched )
   \                     ??ZDMatchSendState_14:
   \   0000E9   12....       LCALL   ??Subroutine230_0 & 0xFFFF
   \                     ??CrossCallReturnLabel_472:
   \   0000EC   F8           MOV     R0,A
   \   0000ED   6029         JZ      ??ZDMatchSendState_16
   2374            {
   2375              ed = &(matchED->ed2);
   \   0000EF   90....       MOV     DPTR,#matchED
   \   0000F2   E0           MOVX    A,@DPTR
   \   0000F3   2417         ADD     A,#0x17
   \   0000F5   F5..         MOV     ?V0 + 0,A
   \   0000F7   A3           INC     DPTR
   \   0000F8   E0           MOVX    A,@DPTR
   \   0000F9   12....       LCALL   ??Subroutine244_0 & 0xFFFF
   2376              clusterID = matchED->ed2Matched[matchED->ed2numMatched-1];
   \                     ??CrossCallReturnLabel_562:
   \   0000FC   E8           MOV     A,R0
   \   0000FD   C3           CLR     C
   \   0000FE   33           RLC     A
   \   0000FF   F8           MOV     R0,A
   \   000100   E4           CLR     A
   \   000101   33           RLC     A
   \   000102   F9           MOV     R1,A
   \   000103   90....       MOV     DPTR,#matchED
   \   000106   E0           MOVX    A,@DPTR
   \   000107   2435         ADD     A,#0x35
   \   000109   12....       LCALL   ?Subroutine60 & 0xFFFF
   2377              dstIEEEAddr = matchED->ed1.ieeeAddr;
   2378              dstEP = matchED->ed1.endpoint;
   2379            }
   \                     ??CrossCallReturnLabel_110:
   \   00010C   2406         ADD     A,#0x6
   \   00010E   12....       LCALL   ?Subroutine115 & 0xFFFF
   \                     ??CrossCallReturnLabel_209:
   \   000111   240E         ADD     A,#0xe
   \                     ??ZDMatchSendState_15:
   \   000113   12....       LCALL   ?Subroutine91 & 0xFFFF
   \                     ??CrossCallReturnLabel_457:
   \   000116   F5..         MOV     ?V0 + 3,A
   2380          
   2381            dstAddr.addrMode = Addr16Bit;
   \                     ??ZDMatchSendState_16:
   \   000118   7409         MOV     A,#0x9
   \   00011A   12....       LCALL   ?XSTACK_DISP0_8
   \   00011D   7402         MOV     A,#0x2
   \   00011F   12....       LCALL   ?Subroutine23 & 0xFFFF
   2382          
   2383            // Send the next message
   2384            if ( (rspStatus == ZDP_SUCCESS) && ed )
   \                     ??CrossCallReturnLabel_24:
   \   000122   6003         JZ      $+5
   \   000124   02....       LJMP    ??ZDMatchSendState_17 & 0xFFFF
   \   000127   E5..         MOV     A,?V0 + 0
   \   000129   45..         ORL     A,?V0 + 1
   \   00012B   7003         JNZ     $+5
   \   00012D   02....       LJMP    ??ZDMatchSendState_17 & 0xFFFF
   2385            {
   2386              // Send unbind/bind message to source
   2387              if ( matchED->sending == ZDMATCH_SENDING_UNBIND )
   \   000130   12....       LCALL   ?Subroutine82 & 0xFFFF
   \                     ??CrossCallReturnLabel_150:
   \   000133   7004         JNZ     ??ZDMatchSendState_18
   2388              {
   2389                msgType = Unbind_req;
   \   000135   7E22         MOV     R6,#0x22
   \   000137   8002         SJMP    ??ZDMatchSendState_19
   2390              }
   2391              else
   2392              {
   2393                msgType = Bind_req;
   \                     ??ZDMatchSendState_18:
   \   000139   7E21         MOV     R6,#0x21
   2394              }
   2395          
   2396              dstAddr.addr.shortAddr = ed->srcAddr;
   \                     ??ZDMatchSendState_19:
   \   00013B   85..82       MOV     DPL,?V0 + 0
   \   00013E   85..83       MOV     DPH,?V0 + 1
   \   000141   12....       LCALL   ??Subroutine227_0 & 0xFFFF
   \                     ??CrossCallReturnLabel_469:
   \   000144   12....       LCALL   ?XSTACK_DISP0_8
   \   000147   12....       LCALL   ??Subroutine213_0 & 0xFFFF
   2397          
   2398              // Save off the transaction sequence number
   2399              matchED->transSeq = ZDP_TransID;
   \                     ??CrossCallReturnLabel_402:
   \   00014A   90....       MOV     DPTR,#ZDP_TransID
   \   00014D   E0           MOVX    A,@DPTR
   \   00014E   C0E0         PUSH    A
   \   000150   90....       MOV     DPTR,#matchED
   \   000153   E0           MOVX    A,@DPTR
   \   000154   2430         ADD     A,#0x30
   \   000156   12....       LCALL   ?Subroutine102 & 0xFFFF
   \                     ??CrossCallReturnLabel_186:
   \   000159   D0E0         POP     A
   \   00015B   F0           MOVX    @DPTR,A
   2400          
   2401              destinationAddr.addrMode = Addr64Bit;
   \   00015C   7412         MOV     A,#0x12
   \   00015E   12....       LCALL   ?XSTACK_DISP0_8
   \   000161   7403         MOV     A,#0x3
   \   000163   F0           MOVX    @DPTR,A
   2402              osal_cpyExtAddr( destinationAddr.addr.extAddr, dstIEEEAddr );
   \   000164                ; Setup parameters for call to function sAddrExtCpy
   \   000164   AC..         MOV     R4,?V0 + 4
   \   000166   AD..         MOV     R5,?V0 + 5
   \   000168   740A         MOV     A,#0xa
   \   00016A   12....       LCALL   ?XSTACK_DISP0_8
   \   00016D   AA82         MOV     R2,DPL
   \   00016F   AB83         MOV     R3,DPH
   \   000171   12....       LCALL   ??sAddrExtCpy?relay
   2403          
   2404              ZDP_BindUnbindReq( msgType, &dstAddr, ed->ieeeAddr, ed->endpoint, clusterID,
   2405                  &destinationAddr, dstEP, ed->SecurityUse );
   \   000174                ; Setup parameters for call to function ZDP_BindUnbindReq
   \   000174   85..82       MOV     DPL,?V0 + 0
   \   000177   85..83       MOV     DPH,?V0 + 1
   \   00017A   A3           INC     DPTR
   \   00017B   E0           MOVX    A,@DPTR
   \   00017C   F5..         MOV     ?V0 + 4,A
   \   00017E   78..         MOV     R0,#?V0 + 4
   \   000180   12....       LCALL   ?PUSH_XSTACK_I_ONE
   \   000183   78..         MOV     R0,#?V0 + 3
   \   000185   12....       LCALL   ?PUSH_XSTACK_I_ONE
   \   000188   740C         MOV     A,#0xc
   \   00018A   12....       LCALL   ?XSTACK_DISP0_8
   \   00018D   8582..       MOV     ?V0 + 4,DPL
   \   000190   8583..       MOV     ?V0 + 5,DPH
   \   000193   78..         MOV     R0,#?V0 + 4
   \   000195   12....       LCALL   ?PUSH_XSTACK_I_TWO
   \   000198   78..         MOV     R0,#?V0 + 8
   \   00019A   12....       LCALL   ?PUSH_XSTACK_I_TWO
   \   00019D   E5..         MOV     A,?V0 + 0
   \   00019F   2406         ADD     A,#0x6
   \   0001A1   F5..         MOV     ?V0 + 4,A
   \   0001A3   E5..         MOV     A,?V0 + 1
   \   0001A5   3400         ADDC    A,#0x0
   \   0001A7   F5..         MOV     ?V0 + 5,A
   \   0001A9   78..         MOV     R0,#?V0 + 4
   \   0001AB   12....       LCALL   ?PUSH_XSTACK_I_TWO
   \   0001AE   E5..         MOV     A,?V0 + 0
   \   0001B0   240E         ADD     A,#0xe
   \   0001B2   F582         MOV     DPL,A
   \   0001B4   E5..         MOV     A,?V0 + 1
   \   0001B6   12....       LCALL   ?Subroutine126 & 0xFFFF
   \                     ??CrossCallReturnLabel_237:
   \   0001B9   7409         MOV     A,#0x9
   \   0001BB   12....       LCALL   ?XSTACK_DISP0_8
   \   0001BE   AC82         MOV     R4,DPL
   \   0001C0   AD83         MOV     R5,DPH
   \   0001C2   EE           MOV     A,R6
   \   0001C3   FA           MOV     R2,A
   \   0001C4   7B00         MOV     R3,#0x0
   \   0001C6   12....       LCALL   ??ZDP_BindUnbindReq?relay
   \   0001C9   7408         MOV     A,#0x8
   \   0001CB   12....       LCALL   ?DEALLOC_XSTACK8
   2406          
   2407              // Set timeout for response
   2408              APS_SetEndDeviceBindTimeout( AIB_MaxBindingTime, ZDO_EndDeviceBindMatchTimeoutCB );
   \   0001CE                ; Setup parameters for call to function APS_SetEndDeviceBindTimeout
   \   0001CE   12....       LCALL   ?Subroutine109 & 0xFFFF
   2409            }
   \                     ??CrossCallReturnLabel_199:
   \   0001D1   02....       LJMP    ??ZDMatchSendState_20 & 0xFFFF
   2410            else
   2411            {
   2412              // Send the response messages to requesting devices
   2413              // send response to first requester
   2414              dstAddr.addr.shortAddr = matchED->ed1.srcAddr;
   \                     ??ZDMatchSendState_17:
   \   0001D4   12....       LCALL   ?Subroutine202 & 0xFFFF
   \                     ??CrossCallReturnLabel_517:
   \   0001D7   12....       LCALL   ?Subroutine75 & 0xFFFF
   \                     ??CrossCallReturnLabel_471:
   \   0001DA   12....       LCALL   ?XSTACK_DISP0_8
   \   0001DD   12....       LCALL   ?Subroutine25 & 0xFFFF
   2415              ZDP_EndDeviceBindRsp( matchED->ed1.TransSeq, &dstAddr, rspStatus, matchED->ed1.SecurityUse );
   \                     ??CrossCallReturnLabel_29:
   \   0001E0   F5..         MOV     ?V0 + 0,A
   \   0001E2   78..         MOV     R0,#?V0 + 0
   \   0001E4   12....       LCALL   ?PUSH_XSTACK_I_ONE
   \   0001E7   7401         MOV     A,#0x1
   \   0001E9   12....       LCALL   ?XSTACK_DISP0_8
   \   0001EC   8582..       MOV     ?V0 + 0,DPL
   \   0001EF   8583..       MOV     ?V0 + 1,DPH
   \   0001F2   78..         MOV     R0,#?V0 + 0
   \   0001F4   12....       LCALL   ?PUSH_XSTACK_I_TWO
   \   0001F7   75..20       MOV     ?V0 + 0,#0x20
   \   0001FA   75..80       MOV     ?V0 + 1,#-0x80
   \   0001FD   78..         MOV     R0,#?V0 + 0
   \   0001FF   12....       LCALL   ?PUSH_XSTACK_I_TWO
   \   000202   7901         MOV     R1,#0x1
   \   000204   7406         MOV     A,#0x6
   \   000206   12....       LCALL   ?XSTACK_DISP0_8
   \   000209   12....       LCALL   ?Subroutine105 & 0xFFFF
   \                     ??CrossCallReturnLabel_193:
   \   00020C   12....       LCALL   ?DEALLOC_XSTACK8
   2416          
   2417              // send response to second requester
   2418              if ( matchED->state == ZDMATCH_SENDING_BINDS )
   \   00020F   12....       LCALL   ?Subroutine80 & 0xFFFF
   \                     ??CrossCallReturnLabel_146:
   \   000212   704D         JNZ     ??ZDMatchSendState_21
   2419              {
   2420                dstAddr.addr.shortAddr = matchED->ed2.srcAddr;
   \   000214   90....       MOV     DPTR,#matchED
   \   000217   E0           MOVX    A,@DPTR
   \   000218   2419         ADD     A,#0x19
   \   00021A   12....       LCALL   ?Subroutine102 & 0xFFFF
   \                     ??CrossCallReturnLabel_187:
   \   00021D   12....       LCALL   ??Subroutine229_0 & 0xFFFF
   \                     ??CrossCallReturnLabel_467:
   \   000220   12....       LCALL   ?XSTACK_DISP0_8
   \   000223   12....       LCALL   ??Subroutine213_0 & 0xFFFF
   2421                ZDP_EndDeviceBindRsp( matchED->ed2.TransSeq, &dstAddr, rspStatus, matchED->ed2.SecurityUse );
   \                     ??CrossCallReturnLabel_403:
   \   000226                ; Setup parameters for call to function ZDP_SendData
   \   000226   90....       MOV     DPTR,#matchED
   \   000229   E0           MOVX    A,@DPTR
   \   00022A   2418         ADD     A,#0x18
   \   00022C   12....       LCALL   ??Subroutine208_0 & 0xFFFF
   2422              }
   \                     ??CrossCallReturnLabel_355:
   \   00022F   12....       LCALL   ?PUSH_XSTACK_I_ONE
   \   000232   7401         MOV     A,#0x1
   \   000234   12....       LCALL   ?XSTACK_DISP0_8
   \   000237   8582..       MOV     ?V0 + 0,DPL
   \   00023A   8583..       MOV     ?V0 + 1,DPH
   \   00023D   78..         MOV     R0,#?V0 + 0
   \   00023F   12....       LCALL   ?PUSH_XSTACK_I_TWO
   \   000242   75..20       MOV     ?V0 + 0,#0x20
   \   000245   75..80       MOV     ?V0 + 1,#-0x80
   \   000248   78..         MOV     R0,#?V0 + 0
   \   00024A   12....       LCALL   ?PUSH_XSTACK_I_TWO
   \   00024D   7901         MOV     R1,#0x1
   \   00024F   7406         MOV     A,#0x6
   \   000251   12....       LCALL   ?XSTACK_DISP0_8
   \   000254   AC82         MOV     R4,DPL
   \   000256   AD83         MOV     R5,DPH
   \   000258   12....       LCALL   ?Subroutine116 & 0xFFFF
   \                     ??CrossCallReturnLabel_211:
   \   00025B   12....       LCALL   ?Subroutine193 & 0xFFFF
   \                     ??CrossCallReturnLabel_341:
   \   00025E   12....       LCALL   ?DEALLOC_XSTACK8
   2423          
   2424              // Process ended - release memory used
   2425              ZDO_RemoveMatchMemory();
   \                     ??ZDMatchSendState_21:
   \   000261                ; Setup parameters for call to function ZDO_RemoveMatchMemory
   \   000261   12....       LCALL   ??ZDO_RemoveMatchMemory?relay
   2426            }
   2427          
   2428            return ( TRUE );
   \                     ??ZDMatchSendState_20:
   \   000264   7901         MOV     R1,#0x1
   \                     ??ZDMatchSendState_2:
   \   000266   7413         MOV     A,#0x13
   \   000268   12....       LCALL   ?DEALLOC_XSTACK8
   \   00026B                REQUIRE ?Subroutine7
   \   00026B                ; // Fall through to label ?Subroutine7
   2429          }

   \                                 In  segment BANKED_CODE, align 1, keep-with-next
   \                     ?Subroutine7:
   \   000000   7F0A         MOV     R7,#0xa
   \   000002   02....       LJMP    ?BANKED_LEAVE_XDATA

   \                                 In  segment BANKED_CODE, align 1, keep-with-next
   \                     ?Subroutine115:
   \   000000   F5..         MOV     ?V0 + 4,A
   \   000002   A3           INC     DPTR
   \   000003   E0           MOVX    A,@DPTR
   \   000004   3400         ADDC    A,#0x0
   \   000006   F5..         MOV     ?V0 + 5,A
   \   000008   90....       MOV     DPTR,#matchED
   \   00000B   E0           MOVX    A,@DPTR
   \   00000C   22           RET

   \                                 In  segment BANKED_CODE, align 1, keep-with-next
   \                     ?Subroutine93:
   \   000000   90....       MOV     DPTR,#matchED
   \   000003   E0           MOVX    A,@DPTR
   \   000004   242F         ADD     A,#0x2f
   \   000006   12....       LCALL   ?Subroutine165 & 0xFFFF
   \                     ??CrossCallReturnLabel_297:
   \   000009   22           RET

   \                                 In  segment BANKED_CODE, align 1, keep-with-next
   \                     ?Subroutine82:
   \   000000   90....       MOV     DPTR,#matchED
   \   000003   E0           MOVX    A,@DPTR
   \   000004   242F         ADD     A,#0x2f
   \   000006   12....       LCALL   ?Subroutine164 & 0xFFFF
   \                     ??CrossCallReturnLabel_486:
   \   000009   6401         XRL     A,#0x1
   \   00000B   22           RET

   \                                 In  segment BANKED_CODE, align 1, keep-with-next
   \                     ?Subroutine60:
   \   000000   FA           MOV     R2,A
   \   000001   A3           INC     DPTR
   \   000002   E0           MOVX    A,@DPTR
   \   000003   12....       LCALL   ?Subroutine188 & 0xFFFF
   \                     ??CrossCallReturnLabel_334:
   \   000006   28           ADD     A,R0
   \   000007   F8           MOV     R0,A
   \   000008   A3           INC     DPTR
   \   000009   E0           MOVX    A,@DPTR
   \   00000A   39           ADDC    A,R1
   \   00000B   F9           MOV     R1,A
   \   00000C   E8           MOV     A,R0
   \   00000D   24FE         ADD     A,#-0x2
   \   00000F   F582         MOV     DPL,A
   \   000011   E9           MOV     A,R1
   \   000012   34FF         ADDC    A,#-0x1
   \   000014   F583         MOV     DPH,A
   \   000016   E0           MOVX    A,@DPTR
   \   000017   F5..         MOV     ?V0 + 8,A
   \   000019   A3           INC     DPTR
   \   00001A   E0           MOVX    A,@DPTR
   \   00001B   F5..         MOV     ?V0 + 9,A
   \   00001D   90....       MOV     DPTR,#matchED
   \   000020   E0           MOVX    A,@DPTR
   \   000021   22           RET

   \                                 In  segment BANKED_CODE, align 1, keep-with-next
   \                     ?Subroutine188:
   \   000000   3400         ADDC    A,#0x0
   \   000002   FB           MOV     R3,A
   \   000003   8A82         MOV     DPL,R2
   \   000005   8B83         MOV     DPH,R3
   \   000007   E0           MOVX    A,@DPTR
   \   000008   22           RET
   2430          
   2431          /*********************************************************************
   2432           * @fn      ZDO_EndDeviceBindMatchTimeoutCB()
   2433           *
   2434           * @brief   End device bind timeout.
   2435           *
   2436           * @param  none
   2437           *
   2438           * @return  none
   2439           */

   \                                 In  segment BANKED_CODE, align 1, keep-with-next
   2440          static void ZDO_EndDeviceBindMatchTimeoutCB( void )
   \                     ZDO_EndDeviceBindMatchTimeoutCB:
   2441          {
   \   000000   C082         PUSH    DPL
   \   000002   C083         PUSH    DPH
   \   000004                ; Saved register size: 2
   \   000004                ; Auto size: 0
   2442            ZDMatchSendState( ZDMATCH_REASON_TIMEOUT, ZDP_TIMEOUT, 0 );
   \   000004                ; Setup parameters for call to function ZDMatchSendState
   \   000004   7B00         MOV     R3,#0x0
   \   000006   7A85         MOV     R2,#-0x7b
   \   000008   7901         MOV     R1,#0x1
   \   00000A   12....       LCALL   ??ZDMatchSendState?relay
   2443          }
   \   00000D   02....       LJMP    ?Subroutine0 & 0xFFFF
   2444          
   2445          /*********************************************************************
   2446           * ZDO MESSAGE PARSING API FUNCTIONS
   2447           */
   2448          
   2449          /*********************************************************************
   2450           * @fn          ZDO_ParseEndDeviceBindReq
   2451           *
   2452           * @brief       This function parses the End_Device_Bind_req message.
   2453           *
   2454           *     NOTE:  The clusters lists in bindReq are allocated in this
   2455           *            function and must be freed by that calling function.
   2456           *
   2457           * @param       inMsg  - incoming message (request)
   2458           * @param       bindReq - pointer to place to parse message to
   2459           *
   2460           * @return      none
   2461           */

   \                                 In  segment BANKED_CODE, align 1, keep-with-next
   2462          void ZDO_ParseEndDeviceBindReq( zdoIncomingMsg_t *inMsg, ZDEndDeviceBind_t *bindReq )
   \                     ZDO_ParseEndDeviceBindReq:
   2463          {
   \   000000   74EE         MOV     A,#-0x12
   \   000002   12....       LCALL   ?BANKED_ENTER_XDATA
   \   000005                ; Saved register size: 18
   \   000005                ; Auto size: 0
   \   000005   EC           MOV     A,R4
   \   000006   FE           MOV     R6,A
   \   000007   ED           MOV     A,R5
   \   000008   FF           MOV     R7,A
   2464            uint8 *msg;
   2465          
   2466            // Parse the message
   2467            bindReq->TransSeq = inMsg->TransSeq;
   \   000009   EA           MOV     A,R2
   \   00000A   240F         ADD     A,#0xf
   \   00000C   12....       LCALL   ?Subroutine133 & 0xFFFF
   \                     ??CrossCallReturnLabel_246:
   \   00000F   12....       LCALL   ?Subroutine46 & 0xFFFF
   2468            bindReq->srcAddr = inMsg->srcAddr.addr.shortAddr;
   \                     ??CrossCallReturnLabel_71:
   \   000012   12....       LCALL   ??Subroutine236_0 & 0xFFFF
   \                     ??CrossCallReturnLabel_506:
   \   000015   8E82         MOV     DPL,R6
   \   000017   8F83         MOV     DPH,R7
   \   000019   A3           INC     DPTR
   \   00001A   A3           INC     DPTR
   \   00001B   12....       LCALL   ??Subroutine213_0 & 0xFFFF
   2469            bindReq->SecurityUse = inMsg->SecurityUse;
   \                     ??CrossCallReturnLabel_404:
   \   00001E   EA           MOV     A,R2
   \   00001F   240E         ADD     A,#0xe
   \   000021   12....       LCALL   ?Subroutine133 & 0xFFFF
   \                     ??CrossCallReturnLabel_247:
   \   000024   A3           INC     DPTR
   \   000025   F0           MOVX    @DPTR,A
   2470            msg = inMsg->asdu;
   \   000026   12....       LCALL   ?Subroutine134 & 0xFFFF
   \                     ??CrossCallReturnLabel_248:
   \   000029   12....       LCALL   ?Subroutine85 & 0xFFFF
   2471          
   2472            bindReq->localCoordinator = BUILD_UINT16( msg[0], msg[1] );
   \                     ??CrossCallReturnLabel_635:
   \   00002C   8E82         MOV     DPL,R6
   \   00002E   8F83         MOV     DPH,R7
   \   000030   12....       LCALL   ?Subroutine12 & 0xFFFF
   2473            msg += 2;
   2474          
   2475            osal_cpyExtAddr( bindReq->ieeeAddr, msg );
   \                     ??CrossCallReturnLabel_615:
   \   000033                ; Setup parameters for call to function sAddrExtCpy
   \   000033   AC..         MOV     R4,?V0 + 2
   \   000035   FD           MOV     R5,A
   \   000036   EE           MOV     A,R6
   \   000037   2406         ADD     A,#0x6
   \   000039   FA           MOV     R2,A
   \   00003A   EF           MOV     A,R7
   \   00003B   3400         ADDC    A,#0x0
   \   00003D   12....       LCALL   ?Subroutine56 & 0xFFFF
   2476            msg += Z_EXTADDR_LEN;
   2477          
   2478            bindReq->endpoint = *msg++;
   \                     ??CrossCallReturnLabel_522:
   \   000040   C0E0         PUSH    A
   \   000042   EE           MOV     A,R6
   \   000043   240E         ADD     A,#0xe
   \   000045   F582         MOV     DPL,A
   \   000047   EF           MOV     A,R7
   \   000048   12....       LCALL   ??Subroutine248_0 & 0xFFFF
   \                     ??CrossCallReturnLabel_583:
   \   00004B   D0E0         POP     A
   \   00004D   12....       LCALL   ?Subroutine20 & 0xFFFF
   2479            bindReq->profileID = BUILD_UINT16( msg[0], msg[1] );
   \                     ??CrossCallReturnLabel_15:
   \   000050   F8           MOV     R0,A
   \   000051   EE           MOV     A,R6
   \   000052   240F         ADD     A,#0xf
   \   000054   12....       LCALL   ?Subroutine136 & 0xFFFF
   \                     ??CrossCallReturnLabel_497:
   \   000057   12....       LCALL   ??Subroutine249_0 & 0xFFFF
   2480            msg += 2;
   2481          
   2482            bindReq->inClusters = NULL;
   \                     ??CrossCallReturnLabel_617:
   \   00005A   EE           MOV     A,R6
   \   00005B   2412         ADD     A,#0x12
   \   00005D   F5..         MOV     ?V0 + 4,A
   \   00005F   EF           MOV     A,R7
   \   000060   12....       LCALL   ?Subroutine138 & 0xFFFF
   \                     ??CrossCallReturnLabel_250:
   \   000063   E4           CLR     A
   \   000064   F0           MOVX    @DPTR,A
   \   000065   A3           INC     DPTR
   \   000066   F0           MOVX    @DPTR,A
   2483            bindReq->outClusters = NULL;
   \   000067   EE           MOV     A,R6
   \   000068   2415         ADD     A,#0x15
   \   00006A   12....       LCALL   ?Subroutine130 & 0xFFFF
   \                     ??CrossCallReturnLabel_241:
   \   00006D   12....       LCALL   ?Subroutine55 & 0xFFFF
   2484          
   2485            if ((bindReq->numInClusters = *msg++) &&
   2486                (bindReq->inClusters = (uint16*)osal_mem_alloc( (bindReq->numInClusters * sizeof( uint16 )))))
   \                     ??CrossCallReturnLabel_95:
   \   000070   F8           MOV     R0,A
   \   000071   A3           INC     DPTR
   \   000072   8582..       MOV     ?V0 + 2,DPL
   \   000075   8583..       MOV     ?V0 + 3,DPH
   \   000078   EE           MOV     A,R6
   \   000079   2411         ADD     A,#0x11
   \   00007B   F5..         MOV     ?V0 + 0,A
   \   00007D   EF           MOV     A,R7
   \   00007E   12....       LCALL   ??Subroutine244_0 & 0xFFFF
   \                     ??CrossCallReturnLabel_563:
   \   000081   85..82       MOV     DPL,?V0 + 0
   \   000084   F583         MOV     DPH,A
   \   000086   E8           MOV     A,R0
   \   000087   F0           MOVX    @DPTR,A
   \   000088   6028         JZ      ??ZDO_ParseEndDeviceBindReq_0
   \   00008A                ; Setup parameters for call to function osal_mem_alloc
   \   00008A   12....       LCALL   ?Subroutine191 & 0xFFFF
   \                     ??CrossCallReturnLabel_337:
   \   00008D   12....       LCALL   ?Subroutine39 & 0xFFFF
   \                     ??CrossCallReturnLabel_57:
   \   000090   85..82       MOV     DPL,?V0 + 4
   \   000093   85..83       MOV     DPH,?V0 + 5
   \   000096   E0           MOVX    A,@DPTR
   \   000097   FC           MOV     R4,A
   \   000098   A3           INC     DPTR
   \   000099   E0           MOVX    A,@DPTR
   \   00009A   FD           MOV     R5,A
   \   00009B   EC           MOV     A,R4
   \   00009C   4D           ORL     A,R5
   \   00009D   6013         JZ      ??ZDO_ParseEndDeviceBindReq_0
   2487            {
   2488              msg = ZDO_ConvertOTAClusters( bindReq->numInClusters, msg, bindReq->inClusters );
   \   00009F                ; Setup parameters for call to function ZDO_ConvertOTAClusters
   \   00009F   AA..         MOV     R2,?V0 + 2
   \   0000A1   AB..         MOV     R3,?V0 + 3
   \   0000A3   85..82       MOV     DPL,?V0 + 0
   \   0000A6   85..83       MOV     DPH,?V0 + 1
   \   0000A9   12....       LCALL   ?Subroutine118 & 0xFFFF
   2489            }
   \                     ??CrossCallReturnLabel_215:
   \   0000AC   8A..         MOV     ?V0 + 2,R2
   \   0000AE   8B..         MOV     ?V0 + 3,R3
   \   0000B0   8008         SJMP    ??ZDO_ParseEndDeviceBindReq_1
   2490            else
   2491            {
   2492              bindReq->numInClusters = 0;
   \                     ??ZDO_ParseEndDeviceBindReq_0:
   \   0000B2   85..82       MOV     DPL,?V0 + 0
   \   0000B5   85..83       MOV     DPH,?V0 + 1
   \   0000B8   E4           CLR     A
   \   0000B9   F0           MOVX    @DPTR,A
   2493            }
   2494          
   2495            if ((bindReq->numOutClusters = *msg++) &&
   2496                (bindReq->outClusters = (uint16*)osal_mem_alloc((bindReq->numOutClusters * sizeof(uint16)))))
   \                     ??ZDO_ParseEndDeviceBindReq_1:
   \   0000BA   85..82       MOV     DPL,?V0 + 2
   \   0000BD   85..83       MOV     DPH,?V0 + 3
   \   0000C0   E0           MOVX    A,@DPTR
   \   0000C1   F8           MOV     R0,A
   \   0000C2   A3           INC     DPTR
   \   0000C3   8582..       MOV     ?V0 + 2,DPL
   \   0000C6   8583..       MOV     ?V0 + 3,DPH
   \   0000C9   EE           MOV     A,R6
   \   0000CA   2414         ADD     A,#0x14
   \   0000CC   12....       LCALL   ?Subroutine142 & 0xFFFF
   \                     ??CrossCallReturnLabel_261:
   \   0000CF   E8           MOV     A,R0
   \   0000D0   F0           MOVX    @DPTR,A
   \   0000D1   6018         JZ      ??ZDO_ParseEndDeviceBindReq_2
   \   0000D3                ; Setup parameters for call to function osal_mem_alloc
   \   0000D3   12....       LCALL   ?Subroutine38 & 0xFFFF
   \                     ??CrossCallReturnLabel_48:
   \   0000D6   FC           MOV     R4,A
   \   0000D7   A3           INC     DPTR
   \   0000D8   E0           MOVX    A,@DPTR
   \   0000D9   FD           MOV     R5,A
   \   0000DA   EC           MOV     A,R4
   \   0000DB   4D           ORL     A,R5
   \   0000DC   600D         JZ      ??ZDO_ParseEndDeviceBindReq_2
   2497            {
   2498              msg = ZDO_ConvertOTAClusters( bindReq->numOutClusters, msg, bindReq->outClusters );
   \   0000DE                ; Setup parameters for call to function ZDO_ConvertOTAClusters
   \   0000DE   AA..         MOV     R2,?V0 + 2
   \   0000E0   AB..         MOV     R3,?V0 + 3
   \   0000E2   8E82         MOV     DPL,R6
   \   0000E4   8F83         MOV     DPH,R7
   \   0000E6   12....       LCALL   ?Subroutine118 & 0xFFFF
   2499            }
   \                     ??CrossCallReturnLabel_216:
   \   0000E9   8006         SJMP    ??ZDO_ParseEndDeviceBindReq_3
   2500            else
   2501            {
   2502              bindReq->numOutClusters = 0;
   \                     ??ZDO_ParseEndDeviceBindReq_2:
   \   0000EB   8E82         MOV     DPL,R6
   \   0000ED   8F83         MOV     DPH,R7
   \   0000EF   E4           CLR     A
   \   0000F0   F0           MOVX    @DPTR,A
   2503            }
   2504          }
   \                     ??ZDO_ParseEndDeviceBindReq_3:
   \   0000F1   02....       LJMP    ?Subroutine7 & 0xFFFF

   \                                 In  segment BANKED_CODE, align 1, keep-with-next
   \                     ?Subroutine133:
   \   000000   12....       LCALL   ?Subroutine183 & 0xFFFF
   \                     ??CrossCallReturnLabel_425:
   \   000003   8E82         MOV     DPL,R6
   \   000005   8F83         MOV     DPH,R7
   \   000007   22           RET

   \                                 In  segment BANKED_CODE, align 1, keep-with-next
   \                     ?Subroutine56:
   \   000000   FB           MOV     R3,A
   \   000001                REQUIRE ??Subroutine237_0
   \   000001                ; // Fall through to label ??Subroutine237_0

   \                                 In  segment BANKED_CODE, align 1, keep-with-next
   \                     ??Subroutine237_0:
   \   000000   12....       LCALL   ??sAddrExtCpy?relay
   \   000003   E5..         MOV     A,?V0 + 2
   \   000005   2408         ADD     A,#0x8
   \   000007   F5..         MOV     ?V0 + 2,A
   \   000009   E5..         MOV     A,?V0 + 3
   \   00000B   12....       LCALL   ?Subroutine181 & 0xFFFF
   \                     ??CrossCallReturnLabel_525:
   \   00000E   22           RET

   \                                 In  segment BANKED_CODE, align 1, keep-with-next
   \                     ?Subroutine134:
   \   000000   12....       LCALL   ?Subroutine182 & 0xFFFF
   \                     ??CrossCallReturnLabel_326:
   \   000003   22           RET

   \                                 In  segment BANKED_CODE, align 1, keep-with-next
   \                     ?Subroutine182:
   \   000000   EA           MOV     A,R2
   \   000001   2413         ADD     A,#0x13
   \   000003   F582         MOV     DPL,A
   \   000005   EB           MOV     A,R3
   \   000006   12....       LCALL   ??Subroutine241_0 & 0xFFFF
   \                     ??CrossCallReturnLabel_610:
   \   000009   E0           MOVX    A,@DPTR
   \   00000A   F5..         MOV     ?V0 + 2,A
   \   00000C   A3           INC     DPTR
   \   00000D   E0           MOVX    A,@DPTR
   \   00000E   22           RET

   \                                 In  segment BANKED_CODE, align 1, keep-with-next
   \                     ?Subroutine55:
   \   000000   F0           MOVX    @DPTR,A
   \   000001   85..82       MOV     DPL,?V0 + 2
   \   000004   85..83       MOV     DPH,?V0 + 3
   \   000007   E0           MOVX    A,@DPTR
   \   000008   22           RET

   \                                 In  segment BANKED_CODE, align 1, keep-with-next
   \                     ?Subroutine46:
   \   000000   F0           MOVX    @DPTR,A
   \   000001   8A82         MOV     DPL,R2
   \   000003   8B83         MOV     DPH,R3
   \   000005   A3           INC     DPTR
   \   000006   A3           INC     DPTR
   \   000007   22           RET

   \                                 In  segment BANKED_CODE, align 1, keep-with-next
   \                     ?Subroutine153:
   \   000000   12....       LCALL   ?Subroutine196 & 0xFFFF
   \                     ??CrossCallReturnLabel_349:
   \   000003   8582..       MOV     ?V0 + 2,DPL
   \   000006   8583..       MOV     ?V0 + 3,DPH
   \   000009   22           RET

   \                                 In  segment BANKED_CODE, align 1, keep-with-next
   \                     ?Subroutine20:
   \   000000   12....       LCALL   ?Subroutine153 & 0xFFFF
   \                     ??CrossCallReturnLabel_279:
   \   000003   12....       LCALL   ?Subroutine168 & 0xFFFF
   \                     ??CrossCallReturnLabel_640:
   \   000006   22           RET

   \                                 In  segment BANKED_CODE, align 1, keep-with-next
   \                     ?Subroutine12:
   \   000000   A3           INC     DPTR
   \   000001   A3           INC     DPTR
   \   000002   A3           INC     DPTR
   \   000003   A3           INC     DPTR
   \   000004                REQUIRE ??Subroutine249_0
   \   000004                ; // Fall through to label ??Subroutine249_0

   \                                 In  segment BANKED_CODE, align 1, keep-with-next
   \                     ??Subroutine249_0:
   \   000000   F0           MOVX    @DPTR,A
   \   000001   A3           INC     DPTR
   \   000002   E9           MOV     A,R1
   \   000003   F0           MOVX    @DPTR,A
   \   000004   E5..         MOV     A,?V0 + 2
   \   000006   2402         ADD     A,#0x2
   \   000008   F5..         MOV     ?V0 + 2,A
   \   00000A   E5..         MOV     A,?V0 + 3
   \   00000C   3400         ADDC    A,#0x0
   \   00000E   F5..         MOV     ?V0 + 3,A
   \   000010   22           RET

   \                                 In  segment BANKED_CODE, align 1, keep-with-next
   \                     ?Subroutine196:
   \   000000   F0           MOVX    @DPTR,A
   \   000001   85..82       MOV     DPL,?V0 + 2
   \   000004   85..83       MOV     DPH,?V0 + 3
   \   000007   A3           INC     DPTR
   \   000008   22           RET

   \                                 In  segment BANKED_CODE, align 1, keep-with-next
   \                     ?Subroutine138:
   \   000000   3400         ADDC    A,#0x0
   \   000002   F5..         MOV     ?V0 + 5,A
   \   000004   85..82       MOV     DPL,?V0 + 4
   \   000007   F583         MOV     DPH,A
   \   000009   22           RET

   \                                 In  segment BANKED_CODE, align 1, keep-with-next
   \                     ?Subroutine191:
   \   000000   C3           CLR     C
   \   000001   33           RLC     A
   \   000002   FA           MOV     R2,A
   \   000003   E4           CLR     A
   \   000004   33           RLC     A
   \   000005   FB           MOV     R3,A
   \   000006   12....       LCALL   ??osal_mem_alloc?relay
   \   000009   85..82       MOV     DPL,?V0 + 4
   \   00000C   85..83       MOV     DPH,?V0 + 5
   \   00000F   22           RET

   \                                 In  segment BANKED_CODE, align 1, keep-with-next
   \                     ?Subroutine85:
   \   000000   F5..         MOV     ?V0 + 3,A
   \   000002   85..82       MOV     DPL,?V0 + 2
   \   000005   F583         MOV     DPH,A
   \   000007                REQUIRE ??Subroutine254_0
   \   000007                ; // Fall through to label ??Subroutine254_0
   2505          
   2506          /*********************************************************************
   2507           * @fn          ZDO_ParseBindUnbindReq
   2508           *
   2509           * @brief       This function parses the Bind_req or Unbind_req message.
   2510           *
   2511           * @param       inMsg  - incoming message (request)
   2512           * @param       pReq - place to put parsed information
   2513           *
   2514           * @return      none
   2515           */

   \                                 In  segment BANKED_CODE, align 1, keep-with-next
   2516          void ZDO_ParseBindUnbindReq( zdoIncomingMsg_t *inMsg, ZDO_BindUnbindReq_t *pReq )
   \                     ZDO_ParseBindUnbindReq:
   2517          {
   \   000000   74F6         MOV     A,#-0xa
   \   000002   12....       LCALL   ?BANKED_ENTER_XDATA
   \   000005                ; Saved register size: 10
   \   000005                ; Auto size: 0
   \   000005   8C..         MOV     ?V0 + 0,R4
   \   000007   8D..         MOV     ?V0 + 1,R5
   2518            uint8 *msg;
   2519          
   2520            msg = inMsg->asdu;
   \   000009   12....       LCALL   ?Subroutine94 & 0xFFFF
   2521            osal_cpyExtAddr( pReq->srcAddress, msg );
   \                     ??CrossCallReturnLabel_408:
   \   00000C   FC           MOV     R4,A
   \   00000D   EF           MOV     A,R7
   \   00000E   FD           MOV     R5,A
   \   00000F   AA..         MOV     R2,?V0 + 0
   \   000011   AB..         MOV     R3,?V0 + 1
   \   000013   12....       LCALL   ?Subroutine57 & 0xFFFF
   2522            msg += Z_EXTADDR_LEN;
   2523            pReq->srcEndpoint = *msg++;
   \                     ??CrossCallReturnLabel_97:
   \   000016   85..82       MOV     DPL,?V0 + 0
   \   000019   85..83       MOV     DPH,?V0 + 1
   \   00001C   A3           INC     DPTR
   \   00001D   A3           INC     DPTR
   \   00001E   A3           INC     DPTR
   \   00001F   A3           INC     DPTR
   \   000020   A3           INC     DPTR
   \   000021   A3           INC     DPTR
   \   000022   A3           INC     DPTR
   \   000023   A3           INC     DPTR
   \   000024   12....       LCALL   ?Subroutine30 & 0xFFFF
   2524            pReq->clusterID = BUILD_UINT16( msg[0], msg[1] );
   \                     ??CrossCallReturnLabel_35:
   \   000027   85..82       MOV     DPL,?V0 + 0
   \   00002A   85..83       MOV     DPH,?V0 + 1
   \   00002D   A3           INC     DPTR
   \   00002E   A3           INC     DPTR
   \   00002F   A3           INC     DPTR
   \   000030   A3           INC     DPTR
   \   000031   A3           INC     DPTR
   \   000032   A3           INC     DPTR
   \   000033   12....       LCALL   ?Subroutine13 & 0xFFFF
   2525            msg += 2;
   2526            pReq->dstAddress.addrMode = *msg++;
   \                     ??CrossCallReturnLabel_626:
   \   000036   F8           MOV     R0,A
   \   000037   E5..         MOV     A,?V0 + 0
   \   000039   12....       LCALL   ??Subroutine251_0 & 0xFFFF
   \                     ??CrossCallReturnLabel_619:
   \   00003C   E5..         MOV     A,?V0 + 1
   \   00003E   12....       LCALL   ??Subroutine234_0 & 0xFFFF
   \                     ??CrossCallReturnLabel_495:
   \   000041   12....       LCALL   ?Subroutine43 & 0xFFFF
   2527            if ( pReq->dstAddress.addrMode == Addr64Bit )
   \                     ??CrossCallReturnLabel_65:
   \   000044   240B         ADD     A,#0xb
   \   000046   FA           MOV     R2,A
   \   000047   E5..         MOV     A,?V0 + 1
   \   000049   3400         ADDC    A,#0x0
   \   00004B   FB           MOV     R3,A
   \   00004C   7403         MOV     A,#0x3
   \   00004E   68           XRL     A,R0
   \   00004F   7014         JNZ     ??ZDO_ParseBindUnbindReq_0
   2528            {
   2529              osal_cpyExtAddr( pReq->dstAddress.addr.extAddr, msg );
   \   000051                ; Setup parameters for call to function sAddrExtCpy
   \   000051   EE           MOV     A,R6
   \   000052   FC           MOV     R4,A
   \   000053   EF           MOV     A,R7
   \   000054   FD           MOV     R5,A
   \   000055   12....       LCALL   ?Subroutine58 & 0xFFFF
   2530              msg += Z_EXTADDR_LEN;
   2531              pReq->dstEndpoint = *msg;
   2532            }
   \                     ??CrossCallReturnLabel_99:
   \   000058   C0E0         PUSH    A
   \   00005A   E5..         MOV     A,?V0 + 0
   \   00005C   2414         ADD     A,#0x14
   \   00005E   12....       LCALL   ??Subroutine247_0 & 0xFFFF
   \                     ??CrossCallReturnLabel_591:
   \   000061   D0E0         POP     A
   \   000063   8006         SJMP    ??ZDO_ParseBindUnbindReq_1
   2533            else
   2534            {
   2535              // copy group address
   2536              pReq->dstAddress.addr.shortAddr = BUILD_UINT16( msg[0], msg[1] );
   \                     ??ZDO_ParseBindUnbindReq_0:
   \   000065   12....       LCALL   ?Subroutine106 & 0xFFFF
   2537            }
   \                     ??CrossCallReturnLabel_194:
   \   000068   F0           MOVX    @DPTR,A
   \   000069   A3           INC     DPTR
   \   00006A   E9           MOV     A,R1
   \                     ??ZDO_ParseBindUnbindReq_1:
   \   00006B   F0           MOVX    @DPTR,A
   2538          }
   \   00006C   02....       LJMP    ??Subroutine205_0 & 0xFFFF

   \                                 In  segment BANKED_CODE, align 1, keep-with-next
   \                     ?Subroutine57:
   \   000000   12....       LCALL   ??sAddrExtCpy?relay
   \   000003   EE           MOV     A,R6
   \   000004   2408         ADD     A,#0x8
   \   000006   12....       LCALL   ?Subroutine189 & 0xFFFF
   \                     ??CrossCallReturnLabel_335:
   \   000009   22           RET

   \                                 In  segment BANKED_CODE, align 1, keep-with-next
   \                     ?Subroutine151:
   \   000000   F0           MOVX    @DPTR,A
   \   000001   12....       LCALL   ?Subroutine200 & 0xFFFF
   \                     ??CrossCallReturnLabel_634:
   \   000004   22           RET

   \                                 In  segment BANKED_CODE, align 1, keep-with-next
   \                     ?Subroutine43:
   \   000000   12....       LCALL   ?Subroutine152 & 0xFFFF
   \                     ??CrossCallReturnLabel_277:
   \   000003   E5..         MOV     A,?V0 + 0
   \   000005   22           RET

   \                                 In  segment BANKED_CODE, align 1, keep-with-next
   \                     ?Subroutine156:
   \   000000   12....       LCALL   ?Subroutine194 & 0xFFFF
   \                     ??CrossCallReturnLabel_344:
   \   000003   E0           MOVX    A,@DPTR
   \   000004   22           RET

   \                                 In  segment BANKED_CODE, align 1, keep-with-next
   \                     ??Subroutine247_0:
   \   000000   F582         MOV     DPL,A
   \   000002   E5..         MOV     A,?V0 + 1
   \   000004                REQUIRE ??Subroutine248_0
   \   000004                ; // Fall through to label ??Subroutine248_0

   \                                 In  segment BANKED_CODE, align 1, keep-with-next
   \                     ?Subroutine106:
   \   000000   E0           MOVX    A,@DPTR
   \   000001   FC           MOV     R4,A
   \   000002   A3           INC     DPTR
   \   000003   E0           MOVX    A,@DPTR
   \   000004   F9           MOV     R1,A
   \   000005   EC           MOV     A,R4
   \   000006   8A82         MOV     DPL,R2
   \   000008   8B83         MOV     DPH,R3
   \   00000A   22           RET

   \                                 In  segment BANKED_CODE, align 1, keep-with-next
   \                     ?Subroutine30:
   \   000000   12....       LCALL   ?Subroutine156 & 0xFFFF
   \                     ??CrossCallReturnLabel_285:
   \   000003   FA           MOV     R2,A
   \   000004   A3           INC     DPTR
   \   000005   E0           MOVX    A,@DPTR
   \   000006   F9           MOV     R1,A
   \   000007   EA           MOV     A,R2
   \   000008   22           RET

   \                                 In  segment BANKED_CODE, align 1, keep-with-next
   \                     ?Subroutine13:
   \   000000   A3           INC     DPTR
   \   000001   A3           INC     DPTR
   \   000002                REQUIRE ??Subroutine252_0
   \   000002                ; // Fall through to label ??Subroutine252_0

   \                                 In  segment BANKED_CODE, align 1, keep-with-next
   \                     ??Subroutine252_0:
   \   000000   A3           INC     DPTR
   \   000001   F0           MOVX    @DPTR,A
   \   000002   A3           INC     DPTR
   \   000003   E9           MOV     A,R1
   \   000004                REQUIRE ??Subroutine253_0
   \   000004                ; // Fall through to label ??Subroutine253_0

   \                                 In  segment BANKED_CODE, align 1, keep-with-next
   \                     ??Subroutine253_0:
   \   000000   12....       LCALL   ?Subroutine151 & 0xFFFF
   \                     ??CrossCallReturnLabel_632:
   \   000003   8E82         MOV     DPL,R6
   \   000005   8F83         MOV     DPH,R7
   \   000007   E0           MOVX    A,@DPTR
   \   000008   22           RET

   \                                 In  segment BANKED_CODE, align 1, keep-with-next
   \                     ?Subroutine58:
   \   000000   12....       LCALL   ??sAddrExtCpy?relay
   \   000003   8E82         MOV     DPL,R6
   \   000005   8F83         MOV     DPH,R7
   \   000007   A3           INC     DPTR
   \   000008   A3           INC     DPTR
   \   000009   A3           INC     DPTR
   \   00000A   A3           INC     DPTR
   \   00000B   A3           INC     DPTR
   \   00000C   A3           INC     DPTR
   \   00000D   A3           INC     DPTR
   \   00000E   A3           INC     DPTR
   \   00000F   E0           MOVX    A,@DPTR
   \   000010   22           RET

   \                                 In  segment BANKED_CODE, align 1, keep-with-next
   \                     ?Subroutine200:
   \   000000   EE           MOV     A,R6
   \   000001   2402         ADD     A,#0x2
   \   000003   0E           INC     R6
   \   000004   0E           INC     R6
   \   000005   EF           MOV     A,R7
   \   000006   3400         ADDC    A,#0x0
   \   000008   FF           MOV     R7,A
   \   000009   22           RET

   \                                 In  segment BANKED_CODE, align 1, keep-with-next
   \                     ?Subroutine152:
   \   000000   12....       LCALL   ?Subroutine195 & 0xFFFF
   \                     ??CrossCallReturnLabel_347:
   \   000003   0E           INC     R6
   \   000004   AF83         MOV     R7,DPH
   \   000006   22           RET

   \                                 In  segment BANKED_CODE, align 1, keep-with-next
   \                     ?Subroutine194:
   \   000000   F0           MOVX    @DPTR,A
   \   000001   8E82         MOV     DPL,R6
   \   000003   8F83         MOV     DPH,R7
   \   000005   A3           INC     DPTR
   \   000006   AE82         MOV     R6,DPL
   \   000008   AF83         MOV     R7,DPH
   \   00000A   22           RET
   2539          
   2540          /*********************************************************************
   2541           * @fn      ZDO_ParseAddrRsp
   2542           *
   2543           * @brief   Turns the inMsg (incoming message) into the out parsed
   2544           *          structure.
   2545           *
   2546           * @param   inMsg - incoming message
   2547           *
   2548           * @return  pointer to parsed structures.  This structure was
   2549           *          allocated using osal_mem_alloc, so it must be freed
   2550           *          by the calling function [osal_mem_free()].
   2551           */

   \                                 In  segment BANKED_CODE, align 1, keep-with-next
   2552          ZDO_NwkIEEEAddrResp_t *ZDO_ParseAddrRsp( zdoIncomingMsg_t *inMsg )
   \                     ZDO_ParseAddrRsp:
   2553          {
   \   000000   74F2         MOV     A,#-0xe
   \   000002   12....       LCALL   ?BANKED_ENTER_XDATA
   \   000005                ; Saved register size: 14
   \   000005                ; Auto size: 0
   \   000005   EA           MOV     A,R2
   \   000006   FE           MOV     R6,A
   \   000007   EB           MOV     A,R3
   \   000008   FF           MOV     R7,A
   2554            ZDO_NwkIEEEAddrResp_t *rsp;
   2555            uint8 *msg;
   2556            byte cnt = 0;
   2557          
   2558            // Calculate the number of items in the list
   2559            if ( inMsg->asduLen > (1 + Z_EXTADDR_LEN + 2) )
   \   000009   EE           MOV     A,R6
   \   00000A   2410         ADD     A,#0x10
   \   00000C   12....       LCALL   ??Subroutine217_0 & 0xFFFF
   \                     ??CrossCallReturnLabel_416:
   \   00000F   C3           CLR     C
   \   000010   940C         SUBB    A,#0xc
   \   000012   400F         JC      ??ZDO_ParseAddrRsp_0
   2560            {
   2561              cnt = inMsg->asdu[1 + Z_EXTADDR_LEN + 2];
   \   000014   EE           MOV     A,R6
   \   000015   2413         ADD     A,#0x13
   \   000017   12....       LCALL   ??Subroutine217_0 & 0xFFFF
   2562            }
   \                     ??CrossCallReturnLabel_417:
   \   00001A   240B         ADD     A,#0xb
   \   00001C   12....       LCALL   ?Subroutine91 & 0xFFFF
   \                     ??CrossCallReturnLabel_458:
   \   00001F   F5..         MOV     ?V0 + 2,A
   \   000021   8003         SJMP    ??ZDO_ParseAddrRsp_1
   2563            else
   2564            {
   2565              cnt = 0;
   \                     ??ZDO_ParseAddrRsp_0:
   \   000023   75..00       MOV     ?V0 + 2,#0x0
   2566            }
   2567          
   2568            // Make buffer
   2569            rsp = (ZDO_NwkIEEEAddrResp_t *)osal_mem_alloc( sizeof(ZDO_NwkIEEEAddrResp_t) + (cnt * sizeof ( uint16 )) );
   \                     ??ZDO_ParseAddrRsp_1:
   \   000026                ; Setup parameters for call to function osal_mem_alloc
   \   000026   E5..         MOV     A,?V0 + 2
   \   000028   C3           CLR     C
   \   000029   33           RLC     A
   \   00002A   F8           MOV     R0,A
   \   00002B   E4           CLR     A
   \   00002C   33           RLC     A
   \   00002D   F9           MOV     R1,A
   \   00002E   E8           MOV     A,R0
   \   00002F   240D         ADD     A,#0xd
   \   000031   FA           MOV     R2,A
   \   000032   E9           MOV     A,R1
   \   000033   12....       LCALL   ?Subroutine127 & 0xFFFF
   2570          
   2571            if ( rsp )
   \                     ??CrossCallReturnLabel_238:
   \   000036   607A         JZ      ??ZDO_ParseAddrRsp_2
   2572            {
   2573              msg = inMsg->asdu;
   \   000038   12....       LCALL   ??Subroutine209_0 & 0xFFFF
   \                     ??CrossCallReturnLabel_363:
   \   00003B   12....       LCALL   ??Subroutine245_0 & 0xFFFF
   2574          
   2575              rsp->status = *msg++;
   \                     ??CrossCallReturnLabel_571:
   \   00003E   8A82         MOV     DPL,R2
   \   000040   8B83         MOV     DPH,R3
   \   000042   12....       LCALL   ?Subroutine47 & 0xFFFF
   2576              if ( rsp->status == ZDO_SUCCESS )
   \                     ??CrossCallReturnLabel_76:
   \   000045   706B         JNZ     ??ZDO_ParseAddrRsp_2
   2577              {
   2578                osal_cpyExtAddr( rsp->extAddr, msg );
   \   000047                ; Setup parameters for call to function sAddrExtCpy
   \   000047   EE           MOV     A,R6
   \   000048   FC           MOV     R4,A
   \   000049   EF           MOV     A,R7
   \   00004A   FD           MOV     R5,A
   \   00004B   EA           MOV     A,R2
   \   00004C   2403         ADD     A,#0x3
   \   00004E   0A           INC     R2
   \   00004F   0A           INC     R2
   \   000050   0A           INC     R2
   \   000051   EB           MOV     A,R3
   \   000052   3400         ADDC    A,#0x0
   \   000054   FB           MOV     R3,A
   \   000055   12....       LCALL   ?Subroutine57 & 0xFFFF
   2579                msg += Z_EXTADDR_LEN;
   2580                rsp->nwkAddr = BUILD_UINT16( msg[0], msg[1] );
   \                     ??CrossCallReturnLabel_98:
   \   000058   FA           MOV     R2,A
   \   000059   A3           INC     DPTR
   \   00005A   E0           MOVX    A,@DPTR
   \   00005B   F9           MOV     R1,A
   \   00005C   EA           MOV     A,R2
   \   00005D   85..82       MOV     DPL,?V0 + 0
   \   000060   85..83       MOV     DPH,?V0 + 1
   \   000063   A3           INC     DPTR
   \   000064   12....       LCALL   ?Subroutine27 & 0xFFFF
   2581          
   2582                msg += 2;
   2583                rsp->numAssocDevs = 0;
   \                     ??CrossCallReturnLabel_527:
   \   000067   E5..         MOV     A,?V0 + 0
   \   000069   240B         ADD     A,#0xb
   \   00006B   F8           MOV     R0,A
   \   00006C   E5..         MOV     A,?V0 + 1
   \   00006E   3400         ADDC    A,#0x0
   \   000070   F9           MOV     R1,A
   \   000071   E8           MOV     A,R0
   \   000072   FA           MOV     R2,A
   \   000073   E9           MOV     A,R1
   \   000074   FB           MOV     R3,A
   \   000075   8A82         MOV     DPL,R2
   \   000077   8B83         MOV     DPH,R3
   \   000079   E4           CLR     A
   \   00007A   F0           MOVX    @DPTR,A
   2584          
   2585                // StartIndex field is only present if NumAssocDev field is non-zero.
   2586                if ( cnt > 0 )
   \   00007B   E5..         MOV     A,?V0 + 2
   \   00007D   6033         JZ      ??ZDO_ParseAddrRsp_2
   2587                {
   2588                  uint16 *pList = &(rsp->devList[0]);
   \   00007F   E5..         MOV     A,?V0 + 0
   \   000081   240D         ADD     A,#0xd
   \   000083   08           INC     R0
   \   000084   08           INC     R0
   \   000085   E5..         MOV     A,?V0 + 1
   \   000087   3400         ADDC    A,#0x0
   \   000089   F9           MOV     R1,A
   2589                  byte n = cnt;
   \   00008A   85....       MOV     ?V0 + 3,?V0 + 2
   2590          
   2591                  rsp->numAssocDevs = *msg++;
   \   00008D   8E82         MOV     DPL,R6
   \   00008F   8F83         MOV     DPH,R7
   \   000091   E0           MOVX    A,@DPTR
   \   000092   8A82         MOV     DPL,R2
   \   000094   8B83         MOV     DPH,R3
   \   000096   12....       LCALL   ?Subroutine29 & 0xFFFF
   2592                  rsp->startIndex = *msg++;
   \                     ??CrossCallReturnLabel_32:
   \   000099   C0E0         PUSH    A
   \   00009B   12....       LCALL   ?Subroutine137 & 0xFFFF
   \                     ??CrossCallReturnLabel_597:
   \   00009E   D0E0         POP     A
   \   0000A0   12....       LCALL   ?Subroutine49 & 0xFFFF
   2593          
   2594                  while ( n != 0 )
   2595                  {
   2596                    *pList++ = BUILD_UINT16( msg[0], msg[1] );
   \                     ??CrossCallReturnLabel_80:
   \   0000A3   12....       LCALL   ?Subroutine172 & 0xFFFF
   \                     ??CrossCallReturnLabel_307:
   \   0000A6   12....       LCALL   ?Subroutine33 & 0xFFFF
   2597                    msg += sizeof( uint16 );
   \                     ??CrossCallReturnLabel_40:
   \   0000A9   12....       LCALL   ?Subroutine179 & 0xFFFF
   2598                    n--;
   \                     ??CrossCallReturnLabel_323:
   \   0000AC   15..         DEC     ?V0 + 3
   \   0000AE   E5..         MOV     A,?V0 + 3
   \   0000B0   70F1         JNZ     ??CrossCallReturnLabel_80
   2599                  }
   2600                }
   2601              }
   2602            }
   2603          
   2604            return ( rsp );
   \                     ??ZDO_ParseAddrRsp_2:
   \   0000B2   AA..         MOV     R2,?V0 + 0
   \   0000B4   AB..         MOV     R3,?V0 + 1
   \   0000B6   02....       LJMP    ?Subroutine3 & 0xFFFF
   2605          }

   \                                 In  segment BANKED_CODE, align 1, keep-with-next
   \                     ?Subroutine27:
   \   000000   F0           MOVX    @DPTR,A
   \   000001   A3           INC     DPTR
   \   000002   E9           MOV     A,R1
   \   000003                REQUIRE ??Subroutine238_0
   \   000003                ; // Fall through to label ??Subroutine238_0

   \                                 In  segment BANKED_CODE, align 1, keep-with-next
   \                     ??Subroutine238_0:
   \   000000   12....       LCALL   ?Subroutine151 & 0xFFFF
   \                     ??CrossCallReturnLabel_630:
   \   000003   22           RET

   \                                 In  segment BANKED_CODE, align 1, keep-with-next
   \                     ?Subroutine33:
   \   000000   F0           MOVX    @DPTR,A
   \   000001   A3           INC     DPTR
   \   000002   EB           MOV     A,R3
   \   000003   F0           MOVX    @DPTR,A
   \   000004   12....       LCALL   ?Subroutine176 & 0xFFFF
   \                     ??CrossCallReturnLabel_316:
   \   000007   22           RET

   \                                 In  segment BANKED_CODE, align 1, keep-with-next
   \                     ?Subroutine180:
   \   000000   3400         ADDC    A,#0x0
   \   000002   FB           MOV     R3,A
   \   000003   12....       LCALL   ??osal_mem_alloc?relay
   \   000006   22           RET

   \                                 In  segment BANKED_CODE, align 1, keep-with-next
   \                     ??Subroutine245_0:
   \   000000   12....       LCALL   ??Subroutine235_0 & 0xFFFF
   \                     ??CrossCallReturnLabel_607:
   \   000003                REQUIRE ??Subroutine246_0
   \   000003                ; // Fall through to label ??Subroutine246_0

   \                                 In  segment BANKED_CODE, align 1, keep-with-next
   \                     ?Subroutine29:
   \   000000   12....       LCALL   ?Subroutine152 & 0xFFFF
   \                     ??CrossCallReturnLabel_276:
   \   000003   E0           MOVX    A,@DPTR
   \   000004   22           RET

   \                                 In  segment BANKED_CODE, align 1, keep-with-next
   \                     ?Subroutine137:
   \   000000   E5..         MOV     A,?V0 + 0
   \   000002   240C         ADD     A,#0xc
   \   000004                REQUIRE ??Subroutine247_0
   \   000004                ; // Fall through to label ??Subroutine247_0

   \                                 In  segment BANKED_CODE, align 1, keep-with-next
   \                     ?Subroutine127:
   \   000000   12....       LCALL   ?Subroutine180 & 0xFFFF
   \                     ??CrossCallReturnLabel_560:
   \   000003   8A..         MOV     ?V0 + 0,R2
   \   000005   8B..         MOV     ?V0 + 1,R3
   \   000007   EA           MOV     A,R2
   \   000008   45..         ORL     A,?V0 + 1
   \   00000A   22           RET

   \                                 In  segment BANKED_CODE, align 1, keep-with-next
   \                     ?Subroutine172:
   \   000000   8E82         MOV     DPL,R6
   \   000002   8F83         MOV     DPH,R7
   \   000004   E0           MOVX    A,@DPTR
   \   000005   FC           MOV     R4,A
   \   000006   A3           INC     DPTR
   \   000007   E0           MOVX    A,@DPTR
   \   000008   FB           MOV     R3,A
   \   000009   EC           MOV     A,R4
   \   00000A   8882         MOV     DPL,R0
   \   00000C   8983         MOV     DPH,R1
   \   00000E   22           RET

   \                                 In  segment BANKED_CODE, align 1, keep-with-next
   \                     ?Subroutine179:
   \   000000   12....       LCALL   ?Subroutine200 & 0xFFFF
   \                     ??CrossCallReturnLabel_633:
   \   000003   22           RET

   \                                 In  segment BANKED_CODE, align 1, keep-with-next
   \                     ?Subroutine49:
   \   000000   12....       LCALL   ?Subroutine152 & 0xFFFF
   \                     ??CrossCallReturnLabel_278:
   \   000003   22           RET

   \                                 In  segment BANKED_CODE, align 1, keep-with-next
   \                     ?Subroutine47:
   \   000000   12....       LCALL   ?Subroutine194 & 0xFFFF
   \                     ??CrossCallReturnLabel_343:
   \   000003   22           RET
   2606          
   2607          /*********************************************************************
   2608           * @fn          ZDO_ParseNodeDescRsp
   2609           *
   2610           * @brief       This function parses the Node_Desc_rsp message.
   2611           *
   2612           * @param       inMsg - incoming message
   2613           * @param       pNDRsp - place to parse the message into
   2614           *
   2615           * @return      none
   2616           */

   \                                 In  segment BANKED_CODE, align 1, keep-with-next
   2617          void ZDO_ParseNodeDescRsp( zdoIncomingMsg_t *inMsg, ZDO_NodeDescRsp_t *pNDRsp )
   \                     ZDO_ParseNodeDescRsp:
   2618          {
   \   000000   74F7         MOV     A,#-0x9
   \   000002   12....       LCALL   ?BANKED_ENTER_XDATA
   \   000005                ; Saved register size: 9
   \   000005                ; Auto size: 0
   2619            uint8 *msg;
   2620          
   2621            msg = inMsg->asdu;
   \   000005   12....       LCALL   ?Subroutine11 & 0xFFFF
   2622          
   2623            pNDRsp->status = *msg++;
   2624            pNDRsp->nwkAddr = BUILD_UINT16( msg[0], msg[1] );
   2625          
   2626            if ( pNDRsp->status == ZDP_SUCCESS )
   \                     ??CrossCallReturnLabel_0:
   \   000008   6003         JZ      $+5
   \   00000A   02....       LJMP    ??ZDO_ParseNodeDescRsp_0 & 0xFFFF
   2627            {
   2628              msg += 2;
   \   00000D   12....       LCALL   ?Subroutine122 & 0xFFFF
   2629              pNDRsp->nodeDesc.LogicalType = *msg & 0x07;
   \                     ??CrossCallReturnLabel_225:
   \   000010   FA           MOV     R2,A
   \   000011   ED           MOV     A,R5
   \   000012   12....       LCALL   ?Subroutine139 & 0xFFFF
   \                     ??CrossCallReturnLabel_253:
   \   000015   5407         ANL     A,#0x7
   \   000017   FE           MOV     R6,A
   \   000018   8A82         MOV     DPL,R2
   \   00001A   8B83         MOV     DPH,R3
   \   00001C   E0           MOVX    A,@DPTR
   \   00001D   54F8         ANL     A,#0xf8
   \   00001F   4E           ORL     A,R6
   \   000020   12....       LCALL   ??Subroutine240_0 & 0xFFFF
   2630          
   2631              pNDRsp->nodeDesc.ComplexDescAvail = ( *msg & 0x08 ) >> 3;
   \                     ??CrossCallReturnLabel_541:
   \   000023   A2E3         MOV     C,0xE0 /* A   */.3
   \   000025   8B83         MOV     DPH,R3
   \   000027   8A82         MOV     DPL,R2
   \   000029   E0           MOVX    A,@DPTR
   \   00002A   92E3         MOV     0xE0 /* A   */.3,C
   \   00002C   12....       LCALL   ??Subroutine240_0 & 0xFFFF
   2632              pNDRsp->nodeDesc.UserDescAvail = ( *msg & 0x10 ) >> 4;
   \                     ??CrossCallReturnLabel_542:
   \   00002F   A2E4         MOV     C,0xE0 /* A   */.4
   \   000031   8B83         MOV     DPH,R3
   \   000033   8A82         MOV     DPL,R2
   \   000035   E0           MOVX    A,@DPTR
   \   000036   92E4         MOV     0xE0 /* A   */.4,C
   \   000038   12....       LCALL   ?Subroutine51 & 0xFFFF
   2633          
   2634              msg++;  // Reserved bits.
   \                     ??CrossCallReturnLabel_85:
   \   00003B   08           INC     R0
   \   00003C   A983         MOV     R1,DPH
   2635              pNDRsp->nodeDesc.FrequencyBand = (*msg >> 3) & 0x1f;
   \   00003E   EC           MOV     A,R4
   \   00003F   2404         ADD     A,#0x4
   \   000041   0A           INC     R2
   \   000042   ED           MOV     A,R5
   \   000043   12....       LCALL   ?Subroutine188 & 0xFFFF
   \                     ??CrossCallReturnLabel_333:
   \   000046   5407         ANL     A,#0x7
   \   000048   FE           MOV     R6,A
   \   000049   8882         MOV     DPL,R0
   \   00004B   8983         MOV     DPH,R1
   \   00004D   E0           MOVX    A,@DPTR
   \   00004E   54F8         ANL     A,#0xf8
   \   000050   4E           ORL     A,R6
   \   000051   FE           MOV     R6,A
   \   000052   12....       LCALL   ?Subroutine37 & 0xFFFF
   2636              pNDRsp->nodeDesc.APSFlags = *msg++ & 0x07;
   \                     ??CrossCallReturnLabel_536:
   \   000055   5407         ANL     A,#0x7
   \   000057   FF           MOV     R7,A
   \   000058   A3           INC     DPTR
   \   000059   08           INC     R0
   \   00005A   A983         MOV     R1,DPH
   \   00005C   74F8         MOV     A,#-0x8
   \   00005E   5E           ANL     A,R6
   \   00005F   4F           ORL     A,R7
   \   000060   12....       LCALL   ?Subroutine37 & 0xFFFF
   2637              pNDRsp->nodeDesc.CapabilityFlags = *msg++;
   \                     ??CrossCallReturnLabel_537:
   \   000063   8C82         MOV     DPL,R4
   \   000065   8D83         MOV     DPH,R5
   \   000067   A3           INC     DPTR
   \   000068   A3           INC     DPTR
   \   000069   A3           INC     DPTR
   \   00006A   A3           INC     DPTR
   \   00006B   12....       LCALL   ?Subroutine28 & 0xFFFF
   2638              pNDRsp->nodeDesc.ManufacturerCode[0] = *msg++;
   \                     ??CrossCallReturnLabel_530:
   \   00006E   8C82         MOV     DPL,R4
   \   000070   8D83         MOV     DPH,R5
   \   000072   A3           INC     DPTR
   \   000073   A3           INC     DPTR
   \   000074   A3           INC     DPTR
   \   000075   A3           INC     DPTR
   \   000076   A3           INC     DPTR
   \   000077   A3           INC     DPTR
   \   000078   12....       LCALL   ?Subroutine18 & 0xFFFF
   2639              pNDRsp->nodeDesc.ManufacturerCode[1] = *msg++;
   \                     ??CrossCallReturnLabel_11:
   \   00007B   12....       LCALL   ?Subroutine18 & 0xFFFF
   2640              pNDRsp->nodeDesc.MaxBufferSize = *msg++;
   \                     ??CrossCallReturnLabel_12:
   \   00007E   A3           INC     DPTR
   \   00007F   12....       LCALL   ?Subroutine16 & 0xFFFF
   2641              pNDRsp->nodeDesc.MaxInTransferSize[0] = *msg++;
   \                     ??CrossCallReturnLabel_7:
   \   000082   12....       LCALL   ?Subroutine16 & 0xFFFF
   2642              pNDRsp->nodeDesc.MaxInTransferSize[1] = *msg++;
   \                     ??CrossCallReturnLabel_8:
   \   000085   12....       LCALL   ?Subroutine28 & 0xFFFF
   2643              pNDRsp->nodeDesc.ServerMask = BUILD_UINT16( msg[0], msg[1] );
   \                     ??CrossCallReturnLabel_531:
   \   000088   FE           MOV     R6,A
   \   000089   A3           INC     DPTR
   \   00008A   E0           MOVX    A,@DPTR
   \   00008B   FB           MOV     R3,A
   \   00008C   EE           MOV     A,R6
   \   00008D   FA           MOV     R2,A
   \   00008E   EC           MOV     A,R4
   \   00008F   240B         ADD     A,#0xb
   \   000091   F582         MOV     DPL,A
   \   000093   ED           MOV     A,R5
   \   000094   12....       LCALL   ??Subroutine248_0 & 0xFFFF
   \                     ??CrossCallReturnLabel_584:
   \   000097   EA           MOV     A,R2
   \   000098   12....       LCALL   ?Subroutine33 & 0xFFFF
   2644              msg += 2;
   2645              pNDRsp->nodeDesc.MaxOutTransferSize[0] = *msg++;
   \                     ??CrossCallReturnLabel_39:
   \   00009B   8882         MOV     DPL,R0
   \   00009D   8983         MOV     DPH,R1
   \   00009F   E0           MOVX    A,@DPTR
   \   0000A0   C0E0         PUSH    A
   \   0000A2   EC           MOV     A,R4
   \   0000A3   240D         ADD     A,#0xd
   \   0000A5   F582         MOV     DPL,A
   \   0000A7   ED           MOV     A,R5
   \   0000A8   12....       LCALL   ??Subroutine248_0 & 0xFFFF
   \                     ??CrossCallReturnLabel_585:
   \   0000AB   D0E0         POP     A
   \   0000AD   12....       LCALL   ??Subroutine239_0 & 0xFFFF
   2646              pNDRsp->nodeDesc.MaxOutTransferSize[1] = *msg++;
   \                     ??CrossCallReturnLabel_532:
   \   0000B0   C0E0         PUSH    A
   \   0000B2   EC           MOV     A,R4
   \   0000B3   240E         ADD     A,#0xe
   \   0000B5   F582         MOV     DPL,A
   \   0000B7   ED           MOV     A,R5
   \   0000B8   12....       LCALL   ??Subroutine248_0 & 0xFFFF
   \                     ??CrossCallReturnLabel_586:
   \   0000BB   D0E0         POP     A
   \   0000BD   12....       LCALL   ?Subroutine51 & 0xFFFF
   2647              pNDRsp->nodeDesc.DescriptorCapability = *msg;
   \                     ??CrossCallReturnLabel_86:
   \   0000C0   E0           MOVX    A,@DPTR
   \   0000C1   C0E0         PUSH    A
   \   0000C3   EC           MOV     A,R4
   \   0000C4   12....       LCALL   ?Subroutine147 & 0xFFFF
   2648            }
   \                     ??CrossCallReturnLabel_273:
   \   0000C7   ED           MOV     A,R5
   \   0000C8   12....       LCALL   ??Subroutine248_0 & 0xFFFF
   \                     ??CrossCallReturnLabel_587:
   \   0000CB   D0E0         POP     A
   \   0000CD   F0           MOVX    @DPTR,A
   2649          }
   \                     ??ZDO_ParseNodeDescRsp_0:
   \   0000CE   02....       LJMP    ?Subroutine8 & 0xFFFF

   \                                 In  segment BANKED_CODE, align 1, keep-with-next
   \                     ?Subroutine28:
   \   000000   A3           INC     DPTR
   \   000001                REQUIRE ??Subroutine239_0
   \   000001                ; // Fall through to label ??Subroutine239_0

   \                                 In  segment BANKED_CODE, align 1, keep-with-next
   \                     ??Subroutine239_0:
   \   000000   12....       LCALL   ?Subroutine158 & 0xFFFF
   \                     ??CrossCallReturnLabel_535:
   \   000003   08           INC     R0
   \   000004   A983         MOV     R1,DPH
   \   000006   E0           MOVX    A,@DPTR
   \   000007   22           RET

   \                                 In  segment BANKED_CODE, align 1, keep-with-next
   \                     ?Subroutine18:
   \   000000   12....       LCALL   ?Subroutine150 & 0xFFFF
   \                     ??CrossCallReturnLabel_274:
   \   000003   22           RET

   \                                 In  segment BANKED_CODE, align 1, keep-with-next
   \                     ?Subroutine150:
   \   000000   F0           MOVX    @DPTR,A
   \   000001   8882         MOV     DPL,R0
   \   000003   8983         MOV     DPH,R1
   \   000005   A3           INC     DPTR
   \   000006   08           INC     R0
   \   000007   A983         MOV     R1,DPH
   \   000009   E0           MOVX    A,@DPTR
   \   00000A   8C82         MOV     DPL,R4
   \   00000C   8D83         MOV     DPH,R5
   \   00000E   A3           INC     DPTR
   \   00000F   A3           INC     DPTR
   \   000010   A3           INC     DPTR
   \   000011   A3           INC     DPTR
   \   000012   A3           INC     DPTR
   \   000013   A3           INC     DPTR
   \   000014   A3           INC     DPTR
   \   000015   22           RET

   \                                 In  segment BANKED_CODE, align 1, keep-with-next
   \                     ?Subroutine16:
   \   000000   12....       LCALL   ?Subroutine150 & 0xFFFF
   \                     ??CrossCallReturnLabel_275:
   \   000003   A3           INC     DPTR
   \   000004   A3           INC     DPTR
   \   000005   22           RET

   \                                 In  segment BANKED_CODE, align 1, keep-with-next
   \                     ?Subroutine122:
   \   000000   12....       LCALL   ?Subroutine176 & 0xFFFF
   \                     ??CrossCallReturnLabel_317:
   \   000003   EC           MOV     A,R4
   \   000004   2403         ADD     A,#0x3
   \   000006   22           RET

   \                                 In  segment BANKED_CODE, align 1, keep-with-next
   \                     ?Subroutine37:
   \   000000   8A82         MOV     DPL,R2
   \   000002   8B83         MOV     DPH,R3
   \   000004                REQUIRE ??Subroutine240_0
   \   000004                ; // Fall through to label ??Subroutine240_0

   \                                 In  segment BANKED_CODE, align 1, keep-with-next
   \                     ?Subroutine11:
   \   000000   EA           MOV     A,R2
   \   000001   12....       LCALL   ??Subroutine251_0 & 0xFFFF
   \                     ??CrossCallReturnLabel_620:
   \   000004   EB           MOV     A,R3
   \   000005   12....       LCALL   ?Subroutine162 & 0xFFFF
   \                     ??CrossCallReturnLabel_293:
   \   000008   8C82         MOV     DPL,R4
   \   00000A   8D83         MOV     DPH,R5
   \   00000C   12....       LCALL   ?Subroutine158 & 0xFFFF
   \                     ??CrossCallReturnLabel_534:
   \   00000F   A882         MOV     R0,DPL
   \   000011   A983         MOV     R1,DPH
   \   000013   E0           MOVX    A,@DPTR
   \   000014   FE           MOV     R6,A
   \   000015   A3           INC     DPTR
   \   000016   E0           MOVX    A,@DPTR
   \   000017   FB           MOV     R3,A
   \   000018   EE           MOV     A,R6
   \   000019   8C82         MOV     DPL,R4
   \   00001B   8D83         MOV     DPH,R5
   \   00001D   A3           INC     DPTR
   \   00001E   F0           MOVX    @DPTR,A
   \   00001F   A3           INC     DPTR
   \   000020   EB           MOV     A,R3
   \   000021   F0           MOVX    @DPTR,A
   \   000022   8C82         MOV     DPL,R4
   \   000024   8D83         MOV     DPH,R5
   \   000026   E0           MOVX    A,@DPTR
   \   000027   22           RET

   \                                 In  segment BANKED_CODE, align 1, keep-with-next
   \                     ?Subroutine8:
   \   000000   7F01         MOV     R7,#0x1
   \   000002   02....       LJMP    ?BANKED_LEAVE_XDATA
   2650          
   2651          /*********************************************************************
   2652           * @fn          ZDO_ParesPowerDescRsp
   2653           *
   2654           * @brief       This function parses the Power_Desc_rsp message.
   2655           *
   2656           * @param       inMsg  - incoming message
   2657           * @param       pNPRsp - place to parse the message into
   2658           *
   2659           * @return      none
   2660           */

   \                                 In  segment BANKED_CODE, align 1, keep-with-next
   2661          void ZDO_ParsePowerDescRsp( zdoIncomingMsg_t *inMsg, ZDO_PowerRsp_t *pNPRsp )
   \                     ZDO_ParsePowerDescRsp:
   2662          {
   \   000000   74F7         MOV     A,#-0x9
   \   000002   12....       LCALL   ?BANKED_ENTER_XDATA
   \   000005                ; Saved register size: 9
   \   000005                ; Auto size: 0
   2663            uint8 *msg;
   2664          
   2665            msg = inMsg->asdu;
   \   000005   12....       LCALL   ?Subroutine11 & 0xFFFF
   2666            pNPRsp->status = *msg++;
   2667            pNPRsp->nwkAddr = BUILD_UINT16( msg[0], msg[1] );
   2668          
   2669            if ( pNPRsp->status == ZDP_SUCCESS )
   \                     ??CrossCallReturnLabel_1:
   \   000008   7057         JNZ     ??CrossCallReturnLabel_58
   2670            {
   2671              msg += 2;
   \   00000A   12....       LCALL   ?Subroutine122 & 0xFFFF
   2672              pNPRsp->pwrDesc.AvailablePowerSources = *msg >> 4;
   2673              pNPRsp->pwrDesc.PowerMode = *msg++ & 0x0F;
   2674              pNPRsp->pwrDesc.CurrentPowerSourceLevel = *msg >> 4;
   2675              pNPRsp->pwrDesc.CurrentPowerSource = *msg++ & 0x0F;
   2676            }
   \                     ??CrossCallReturnLabel_226:
   \   00000D   ED           MOV     A,R5
   \   00000E   3400         ADDC    A,#0x0
   \   000010   0C           INC     R4
   \   000011   0C           INC     R4
   \   000012   0C           INC     R4
   \   000013   FD           MOV     R5,A
   \   000014   8C82         MOV     DPL,R4
   \   000016   8D83         MOV     DPH,R5
   \   000018   E0           MOVX    A,@DPTR
   \   000019   540F         ANL     A,#0xf
   \   00001B   FA           MOV     R2,A
   \   00001C   A3           INC     DPTR
   \   00001D   E0           MOVX    A,@DPTR
   \   00001E   FB           MOV     R3,A
   \   00001F   8882         MOV     DPL,R0
   \   000021   8983         MOV     DPH,R1
   \   000023   E0           MOVX    A,@DPTR
   \   000024   54F0         ANL     A,#0xf0
   \   000026   FE           MOV     R6,A
   \   000027   EA           MOV     A,R2
   \   000028   4E           ORL     A,R6
   \   000029   FE           MOV     R6,A
   \   00002A   EB           MOV     A,R3
   \   00002B   12....       LCALL   ?Subroutine34 & 0xFFFF
   \                     ??CrossCallReturnLabel_41:
   \   00002E   A3           INC     DPTR
   \   00002F   08           INC     R0
   \   000030   A983         MOV     R1,DPH
   \   000032   EE           MOV     A,R6
   \   000033   54F0         ANL     A,#0xf0
   \   000035   4A           ORL     A,R2
   \   000036   FA           MOV     R2,A
   \   000037   8C82         MOV     DPL,R4
   \   000039   8D83         MOV     DPH,R5
   \   00003B   F0           MOVX    @DPTR,A
   \   00003C   A3           INC     DPTR
   \   00003D   EB           MOV     A,R3
   \   00003E   12....       LCALL   ??Subroutine240_0 & 0xFFFF
   \                     ??CrossCallReturnLabel_543:
   \   000041   54F0         ANL     A,#0xf0
   \   000043   FF           MOV     R7,A
   \   000044   EB           MOV     A,R3
   \   000045   540F         ANL     A,#0xf
   \   000047   FB           MOV     R3,A
   \   000048   EA           MOV     A,R2
   \   000049   FE           MOV     R6,A
   \   00004A   EF           MOV     A,R7
   \   00004B   4B           ORL     A,R3
   \   00004C   12....       LCALL   ?Subroutine34 & 0xFFFF
   \                     ??CrossCallReturnLabel_42:
   \   00004F   EF           MOV     A,R7
   \   000050   54F0         ANL     A,#0xf0
   \   000052   FF           MOV     R7,A
   \   000053   EA           MOV     A,R2
   \   000054   FB           MOV     R3,A
   \   000055   EE           MOV     A,R6
   \   000056   FA           MOV     R2,A
   \   000057   EF           MOV     A,R7
   \   000058   4B           ORL     A,R3
   \   000059   FB           MOV     R3,A
   \   00005A   8C82         MOV     DPL,R4
   \   00005C   8D83         MOV     DPH,R5
   \   00005E   12....       LCALL   ?Subroutine39 & 0xFFFF
   2677          }
   \                     ??CrossCallReturnLabel_58:
   \   000061   80..         SJMP    ?Subroutine8

   \                                 In  segment BANKED_CODE, align 1, keep-with-next
   \                     ?Subroutine34:
   \   000000   FF           MOV     R7,A
   \   000001   8C82         MOV     DPL,R4
   \   000003   8D83         MOV     DPH,R5
   \   000005   EE           MOV     A,R6
   \   000006   F0           MOVX    @DPTR,A
   \   000007   A3           INC     DPTR
   \   000008   EF           MOV     A,R7
   \   000009   12....       LCALL   ?Subroutine157 & 0xFFFF
   \                     ??CrossCallReturnLabel_547:
   \   00000C   540F         ANL     A,#0xf
   \   00000E   FA           MOV     R2,A
   \   00000F   22           RET
   2678          
   2679          /*********************************************************************
   2680           * @fn          ZDO_ParseSimpleDescRsp
   2681           *
   2682           * @brief       This function parse the Simple_Desc_rsp message.
   2683           *
   2684           *   NOTE: The pAppInClusterList and pAppOutClusterList fields
   2685           *         in the SimpleDescriptionFormat_t structure are allocated
   2686           *         and the calling function needs to free [osal_msg_free()]
   2687           *         these buffers.
   2688           *
   2689           * @param       inMsg  - incoming message
   2690           * @param       pSimpleDescRsp - place to parse the message into
   2691           *
   2692           * @return      none
   2693           */

   \                                 In  segment BANKED_CODE, align 1, keep-with-next
   2694          void ZDO_ParseSimpleDescRsp( zdoIncomingMsg_t *inMsg, ZDO_SimpleDescRsp_t *pSimpleDescRsp )
   \                     ZDO_ParseSimpleDescRsp:
   2695          {
   \   000000   74F7         MOV     A,#-0x9
   \   000002   12....       LCALL   ?BANKED_ENTER_XDATA
   \   000005                ; Saved register size: 9
   \   000005                ; Auto size: 0
   2696            uint8 *msg;
   2697          
   2698            msg = inMsg->asdu;
   \   000005   12....       LCALL   ?Subroutine11 & 0xFFFF
   2699            pSimpleDescRsp->status = *msg++;
   2700            pSimpleDescRsp->nwkAddr = BUILD_UINT16( msg[0], msg[1] );
   2701            msg += sizeof ( uint16 );
   2702            msg++; // Skip past the length field.
   2703          
   2704            if ( pSimpleDescRsp->status == ZDP_SUCCESS )
   \                     ??CrossCallReturnLabel_2:
   \   000008   7015         JNZ     ??ZDO_ParseSimpleDescRsp_0
   2705            {
   2706              ZDO_ParseSimpleDescBuf( msg, &(pSimpleDescRsp->simpleDesc) );
   \   00000A                ; Setup parameters for call to function ZDO_ParseSimpleDescBuf
   \   00000A   EC           MOV     A,R4
   \   00000B   2403         ADD     A,#0x3
   \   00000D   0C           INC     R4
   \   00000E   0C           INC     R4
   \   00000F   0C           INC     R4
   \   000010   ED           MOV     A,R5
   \   000011   3400         ADDC    A,#0x0
   \   000013   FD           MOV     R5,A
   \   000014   E8           MOV     A,R0
   \   000015   2403         ADD     A,#0x3
   \   000017   FA           MOV     R2,A
   \   000018   E9           MOV     A,R1
   \   000019   3400         ADDC    A,#0x0
   \   00001B   FB           MOV     R3,A
   \   00001C   12....       LCALL   ??ZDO_ParseSimpleDescBuf?relay
   2707            }
   2708          }
   \                     ??ZDO_ParseSimpleDescRsp_0:
   \   00001F                REQUIRE ?Subroutine8
   \   00001F                ; // Fall through to label ?Subroutine8
   2709          
   2710          /*********************************************************************
   2711           * @fn          ZDO_ParseEPListRsp
   2712           *
   2713           * @brief       This parse the Active_EP_rsp or Match_Desc_rsp message.
   2714           *
   2715           * @param       inMsg  - incoming message
   2716           *
   2717           * @return      none
   2718           */

   \                                 In  segment BANKED_CODE, align 1, keep-with-next
   2719          ZDO_ActiveEndpointRsp_t *ZDO_ParseEPListRsp( zdoIncomingMsg_t *inMsg )
   \                     ZDO_ParseEPListRsp:
   2720          {
   \   000000   74F0         MOV     A,#-0x10
   \   000002   12....       LCALL   ?BANKED_ENTER_XDATA
   \   000005                ; Saved register size: 16
   \   000005                ; Auto size: 0
   2721            ZDO_ActiveEndpointRsp_t *pRsp;
   2722            uint8 *msg;
   2723            uint8 Status;
   2724            uint8 cnt;
   2725          
   2726            msg = inMsg->asdu;
   \   000005   12....       LCALL   ?Subroutine134 & 0xFFFF
   2727            Status = *msg++;
   \                     ??CrossCallReturnLabel_249:
   \   000008   85..82       MOV     DPL,?V0 + 2
   \   00000B   F583         MOV     DPH,A
   \   00000D   E0           MOVX    A,@DPTR
   \   00000E   F5..         MOV     ?V0 + 5,A
   \   000010   A3           INC     DPTR
   \   000011   8582..       MOV     ?V0 + 2,DPL
   \   000014   8583..       MOV     ?V0 + 3,DPH
   2728            cnt = msg[2];
   \   000017   A3           INC     DPTR
   \   000018   A3           INC     DPTR
   \   000019   E0           MOVX    A,@DPTR
   \   00001A   F5..         MOV     ?V0 + 4,A
   2729          
   2730            pRsp = (ZDO_ActiveEndpointRsp_t *)osal_mem_alloc( sizeof(  ZDO_ActiveEndpointRsp_t ) + cnt );
   \   00001C   F582         MOV     DPL,A
   \   00001E   8582..       MOV     ?V0 + 0,DPL
   \   000021                ; Setup parameters for call to function osal_mem_alloc
   \   000021   12....       LCALL   ?Subroutine125 & 0xFFFF
   2731            if ( pRsp )
   \                     ??CrossCallReturnLabel_231:
   \   000024   602B         JZ      ??ZDO_ParseEPListRsp_0
   2732            {
   2733              pRsp->status = Status;
   \   000026   8E82         MOV     DPL,R6
   \   000028   8F83         MOV     DPH,R7
   \   00002A   E5..         MOV     A,?V0 + 5
   \   00002C   12....       LCALL   ?Subroutine55 & 0xFFFF
   2734              pRsp->nwkAddr = BUILD_UINT16( msg[0], msg[1] );
   \                     ??CrossCallReturnLabel_96:
   \   00002F   FA           MOV     R2,A
   \   000030   12....       LCALL   ?Subroutine31 & 0xFFFF
   2735              msg += sizeof( uint16 );
   2736              pRsp->cnt = cnt;
   2737              msg++; // pass cnt
   2738              osal_memcpy( pRsp->epList, msg, cnt );
   \                     ??CrossCallReturnLabel_37:
   \   000033                ; Setup parameters for call to function osal_memcpy
   \   000033   85..82       MOV     DPL,?V0 + 2
   \   000036   85..83       MOV     DPH,?V0 + 3
   \   000039   A3           INC     DPTR
   \   00003A   A3           INC     DPTR
   \   00003B   A3           INC     DPTR
   \   00003C   A982         MOV     R1,DPL
   \   00003E   AA83         MOV     R2,DPH
   \   000040   89..         MOV     ?V0 + 4,R1
   \   000042   8A..         MOV     ?V0 + 5,R2
   \   000044   88..         MOV     ?V0 + 6,R0
   \   000046   78..         MOV     R0,#?V0 + 4
   \   000048   12....       LCALL   ?PUSH_XSTACK_I_THREE
   \   00004B   12....       LCALL   ?Subroutine128 & 0xFFFF
   2739            }
   \                     ??CrossCallReturnLabel_548:
   \   00004E   12....       LCALL   ?DEALLOC_XSTACK8
   2740          
   2741            return ( pRsp );
   \                     ??ZDO_ParseEPListRsp_0:
   \   000051   02....       LJMP    ?Subroutine9 & 0xFFFF
   2742          }

   \                                 In  segment BANKED_CODE, align 1, keep-with-next
   \                     ?Subroutine128:
   \   000000   AC..         MOV     R4,?V0 + 0
   \   000002   7D00         MOV     R5,#0x0
   \   000004   EE           MOV     A,R6
   \   000005   2404         ADD     A,#0x4
   \   000007   FA           MOV     R2,A
   \   000008   EF           MOV     A,R7
   \   000009                REQUIRE ??Subroutine242_0
   \   000009                ; // Fall through to label ??Subroutine242_0

   \                                 In  segment BANKED_CODE, align 1, keep-with-next
   \                     ??Subroutine242_0:
   \   000000   3400         ADDC    A,#0x0
   \   000002   FB           MOV     R3,A
   \   000003   12....       LCALL   ?Subroutine192 & 0xFFFF
   \                     ??CrossCallReturnLabel_554:
   \   000006   22           RET

   \                                 In  segment BANKED_CODE, align 1, keep-with-next
   \                     ?Subroutine9:
   \   000000   EE           MOV     A,R6
   \   000001   FA           MOV     R2,A
   \   000002   EF           MOV     A,R7
   \   000003   FB           MOV     R3,A
   \   000004                REQUIRE ??Subroutine250_0
   \   000004                ; // Fall through to label ??Subroutine250_0

   \                                 In  segment BANKED_CODE, align 1, keep-with-next
   \                     ??Subroutine250_0:
   \   000000   7F08         MOV     R7,#0x8
   \   000002   02....       LJMP    ?BANKED_LEAVE_XDATA

   \                                 In  segment BANKED_CODE, align 1, keep-with-next
   \                     ?Subroutine125:
   \   000000   2404         ADD     A,#0x4
   \   000002   FA           MOV     R2,A
   \   000003   E4           CLR     A
   \   000004   12....       LCALL   ?Subroutine180 & 0xFFFF
   \                     ??CrossCallReturnLabel_561:
   \   000007   8A..         MOV     ?V0 + 6,R2
   \   000009   8B..         MOV     ?V0 + 7,R3
   \   00000B   AE..         MOV     R6,?V0 + 6
   \   00000D   AF..         MOV     R7,?V0 + 7
   \   00000F   EE           MOV     A,R6
   \   000010   4F           ORL     A,R7
   \   000011   22           RET

   \                                 In  segment BANKED_CODE, align 1, keep-with-next
   \                     ?Subroutine31:
   \   000000   A3           INC     DPTR
   \   000001   E0           MOVX    A,@DPTR
   \   000002   F8           MOV     R0,A
   \   000003   E4           CLR     A
   \   000004   C8           XCH     A,R0
   \   000005   F9           MOV     R1,A
   \   000006   EA           MOV     A,R2
   \   000007   8E82         MOV     DPL,R6
   \   000009   8F83         MOV     DPH,R7
   \   00000B   A3           INC     DPTR
   \   00000C   F0           MOVX    @DPTR,A
   \   00000D   A3           INC     DPTR
   \   00000E   E9           MOV     A,R1
   \   00000F   12....       LCALL   ?Subroutine160 & 0xFFFF
   \                     ??CrossCallReturnLabel_289:
   \   000012   E5..         MOV     A,?V0 + 4
   \   000014   F0           MOVX    @DPTR,A
   \   000015   22           RET
   2743          
   2744          /*********************************************************************
   2745           * @fn          ZDO_ParseServerDiscRsp
   2746           *
   2747           * @brief       Parse the Server_Discovery_rsp message.
   2748           *
   2749           * @param       inMsg - incoming message.
   2750           * @param       pRsp - place to put the parsed information.
   2751           *
   2752           * @return      none
   2753           */

   \                                 In  segment BANKED_CODE, align 1, keep-with-next
   2754          void ZDO_ParseServerDiscRsp( zdoIncomingMsg_t *inMsg, ZDO_ServerDiscRsp_t *pRsp )
   \                     ZDO_ParseServerDiscRsp:
   2755          {
   \   000000   74F7         MOV     A,#-0x9
   \   000002   12....       LCALL   ?BANKED_ENTER_XDATA
   \   000005                ; Saved register size: 9
   \   000005                ; Auto size: 0
   2756            pRsp->status = inMsg->asdu[0];
   \   000005   EA           MOV     A,R2
   \   000006   2413         ADD     A,#0x13
   \   000008   F8           MOV     R0,A
   \   000009   EB           MOV     A,R3
   \   00000A   12....       LCALL   ?Subroutine203 & 0xFFFF
   \                     ??CrossCallReturnLabel_493:
   \   00000D   E0           MOVX    A,@DPTR
   \   00000E   FA           MOV     R2,A
   \   00000F   A3           INC     DPTR
   \   000010   E0           MOVX    A,@DPTR
   \   000011   F583         MOV     DPH,A
   \   000013   8A82         MOV     DPL,R2
   \   000015   E0           MOVX    A,@DPTR
   \   000016   8C82         MOV     DPL,R4
   \   000018   8D83         MOV     DPH,R5
   \   00001A   12....       LCALL   ??Subroutine240_0 & 0xFFFF
   2757            pRsp->serverMask = BUILD_UINT16( inMsg->asdu[1], inMsg->asdu[2] );
   \                     ??CrossCallReturnLabel_544:
   \   00001D   F8           MOV     R0,A
   \   00001E   A3           INC     DPTR
   \   00001F   E0           MOVX    A,@DPTR
   \   000020   F9           MOV     R1,A
   \   000021   8882         MOV     DPL,R0
   \   000023   8983         MOV     DPH,R1
   \   000025   A3           INC     DPTR
   \   000026   E0           MOVX    A,@DPTR
   \   000027   FA           MOV     R2,A
   \   000028   8882         MOV     DPL,R0
   \   00002A   8983         MOV     DPH,R1
   \   00002C   A3           INC     DPTR
   \   00002D   A3           INC     DPTR
   \   00002E   E0           MOVX    A,@DPTR
   \   00002F   F9           MOV     R1,A
   \   000030   EA           MOV     A,R2
   \   000031   8C82         MOV     DPL,R4
   \   000033   8D83         MOV     DPH,R5
   \   000035   A3           INC     DPTR
   \   000036   12....       LCALL   ??Subroutine214_0 & 0xFFFF
   2758          }
   \                     ??CrossCallReturnLabel_388:
   \   000039   02....       LJMP    ?Subroutine8 & 0xFFFF
   2759          
   2760          /*********************************************************************
   2761           * @fn          ZDO_ParseMgmtLqiRsp
   2762           *
   2763           * @brief       This function parses the incoming Management
   2764           *              LQI response
   2765           *
   2766           * @param       inMsg - incoming message
   2767           *
   2768           * @return      a pointer to parsed response structure (NULL if not allocated).
   2769           *          This structure was allocated using osal_mem_alloc, so it must be freed
   2770           *          by the calling function [osal_mem_free()].
   2771           */

   \                                 In  segment BANKED_CODE, align 1, keep-with-next
   2772          ZDO_MgmtLqiRsp_t *ZDO_ParseMgmtLqiRsp( zdoIncomingMsg_t *inMsg )
   \                     ZDO_ParseMgmtLqiRsp:
   2773          {
   \   000000   74F0         MOV     A,#-0x10
   \   000002   12....       LCALL   ?BANKED_ENTER_XDATA
   \   000005                ; Saved register size: 16
   \   000005                ; Auto size: 0
   2774            ZDO_MgmtLqiRsp_t *pRsp;
   2775            uint8 status;
   2776            uint8 startIndex = 0;
   \   000005   75..00       MOV     ?V0 + 4,#0x0
   2777            uint8 neighborLqiCount = 0;
   \   000008   75..00       MOV     ?V0 + 5,#0x0
   2778            uint8 neighborLqiEntries = 0;
   \   00000B   75..00       MOV     ?V0 + 6,#0x0
   2779            uint8 *msg;
   2780          
   2781            msg = inMsg->asdu;
   \   00000E   12....       LCALL   ?Subroutine74 & 0xFFFF
   2782          
   2783            status = *msg++;
   2784            if ( status == ZSuccess )
   \                     ??CrossCallReturnLabel_135:
   \   000011   7003         JNZ     ??CrossCallReturnLabel_139
   2785            {
   2786              neighborLqiEntries = *msg++;
   \   000013   12....       LCALL   ?Subroutine77 & 0xFFFF
   2787              startIndex = *msg++;
   2788              neighborLqiCount = *msg++;
   2789            }
   2790          
   2791            // Allocate a buffer big enough to handle the list.
   2792            pRsp = (ZDO_MgmtLqiRsp_t *)osal_mem_alloc(
   2793                      sizeof( ZDO_MgmtLqiRsp_t ) + (neighborLqiCount * sizeof( neighborLqiItem_t )) );
   \                     ??CrossCallReturnLabel_139:
   \   000016                ; Setup parameters for call to function osal_mem_alloc
   \   000016   E5..         MOV     A,?V0 + 5
   \   000018   75F00E       MOV     B,#0xe
   \   00001B   12....       LCALL   ?Subroutine129 & 0xFFFF
   \                     ??CrossCallReturnLabel_555:
   \   00001E   8A..         MOV     ?V0 + 0,R2
   \   000020   8B..         MOV     ?V0 + 1,R3
   \   000022   AE..         MOV     R6,?V0 + 0
   \   000024   AF..         MOV     R7,?V0 + 1
   2794            if ( pRsp )
   \   000026   EE           MOV     A,R6
   \   000027   4F           ORL     A,R7
   \   000028   6071         JZ      ??ZDO_ParseMgmtLqiRsp_0
   2795            {
   2796              uint8 x;
   2797              neighborLqiItem_t *pList = pRsp->list;
   \   00002A   EE           MOV     A,R6
   \   00002B   2404         ADD     A,#0x4
   \   00002D   F5..         MOV     ?V0 + 0,A
   \   00002F   EF           MOV     A,R7
   \   000030   12....       LCALL   ??Subroutine244_0 & 0xFFFF
   2798              pRsp->status = status;
   \                     ??CrossCallReturnLabel_564:
   \   000033   8E82         MOV     DPL,R6
   \   000035   8F83         MOV     DPH,R7
   \   000037   E5..         MOV     A,?V0 + 7
   \   000039   F0           MOVX    @DPTR,A
   2799              pRsp->neighborLqiEntries = neighborLqiEntries;
   \   00003A   A3           INC     DPTR
   \   00003B   E5..         MOV     A,?V0 + 6
   \   00003D   12....       LCALL   ?Subroutine53 & 0xFFFF
   2800              pRsp->startIndex = startIndex;
   \                     ??CrossCallReturnLabel_90:
   \   000040   A3           INC     DPTR
   \   000041   E5..         MOV     A,?V0 + 4
   \   000043   12....       LCALL   ?Subroutine52 & 0xFFFF
   2801              pRsp->neighborLqiCount = neighborLqiCount;
   \                     ??CrossCallReturnLabel_88:
   \   000046   E5..         MOV     A,?V0 + 5
   \   000048   F0           MOVX    @DPTR,A
   2802          
   2803              for ( x = 0; x < neighborLqiCount; x++ )
   \   000049   6050         JZ      ??ZDO_ParseMgmtLqiRsp_0
   \   00004B   F5..         MOV     ?V0 + 4,A
   2804              {
   2805                osal_cpyExtAddr(pList->extPANId, msg);   //Copy extended PAN ID
   \                     ??ZDO_ParseMgmtLqiRsp_1:
   \   00004D                ; Setup parameters for call to function sAddrExtCpy
   \   00004D   AC..         MOV     R4,?V0 + 2
   \   00004F   AD..         MOV     R5,?V0 + 3
   \   000051   E5..         MOV     A,?V0 + 0
   \   000053   2404         ADD     A,#0x4
   \   000055   FA           MOV     R2,A
   \   000056   E5..         MOV     A,?V0 + 1
   \   000058   3400         ADDC    A,#0x0
   \   00005A   FB           MOV     R3,A
   \   00005B   12....       LCALL   ??sAddrExtCpy?relay
   2806                msg += Z_EXTADDR_LEN;
   2807          
   2808                msg += Z_EXTADDR_LEN;  // Throwing away IEEE.
   \   00005E   E5..         MOV     A,?V0 + 2
   \   000060   2410         ADD     A,#0x10
   \   000062   F5..         MOV     ?V0 + 2,A
   \   000064   E5..         MOV     A,?V0 + 3
   \   000066   3400         ADDC    A,#0x0
   \   000068   12....       LCALL   ?Subroutine85 & 0xFFFF
   2809                pList->nwkAddr = BUILD_UINT16( msg[0], msg[1] );
   \                     ??CrossCallReturnLabel_636:
   \   00006B   85..82       MOV     DPL,?V0 + 0
   \   00006E   85..83       MOV     DPH,?V0 + 1
   \   000071   12....       LCALL   ??Subroutine214_0 & 0xFFFF
   2810                msg += 2 + 1 + 1 + 1;      // Skip DeviceType, RxOnIdle, Rlationship, PermitJoining and Depth
   \                     ??CrossCallReturnLabel_389:
   \   000074   E5..         MOV     A,?V0 + 2
   \   000076   2405         ADD     A,#0x5
   \   000078   F5..         MOV     ?V0 + 2,A
   \   00007A   E5..         MOV     A,?V0 + 3
   \   00007C   12....       LCALL   ?Subroutine131 & 0xFFFF
   2811                pList->rxLqi = *msg++;
   \                     ??CrossCallReturnLabel_242:
   \   00007F   C0E0         PUSH    A
   \   000081   E5..         MOV     A,?V0 + 0
   \   000083   240D         ADD     A,#0xd
   \   000085   12....       LCALL   ??Subroutine247_0 & 0xFFFF
   \                     ??CrossCallReturnLabel_592:
   \   000088   D0E0         POP     A
   \   00008A   12....       LCALL   ?Subroutine21 & 0xFFFF
   2812                pList->txQuality = 0;  // This is not specified OTA by ZigBee 1.1.
   \                     ??CrossCallReturnLabel_17:
   \   00008D   12....       LCALL   ?Subroutine137 & 0xFFFF
   \                     ??CrossCallReturnLabel_598:
   \   000090   E4           CLR     A
   \   000091   F0           MOVX    @DPTR,A
   2813                pList++;
   \   000092   E5..         MOV     A,?V0 + 0
   \   000094   240E         ADD     A,#0xe
   \   000096   12....       LCALL   ?Subroutine143 & 0xFFFF
   2814              }
   2815            }
   \                     ??CrossCallReturnLabel_262:
   \   000099   70B2         JNZ     ??ZDO_ParseMgmtLqiRsp_1
   2816          
   2817            return ( pRsp );
   \                     ??ZDO_ParseMgmtLqiRsp_0:
   \   00009B   02....       LJMP    ?Subroutine9 & 0xFFFF
   2818          }

   \                                 In  segment BANKED_CODE, align 1, keep-with-next
   \                     ?Subroutine129:
   \   000000   A4           MUL     AB
   \   000001   2404         ADD     A,#0x4
   \   000003   FA           MOV     R2,A
   \   000004   E5F0         MOV     A,B
   \   000006                REQUIRE ??Subroutine243_0
   \   000006                ; // Fall through to label ??Subroutine243_0

   \                                 In  segment BANKED_CODE, align 1, keep-with-next
   \                     ??Subroutine243_0:
   \   000000   12....       LCALL   ?Subroutine180 & 0xFFFF
   \                     ??CrossCallReturnLabel_559:
   \   000003   22           RET

   \                                 In  segment BANKED_CODE, align 1, keep-with-next
   \                     ?Subroutine143:
   \   000000   F5..         MOV     ?V0 + 0,A
   \   000002   E5..         MOV     A,?V0 + 1
   \   000004   3400         ADDC    A,#0x0
   \   000006   F5..         MOV     ?V0 + 1,A
   \   000008   15..         DEC     ?V0 + 4
   \   00000A   E5..         MOV     A,?V0 + 4
   \   00000C   22           RET

   \                                 In  segment BANKED_CODE, align 1, keep-with-next
   \                     ?Subroutine77:
   \   000000   E0           MOVX    A,@DPTR
   \   000001   F5..         MOV     ?V0 + 6,A
   \   000003   A3           INC     DPTR
   \   000004   12....       LCALL   ?Subroutine170 & 0xFFFF
   \                     ??CrossCallReturnLabel_302:
   \   000007   A3           INC     DPTR
   \   000008   8582..       MOV     ?V0 + 2,DPL
   \   00000B   8583..       MOV     ?V0 + 3,DPH
   \   00000E   22           RET

   \                                 In  segment BANKED_CODE, align 1, keep-with-next
   \                     ?Subroutine74:
   \   000000   12....       LCALL   ?Subroutine182 & 0xFFFF
   \                     ??CrossCallReturnLabel_325:
   \   000003   85..82       MOV     DPL,?V0 + 2
   \   000006   F583         MOV     DPH,A
   \   000008   E0           MOVX    A,@DPTR
   \   000009   F5..         MOV     ?V0 + 7,A
   \   00000B   A3           INC     DPTR
   \   00000C   8582..       MOV     ?V0 + 2,DPL
   \   00000F   8583..       MOV     ?V0 + 3,DPH
   \   000012   22           RET

   \                                 In  segment BANKED_CODE, align 1, keep-with-next
   \                     ?Subroutine21:
   \   000000   12....       LCALL   ?Subroutine153 & 0xFFFF
   \                     ??CrossCallReturnLabel_280:
   \   000003   22           RET
   2819          
   2820          /*********************************************************************
   2821           * @fn          ZDO_ParseMgmNwkDiscRsp
   2822           *
   2823           * @brief       This function parses the incoming Management
   2824           *              Network Discover response.
   2825           *
   2826           * @param       inMsg - incoming message
   2827           *
   2828           * @return      pointer to parsed response.  This structure was
   2829           *          allocated using osal_mem_alloc, so it must be freed
   2830           *          by the calling function [osal_mem_free()].
   2831           */

   \                                 In  segment BANKED_CODE, align 1, keep-with-next
   2832          ZDO_MgmNwkDiscRsp_t *ZDO_ParseMgmNwkDiscRsp( zdoIncomingMsg_t *inMsg )
   \                     ZDO_ParseMgmNwkDiscRsp:
   2833          {
   \   000000   74F0         MOV     A,#-0x10
   \   000002   12....       LCALL   ?BANKED_ENTER_XDATA
   \   000005                ; Saved register size: 16
   \   000005                ; Auto size: 0
   2834            ZDO_MgmNwkDiscRsp_t *pRsp;
   2835            uint8 status;
   2836            uint8 networkCount = 0;
   \   000005   75..00       MOV     ?V0 + 4,#0x0
   2837            uint8 startIndex = 0;
   \   000008   75..00       MOV     ?V0 + 6,#0x0
   2838            uint8 networkListCount = 0;
   \   00000B   75..00       MOV     ?V0 + 5,#0x0
   2839            uint8 *msg;
   2840          
   2841            msg = inMsg->asdu;
   \   00000E   12....       LCALL   ?Subroutine63 & 0xFFFF
   2842            status = *msg++;
   \                     ??CrossCallReturnLabel_568:
   \   000011   F5..         MOV     ?V0 + 7,A
   \   000013   A3           INC     DPTR
   \   000014   AE82         MOV     R6,DPL
   \   000016   AF83         MOV     R7,DPH
   2843          
   2844            if ( status == ZSuccess )
   \   000018   7011         JNZ     ??ZDO_ParseMgmNwkDiscRsp_0
   2845            {
   2846              networkCount = *msg++;
   \   00001A   E0           MOVX    A,@DPTR
   \   00001B   F5..         MOV     ?V0 + 4,A
   \   00001D   A3           INC     DPTR
   2847              startIndex = *msg++;
   \   00001E   E0           MOVX    A,@DPTR
   \   00001F   F5..         MOV     ?V0 + 6,A
   \   000021   A3           INC     DPTR
   2848              networkListCount = *msg++;
   \   000022   E0           MOVX    A,@DPTR
   \   000023   F5..         MOV     ?V0 + 5,A
   \   000025   A3           INC     DPTR
   \   000026   0E           INC     R6
   \   000027   0E           INC     R6
   \   000028   0E           INC     R6
   \   000029   AF83         MOV     R7,DPH
   2849            }
   2850          
   2851            // Allocate a buffer big enough to handle the list.
   2852            pRsp = (ZDO_MgmNwkDiscRsp_t *)osal_mem_alloc( sizeof( ZDO_MgmNwkDiscRsp_t )
   2853                                            + (networkListCount * sizeof( mgmtNwkDiscItem_t )) );
   \                     ??ZDO_ParseMgmNwkDiscRsp_0:
   \   00002B                ; Setup parameters for call to function osal_mem_alloc
   \   00002B   85....       MOV     ?V0 + 0,?V0 + 5
   \   00002E   75..00       MOV     ?V0 + 1,#0x0
   \   000031   7404         MOV     A,#0x4
   \   000033   78..         MOV     R0,#?V0 + 0
   \   000035   12....       LCALL   ?S_SHL
   \   000038   E5..         MOV     A,?V0 + 0
   \   00003A   2404         ADD     A,#0x4
   \   00003C   FA           MOV     R2,A
   \   00003D   E5..         MOV     A,?V0 + 1
   \   00003F   12....       LCALL   ??Subroutine243_0 & 0xFFFF
   \                     ??CrossCallReturnLabel_557:
   \   000042   8A..         MOV     ?V0 + 2,R2
   \   000044   8B..         MOV     ?V0 + 3,R3
   2854            if ( pRsp )
   \   000046   EA           MOV     A,R2
   \   000047   45..         ORL     A,?V0 + 3
   \   000049   7003         JNZ     $+5
   \   00004B   02....       LJMP    ??ZDO_ParseMgmNwkDiscRsp_1 & 0xFFFF
   2855            {
   2856              uint8 x;
   2857              mgmtNwkDiscItem_t *pList;
   2858          
   2859              pRsp->status = status;
   \   00004E   8A82         MOV     DPL,R2
   \   000050   8B83         MOV     DPH,R3
   \   000052   E5..         MOV     A,?V0 + 7
   \   000054   F0           MOVX    @DPTR,A
   2860              pRsp->networkCount = networkCount;
   \   000055   A3           INC     DPTR
   \   000056   E5..         MOV     A,?V0 + 4
   \   000058   12....       LCALL   ?Subroutine46 & 0xFFFF
   2861              pRsp->startIndex = startIndex;
   \                     ??CrossCallReturnLabel_72:
   \   00005B   E5..         MOV     A,?V0 + 6
   \   00005D   12....       LCALL   ?Subroutine45 & 0xFFFF
   2862              pRsp->networkListCount = networkListCount;
   2863              pList = pRsp->list;
   \                     ??CrossCallReturnLabel_69:
   \   000060   EA           MOV     A,R2
   \   000061   2404         ADD     A,#0x4
   \   000063   F5..         MOV     ?V0 + 0,A
   \   000065   EB           MOV     A,R3
   \   000066   12....       LCALL   ??Subroutine244_0 & 0xFFFF
   2864          
   2865              for ( x = 0; x < networkListCount; x++ )
   \                     ??CrossCallReturnLabel_565:
   \   000069   E5..         MOV     A,?V0 + 5
   \   00006B   606D         JZ      ??ZDO_ParseMgmNwkDiscRsp_1
   \   00006D   F5..         MOV     ?V0 + 4,A
   2866              {
   2867                osal_cpyExtAddr(pList->extendedPANID, msg);   //Copy extended PAN ID
   \                     ??ZDO_ParseMgmNwkDiscRsp_2:
   \   00006F                ; Setup parameters for call to function sAddrExtCpy
   \   00006F   EE           MOV     A,R6
   \   000070   FC           MOV     R4,A
   \   000071   EF           MOV     A,R7
   \   000072   FD           MOV     R5,A
   \   000073   AA..         MOV     R2,?V0 + 0
   \   000075   AB..         MOV     R3,?V0 + 1
   \   000077   12....       LCALL   ??sAddrExtCpy?relay
   2868                pList->PANId = BUILD_UINT16( msg[0], msg[1] );
   \   00007A   12....       LCALL   ?Subroutine76 & 0xFFFF
   \                     ??CrossCallReturnLabel_137:
   \   00007D   A3           INC     DPTR
   \   00007E   12....       LCALL   ??Subroutine214_0 & 0xFFFF
   2869                msg += Z_EXTADDR_LEN;
   \                     ??CrossCallReturnLabel_390:
   \   000081   EE           MOV     A,R6
   \   000082   2408         ADD     A,#0x8
   \   000084   12....       LCALL   ?Subroutine142 & 0xFFFF
   2870          
   2871                pList->logicalChannel = *msg++;
   2872                pList->stackProfile = (*msg) & 0x0F;
   2873                pList->version = (*msg++ >> 4) & 0x0F;
   2874                pList->beaconOrder = (*msg) & 0x0F;
   2875                pList->superFrameOrder = (*msg++ >> 4) & 0x0F;
   2876                pList->permitJoining = *msg++;
   2877                pList++;
   2878              }
   2879            }
   \                     ??CrossCallReturnLabel_258:
   \   000087   12....       LCALL   ?Subroutine73 & 0xFFFF
   \                     ??CrossCallReturnLabel_132:
   \   00008A   12....       LCALL   ?Subroutine44 & 0xFFFF
   \                     ??CrossCallReturnLabel_67:
   \   00008D   540F         ANL     A,#0xf
   \   00008F   C0E0         PUSH    A
   \   000091   E5..         MOV     A,?V0 + 0
   \   000093   240B         ADD     A,#0xb
   \   000095   12....       LCALL   ??Subroutine247_0 & 0xFFFF
   \                     ??CrossCallReturnLabel_593:
   \   000098   D0E0         POP     A
   \   00009A   12....       LCALL   ?Subroutine50 & 0xFFFF
   \                     ??CrossCallReturnLabel_82:
   \   00009D   C0E0         PUSH    A
   \   00009F   12....       LCALL   ?Subroutine137 & 0xFFFF
   \                     ??CrossCallReturnLabel_599:
   \   0000A2   D0E0         POP     A
   \   0000A4   12....       LCALL   ?Subroutine29 & 0xFFFF
   \                     ??CrossCallReturnLabel_33:
   \   0000A7   540F         ANL     A,#0xf
   \   0000A9   C0E0         PUSH    A
   \   0000AB   E5..         MOV     A,?V0 + 0
   \   0000AD   240D         ADD     A,#0xd
   \   0000AF   12....       LCALL   ??Subroutine247_0 & 0xFFFF
   \                     ??CrossCallReturnLabel_594:
   \   0000B2   D0E0         POP     A
   \   0000B4   12....       LCALL   ?Subroutine50 & 0xFFFF
   \                     ??CrossCallReturnLabel_83:
   \   0000B7   C0E0         PUSH    A
   \   0000B9   E5..         MOV     A,?V0 + 0
   \   0000BB   240E         ADD     A,#0xe
   \   0000BD   12....       LCALL   ??Subroutine247_0 & 0xFFFF
   \                     ??CrossCallReturnLabel_595:
   \   0000C0   D0E0         POP     A
   \   0000C2   12....       LCALL   ?Subroutine29 & 0xFFFF
   \                     ??CrossCallReturnLabel_34:
   \   0000C5   C0E0         PUSH    A
   \   0000C7   E5..         MOV     A,?V0 + 0
   \   0000C9   240F         ADD     A,#0xf
   \   0000CB   12....       LCALL   ??Subroutine247_0 & 0xFFFF
   \                     ??CrossCallReturnLabel_596:
   \   0000CE   D0E0         POP     A
   \   0000D0   12....       LCALL   ?Subroutine43 & 0xFFFF
   \                     ??CrossCallReturnLabel_66:
   \   0000D3   2410         ADD     A,#0x10
   \   0000D5   12....       LCALL   ?Subroutine143 & 0xFFFF
   \                     ??CrossCallReturnLabel_263:
   \   0000D8   7095         JNZ     ??ZDO_ParseMgmNwkDiscRsp_2
   2880          
   2881            return ( pRsp );
   \                     ??ZDO_ParseMgmNwkDiscRsp_1:
   \   0000DA   AA..         MOV     R2,?V0 + 2
   \   0000DC   AB..         MOV     R3,?V0 + 3
   \   0000DE   02....       LJMP    ??Subroutine250_0 & 0xFFFF
   2882          }

   \                                 In  segment BANKED_CODE, align 1, keep-with-next
   \                     ?Subroutine63:
   \   000000   EA           MOV     A,R2
   \   000001   12....       LCALL   ??Subroutine251_0 & 0xFFFF
   \                     ??CrossCallReturnLabel_621:
   \   000004   EB           MOV     A,R3
   \   000005                REQUIRE ??Subroutine245_0
   \   000005                ; // Fall through to label ??Subroutine245_0

   \                                 In  segment BANKED_CODE, align 1, keep-with-next
   \                     ?Subroutine50:
   \   000000   F0           MOVX    @DPTR,A
   \   000001   8E82         MOV     DPL,R6
   \   000003   8F83         MOV     DPH,R7
   \   000005   E0           MOVX    A,@DPTR
   \   000006   C4           SWAP    A
   \   000007   540F         ANL     A,#0xf
   \   000009   22           RET

   \                                 In  segment BANKED_CODE, align 1, keep-with-next
   \                     ?Subroutine44:
   \   000000   A3           INC     DPTR
   \   000001   A3           INC     DPTR
   \   000002   A3           INC     DPTR
   \   000003   A3           INC     DPTR
   \   000004   A3           INC     DPTR
   \   000005   12....       LCALL   ?Subroutine156 & 0xFFFF
   \                     ??CrossCallReturnLabel_284:
   \   000008   22           RET

   \                                 In  segment BANKED_CODE, align 1, keep-with-next
   \                     ?Subroutine45:
   \   000000   12....       LCALL   ?Subroutine161 & 0xFFFF
   \                     ??CrossCallReturnLabel_290:
   \   000003   E5..         MOV     A,?V0 + 5
   \   000005   F0           MOVX    @DPTR,A
   \   000006   22           RET

   \                                 In  segment BANKED_CODE, align 1, keep-with-next
   \                     ?Subroutine161:
   \   000000   F0           MOVX    @DPTR,A
   \   000001   8A82         MOV     DPL,R2
   \   000003   8B83         MOV     DPH,R3
   \   000005   A3           INC     DPTR
   \   000006   A3           INC     DPTR
   \   000007   A3           INC     DPTR
   \   000008   22           RET

   \                                 In  segment BANKED_CODE, align 1, keep-with-next
   \                     ?Subroutine76:
   \   000000   8E82         MOV     DPL,R6
   \   000002   8F83         MOV     DPH,R7
   \   000004   12....       LCALL   ?Subroutine168 & 0xFFFF
   \                     ??CrossCallReturnLabel_641:
   \   000007   85..82       MOV     DPL,?V0 + 0
   \   00000A   85..83       MOV     DPH,?V0 + 1
   \   00000D   A3           INC     DPTR
   \   00000E   A3           INC     DPTR
   \   00000F   A3           INC     DPTR
   \   000010   A3           INC     DPTR
   \   000011   A3           INC     DPTR
   \   000012   A3           INC     DPTR
   \   000013   A3           INC     DPTR
   \   000014   22           RET

   \                                 In  segment BANKED_CODE, align 1, keep-with-next
   \                     ?Subroutine73:
   \   000000   E0           MOVX    A,@DPTR
   \   000001   85..82       MOV     DPL,?V0 + 0
   \   000004   85..83       MOV     DPH,?V0 + 1
   \   000007   A3           INC     DPTR
   \   000008   A3           INC     DPTR
   \   000009   A3           INC     DPTR
   \   00000A   A3           INC     DPTR
   \   00000B   A3           INC     DPTR
   \   00000C   22           RET
   2883          
   2884          /*********************************************************************
   2885           * @fn          ZDO_ParseMgmtRtgRsp
   2886           *
   2887           * @brief       This function parses the incoming Management
   2888           *              Routing response.
   2889           *
   2890           * @param       inMsg - incoming message
   2891           *
   2892           * @return      a pointer to parsed response structure (NULL if not allocated).
   2893           *          This structure was allocated using osal_mem_alloc, so it must be freed
   2894           *          by the calling function [osal_mem_free()].
   2895           */

   \                                 In  segment BANKED_CODE, align 1, keep-with-next
   2896          ZDO_MgmtRtgRsp_t *ZDO_ParseMgmtRtgRsp( zdoIncomingMsg_t *inMsg )
   \                     ZDO_ParseMgmtRtgRsp:
   2897          {
   \   000000   74F2         MOV     A,#-0xe
   \   000002   12....       LCALL   ?BANKED_ENTER_XDATA
   \   000005                ; Saved register size: 14
   \   000005                ; Auto size: 0
   2898            ZDO_MgmtRtgRsp_t *pRsp;
   2899            uint8 status;
   2900            uint8 rtgCount = 0;
   \   000005   75..00       MOV     ?V0 + 2,#0x0
   2901            uint8 startIndex = 0;
   \   000008   75..00       MOV     ?V0 + 1,#0x0
   2902            uint8 rtgListCount = 0;
   \   00000B   75..00       MOV     ?V0 + 0,#0x0
   2903            uint8 *msg;
   2904          
   2905            msg = inMsg->asdu;
   \   00000E   12....       LCALL   ?Subroutine63 & 0xFFFF
   2906          
   2907            status = *msg++;
   \                     ??CrossCallReturnLabel_569:
   \   000011   F5..         MOV     ?V0 + 3,A
   \   000013   A3           INC     DPTR
   \   000014   AE82         MOV     R6,DPL
   \   000016   AF83         MOV     R7,DPH
   2908            if ( status == ZSuccess )
   \   000018   7011         JNZ     ??ZDO_ParseMgmtRtgRsp_0
   2909            {
   2910              rtgCount = *msg++;
   \   00001A   E0           MOVX    A,@DPTR
   \   00001B   F5..         MOV     ?V0 + 2,A
   \   00001D   A3           INC     DPTR
   2911              startIndex = *msg++;
   \   00001E   E0           MOVX    A,@DPTR
   \   00001F   F5..         MOV     ?V0 + 1,A
   \   000021   A3           INC     DPTR
   2912              rtgListCount = *msg++;
   \   000022   E0           MOVX    A,@DPTR
   \   000023   F5..         MOV     ?V0 + 0,A
   \   000025   A3           INC     DPTR
   \   000026   0E           INC     R6
   \   000027   0E           INC     R6
   \   000028   0E           INC     R6
   \   000029   AF83         MOV     R7,DPH
   2913            }
   2914          
   2915            // Allocate a buffer big enough to handle the list
   2916            pRsp = (ZDO_MgmtRtgRsp_t *)osal_mem_alloc(
   2917                    sizeof( ZDO_MgmtRtgRsp_t ) + (rtgListCount * sizeof( rtgItem_t )) );
   \                     ??ZDO_ParseMgmtRtgRsp_0:
   \   00002B                ; Setup parameters for call to function osal_mem_alloc
   \   00002B   E5..         MOV     A,?V0 + 0
   \   00002D   75F007       MOV     B,#0x7
   \   000030   12....       LCALL   ?Subroutine129 & 0xFFFF
   2918            if ( pRsp )
   \                     ??CrossCallReturnLabel_556:
   \   000033   EA           MOV     A,R2
   \   000034   4B           ORL     A,R3
   \   000035   605E         JZ      ??ZDO_ParseMgmtRtgRsp_1
   2919            {
   2920              uint8 x;
   2921              rtgItem_t *pList = pRsp->list;
   \   000037   EA           MOV     A,R2
   \   000038   2404         ADD     A,#0x4
   \   00003A   F8           MOV     R0,A
   \   00003B   EB           MOV     A,R3
   \   00003C   3400         ADDC    A,#0x0
   \   00003E   F9           MOV     R1,A
   2922              pRsp->status = status;
   \   00003F   8A82         MOV     DPL,R2
   \   000041   8B83         MOV     DPH,R3
   \   000043   E5..         MOV     A,?V0 + 3
   \   000045   F0           MOVX    @DPTR,A
   2923              pRsp->rtgCount = rtgCount;
   \   000046   A3           INC     DPTR
   \   000047   E5..         MOV     A,?V0 + 2
   \   000049   12....       LCALL   ?Subroutine46 & 0xFFFF
   2924              pRsp->startIndex = startIndex;
   \                     ??CrossCallReturnLabel_73:
   \   00004C   E5..         MOV     A,?V0 + 1
   \   00004E   12....       LCALL   ?Subroutine46 & 0xFFFF
   2925              pRsp->rtgListCount = rtgListCount;
   \                     ??CrossCallReturnLabel_74:
   \   000051   A3           INC     DPTR
   \   000052   E5..         MOV     A,?V0 + 0
   \   000054   F0           MOVX    @DPTR,A
   2926          
   2927              for ( x = 0; x < rtgListCount; x++ )
   \   000055   603E         JZ      ??ZDO_ParseMgmtRtgRsp_1
   \   000057   F5..         MOV     ?V0 + 2,A
   2928              {
   2929                pList->dstAddress = BUILD_UINT16( msg[0], msg[1] );
   \                     ??ZDO_ParseMgmtRtgRsp_2:
   \   000059   8E82         MOV     DPL,R6
   \   00005B   8F83         MOV     DPH,R7
   \   00005D   12....       LCALL   ?Subroutine100 & 0xFFFF
   \                     ??CrossCallReturnLabel_182:
   \   000060   FD           MOV     R5,A
   \   000061   E5..         MOV     A,?V0 + 0
   \   000063   8882         MOV     DPL,R0
   \   000065   8983         MOV     DPH,R1
   \   000067   F0           MOVX    @DPTR,A
   \   000068   A3           INC     DPTR
   \   000069   ED           MOV     A,R5
   \   00006A   12....       LCALL   ??Subroutine253_0 & 0xFFFF
   2930                msg += 2;
   2931                pList->status = *msg++;
   \                     ??CrossCallReturnLabel_629:
   \   00006D   8882         MOV     DPL,R0
   \   00006F   8983         MOV     DPH,R1
   \   000071   12....       LCALL   ?Subroutine44 & 0xFFFF
   2932                pList->nextHopAddress = BUILD_UINT16( msg[0], msg[1] );
   \                     ??CrossCallReturnLabel_68:
   \   000074   F5..         MOV     ?V0 + 0,A
   \   000076   A3           INC     DPTR
   \   000077   E0           MOVX    A,@DPTR
   \   000078   FD           MOV     R5,A
   \   000079   E5..         MOV     A,?V0 + 0
   \   00007B   8882         MOV     DPL,R0
   \   00007D   8983         MOV     DPH,R1
   \   00007F   A3           INC     DPTR
   \   000080   A3           INC     DPTR
   \   000081   F0           MOVX    @DPTR,A
   \   000082   A3           INC     DPTR
   \   000083   ED           MOV     A,R5
   \   000084   12....       LCALL   ??Subroutine238_0 & 0xFFFF
   2933                msg += 2;
   2934                pList++;
   \                     ??CrossCallReturnLabel_529:
   \   000087   E8           MOV     A,R0
   \   000088   2407         ADD     A,#0x7
   \   00008A   F8           MOV     R0,A
   \   00008B   E9           MOV     A,R1
   \   00008C   3400         ADDC    A,#0x0
   \   00008E   F9           MOV     R1,A
   2935              }
   \   00008F   15..         DEC     ?V0 + 2
   \   000091   E5..         MOV     A,?V0 + 2
   \   000093   70C4         JNZ     ??ZDO_ParseMgmtRtgRsp_2
   2936            }
   2937          
   2938            return ( pRsp );
   \                     ??ZDO_ParseMgmtRtgRsp_1:
   \   000095                REQUIRE ?Subroutine3
   \   000095                ; // Fall through to label ?Subroutine3
   2939          }
   2940          
   2941          /*********************************************************************
   2942           * @fn          ZDO_ParseMgmtBindRsp
   2943           *
   2944           * @brief       This function parses the incoming Management
   2945           *              Binding response.
   2946           *
   2947           * @param       inMsg - pointer to message to parse
   2948           *
   2949           * @return      a pointer to parsed response structure (NULL if not allocated).
   2950           *          This structure was allocated using osal_mem_alloc, so it must be freed
   2951           *          by the calling function [osal_mem_free()].
   2952           */

   \                                 In  segment BANKED_CODE, align 1, keep-with-next
   2953          ZDO_MgmtBindRsp_t *ZDO_ParseMgmtBindRsp( zdoIncomingMsg_t *inMsg )
   \                     ZDO_ParseMgmtBindRsp:
   2954          {
   \   000000   74EE         MOV     A,#-0x12
   \   000002   12....       LCALL   ?BANKED_ENTER_XDATA
   \   000005                ; Saved register size: 18
   \   000005                ; Auto size: 0
   2955            ZDO_MgmtBindRsp_t *pRsp;
   2956            uint8 status;
   2957            uint8 bindingCount = 0;
   \   000005   75..00       MOV     ?V0 + 6,#0x0
   2958            uint8 startIndex = 0;
   \   000008   75..00       MOV     ?V0 + 4,#0x0
   2959            uint8 bindingListCount = 0;
   \   00000B   75..00       MOV     ?V0 + 5,#0x0
   2960            uint8 *msg;
   2961          
   2962            msg = inMsg->asdu;
   \   00000E   12....       LCALL   ?Subroutine74 & 0xFFFF
   2963          
   2964            status = *msg++;
   2965            if ( status == ZSuccess )
   \                     ??CrossCallReturnLabel_136:
   \   000011   7003         JNZ     ??CrossCallReturnLabel_140
   2966            {
   2967              bindingCount = *msg++;
   \   000013   12....       LCALL   ?Subroutine77 & 0xFFFF
   2968              startIndex = *msg++;
   2969              bindingListCount = *msg++;
   2970            }
   2971          
   2972            // Allocate a buffer big enough to handle the list
   2973            pRsp = (ZDO_MgmtBindRsp_t *)osal_mem_alloc(
   2974                    (sizeof ( ZDO_MgmtBindRsp_t ) + (bindingListCount * sizeof( apsBindingItem_t ))) );
   \                     ??CrossCallReturnLabel_140:
   \   000016                ; Setup parameters for call to function osal_mem_alloc
   \   000016   E5..         MOV     A,?V0 + 5
   \   000018   75F015       MOV     B,#0x15
   \   00001B   A4           MUL     AB
   \   00001C   2404         ADD     A,#0x4
   \   00001E   FA           MOV     R2,A
   \   00001F   E5F0         MOV     A,B
   \   000021   12....       LCALL   ?Subroutine127 & 0xFFFF
   2975            if ( pRsp )
   \                     ??CrossCallReturnLabel_239:
   \   000024   7003         JNZ     $+5
   \   000026   02....       LJMP    ??ZDO_ParseMgmtBindRsp_0 & 0xFFFF
   2976            {
   2977              uint8 x;
   2978              apsBindingItem_t *pList = pRsp->list;
   \   000029   EA           MOV     A,R2
   \   00002A   2404         ADD     A,#0x4
   \   00002C   FE           MOV     R6,A
   \   00002D   EB           MOV     A,R3
   \   00002E   3400         ADDC    A,#0x0
   \   000030   FF           MOV     R7,A
   2979              pRsp->status = status;
   \   000031   8A82         MOV     DPL,R2
   \   000033   8B83         MOV     DPH,R3
   \   000035   E5..         MOV     A,?V0 + 7
   \   000037   F0           MOVX    @DPTR,A
   2980              pRsp->bindingCount = bindingCount;
   \   000038   A3           INC     DPTR
   \   000039   E5..         MOV     A,?V0 + 6
   \   00003B   12....       LCALL   ?Subroutine46 & 0xFFFF
   2981              pRsp->startIndex = startIndex;
   \                     ??CrossCallReturnLabel_75:
   \   00003E   E5..         MOV     A,?V0 + 4
   \   000040   12....       LCALL   ?Subroutine45 & 0xFFFF
   2982              pRsp->bindingListCount = bindingListCount;
   2983          
   2984              for ( x = 0; x < bindingListCount; x++ )
   \                     ??CrossCallReturnLabel_70:
   \   000043   6071         JZ      ??ZDO_ParseMgmtBindRsp_0
   \   000045   F5..         MOV     ?V0 + 4,A
   2985              {
   2986                osal_cpyExtAddr( pList->srcAddr, msg );
   \                     ??ZDO_ParseMgmtBindRsp_1:
   \   000047                ; Setup parameters for call to function sAddrExtCpy
   \   000047   AC..         MOV     R4,?V0 + 2
   \   000049   AD..         MOV     R5,?V0 + 3
   \   00004B   EE           MOV     A,R6
   \   00004C   FA           MOV     R2,A
   \   00004D   EF           MOV     A,R7
   \   00004E   12....       LCALL   ?Subroutine56 & 0xFFFF
   2987                msg += Z_EXTADDR_LEN;
   2988                pList->srcEP = *msg++;
   \                     ??CrossCallReturnLabel_523:
   \   000051   8E82         MOV     DPL,R6
   \   000053   8F83         MOV     DPH,R7
   \   000055   A3           INC     DPTR
   \   000056   A3           INC     DPTR
   \   000057   A3           INC     DPTR
   \   000058   A3           INC     DPTR
   \   000059   A3           INC     DPTR
   \   00005A   A3           INC     DPTR
   \   00005B   A3           INC     DPTR
   \   00005C   A3           INC     DPTR
   \   00005D   12....       LCALL   ?Subroutine20 & 0xFFFF
   2989          
   2990                // Get the Cluster ID
   2991          
   2992                pList->clusterID = BUILD_UINT16( msg[0], msg[1] );
   \                     ??CrossCallReturnLabel_16:
   \   000060   8E82         MOV     DPL,R6
   \   000062   8F83         MOV     DPH,R7
   \   000064   A3           INC     DPTR
   \   000065   A3           INC     DPTR
   \   000066   A3           INC     DPTR
   \   000067   A3           INC     DPTR
   \   000068   A3           INC     DPTR
   \   000069   12....       LCALL   ?Subroutine12 & 0xFFFF
   2993                msg += 2;
   2994                pList->dstAddr.addrMode = *msg++;
   \                     ??CrossCallReturnLabel_616:
   \   00006C   85..82       MOV     DPL,?V0 + 2
   \   00006F   F583         MOV     DPH,A
   \   000071   E0           MOVX    A,@DPTR
   \   000072   F8           MOV     R0,A
   \   000073   EE           MOV     A,R6
   \   000074   2413         ADD     A,#0x13
   \   000076   12....       LCALL   ?Subroutine136 & 0xFFFF
   \                     ??CrossCallReturnLabel_498:
   \   000079   12....       LCALL   ?Subroutine21 & 0xFFFF
   2995                if ( pList->dstAddr.addrMode == Addr64Bit )
   \                     ??CrossCallReturnLabel_18:
   \   00007C   EE           MOV     A,R6
   \   00007D   240B         ADD     A,#0xb
   \   00007F   FA           MOV     R2,A
   \   000080   EF           MOV     A,R7
   \   000081   3400         ADDC    A,#0x0
   \   000083   FB           MOV     R3,A
   \   000084   7403         MOV     A,#0x3
   \   000086   68           XRL     A,R0
   \   000087   7019         JNZ     ??ZDO_ParseMgmtBindRsp_2
   2996                {
   2997                  osal_cpyExtAddr( pList->dstAddr.addr.extAddr, msg );
   \   000089                ; Setup parameters for call to function sAddrExtCpy
   \   000089   AC..         MOV     R4,?V0 + 2
   \   00008B   AD..         MOV     R5,?V0 + 3
   \   00008D   12....       LCALL   ??Subroutine237_0 & 0xFFFF
   2998                  msg += Z_EXTADDR_LEN;
   2999                  pList->dstEP = *msg++;
   3000                }
   \                     ??CrossCallReturnLabel_524:
   \   000090   C0E0         PUSH    A
   \   000092   EE           MOV     A,R6
   \   000093   2414         ADD     A,#0x14
   \   000095   F582         MOV     DPL,A
   \   000097   EF           MOV     A,R7
   \   000098   12....       LCALL   ??Subroutine248_0 & 0xFFFF
   \                     ??CrossCallReturnLabel_588:
   \   00009B   D0E0         POP     A
   \   00009D   12....       LCALL   ?Subroutine21 & 0xFFFF
   \                     ??CrossCallReturnLabel_19:
   \   0000A0   8006         SJMP    ??CrossCallReturnLabel_618
   3001                else
   3002                {
   3003                  pList->dstAddr.addr.shortAddr = BUILD_UINT16( msg[0], msg[1] );
   \                     ??ZDO_ParseMgmtBindRsp_2:
   \   0000A2   12....       LCALL   ?Subroutine106 & 0xFFFF
   3004                  msg += 2;
   3005                }
   \                     ??CrossCallReturnLabel_195:
   \   0000A5   12....       LCALL   ??Subroutine249_0 & 0xFFFF
   3006          
   3007                pList++;
   \                     ??CrossCallReturnLabel_618:
   \   0000A8   EE           MOV     A,R6
   \   0000A9   2415         ADD     A,#0x15
   \   0000AB   FE           MOV     R6,A
   \   0000AC   EF           MOV     A,R7
   \   0000AD   3400         ADDC    A,#0x0
   \   0000AF   FF           MOV     R7,A
   3008              }
   \   0000B0   15..         DEC     ?V0 + 4
   \   0000B2   E5..         MOV     A,?V0 + 4
   \   0000B4   7091         JNZ     ??ZDO_ParseMgmtBindRsp_1
   3009            }
   3010          
   3011            return ( pRsp );
   \                     ??ZDO_ParseMgmtBindRsp_0:
   \   0000B6   AA..         MOV     R2,?V0 + 0
   \   0000B8   AB..         MOV     R3,?V0 + 1
   \   0000BA   02....       LJMP    ?Subroutine7 & 0xFFFF
   3012          }
   3013          
   3014          /*********************************************************************
   3015           * @fn          ZDO_ParseUserDescRsp
   3016           *
   3017           * @brief       This function parses the incoming User
   3018           *              Descriptor Response.
   3019           *
   3020           * @param       inMsg - incoming response message
   3021           *
   3022           * @return      a pointer to parsed response structure (NULL if not allocated).
   3023           *          This structure was allocated using osal_mem_alloc, so it must be freed
   3024           *          by the calling function [osal_mem_free()].
   3025           */

   \                                 In  segment BANKED_CODE, align 1, keep-with-next
   3026          ZDO_UserDescRsp_t *ZDO_ParseUserDescRsp( zdoIncomingMsg_t *inMsg )
   \                     ZDO_ParseUserDescRsp:
   3027          {
   \   000000   74F0         MOV     A,#-0x10
   \   000002   12....       LCALL   ?BANKED_ENTER_XDATA
   \   000005                ; Saved register size: 16
   \   000005                ; Auto size: 0
   3028            ZDO_UserDescRsp_t *pRsp;
   3029            uint8 *msg;
   3030            uint8 descLen = 0;
   \   000005   75..00       MOV     ?V0 + 4,#0x0
   3031          
   3032            msg = inMsg->asdu;
   \   000008   12....       LCALL   ?Subroutine146 & 0xFFFF
   \                     ??CrossCallReturnLabel_266:
   \   00000B   12....       LCALL   ??Subroutine248_0 & 0xFFFF
   \                     ??CrossCallReturnLabel_589:
   \   00000E   12....       LCALL   ??Subroutine236_0 & 0xFFFF
   \                     ??CrossCallReturnLabel_507:
   \   000011   88..         MOV     ?V0 + 2,R0
   \   000013   89..         MOV     ?V0 + 3,R1
   3033          
   3034            if ( msg[0] == ZSuccess )
   \   000015   8882         MOV     DPL,R0
   \   000017   F583         MOV     DPH,A
   \   000019   E0           MOVX    A,@DPTR
   \   00001A   7006         JNZ     ??ZDO_ParseUserDescRsp_0
   3035            {
   3036              descLen = msg[3];
   \   00001C   A3           INC     DPTR
   \   00001D   A3           INC     DPTR
   \   00001E   A3           INC     DPTR
   \   00001F   E0           MOVX    A,@DPTR
   \   000020   F5..         MOV     ?V0 + 4,A
   3037            }
   3038          
   3039            pRsp = (ZDO_UserDescRsp_t *)osal_mem_alloc( sizeof ( ZDO_UserDescRsp_t ) + descLen );
   \                     ??ZDO_ParseUserDescRsp_0:
   \   000022   85..82       MOV     DPL,?V0 + 4
   \   000025   8582..       MOV     ?V0 + 0,DPL
   \   000028                ; Setup parameters for call to function osal_mem_alloc
   \   000028   E5..         MOV     A,?V0 + 0
   \   00002A   12....       LCALL   ?Subroutine125 & 0xFFFF
   3040            if ( pRsp )
   \                     ??CrossCallReturnLabel_232:
   \   00002D   6035         JZ      ??ZDO_ParseUserDescRsp_1
   3041            {
   3042              pRsp->status = msg[0];
   \   00002F   85..82       MOV     DPL,?V0 + 2
   \   000032   85..83       MOV     DPH,?V0 + 3
   \   000035   E0           MOVX    A,@DPTR
   \   000036   8E82         MOV     DPL,R6
   \   000038   8F83         MOV     DPH,R7
   \   00003A   12....       LCALL   ?Subroutine196 & 0xFFFF
   3043              pRsp->nwkAddr = BUILD_UINT16( msg[1], msg[2] );
   \                     ??CrossCallReturnLabel_348:
   \   00003D   E0           MOVX    A,@DPTR
   \   00003E   FA           MOV     R2,A
   \   00003F   85..82       MOV     DPL,?V0 + 2
   \   000042   85..83       MOV     DPH,?V0 + 3
   \   000045   A3           INC     DPTR
   \   000046   12....       LCALL   ?Subroutine31 & 0xFFFF
   3044              pRsp->length = descLen;
   3045              if ( descLen )
   \                     ??CrossCallReturnLabel_38:
   \   000049   6019         JZ      ??ZDO_ParseUserDescRsp_1
   3046              {
   3047                osal_memcpy( pRsp->desc, &msg[4], descLen );
   \   00004B                ; Setup parameters for call to function osal_memcpy
   \   00004B   E5..         MOV     A,?V0 + 2
   \   00004D   2404         ADD     A,#0x4
   \   00004F   F5..         MOV     ?V0 + 4,A
   \   000051   E5..         MOV     A,?V0 + 3
   \   000053   3400         ADDC    A,#0x0
   \   000055   F5..         MOV     ?V0 + 5,A
   \   000057   88..         MOV     ?V0 + 6,R0
   \   000059   78..         MOV     R0,#?V0 + 4
   \   00005B   12....       LCALL   ?PUSH_XSTACK_I_THREE
   \   00005E   12....       LCALL   ?Subroutine128 & 0xFFFF
   3048              }
   3049            }
   \                     ??CrossCallReturnLabel_549:
   \   000061   12....       LCALL   ?DEALLOC_XSTACK8
   3050          
   3051            return ( pRsp );
   \                     ??ZDO_ParseUserDescRsp_1:
   \   000064                REQUIRE ?Subroutine9
   \   000064                ; // Fall through to label ?Subroutine9
   3052          }
   3053          
   3054          /*********************************************************************
   3055           * @fn          ZDO_ParseSimpleDescBuf
   3056           *
   3057           * @brief       Parse a byte sequence representation of a Simple Descriptor.
   3058           *
   3059           * @param       buf  - pointer to a byte array representing a Simple Desc.
   3060           * @param       desc - SimpleDescriptionFormat_t *
   3061           *
   3062           *              This routine allocates storage for the cluster IDs because
   3063           *              they are 16-bit and need to be aligned to be properly processed.
   3064           *              This routine returns non-zero if an allocation fails.
   3065           *
   3066           *              NOTE: This means that the caller or user of the input structure
   3067           *                    is responsible for freeing the memory
   3068           *
   3069           * @return      0: success
   3070           *              1: failure due to malloc failure.
   3071           */

   \                                 In  segment BANKED_CODE, align 1, keep-with-next
   3072          uint8 ZDO_ParseSimpleDescBuf( uint8 *buf, SimpleDescriptionFormat_t *desc )
   \                     ZDO_ParseSimpleDescBuf:
   3073          {
   \   000000   74F2         MOV     A,#-0xe
   \   000002   12....       LCALL   ?BANKED_ENTER_XDATA
   \   000005                ; Saved register size: 14
   \   000005                ; Auto size: 0
   \   000005   EA           MOV     A,R2
   \   000006   FE           MOV     R6,A
   \   000007   EB           MOV     A,R3
   \   000008   FF           MOV     R7,A
   \   000009   8C..         MOV     ?V0 + 0,R4
   \   00000B   8D..         MOV     ?V0 + 1,R5
   3074            uint8 num, i;
   3075          
   3076            desc->EndPoint = *buf++;
   \   00000D   8E82         MOV     DPL,R6
   \   00000F   8F83         MOV     DPH,R7
   \   000011   E0           MOVX    A,@DPTR
   \   000012   8C82         MOV     DPL,R4
   \   000014   8D83         MOV     DPH,R5
   \   000016   12....       LCALL   ?Subroutine30 & 0xFFFF
   3077            desc->AppProfId = BUILD_UINT16( buf[0], buf[1] );
   \                     ??CrossCallReturnLabel_36:
   \   000019   8C82         MOV     DPL,R4
   \   00001B   8D83         MOV     DPH,R5
   \   00001D   12....       LCALL   ??Subroutine252_0 & 0xFFFF
   3078            buf += 2;
   3079            desc->AppDeviceId = BUILD_UINT16( buf[0], buf[1] );
   \                     ??CrossCallReturnLabel_628:
   \   000020   FA           MOV     R2,A
   \   000021   A3           INC     DPTR
   \   000022   E0           MOVX    A,@DPTR
   \   000023   F9           MOV     R1,A
   \   000024   EA           MOV     A,R2
   \   000025   8C82         MOV     DPL,R4
   \   000027   8D83         MOV     DPH,R5
   \   000029   12....       LCALL   ?Subroutine13 & 0xFFFF
   3080            buf += 2;
   3081            desc->AppDevVer = *buf >> 4;
   3082          
   3083            desc->Reserved = 0;
   \                     ??CrossCallReturnLabel_627:
   \   00002C   C4           SWAP    A
   \   00002D   540F         ANL     A,#0xf
   \   00002F   8C82         MOV     DPL,R4
   \   000031   8D83         MOV     DPH,R5
   \   000033   A3           INC     DPTR
   \   000034   A3           INC     DPTR
   \   000035   A3           INC     DPTR
   \   000036   A3           INC     DPTR
   \   000037   A3           INC     DPTR
   \   000038   12....       LCALL   ?Subroutine53 & 0xFFFF
   3084            buf++;
   3085          
   3086            // move in input cluster list (if any). allocate aligned memory.
   3087            num = desc->AppNumInClusters = *buf++;
   \                     ??CrossCallReturnLabel_91:
   \   00003B   E0           MOVX    A,@DPTR
   \   00003C   F8           MOV     R0,A
   \   00003D   A3           INC     DPTR
   \   00003E   0E           INC     R6
   \   00003F   0E           INC     R6
   \   000040   AF83         MOV     R7,DPH
   \   000042   8C82         MOV     DPL,R4
   \   000044   8D83         MOV     DPH,R5
   \   000046   A3           INC     DPTR
   \   000047   A3           INC     DPTR
   \   000048   A3           INC     DPTR
   \   000049   A3           INC     DPTR
   \   00004A   A3           INC     DPTR
   \   00004B   A3           INC     DPTR
   \   00004C   F0           MOVX    @DPTR,A
   \   00004D   88..         MOV     ?V0 + 3,R0
   3088            if ( num )
   \   00004F   601B         JZ      ??ZDO_ParseSimpleDescBuf_0
   3089            {
   3090              if (!(desc->pAppInClusterList = (uint16 *)osal_mem_alloc(num*sizeof(uint16))))
   \   000051   EC           MOV     A,R4
   \   000052   2407         ADD     A,#0x7
   \   000054   F5..         MOV     ?V0 + 4,A
   \   000056   ED           MOV     A,R5
   \   000057   12....       LCALL   ?Subroutine24 & 0xFFFF
   \                     ??CrossCallReturnLabel_26:
   \   00005A   7004         JNZ     ??ZDO_ParseSimpleDescBuf_1
   3091              {
   3092                // malloc failed. we're done.
   3093                return 1;
   \                     ??ZDO_ParseSimpleDescBuf_2:
   \   00005C   7901         MOV     R1,#0x1
   \   00005E   8065         SJMP    ??ZDO_ParseSimpleDescBuf_3
   3094              }
   \                     ??ZDO_ParseSimpleDescBuf_1:
   \   000060   85....       MOV     ?V0 + 2,?V0 + 3
   3095              for (i=0; i<num; ++i)
   3096              {
   3097                desc->pAppInClusterList[i] = BUILD_UINT16( buf[0], buf[1] );
   \                     ??ZDO_ParseSimpleDescBuf_4:
   \   000063   12....       LCALL   ?Subroutine17 & 0xFFFF
   3098                buf += 2;
   3099              }
   \                     ??CrossCallReturnLabel_9:
   \   000066   15..         DEC     ?V0 + 2
   \   000068   E5..         MOV     A,?V0 + 2
   \   00006A   70F7         JNZ     ??ZDO_ParseSimpleDescBuf_4
   3100            }
   3101          
   3102            // move in output cluster list (if any). allocate aligned memory.
   3103            num = desc->AppNumOutClusters = *buf++;
   \                     ??ZDO_ParseSimpleDescBuf_0:
   \   00006C   8E82         MOV     DPL,R6
   \   00006E   8F83         MOV     DPH,R7
   \   000070   E0           MOVX    A,@DPTR
   \   000071   F8           MOV     R0,A
   \   000072   A3           INC     DPTR
   \   000073   AE82         MOV     R6,DPL
   \   000075   AF83         MOV     R7,DPH
   \   000077   85..82       MOV     DPL,?V0 + 0
   \   00007A   85..83       MOV     DPH,?V0 + 1
   \   00007D   A3           INC     DPTR
   \   00007E   A3           INC     DPTR
   \   00007F   A3           INC     DPTR
   \   000080   A3           INC     DPTR
   \   000081   A3           INC     DPTR
   \   000082   A3           INC     DPTR
   \   000083   A3           INC     DPTR
   \   000084   A3           INC     DPTR
   \   000085   A3           INC     DPTR
   \   000086   F0           MOVX    @DPTR,A
   \   000087   88..         MOV     ?V0 + 3,R0
   3104            if (num)
   \   000089   6038         JZ      ??ZDO_ParseSimpleDescBuf_5
   3105            {
   3106              if (!(desc->pAppOutClusterList = (uint16 *)osal_mem_alloc(num*sizeof(uint16))))
   \   00008B   E5..         MOV     A,?V0 + 0
   \   00008D   240A         ADD     A,#0xa
   \   00008F   F5..         MOV     ?V0 + 4,A
   \   000091   E5..         MOV     A,?V0 + 1
   \   000093   12....       LCALL   ?Subroutine24 & 0xFFFF
   \                     ??CrossCallReturnLabel_27:
   \   000096   701F         JNZ     ??ZDO_ParseSimpleDescBuf_6
   3107              {
   3108                // malloc failed. free input cluster list memory if there is any
   3109                if ( desc->pAppInClusterList != NULL )
   \   000098   E5..         MOV     A,?V0 + 0
   \   00009A   2407         ADD     A,#0x7
   \   00009C   F5..         MOV     ?V0 + 4,A
   \   00009E   E5..         MOV     A,?V0 + 1
   \   0000A0   12....       LCALL   ?Subroutine138 & 0xFFFF
   \                     ??CrossCallReturnLabel_251:
   \   0000A3   12....       LCALL   ?Subroutine99 & 0xFFFF
   \                     ??CrossCallReturnLabel_177:
   \   0000A6   60B4         JZ      ??ZDO_ParseSimpleDescBuf_2
   3110                {
   3111                  osal_mem_free(desc->pAppInClusterList);
   \   0000A8                ; Setup parameters for call to function osal_mem_free
   \   0000A8   12....       LCALL   ??osal_mem_free?relay
   3112          
   3113                  desc->pAppInClusterList = NULL;
   \   0000AB   85..82       MOV     DPL,?V0 + 4
   \   0000AE   85..83       MOV     DPH,?V0 + 5
   \   0000B1   E4           CLR     A
   \   0000B2   F0           MOVX    @DPTR,A
   \   0000B3   A3           INC     DPTR
   \   0000B4   F0           MOVX    @DPTR,A
   \   0000B5   80A5         SJMP    ??ZDO_ParseSimpleDescBuf_2
   3114                }
   3115                return 1;
   3116              }
   \                     ??ZDO_ParseSimpleDescBuf_6:
   \   0000B7   85....       MOV     ?V0 + 0,?V0 + 3
   3117              for (i=0; i<num; ++i)
   3118              {
   3119                desc->pAppOutClusterList[i] = BUILD_UINT16( buf[0], buf[1] );
   \                     ??ZDO_ParseSimpleDescBuf_7:
   \   0000BA   12....       LCALL   ?Subroutine17 & 0xFFFF
   3120                buf += 2;
   3121              }
   \                     ??CrossCallReturnLabel_10:
   \   0000BD   15..         DEC     ?V0 + 0
   \   0000BF   E5..         MOV     A,?V0 + 0
   \   0000C1   70F7         JNZ     ??ZDO_ParseSimpleDescBuf_7
   3122            }
   3123            return 0;
   \                     ??ZDO_ParseSimpleDescBuf_5:
   \   0000C3   7900         MOV     R1,#0x0
   \                     ??ZDO_ParseSimpleDescBuf_3:
   \   0000C5   02....       LJMP    ?Subroutine3 & 0xFFFF
   3124          }

   \                                 In  segment BANKED_CODE, align 1, keep-with-next
   \                     ?Subroutine24:
   \   000000   3400         ADDC    A,#0x0
   \   000002   F5..         MOV     ?V0 + 5,A
   \   000004                ; Setup parameters for call to function osal_mem_alloc
   \   000004                ; Setup parameters for call to function osal_mem_alloc
   \   000004   E8           MOV     A,R0
   \   000005   12....       LCALL   ?Subroutine191 & 0xFFFF
   \                     ??CrossCallReturnLabel_338:
   \   000008   EA           MOV     A,R2
   \   000009   F0           MOVX    @DPTR,A
   \   00000A   A3           INC     DPTR
   \   00000B   EB           MOV     A,R3
   \   00000C   F0           MOVX    @DPTR,A
   \   00000D   85..82       MOV     DPL,?V0 + 4
   \   000010   85..83       MOV     DPH,?V0 + 5
   \   000013   12....       LCALL   ?Subroutine169 & 0xFFFF
   \                     ??CrossCallReturnLabel_448:
   \   000016   22           RET

   \                                 In  segment BANKED_CODE, align 1, keep-with-next
   \                     ?Subroutine17:
   \   000000   12....       LCALL   ?Subroutine172 & 0xFFFF
   \                     ??CrossCallReturnLabel_308:
   \   000003   F0           MOVX    @DPTR,A
   \   000004   A3           INC     DPTR
   \   000005   EB           MOV     A,R3
   \   000006   12....       LCALL   ?Subroutine151 & 0xFFFF
   \                     ??CrossCallReturnLabel_631:
   \   000009   12....       LCALL   ?Subroutine176 & 0xFFFF
   \                     ??CrossCallReturnLabel_315:
   \   00000C   22           RET
   3125          
   3126          /*********************************************************************
   3127           * @fn          ZDO_ParseDeviceAnnce
   3128           *
   3129           * @brief       Parse a Device Announce message.
   3130           *
   3131           * @param       inMsg - Incoming message
   3132           * @param       pAnnce - place to put the parsed information
   3133           *
   3134           * @return      none
   3135           */

   \                                 In  segment BANKED_CODE, align 1, keep-with-next
   3136          void ZDO_ParseDeviceAnnce( zdoIncomingMsg_t *inMsg, ZDO_DeviceAnnce_t *pAnnce )
   \                     ZDO_ParseDeviceAnnce:
   3137          {
   \   000000   74F6         MOV     A,#-0xa
   \   000002   12....       LCALL   ?BANKED_ENTER_XDATA
   \   000005                ; Saved register size: 10
   \   000005                ; Auto size: 0
   \   000005   8C..         MOV     ?V0 + 0,R4
   \   000007   8D..         MOV     ?V0 + 1,R5
   3138            uint8 *msg;
   3139          
   3140            // Parse incoming message
   3141            msg = inMsg->asdu;
   \   000009   12....       LCALL   ?Subroutine146 & 0xFFFF
   \                     ??CrossCallReturnLabel_267:
   \   00000C   12....       LCALL   ??Subroutine248_0 & 0xFFFF
   \                     ??CrossCallReturnLabel_590:
   \   00000F   12....       LCALL   ??Subroutine236_0 & 0xFFFF
   \                     ??CrossCallReturnLabel_508:
   \   000012   E8           MOV     A,R0
   \   000013   FE           MOV     R6,A
   \   000014   E9           MOV     A,R1
   \   000015   FF           MOV     R7,A
   3142            pAnnce->nwkAddr = BUILD_UINT16( msg[0], msg[1] );
   \   000016   8E82         MOV     DPL,R6
   \   000018   8F83         MOV     DPH,R7
   \   00001A   12....       LCALL   ??Subroutine254_0 & 0xFFFF
   \                     ??CrossCallReturnLabel_638:
   \   00001D   8C82         MOV     DPL,R4
   \   00001F   8D83         MOV     DPH,R5
   \   000021   12....       LCALL   ?Subroutine27 & 0xFFFF
   3143            msg += 2;
   3144            osal_cpyExtAddr( pAnnce->extAddr, msg );
   \                     ??CrossCallReturnLabel_528:
   \   000024                ; Setup parameters for call to function sAddrExtCpy
   \   000024   EE           MOV     A,R6
   \   000025   FC           MOV     R4,A
   \   000026   EF           MOV     A,R7
   \   000027   FD           MOV     R5,A
   \   000028   E5..         MOV     A,?V0 + 0
   \   00002A   2402         ADD     A,#0x2
   \   00002C   FA           MOV     R2,A
   \   00002D   E5..         MOV     A,?V0 + 1
   \   00002F   3400         ADDC    A,#0x0
   \   000031   FB           MOV     R3,A
   \   000032   12....       LCALL   ?Subroutine58 & 0xFFFF
   3145            msg += Z_EXTADDR_LEN;
   3146            pAnnce->capabilities = *msg;
   \                     ??CrossCallReturnLabel_100:
   \   000035   85..82       MOV     DPL,?V0 + 0
   \   000038   85..83       MOV     DPH,?V0 + 1
   \   00003B   A3           INC     DPTR
   \   00003C   A3           INC     DPTR
   \   00003D   A3           INC     DPTR
   \   00003E   A3           INC     DPTR
   \   00003F   A3           INC     DPTR
   \   000040   A3           INC     DPTR
   \   000041   A3           INC     DPTR
   \   000042   A3           INC     DPTR
   \   000043   A3           INC     DPTR
   \   000044   A3           INC     DPTR
   \   000045   F0           MOVX    @DPTR,A
   3147          }
   \   000046   02....       LJMP    ??Subroutine205_0 & 0xFFFF
   3148          
   3149          /*********************************************************************
   3150           * @fn          ZDO_ParseMgmtNwkUpdateNotify
   3151           *
   3152           * @brief       This function handles parsing of the incoming Management
   3153           *              Network Update notify.
   3154           *
   3155           * @param       inMsg - incoming message (request)
   3156           *
   3157           * @return      a pointer to parsed response structure (NULL if not allocated).
   3158           *          This structure was allocated using osal_mem_alloc, so it must be freed
   3159           *          by the calling function [osal_mem_free()].
   3160           */

   \                                 In  segment BANKED_CODE, align 1, keep-with-next
   3161          ZDO_MgmtNwkUpdateNotify_t *ZDO_ParseMgmtNwkUpdateNotify( zdoIncomingMsg_t *inMsg )
   \                     ZDO_ParseMgmtNwkUpdateNotify:
   3162          {
   \   000000   74E8         MOV     A,#-0x18
   \   000002   12....       LCALL   ?BANKED_ENTER_XDATA
   \   000005                ; Saved register size: 24
   \   000005                ; Auto size: 0
   3163            uint8 status;
   3164            uint32 scannedChannels = 0;
   \   000005   90....       MOV     DPTR,#__Constant_0
   \   000008   78..         MOV     R0,#?V0 + 4
   \   00000A   12....       LCALL   ?L_MOV_X
   3165            uint16 totalTransmissions = 0;
   \   00000D   75..00       MOV     ?V0 + 0,#0x0
   \   000010   75..00       MOV     ?V0 + 1,#0x0
   3166            uint16 transmissionFailures = 0;
   \   000013   75..00       MOV     ?V0 + 2,#0x0
   \   000016   75..00       MOV     ?V0 + 3,#0x0
   3167            uint8 listCount = 0;
   \   000019   75..00       MOV     ?V0 + 10,#0x0
   3168            uint8 *msg = inMsg->asdu;
   \   00001C   12....       LCALL   ?Subroutine63 & 0xFFFF
   3169            ZDO_MgmtNwkUpdateNotify_t *pRsp;
   3170          
   3171            status = *msg++;
   \                     ??CrossCallReturnLabel_570:
   \   00001F   F5..         MOV     ?V0 + 11,A
   \   000021   A3           INC     DPTR
   \   000022   AE82         MOV     R6,DPL
   \   000024   AF83         MOV     R7,DPH
   3172            if ( status == ZSuccess )
   \   000026   7032         JNZ     ??ZDO_ParseMgmtNwkUpdateNotify_0
   3173            {
   3174              scannedChannels = osal_build_uint32( msg, 4 );
   \   000028                ; Setup parameters for call to function osal_build_uint32
   \   000028   7904         MOV     R1,#0x4
   \   00002A   EE           MOV     A,R6
   \   00002B   FA           MOV     R2,A
   \   00002C   EF           MOV     A,R7
   \   00002D   FB           MOV     R3,A
   \   00002E   12....       LCALL   ??osal_build_uint32?relay
   \   000031   8A..         MOV     ?V0 + 4,R2
   \   000033   8B..         MOV     ?V0 + 5,R3
   \   000035   8C..         MOV     ?V0 + 6,R4
   \   000037   8D..         MOV     ?V0 + 7,R5
   3175              msg += 4;
   \   000039   EE           MOV     A,R6
   \   00003A   2404         ADD     A,#0x4
   \   00003C   12....       LCALL   ?Subroutine142 & 0xFFFF
   3176              totalTransmissions = BUILD_UINT16( msg[0], msg[1] );
   \                     ??CrossCallReturnLabel_259:
   \   00003F   12....       LCALL   ??Subroutine206_0 & 0xFFFF
   3177              msg += 2;
   \                     ??CrossCallReturnLabel_352:
   \   000042   12....       LCALL   ?Subroutine121 & 0xFFFF
   3178              transmissionFailures = BUILD_UINT16( msg[0], msg[1] );
   \                     ??CrossCallReturnLabel_223:
   \   000045   12....       LCALL   ??Subroutine254_0 & 0xFFFF
   \                     ??CrossCallReturnLabel_639:
   \   000048   2400         ADD     A,#0x0
   \   00004A   F5..         MOV     ?V0 + 2,A
   \   00004C   E4           CLR     A
   \   00004D   39           ADDC    A,R1
   \   00004E   F5..         MOV     ?V0 + 3,A
   3179              msg += 2;
   \   000050   12....       LCALL   ?Subroutine121 & 0xFFFF
   3180              listCount = *msg++;
   3181            }
   \                     ??CrossCallReturnLabel_224:
   \   000053   E0           MOVX    A,@DPTR
   \   000054   F5..         MOV     ?V0 + 10,A
   \   000056   A3           INC     DPTR
   \   000057   0E           INC     R6
   \   000058   AF83         MOV     R7,DPH
   3182          
   3183            pRsp = (ZDO_MgmtNwkUpdateNotify_t *)osal_mem_alloc( sizeof ( ZDO_MgmtNwkUpdateNotify_t ) + listCount );
   \                     ??ZDO_ParseMgmtNwkUpdateNotify_0:
   \   00005A   85..82       MOV     DPL,?V0 + 10
   \   00005D   8582..       MOV     ?V0 + 8,DPL
   \   000060                ; Setup parameters for call to function osal_mem_alloc
   \   000060   E5..         MOV     A,?V0 + 8
   \   000062   240A         ADD     A,#0xa
   \   000064   FA           MOV     R2,A
   \   000065   E4           CLR     A
   \   000066   12....       LCALL   ??Subroutine243_0 & 0xFFFF
   \                     ??CrossCallReturnLabel_558:
   \   000069   8A..         MOV     ?V0 + 14,R2
   \   00006B   8B..         MOV     ?V0 + 15,R3
   3184          
   3185            if ( pRsp )
   \   00006D   EA           MOV     A,R2
   \   00006E   45..         ORL     A,?V0 + 15
   \   000070   604A         JZ      ??ZDO_ParseMgmtNwkUpdateNotify_1
   3186            {
   3187              pRsp->status = status;
   \   000072   8A82         MOV     DPL,R2
   \   000074   8B83         MOV     DPH,R3
   \   000076   E5..         MOV     A,?V0 + 11
   \   000078   F0           MOVX    @DPTR,A
   3188              pRsp->scannedChannels = scannedChannels;
   \   000079   A3           INC     DPTR
   \   00007A   78..         MOV     R0,#?V0 + 4
   \   00007C   12....       LCALL   ?L_MOV_TO_X
   3189              pRsp->totalTransmissions = totalTransmissions;
   \   00007F   8A82         MOV     DPL,R2
   \   000081   8B83         MOV     DPH,R3
   \   000083   A3           INC     DPTR
   \   000084   A3           INC     DPTR
   \   000085   A3           INC     DPTR
   \   000086   A3           INC     DPTR
   \   000087   A3           INC     DPTR
   \   000088   E5..         MOV     A,?V0 + 0
   \   00008A   F0           MOVX    @DPTR,A
   \   00008B   A3           INC     DPTR
   \   00008C   E5..         MOV     A,?V0 + 1
   \   00008E   12....       LCALL   ?Subroutine35 & 0xFFFF
   3190              pRsp->transmissionFailures = transmissionFailures;
   \                     ??CrossCallReturnLabel_43:
   \   000091   E5..         MOV     A,?V0 + 2
   \   000093   F0           MOVX    @DPTR,A
   \   000094   A3           INC     DPTR
   \   000095   E5..         MOV     A,?V0 + 3
   \   000097   12....       LCALL   ?Subroutine35 & 0xFFFF
   3191              pRsp->listCount = listCount;
   \                     ??CrossCallReturnLabel_44:
   \   00009A   A3           INC     DPTR
   \   00009B   A3           INC     DPTR
   \   00009C   E5..         MOV     A,?V0 + 10
   \   00009E   F0           MOVX    @DPTR,A
   3192          
   3193              // Allocate a buffer big enough to handle the list.
   3194              if ( listCount > 0 )
   \   00009F   601B         JZ      ??ZDO_ParseMgmtNwkUpdateNotify_1
   3195              {
   3196                osal_memcpy( pRsp->energyValues, msg, listCount );
   \   0000A1                ; Setup parameters for call to function osal_memcpy
   \   0000A1   8E..         MOV     ?V0 + 0,R6
   \   0000A3   8F..         MOV     ?V0 + 1,R7
   \   0000A5   75..00       MOV     ?V0 + 2,#0x0
   \   0000A8   78..         MOV     R0,#?V0 + 0
   \   0000AA   12....       LCALL   ?PUSH_XSTACK_I_THREE
   \   0000AD   AC..         MOV     R4,?V0 + 8
   \   0000AF   7D00         MOV     R5,#0x0
   \   0000B1   EA           MOV     A,R2
   \   0000B2   240A         ADD     A,#0xa
   \   0000B4   FA           MOV     R2,A
   \   0000B5   EB           MOV     A,R3
   \   0000B6   12....       LCALL   ??Subroutine242_0 & 0xFFFF
   3197              }
   3198            }
   \                     ??CrossCallReturnLabel_550:
   \   0000B9   12....       LCALL   ?DEALLOC_XSTACK8
   3199          
   3200            return ( pRsp );
   \                     ??ZDO_ParseMgmtNwkUpdateNotify_1:
   \   0000BC   AA..         MOV     R2,?V0 + 14
   \   0000BE   AB..         MOV     R3,?V0 + 15
   \   0000C0   02....       LJMP    ??Subroutine207_0 & 0xFFFF
   3201          }

   \                                 In  segment BANKED_CODE, align 1, keep-with-next
   \                     ?Subroutine121:
   \   000000   12....       LCALL   ?Subroutine179 & 0xFFFF
   \                     ??CrossCallReturnLabel_324:
   \   000003   8E82         MOV     DPL,R6
   \   000005   8F83         MOV     DPH,R7
   \   000007   22           RET

   \                                 In  segment BANKED_CODE, align 1, keep-with-next
   \                     ?Subroutine35:
   \   000000   12....       LCALL   ?Subroutine161 & 0xFFFF
   \                     ??CrossCallReturnLabel_291:
   \   000003   A3           INC     DPTR
   \   000004   A3           INC     DPTR
   \   000005   A3           INC     DPTR
   \   000006   A3           INC     DPTR
   \   000007   22           RET
   3202          
   3203          /*********************************************************************
   3204           * @fn          ZDO_ParseMgmtNwkUpdateReq
   3205           *
   3206           * @brief       This function handles parsing the incoming Management
   3207           *              Network Update request and starts the request (if needed).
   3208           *
   3209           * @param       inMsg - incoming message (request)
   3210           * @param       pReq - pointer to place to parse message to
   3211           *
   3212           * @return      none
   3213           */

   \                                 In  segment BANKED_CODE, align 1, keep-with-next
   3214          void ZDO_ParseMgmtNwkUpdateReq( zdoIncomingMsg_t *inMsg, ZDO_MgmtNwkUpdateReq_t *pReq )
   \                     ZDO_ParseMgmtNwkUpdateReq:
   3215          {
   \   000000   74F6         MOV     A,#-0xa
   \   000002   12....       LCALL   ?BANKED_ENTER_XDATA
   \   000005                ; Saved register size: 10
   \   000005                ; Auto size: 0
   \   000005   8C..         MOV     ?V0 + 0,R4
   \   000007   8D..         MOV     ?V0 + 1,R5
   3216            uint8 *msg = inMsg->asdu;
   \   000009   12....       LCALL   ?Subroutine84 & 0xFFFF
   3217          
   3218            pReq->channelMask = osal_build_uint32( msg, 4 );
   \                     ??CrossCallReturnLabel_154:
   \   00000C   85..82       MOV     DPL,?V0 + 0
   \   00000F   85..83       MOV     DPH,?V0 + 1
   \   000012   12....       LCALL   ?XSTORE_R2345
   3219            msg += 4;
   \   000015   12....       LCALL   ?Subroutine141 & 0xFFFF
   3220            pReq->scanDuration = *msg++;
   \                     ??CrossCallReturnLabel_257:
   \   000018   FA           MOV     R2,A
   \   000019   E5..         MOV     A,?V0 + 0
   \   00001B   2404         ADD     A,#0x4
   \   00001D   F8           MOV     R0,A
   \   00001E   E5..         MOV     A,?V0 + 1
   \   000020   3400         ADDC    A,#0x0
   \   000022   F9           MOV     R1,A
   \   000023   EA           MOV     A,R2
   \   000024   8882         MOV     DPL,R0
   \   000026   8983         MOV     DPH,R1
   \   000028   12....       LCALL   ?Subroutine47 & 0xFFFF
   3221          
   3222            if ( pReq->scanDuration <= 0x05 )
   \                     ??CrossCallReturnLabel_77:
   \   00002B   C3           CLR     C
   \   00002C   9406         SUBB    A,#0x6
   \   00002E   5005         JNC     ??ZDO_ParseMgmtNwkUpdateReq_0
   3223            {
   3224              // Request is to scan over channelMask
   3225              pReq->scanCount = *msg;
   \   000030   12....       LCALL   ?Subroutine73 & 0xFFFF
   3226            }
   \                     ??CrossCallReturnLabel_133:
   \   000033   801F         SJMP    ??ZDO_ParseMgmtNwkUpdateReq_1
   3227            else if ( ( pReq->scanDuration == 0xFE ) || ( pReq->scanDuration == 0xFF ) )
   \                     ??ZDO_ParseMgmtNwkUpdateReq_0:
   \   000035   74FE         MOV     A,#-0x2
   \   000037   6A           XRL     A,R2
   \   000038   6005         JZ      ??ZDO_ParseMgmtNwkUpdateReq_2
   \   00003A   74FF         MOV     A,#-0x1
   \   00003C   6A           XRL     A,R2
   \   00003D   7016         JNZ     ??ZDO_ParseMgmtNwkUpdateReq_3
   3228            {
   3229              // Request is to change Channel (0xFE) or apsChannelMask and NwkManagerAddr (0xFF)
   3230              pReq->nwkUpdateId = *msg++;
   \                     ??ZDO_ParseMgmtNwkUpdateReq_2:
   \   00003F   12....       LCALL   ?Subroutine73 & 0xFFFF
   \                     ??CrossCallReturnLabel_134:
   \   000042   A3           INC     DPTR
   \   000043   12....       LCALL   ?Subroutine49 & 0xFFFF
   3231          
   3232              if ( pReq->scanDuration == 0xFF )
   \                     ??CrossCallReturnLabel_81:
   \   000046   8882         MOV     DPL,R0
   \   000048   8983         MOV     DPH,R1
   \   00004A   E0           MOVX    A,@DPTR
   \   00004B   F4           CPL     A
   \   00004C   7007         JNZ     ??ZDO_ParseMgmtNwkUpdateReq_3
   3233              {
   3234                pReq->nwkManagerAddr = BUILD_UINT16( msg[0], msg[1] );
   \   00004E   12....       LCALL   ?Subroutine76 & 0xFFFF
   3235              }
   3236            }
   \                     ??CrossCallReturnLabel_138:
   \   000051   F0           MOVX    @DPTR,A
   \   000052   A3           INC     DPTR
   \   000053   E9           MOV     A,R1
   \                     ??ZDO_ParseMgmtNwkUpdateReq_1:
   \   000054   F0           MOVX    @DPTR,A
   3237          }
   \                     ??ZDO_ParseMgmtNwkUpdateReq_3:
   \   000055   02....       LJMP    ??Subroutine205_0 & 0xFFFF

   \                                 In  segment BANKED_CODE, align 1, keep-with-next
   \                     ?Subroutine124:
   \   000000   EA           MOV     A,R2
   \   000001   2402         ADD     A,#0x2
   \   000003   EB           MOV     A,R3
   \   000004   3400         ADDC    A,#0x0
   \   000006   0A           INC     R2
   \   000007   0A           INC     R2
   \   000008   FB           MOV     R3,A
   \   000009   22           RET

   \                                 In  segment BANKED_CODE, align 1, keep-with-next
   \                     ?Subroutine123:
   \   000000   12....       LCALL   ?Subroutine176 & 0xFFFF
   \                     ??CrossCallReturnLabel_318:
   \   000003   22           RET

   \                                 In  segment BANKED_CODE, align 1, keep-with-next
   \                     ?Subroutine90:
   \   000000   08           INC     R0
   \   000001   12....       LCALL   ?Subroutine163 & 0xFFFF
   \                     ??CrossCallReturnLabel_465:
   \   000004   22           RET

   \                                 In  segment BANKED_CODE, align 1, keep-with-next
   \                     ?Subroutine88:
   \   000000   8882         MOV     DPL,R0
   \   000002   8983         MOV     DPH,R1
   \   000004   E0           MOVX    A,@DPTR
   \   000005   F5..         MOV     ?V0 + 8,A
   \   000007   A3           INC     DPTR
   \   000008   E0           MOVX    A,@DPTR
   \   000009   F5..         MOV     ?V0 + 9,A
   \   00000B   8A82         MOV     DPL,R2
   \   00000D   8B83         MOV     DPH,R3
   \   00000F   E0           MOVX    A,@DPTR
   \   000010   65..         XRL     A,?V0 + 8
   \   000012   22           RET

   \                                 In  segment XDATA_ROM_C, align 1
   \                     __Constant_7fff800:
   \   000000   00F8FF07     DD 134215680

   \                                 In  segment XDATA_ROM_C, align 1
   \                     __Constant_0:
   \   000000   00000000     DD 0

   \                                 In  segment BANK_RELAYS, align 1
   \                     ??ZDO_Init?relay:
   \   000000   12....       LCALL   ?BDISPATCH
   \   000003   ......       DC24    ZDO_Init

   \                                 In  segment BANK_RELAYS, align 1
   \                     ??ZDO_StartDevice?relay:
   \   000000   12....       LCALL   ?BDISPATCH
   \   000003   ......       DC24    ZDO_StartDevice

   \                                 In  segment BANK_RELAYS, align 1
   \                     ??ZDO_UpdateNwkStatus?relay:
   \   000000   12....       LCALL   ?BDISPATCH
   \   000003   ......       DC24    ZDO_UpdateNwkStatus

   \                                 In  segment BANK_RELAYS, align 1
   \                     ??ZDO_AnyClusterMatches?relay:
   \   000000   12....       LCALL   ?BDISPATCH
   \   000003   ......       DC24    ZDO_AnyClusterMatches

   \                                 In  segment BANK_RELAYS, align 1
   \                     ??ZDO_ProcessNodeDescReq?relay:
   \   000000   12....       LCALL   ?BDISPATCH
   \   000003   ......       DC24    ZDO_ProcessNodeDescReq

   \                                 In  segment BANK_RELAYS, align 1
   \                     ??ZDO_ProcessPowerDescReq?relay:
   \   000000   12....       LCALL   ?BDISPATCH
   \   000003   ......       DC24    ZDO_ProcessPowerDescReq

   \                                 In  segment BANK_RELAYS, align 1
   \                     ??ZDO_ProcessSimpleDescReq?relay:
   \   000000   12....       LCALL   ?BDISPATCH
   \   000003   ......       DC24    ZDO_ProcessSimpleDescReq

   \                                 In  segment BANK_RELAYS, align 1
   \                     ??ZDO_ProcessActiveEPReq?relay:
   \   000000   12....       LCALL   ?BDISPATCH
   \   000003   ......       DC24    ZDO_ProcessActiveEPReq

   \                                 In  segment BANK_RELAYS, align 1
   \                     ??ZDO_ConvertOTAClusters?relay:
   \   000000   12....       LCALL   ?BDISPATCH
   \   000003   ......       DC24    ZDO_ConvertOTAClusters

   \                                 In  segment BANK_RELAYS, align 1
   \                     ??ZDO_ProcessMatchDescReq?relay:
   \   000000   12....       LCALL   ?BDISPATCH
   \   000003   ......       DC24    ZDO_ProcessMatchDescReq

   \                                 In  segment BANK_RELAYS, align 1
   \                     ??ZDO_ProcessBindUnbindReq?relay:
   \   000000   12....       LCALL   ?BDISPATCH
   \   000003   ......       DC24    ZDO_ProcessBindUnbindReq

   \                                 In  segment BANK_RELAYS, align 1
   \                     ??ZDO_UpdateAddrManager?relay:
   \   000000   12....       LCALL   ?BDISPATCH
   \   000003   ......       DC24    ZDO_UpdateAddrManager

   \                                 In  segment BANK_RELAYS, align 1
   \                     ??ZDO_ProcessServerDiscReq?relay:
   \   000000   12....       LCALL   ?BDISPATCH
   \   000003   ......       DC24    ZDO_ProcessServerDiscReq

   \                                 In  segment BANK_RELAYS, align 1
   \                     ??ZDO_EndDeviceTimeoutCB?relay:
   \   000000   12....       LCALL   ?BDISPATCH
   \   000003   ......       DC24    ZDO_EndDeviceTimeoutCB

   \                                 In  segment BANK_RELAYS, align 1
   \                     ??ZDO_ProcessMgmtLqiReq?relay:
   \   000000   12....       LCALL   ?BDISPATCH
   \   000003   ......       DC24    ZDO_ProcessMgmtLqiReq

   \                                 In  segment BANK_RELAYS, align 1
   \                     ??ZDO_ProcessMgmtNwkDiscReq?relay:
   \   000000   12....       LCALL   ?BDISPATCH
   \   000003   ......       DC24    ZDO_ProcessMgmtNwkDiscReq

   \                                 In  segment BANK_RELAYS, align 1
   \                     ??ZDO_ProcessMgmtRtgReq?relay:
   \   000000   12....       LCALL   ?BDISPATCH
   \   000003   ......       DC24    ZDO_ProcessMgmtRtgReq

   \                                 In  segment BANK_RELAYS, align 1
   \                     ??ZDO_ProcessMgmtBindReq?relay:
   \   000000   12....       LCALL   ?BDISPATCH
   \   000003   ......       DC24    ZDO_ProcessMgmtBindReq

   \                                 In  segment BANK_RELAYS, align 1
   \                     ??ZDO_ProcessMgmtDirectJoinReq?relay:
   \   000000   12....       LCALL   ?BDISPATCH
   \   000003   ......       DC24    ZDO_ProcessMgmtDirectJoinReq

   \                                 In  segment BANK_RELAYS, align 1
   \                     ??ZDO_ProcessMgmtLeaveReq?relay:
   \   000000   12....       LCALL   ?BDISPATCH
   \   000003   ......       DC24    ZDO_ProcessMgmtLeaveReq

   \                                 In  segment BANK_RELAYS, align 1
   \                     ??ZDO_ProcessMgmtPermitJoinReq?relay:
   \   000000   12....       LCALL   ?BDISPATCH
   \   000003   ......       DC24    ZDO_ProcessMgmtPermitJoinReq

   \                                 In  segment BANK_RELAYS, align 1
   \                     ??NLME_PermitJoiningTimeout?relay:
   \   000000   12....       LCALL   ?BDISPATCH
   \   000003   ......       DC24    NLME_PermitJoiningTimeout

   \                                 In  segment BANK_RELAYS, align 1
   \                     ??ZDO_ProcessUserDescReq?relay:
   \   000000   12....       LCALL   ?BDISPATCH
   \   000003   ......       DC24    ZDO_ProcessUserDescReq

   \                                 In  segment BANK_RELAYS, align 1
   \                     ??ZDO_ProcessUserDescSet?relay:
   \   000000   12....       LCALL   ?BDISPATCH
   \   000003   ......       DC24    ZDO_ProcessUserDescSet

   \                                 In  segment BANK_RELAYS, align 1
   \                     ??ZDO_ProcessDeviceAnnce?relay:
   \   000000   12....       LCALL   ?BDISPATCH
   \   000003   ......       DC24    ZDO_ProcessDeviceAnnce

   \                                 In  segment BANK_RELAYS, align 1
   \                     ??ZDO_BuildSimpleDescBuf?relay:
   \   000000   12....       LCALL   ?BDISPATCH
   \   000003   ......       DC24    ZDO_BuildSimpleDescBuf

   \                                 In  segment BANK_RELAYS, align 1
   \                     ??ZDO_MatchEndDeviceBind?relay:
   \   000000   12....       LCALL   ?BDISPATCH
   \   000003   ......       DC24    ZDO_MatchEndDeviceBind

   \                                 In  segment BANK_RELAYS, align 1
   \                     ??ZDO_RemoveMatchMemory?relay:
   \   000000   12....       LCALL   ?BDISPATCH
   \   000003   ......       DC24    ZDO_RemoveMatchMemory

   \                                 In  segment BANK_RELAYS, align 1
   \                     ??ZDO_CopyMatchInfo?relay:
   \   000000   12....       LCALL   ?BDISPATCH
   \   000003   ......       DC24    ZDO_CopyMatchInfo

   \                                 In  segment BANK_RELAYS, align 1
   \                     ??ZDMatchSendState?relay:
   \   000000   12....       LCALL   ?BDISPATCH
   \   000003   ......       DC24    ZDMatchSendState

   \                                 In  segment BANK_RELAYS, align 1
   \                     ??ZDO_EndDeviceBindMatchTimeoutCB?relay:
   \   000000   12....       LCALL   ?BDISPATCH
   \   000003   ......       DC24    ZDO_EndDeviceBindMatchTimeoutCB

   \                                 In  segment BANK_RELAYS, align 1
   \                     ??ZDO_ParseEndDeviceBindReq?relay:
   \   000000   12....       LCALL   ?BDISPATCH
   \   000003   ......       DC24    ZDO_ParseEndDeviceBindReq

   \                                 In  segment BANK_RELAYS, align 1
   \                     ??ZDO_ParseBindUnbindReq?relay:
   \   000000   12....       LCALL   ?BDISPATCH
   \   000003   ......       DC24    ZDO_ParseBindUnbindReq

   \                                 In  segment BANK_RELAYS, align 1
   \                     ??ZDO_ParseAddrRsp?relay:
   \   000000   12....       LCALL   ?BDISPATCH
   \   000003   ......       DC24    ZDO_ParseAddrRsp

   \                                 In  segment BANK_RELAYS, align 1
   \                     ??ZDO_ParseNodeDescRsp?relay:
   \   000000   12....       LCALL   ?BDISPATCH
   \   000003   ......       DC24    ZDO_ParseNodeDescRsp

   \                                 In  segment BANK_RELAYS, align 1
   \                     ??ZDO_ParsePowerDescRsp?relay:
   \   000000   12....       LCALL   ?BDISPATCH
   \   000003   ......       DC24    ZDO_ParsePowerDescRsp

   \                                 In  segment BANK_RELAYS, align 1
   \                     ??ZDO_ParseSimpleDescRsp?relay:
   \   000000   12....       LCALL   ?BDISPATCH
   \   000003   ......       DC24    ZDO_ParseSimpleDescRsp

   \                                 In  segment BANK_RELAYS, align 1
   \                     ??ZDO_ParseEPListRsp?relay:
   \   000000   12....       LCALL   ?BDISPATCH
   \   000003   ......       DC24    ZDO_ParseEPListRsp

   \                                 In  segment BANK_RELAYS, align 1
   \                     ??ZDO_ParseServerDiscRsp?relay:
   \   000000   12....       LCALL   ?BDISPATCH
   \   000003   ......       DC24    ZDO_ParseServerDiscRsp

   \                                 In  segment BANK_RELAYS, align 1
   \                     ??ZDO_ParseMgmtLqiRsp?relay:
   \   000000   12....       LCALL   ?BDISPATCH
   \   000003   ......       DC24    ZDO_ParseMgmtLqiRsp

   \                                 In  segment BANK_RELAYS, align 1
   \                     ??ZDO_ParseMgmNwkDiscRsp?relay:
   \   000000   12....       LCALL   ?BDISPATCH
   \   000003   ......       DC24    ZDO_ParseMgmNwkDiscRsp

   \                                 In  segment BANK_RELAYS, align 1
   \                     ??ZDO_ParseMgmtRtgRsp?relay:
   \   000000   12....       LCALL   ?BDISPATCH
   \   000003   ......       DC24    ZDO_ParseMgmtRtgRsp

   \                                 In  segment BANK_RELAYS, align 1
   \                     ??ZDO_ParseMgmtBindRsp?relay:
   \   000000   12....       LCALL   ?BDISPATCH
   \   000003   ......       DC24    ZDO_ParseMgmtBindRsp

   \                                 In  segment BANK_RELAYS, align 1
   \                     ??ZDO_ParseUserDescRsp?relay:
   \   000000   12....       LCALL   ?BDISPATCH
   \   000003   ......       DC24    ZDO_ParseUserDescRsp

   \                                 In  segment BANK_RELAYS, align 1
   \                     ??ZDO_ParseSimpleDescBuf?relay:
   \   000000   12....       LCALL   ?BDISPATCH
   \   000003   ......       DC24    ZDO_ParseSimpleDescBuf

   \                                 In  segment BANK_RELAYS, align 1
   \                     ??ZDO_ParseDeviceAnnce?relay:
   \   000000   12....       LCALL   ?BDISPATCH
   \   000003   ......       DC24    ZDO_ParseDeviceAnnce

   \                                 In  segment BANK_RELAYS, align 1
   \                     ??ZDO_ParseMgmtNwkUpdateNotify?relay:
   \   000000   12....       LCALL   ?BDISPATCH
   \   000003   ......       DC24    ZDO_ParseMgmtNwkUpdateNotify

   \                                 In  segment BANK_RELAYS, align 1
   \                     ??ZDO_ParseMgmtNwkUpdateReq?relay:
   \   000000   12....       LCALL   ?BDISPATCH
   \   000003   ......       DC24    ZDO_ParseMgmtNwkUpdateReq
   3238          
   3239          /*********************************************************************
   3240          *********************************************************************/

   Maximum stack usage in bytes:

     Function                       ISTACK PSTACK XSTACK
     --------                       ------ ------ ------
     NLME_PermitJoiningTimeout          0      0      0
     ZDMatchSendState                   1      0     75
       -> APS_SetEndDeviceBindTimeout
                                        0      0     74
       -> sAddrExtCpy                   0      0     74
       -> ZDP_BindUnbindReq             0      0     90
       -> APS_SetEndDeviceBindTimeout
                                        0      0     74
       -> ZDP_SendData                  0      0     84
       -> ZDP_SendData                  0      0     84
       -> ZDO_RemoveMatchMemory         0      0     74
     ZDO_AnyClusterMatches              0      0     56
     ZDO_BuildSimpleDescBuf             1      0     11
     ZDO_ConvertOTAClusters             0      0     51
     ZDO_CopyMatchInfo                  0      0     53
       -> osal_memcpy                   0      0     46
       -> osal_mem_alloc                0      0     40
       -> osal_memcpy                   0      0     46
       -> osal_mem_alloc                0      0     40
       -> osal_memcpy                   0      0     46
       -> osal_mem_free                 0      0     40
       -> osal_mem_free                 0      0     40
     ZDO_EndDeviceBindMatchTimeoutCB
                                        2      0      0
       -> ZDMatchSendState              4      0      0
     ZDO_EndDeviceTimeoutCB             1      0     17
       -> ZDP_SendData                  0      0     34
       -> osal_mem_free                 0      0     24
       -> osal_mem_free                 0      0     24
       -> osal_mem_free                 0      0     24
     ZDO_Init                           2      0      0
       -> sAddrExtCpy                   4      0      0
       -> APS_ReflectorInit             4      0      0
       -> NLME_DeviceJoiningInit        4      0      0
     ZDO_MatchEndDeviceBind             1      0     35
       -> osal_mem_alloc                0      0     60
       -> osal_memset                   0      0     60
       -> ZDO_CopyMatchInfo             0      0     60
       -> APS_SetEndDeviceBindTimeout
                                        0      0     60
       -> ZDO_CopyMatchInfo             0      0     60
       -> osal_mem_alloc                0      0     60
       -> osal_memcpy                   0      0     66
       -> osal_mem_alloc                0      0     60
       -> osal_memcpy                   0      0     66
       -> ZDMatchSendState              0      0     60
       -> ZDP_SendData                  0      0     70
       -> ZDP_SendData                  0      0     70
       -> ZDO_RemoveMatchMemory         0      0     60
     ZDO_ParseAddrRsp                   1      0     14
       -> osal_mem_alloc                0      0     28
       -> sAddrExtCpy                   0      0     28
     ZDO_ParseBindUnbindReq             1      0     10
       -> sAddrExtCpy                   0      0     20
       -> sAddrExtCpy                   0      0     20
     ZDO_ParseDeviceAnnce               1      0     52
       -> sAddrExtCpy                   0      0     20
     ZDO_ParseEPListRsp                 1      0     19
       -> osal_mem_alloc                0      0     32
       -> osal_memcpy                   0      0     38
     ZDO_ParseEndDeviceBindReq          1      0     18
       -> sAddrExtCpy                   0      0     36
       -> osal_mem_alloc                0      0     36
       -> ZDO_ConvertOTAClusters        0      0     36
       -> osal_mem_alloc                0      0     36
       -> ZDO_ConvertOTAClusters        0      0     36
     ZDO_ParseMgmNwkDiscRsp             1      0     16
       -> osal_mem_alloc                0      0     32
       -> sAddrExtCpy                   0      0     32
     ZDO_ParseMgmtBindRsp               1      0     18
       -> osal_mem_alloc                0      0     36
       -> sAddrExtCpy                   0      0     36
       -> sAddrExtCpy                   0      0     36
     ZDO_ParseMgmtLqiRsp                1      0     16
       -> osal_mem_alloc                0      0     32
       -> sAddrExtCpy                   0      0     32
     ZDO_ParseMgmtNwkUpdateNotify       1      0     27
       -> osal_build_uint32             0      0     48
       -> osal_mem_alloc                0      0     48
       -> osal_memcpy                   0      0     54
     ZDO_ParseMgmtNwkUpdateReq          1      0     10
       -> osal_build_uint32             0      0     20
     ZDO_ParseMgmtRtgRsp                1      0     14
       -> osal_mem_alloc                0      0     28
     ZDO_ParseNodeDescRsp               2      0      9
     ZDO_ParsePowerDescRsp              1      0      9
     ZDO_ParseServerDiscRsp             1      0      9
     ZDO_ParseSimpleDescBuf             1      0     23
       -> osal_mem_alloc                0      0     28
       -> osal_mem_alloc                0      0     28
       -> osal_mem_free                 0      0     28
     ZDO_ParseSimpleDescRsp             1      0      9
       -> ZDO_ParseSimpleDescBuf        0      0     18
     ZDO_ParseUserDescRsp               1      0     19
       -> osal_mem_alloc                0      0     32
       -> osal_memcpy                   0      0     38
     ZDO_ProcessActiveEPReq             0      0     21
       -> NLME_GetShortAddr             0      0     28
       -> afNumEndPoints                0      0     28
       -> afEndPoints                   0      0     28
       -> ZDP_EPRsp                     0      0     42
     ZDO_ProcessBindUnbindReq           0      0     32
       -> sAddrExtCpy                   0      0     54
       -> NLME_GetExtAddr               0      0     54
       -> sAddrExtCmp                   0      0     54
       -> APSME_BindRequest             0      0     56
       -> ZDApp_NVUpdate                0      0     54
       -> APSME_LookupNwkAddr           0      0     54
       -> ZDP_NwkAddrReq                0      0     54
       -> APSME_UnBindRequest           0      0     56
       -> ZDApp_NVUpdate                0      0     54
       -> ZDP_SendData                  0      0     64
     ZDO_ProcessDeviceAnnce             0      0     42
       -> ZDO_ParseDeviceAnnce          0      0     84
       -> NLME_GetExtAddr               0      0     84
       -> sAddrExtCmp                   0      0     84
       -> NLME_GetShortAddr             0      0     84
       -> nwkNeighborRemoveAllStranded
                                        0      0     84
       -> NLME_CheckNewAddrSet          0      0     84
       -> NLME_GetCoordExtAddr          0      0     84
       -> sAddrExtCmp                   0      0     84
       -> NLME_GetCoordShortAddr        0      0     84
       -> ZMacSetReq                    0      0     84
       -> nwkNeighborUpdateNwkAddr      0      0     84
       -> RTG_RemoveRtgEntry            0      0     84
       -> AddrMgrEntryLookupNwk         0      0     84
       -> osal_memset                   0      0     84
       -> sAddrExtCmp                   0      0     84
       -> AddrMgrExtAddrSet             0      0     84
       -> AddrMgrEntryUpdate            0      0     84
       -> AddrMgrExtAddrSet             0      0     84
       -> AddrMgrEntryLookupExt         0      0     84
       -> AddrMgrEntryUpdate            0      0     84
     ZDO_ProcessMatchDescReq            1      0     48
       -> NLME_IsAddressBroadcast       0      0     82
       -> ZDP_EPRsp                     0      0     96
       -> NLME_IsAddressBroadcast       0      0     82
       -> osal_mem_alloc                0      0     82
       -> ZDO_ConvertOTAClusters        0      0     82
       -> osal_mem_alloc                0      0     82
       -> ZDO_ConvertOTAClusters        0      0     82
       -> ZDO_AnyClusterMatches         0      0     86
       -> ZDO_AnyClusterMatches         0      0     86
       -> osal_msg_allocate             0      0     82
       -> osal_memcpy                   0      0     88
       -> osal_memcpy                   0      0     88
       -> osal_msg_send                 0      0     82
       -> osal_mem_free                 0      0     82
       -> ZDP_EPRsp                     0      0     96
       -> NLME_IsAddressBroadcast       0      0     82
       -> ZDP_EPRsp                     0      0     96
       -> osal_mem_free                 0      0     82
       -> osal_mem_free                 0      0     82
     ZDO_ProcessMgmtBindReq             0      0     29
       -> APSME_GetRequest              0      0     48
       -> osal_mem_alloc                0      0     48
       -> APSME_GetRequest              0      0     48
       -> ZDP_MgmtBindRsp               0      0     58
       -> osal_mem_free                 0      0     48
     ZDO_ProcessMgmtDirectJoinReq       1      0     16
       -> NLME_DirectJoinRequest        0      0     22
       -> ZDP_SendData                  0      0     32
     ZDO_ProcessMgmtLeaveReq            1      0     23
       -> AddrMgrExtAddrValid           0      0     36
       -> NLME_GetExtAddr               0      0     36
       -> sAddrExtCmp                   0      0     36
       -> NLME_LeaveReq                 0      0     36
       -> ZDP_SendData                  0      0     46
     ZDO_ProcessMgmtLqiReq              1      0     66
       -> NLME_GetRequest               0      0    122
       -> AssocCount                    0      0    122
       -> osal_mem_alloc                0      0    122
       -> osal_memset                   0      0    122
       -> AssocFindDevice               0      0    122
       -> sAddrExtCpy                   0      0    122
       -> AddrMgrEntryLookupNwk         0      0    122
       -> sAddrExtCpy                   0      0    122
       -> NLME_GetRequest               0      0    122
       -> sAddrExtCpy                   0      0    122
       -> osal_memset                   0      0    122
       -> ZDP_MgmtLqiRsp                0      0    132
       -> osal_mem_free                 0      0    122
     ZDO_ProcessMgmtNwkDiscReq          1      0     17
       -> osal_build_uint32             0      0     34
       -> NLME_NwkDiscReq2              0      0     34
       -> NLME_NwkDiscTerm              0      0     34
     ZDO_ProcessMgmtPermitJoinReq       1      0     16
       -> NLME_PermitJoiningRequest     0      0     22
       -> ZDP_SendData                  0      0     32
     ZDO_ProcessMgmtRtgReq              0      0     26
       -> NLME_GetRequest               0      0     42
       -> osal_mem_alloc                0      0     42
       -> NLME_GetRequest               0      0     42
       -> ZDP_MgmtRtgRsp                0      0     52
       -> osal_mem_free                 0      0     42
     ZDO_ProcessNodeDescReq             0      0     14
       -> ZDP_NodeDescMsg               0      0     24
       -> ZDP_GenericRsp                0      0     28
     ZDO_ProcessPowerDescReq            0      0     14
       -> ZDP_PowerDescMsg              0      0     24
       -> ZDP_GenericRsp                0      0     28
     ZDO_ProcessServerDiscReq           0      0     14
       -> ZDP_ServerDiscRsp             0      0     28
     ZDO_ProcessSimpleDescReq           0      0     12
       -> afFindSimpleDesc              0      0     24
       -> ZDP_SimpleDescMsg             0      0     24
       -> osal_mem_free                 0      0     24
     ZDO_ProcessUserDescReq             0      0     33
       -> osal_nv_read                  0      0     66
       -> ZDP_UserDescRsp               0      0     64
       -> ZDP_GenericRsp                0      0     66
     ZDO_ProcessUserDescSet             1      0     41
       -> osal_memcpy                   0      0     78
       -> osal_nv_write                 0      0     80
       -> ZDP_SendData                  0      0     82
     ZDO_RemoveMatchMemory              2      0     37
       -> osal_mem_free                 4      0      0
       -> osal_mem_free                 4      0      0
       -> osal_mem_free                 4      0      0
       -> osal_mem_free                 4      0      0
       -> osal_mem_free                 4      0      0
       -> osal_mem_free                 4      0      0
       -> osal_mem_free                 4      0      0
     ZDO_StartDevice                    0      0     23
       -> NLME_NetworkDiscoveryRequest
                                        0      0     46
       -> nwk_ScanJoiningOrphan         0      0     46
       -> NLME_OrphanJoinRequest        0      0     46
       -> osal_start_timerEx            0      0     46
     ZDO_UpdateAddrManager              2      0     13
       -> AddrMgrExtAddrSet             4      0     26
       -> AddrMgrEntryUpdate            4      0     26
     ZDO_UpdateNwkStatus                1      0     12
       -> osal_msg_find                 0      0     24
       -> osal_msg_allocate             0      0     24
       -> osal_set_event                0      0     24
       -> osal_msg_send                 0      0     24
       -> NLME_GetShortAddr             0      0     24
       -> NLME_GetExtAddr               0      0     24


   Segment part sizes:

     Function/Label                          Bytes
     --------------                          -----
     ZDOBuildBuf                               52
     ZDO_EDBind                                 2
     matchED                                    2
     apsChannelMask                             4
     ZDO_Init                                  43
     ?Subroutine0                               7
     ZDO_StartDevice                          239
     ?Subroutine117                            12
     ?Subroutine48                             10
     ?Subroutine41                              8
     ?Subroutine1                               3
     ??Subroutine220_0                          5
     ?Subroutine155                             8
     scanCnt                                    1
     ZDO_UpdateNwkStatus                      120
     ?Subroutine107                             4
     ?Subroutine173                             4
     ?Subroutine198                             9
     ??Subroutine210_0                          4
     ?Subroutine166                             5
     ?Subroutine199                             8
     ??Subroutine216_0                          7
     ?Subroutine39                              6
     ??Subroutine233_0                          5
     ZDO_AnyClusterMatches                    106
     ?Subroutine100                             6
     ??Subroutine212_0                          4
     ??Subroutine226_0                          6
     ZDO_ProcessNodeDescReq                    66
     ??Subroutine205_0                          5
     ?Subroutine66                             28
     ?Subroutine65                             21
     ??Subroutine219_0                          5
     ?Subroutine177                            17
     ?Subroutine162                             8
     ?Subroutine201                             3
     ??Subroutine241_0                          5
     ?Subroutine190                             1
     ??Subroutine251_0                          5
     ZDO_ProcessPowerDescReq                   66
     ?Subroutine2                               2
     ??Subroutine204_0                          3
     ZDO_ProcessSimpleDescReq                 139
     ??Subroutine209_0                          5
     ?Subroutine64                              7
     ?Subroutine83                              9
     ?Subroutine98                              6
     ??Subroutine224_0                          4
     ?Subroutine169                             7
     ZDO_ProcessActiveEPReq                   117
     ?Subroutine68                             10
     ??Subroutine206_0                         12
     ?Subroutine147                             5
     ?Subroutine126                             5
     ?Subroutine178                            10
     ?Subroutine135                             3
     ??Subroutine217_0                          3
     ??Subroutine218_0                          4
     ??Subroutine235_0                          4
     ?Subroutine3                               5
     ?Subroutine168                             7
     ZDO_ConvertOTAClusters                    51
     ??Subroutine214_0                          5
     ZDO_ProcessMatchDescReq                 1136
     ?Subroutine4                               3
     ??Subroutine207_0                          5
     ?Subroutine114                             7
     ?Subroutine175                             8
     ?Subroutine113                            10
     ?Subroutine111                            10
     ?Subroutine104                            11
     ?Subroutine103                            12
     ?Subroutine95                              9
     ?Subroutine87                              4
     ?Subroutine167                            10
     ?Subroutine78                              7
     ?Subroutine71                              8
     ?Subroutine70                             17
     ?Subroutine62                              3
     ??Subroutine208_0                          8
     ?Subroutine32                              7
     ??Subroutine213_0                          1
     ?Subroutine23                              5
     ?Subroutine170                             8
     ?Subroutine192                             6
     ?Subroutine102                             4
     ?Subroutine165                             5
     ?Subroutine197                             6
     ?Subroutine203                             8
     ?Subroutine164                             1
     ??Subroutine232_0                          5
     ?Subroutine118                             6
     ??Subroutine236_0                          4
     ?Subroutine174                             5
     ??Subroutine246_0                         11
     ??Subroutine248_0                          4
     ZDO_ProcessBindUnbindReq                 410
     ?Subroutine5                               8
     ?Subroutine119                            13
     ?Subroutine187                             9
     ?Subroutine131                             4
     ?Subroutine181                            11
     ?Subroutine144                             4
     ??Subroutine244_0                          5
     ZDO_UpdateAddrManager                     57
     ZDO_ProcessServerDiscReq                  67
     ?Subroutine145                             4
     ?Subroutine120                             4
     ??Subroutine254_0                          4
     ZDO_EndDeviceTimeoutCB                   180
     ?Subroutine91                              1
     ??Subroutine225_0                          4
     ?Subroutine163                             3
     ?Subroutine59                              7
     ZDO_ProcessMgmtLqiReq                    682
     ?Subroutine97                              8
     ?Subroutine42                             12
     ?Subroutine26                             10
     ?Subroutine19                             28
     ?Subroutine15                             16
     ?Subroutine185                             8
     ?Subroutine67                             23
     ?Subroutine136                             3
     ??Subroutine234_0                          5
     ?Subroutine186                             6
     ?Subroutine184                            13
     ?Subroutine139                             9
     ??Subroutine240_0                          4
     ?Subroutine157                             7
     ZDO_ProcessMgmtNwkDiscReq                120
     ?Subroutine183                             3
     ?Subroutine53                              4
     ?Subroutine195                             7
     ?Subroutine141                             7
     ?Subroutine189                            11
     ?Subroutine84                             20
     ?Subroutine72                              3
     ZDO_ProcessMgmtRtgReq                    262
     ?Subroutine6                               3
     ??Subroutine215_0                          5
     ?Subroutine146                             6
     ZDO_ProcessMgmtBindReq                   270
     ?Subroutine108                             6
     ZDO_ProcessMgmtDirectJoinReq              85
     ?Subroutine10                              5
     ZDO_ProcessMgmtLeaveReq                  190
     ?Subroutine94                              3
     ?Subroutine140                             4
     ?Subroutine52                              4
     ?Subroutine160                             6
     ZDO_ProcessMgmtPermitJoinReq              80
     NLME_PermitJoiningTimeout                  3
     ZDO_ProcessUserDescReq                   154
     ZDO_ProcessUserDescSet                   289
     ??Subroutine231_0                          4
     ?Subroutine51                              4
     ?Subroutine158                             7
     ?Subroutine110                             4
     ??Subroutine211_0                          6
     ZDO_ProcessDeviceAnnce                   393
     ZDO_BuildSimpleDescBuf                   127
     ?Subroutine89                             19
     ?Subroutine40                              9
     ?Subroutine22                              8
     ?Subroutine154                             4
     ??Subroutine221_0                          1
     ??Subroutine222_0                         10
     ?Subroutine14                             22
     ?Subroutine171                            12
     ?Subroutine176                            10
     ZDO_MatchEndDeviceBind                   646
     ?Subroutine148                             6
     ??Subroutine223_0                          7
     ?Subroutine101                             7
     ?Subroutine92                             10
     ?Subroutine86                             11
     ?Subroutine79                             12
     ?Subroutine75                              4
     ??Subroutine227_0                          1
     ??Subroutine228_0                          1
     ??Subroutine229_0                          6
     ?Subroutine69                              3
     ??Subroutine230_0                          7
     ?Subroutine36                             13
     ?Subroutine149                             6
     ?Subroutine116                            13
     ?Subroutine109                            14
     ?Subroutine105                            14
     ?Subroutine193                             6
     ?Subroutine81                             13
     ?Subroutine80                             12
     ?Subroutine61                             10
     ?Subroutine54                              4
     ?Subroutine159                             5
     ?Subroutine202                             3
     ?Subroutine25                             14
     ZDO_RemoveMatchMemory                    109
     ZDO_CopyMatchInfo                        184
     ?Subroutine132                            15
     ?Subroutine112                            13
     ?Subroutine96                             17
     ?Subroutine130                             7
     ?Subroutine38                             28
     ?Subroutine142                            10
     ?Subroutine99                              6
     ZDMatchSendState                         619
     ?Subroutine7                               5
     ?Subroutine115                            13
     ?Subroutine93                             10
     ?Subroutine82                             12
     ?Subroutine60                             34
     ?Subroutine188                             9
     ZDO_EndDeviceBindMatchTimeoutCB
                                               16
     ZDO_ParseEndDeviceBindReq                244
     ?Subroutine133                             8
     ?Subroutine56                              1
     ??Subroutine237_0                         15
     ?Subroutine134                             4
     ?Subroutine182                            15
     ?Subroutine55                              9
     ?Subroutine46                              8
     ?Subroutine153                            10
     ?Subroutine20                              7
     ?Subroutine12                              4
     ??Subroutine249_0                         17
     ?Subroutine196                             9
     ?Subroutine138                            10
     ?Subroutine191                            16
     ?Subroutine85                              7
     ZDO_ParseBindUnbindReq                   111
     ?Subroutine57                             10
     ?Subroutine151                             5
     ?Subroutine43                              6
     ?Subroutine156                             5
     ??Subroutine247_0                          4
     ?Subroutine106                            11
     ?Subroutine30                              9
     ?Subroutine13                              2
     ??Subroutine252_0                          4
     ??Subroutine253_0                          9
     ?Subroutine58                             17
     ?Subroutine200                            10
     ?Subroutine152                             7
     ?Subroutine194                            11
     ZDO_ParseAddrRsp                         185
     ?Subroutine27                              3
     ??Subroutine238_0                          4
     ?Subroutine33                              8
     ?Subroutine180                             7
     ??Subroutine245_0                          3
     ?Subroutine29                              5
     ?Subroutine137                             4
     ?Subroutine127                            11
     ?Subroutine172                            15
     ?Subroutine179                             4
     ?Subroutine49                              4
     ?Subroutine47                              4
     ZDO_ParseNodeDescRsp                     209
     ?Subroutine28                              1
     ??Subroutine239_0                          8
     ?Subroutine18                              4
     ?Subroutine150                            22
     ?Subroutine16                              6
     ?Subroutine122                             7
     ?Subroutine37                              4
     ?Subroutine11                             40
     ?Subroutine8                               5
     ZDO_ParsePowerDescRsp                     99
     ?Subroutine34                             16
     ZDO_ParseSimpleDescRsp                    31
     ZDO_ParseEPListRsp                        84
     ?Subroutine128                             9
     ??Subroutine242_0                          7
     ?Subroutine9                               4
     ??Subroutine250_0                          5
     ?Subroutine125                            18
     ?Subroutine31                             22
     ZDO_ParseServerDiscRsp                    60
     ZDO_ParseMgmtLqiRsp                      158
     ?Subroutine129                             6
     ??Subroutine243_0                          4
     ?Subroutine143                            13
     ?Subroutine77                             15
     ?Subroutine74                             19
     ?Subroutine21                              4
     ZDO_ParseMgmNwkDiscRsp                   225
     ?Subroutine63                              5
     ?Subroutine50                             10
     ?Subroutine44                              9
     ?Subroutine45                              7
     ?Subroutine161                             9
     ?Subroutine76                             21
     ?Subroutine73                             13
     ZDO_ParseMgmtRtgRsp                      149
     ZDO_ParseMgmtBindRsp                     189
     ZDO_ParseUserDescRsp                     100
     ZDO_ParseSimpleDescBuf                   200
     ?Subroutine24                             23
     ?Subroutine17                             13
     ZDO_ParseDeviceAnnce                      73
     ZDO_ParseMgmtNwkUpdateNotify             195
     ?Subroutine121                             8
     ?Subroutine35                              8
     ZDO_ParseMgmtNwkUpdateReq                 88
     ?Subroutine124                            10
     ?Subroutine123                             4
     ?Subroutine90                              5
     ?Subroutine88                             19
     __Constant_7fff800                         4
     __Constant_0                               4
     ??ZDO_Init?relay                           6
     ??ZDO_StartDevice?relay                    6
     ??ZDO_UpdateNwkStatus?relay                6
     ??ZDO_AnyClusterMatches?relay              6
     ??ZDO_ProcessNodeDescReq?relay             6
     ??ZDO_ProcessPowerDescReq?relay            6
     ??ZDO_ProcessSimpleDescReq?relay           6
     ??ZDO_ProcessActiveEPReq?relay             6
     ??ZDO_ConvertOTAClusters?relay             6
     ??ZDO_ProcessMatchDescReq?relay            6
     ??ZDO_ProcessBindUnbindReq?relay           6
     ??ZDO_UpdateAddrManager?relay              6
     ??ZDO_ProcessServerDiscReq?relay           6
     ??ZDO_EndDeviceTimeoutCB?relay             6
     ??ZDO_ProcessMgmtLqiReq?relay              6
     ??ZDO_ProcessMgmtNwkDiscReq?relay          6
     ??ZDO_ProcessMgmtRtgReq?relay              6
     ??ZDO_ProcessMgmtBindReq?relay             6
     ??ZDO_ProcessMgmtDirectJoinReq?relay       6
     ??ZDO_ProcessMgmtLeaveReq?relay            6
     ??ZDO_ProcessMgmtPermitJoinReq?relay       6
     ??NLME_PermitJoiningTimeout?relay          6
     ??ZDO_ProcessUserDescReq?relay             6
     ??ZDO_ProcessUserDescSet?relay             6
     ??ZDO_ProcessDeviceAnnce?relay             6
     ??ZDO_BuildSimpleDescBuf?relay             6
     ??ZDO_MatchEndDeviceBind?relay             6
     ??ZDO_RemoveMatchMemory?relay              6
     ??ZDO_CopyMatchInfo?relay                  6
     ??ZDMatchSendState?relay                   6
     ??ZDO_EndDeviceBindMatchTimeoutCB?relay    6
     ??ZDO_ParseEndDeviceBindReq?relay          6
     ??ZDO_ParseBindUnbindReq?relay             6
     ??ZDO_ParseAddrRsp?relay                   6
     ??ZDO_ParseNodeDescRsp?relay               6
     ??ZDO_ParsePowerDescRsp?relay              6
     ??ZDO_ParseSimpleDescRsp?relay             6
     ??ZDO_ParseEPListRsp?relay                 6
     ??ZDO_ParseServerDiscRsp?relay             6
     ??ZDO_ParseMgmtLqiRsp?relay                6
     ??ZDO_ParseMgmNwkDiscRsp?relay             6
     ??ZDO_ParseMgmtRtgRsp?relay                6
     ??ZDO_ParseMgmtBindRsp?relay               6
     ??ZDO_ParseUserDescRsp?relay               6
     ??ZDO_ParseSimpleDescBuf?relay             6
     ??ZDO_ParseDeviceAnnce?relay               6
     ??ZDO_ParseMgmtNwkUpdateNotify?relay       6
     ??ZDO_ParseMgmtNwkUpdateReq?relay          6

 
 11 535 bytes in segment BANKED_CODE
    288 bytes in segment BANK_RELAYS
      8 bytes in segment XDATA_ROM_C
     61 bytes in segment XDATA_Z
 
 11 823 bytes of CODE  memory
      0 bytes of CONST memory (+ 8 bytes shared)
     61 bytes of XDATA memory

Errors: none
Warnings: none
