///////////////////////////////////////////////////////////////////////////////
//                                                                            /
// IAR C/C++ Compiler V8.10.1.10194/W32 for 8051        08/Aug/2017  09:25:03 /
// Copyright 2004-2011 IAR Systems AB.                                        /
//                                                                            /
//    Core               =  plain                                             /
//    Code model         =  banked                                            /
//    Data model         =  large                                             /
//    Calling convention =  xdata reentrant                                   /
//    Constant location  =  data_rom                                          /
//    Dptr setup         =  1,16                                              /
//    Source file        =  D:\work space\Smart Product\Two YHY\Door\v1.03.0  /
//                           Green\ZStack-CC2530-2.5.1a\COMPONENTS\stack\zdo\ /
//                          ZDProfile.c                                       /
//    Command line       =  -f "D:\work space\Smart Product\Two               /
//                          YHY\Door\v1.03.0  Green\ZStack-CC2530-2.5.1a\Proj /
//                          ects\zstack\HomeAutomation\SmartDoor\CC2530DB\..\ /
//                          Tools\CC2530DB\f8wEndev.cfg" (-DCPU32MHZ          /
//                          -DROOT=__near_func -DMAC_CFG_TX_DATA_MAX=3        /
//                          -DMAC_CFG_TX_MAX=6 -DMAC_CFG_RX_MAX=3             /
//                          -DHAL_KEY=FALSE -DHAL_LED=FALSE -DHAL_LCD=FALSE   /
//                          -DHAL_ADC=FALSE -DNV_RESTORE -DNV_INIT            /
//                          -DPOWER_SAVING -DTC_LINKKEY_JOIN) -f "D:\work     /
//                          space\Smart Product\Two YHY\Door\v1.03.0          /
//                          Green\ZStack-CC2530-2.5.1a\Projects\zstack\HomeAu /
//                          tomation\SmartDoor\CC2530DB\..\Tools\CC2530DB\f8w /
//                          Config.cfg" (-DZIGBEEPRO -DSECURE=1               /
//                          -DZG_SECURE_DYNAMIC=0 -DREFLECTOR                 /
//                          -DDEFAULT_CHANLIST=0x06108800                     /
//                          -DZDAPP_CONFIG_PAN_ID=0xFFFF                      /
//                          -DNWK_START_DELAY=100 -DEXTENDED_JOINING_RANDOM_M /
//                          ASK=0x007F -DBEACON_REQUEST_DELAY=100             /
//                          -DBEACON_REQ_DELAY_MASK=0x00FF                    /
//                          -DLINK_STATUS_JITTER_MASK=0x007F                  /
//                          -DROUTE_EXPIRY_TIME=30 -DAPSC_ACK_WAIT_DURATION_P /
//                          OLLED=3000 -DNWK_INDIRECT_MSG_TIMEOUT=7           /
//                          -DMAX_RREQ_ENTRIES=8 -DAPSC_MAX_FRAME_RETRIES=3   /
//                          -DNWK_MAX_DATA_RETRIES=2                          /
//                          -DMAX_POLL_FAILURE_RETRIES=2 -DMAX_BCAST=9        /
//                          -DAPS_MAX_GROUPS=16 -DMAX_RTG_ENTRIES=40          /
//                          -DNWK_MAX_BINDING_ENTRIES=4                       /
//                          -DMAX_BINDING_CLUSTER_IDS=4                       /
//                          -DDEFAULT_KEY={0x58,0x69,0x6E,0x67,0x48,0x75,     /
//                          0x6F,0x59,0x75,0x61,0x6E,0x53,0x6D,0x61,0x72,     /
//                          0x74} -DMAC_MAX_FRAME_SIZE=116                    /
//                          -DZDNWKMGR_MIN_TRANSMISSIONS=20 "-DCONST=const    /
//                          __code" -DGENERIC=__generic                       /
//                          -DRFD_RCVC_ALWAYS_ON=FALSE -DPOLL_RATE=0          /
//                          -DQUEUED_POLL_RATE=0 -DRESPONSE_POLL_RATE=0       /
//                          -DREJOIN_POLL_RATE=440) -f "D:\work space\Smart   /
//                          Product\Two YHY\Door\v1.03.0                      /
//                          Green\ZStack-CC2530-2.5.1a\Projects\zstack\HomeAu /
//                          tomation\SmartDoor\CC2530DB\..\Tools\CC2530DB\f8w /
//                          ZCL.cfg" (-DZCL_READ -DZCL_WRITE -DZCL_REPORT     /
//                          -DZCL_BASIC -DZCL_IDENTIFY -DZCL_ON_OFF           /
//                          -DZCL_KEY_ESTABLISH -DZCL_KEY_ESTABLISHMENT_KEY_G /
//                          ENERATE_TIMEOUT=4 -DZCL_KEY_ESTABLISHMENT_MAC_GEN /
//                          ERATE_TIMEOUT=10 -DZCL_KEY_ESTABLISHMENT_EKEY_GEN /
//                          ERATE_TIMEOUT=10 -DZCL_LOAD_CONTROL               /
//                          -DZCL_SIMPLE_METERING -DZCL_PRICING               /
//                          -DZCL_MESSAGE -DZCL_TUNNELING -DZCL_TOU)          /
//                          -DZCL_DEVICE_MGMT "D:\work space\Smart            /
//                          Product\Two YHY\Door\v1.03.0                      /
//                          Green\ZStack-CC2530-2.5.1a\COMPONENTS\stack\zdo\Z /
//                          DProfile.c" -lC "D:\work space\Smart Product\Two  /
//                          YHY\Door\v1.03.0  Green\ZStack-CC2530-2.5.1a\Proj /
//                          ects\zstack\HomeAutomation\SmartDoor\CC2530DB\End /
//                          DeviceEB\List\" -lA "D:\work space\Smart          /
//                          Product\Two YHY\Door\v1.03.0                      /
//                          Green\ZStack-CC2530-2.5.1a\Projects\zstack\HomeAu /
//                          tomation\SmartDoor\CC2530DB\EndDeviceEB\List\"    /
//                          --diag_suppress Pe001,Pa010 -o "D:\work           /
//                          space\Smart Product\Two YHY\Door\v1.03.0          /
//                          Green\ZStack-CC2530-2.5.1a\Projects\zstack\HomeAu /
//                          tomation\SmartDoor\CC2530DB\EndDeviceEB\Obj\" -e  /
//                          --debug --core=plain --dptr=16,1                  /
//                          --data_model=large --code_model=banked            /
//                          --calling_convention=xdata_reentrant              /
//                          --place_constants=data_rom --nr_virtual_regs 16   /
//                          -I "D:\work space\Smart Product\Two               /
//                          YHY\Door\v1.03.0  Green\ZStack-CC2530-2.5.1a\Proj /
//                          ects\zstack\HomeAutomation\SmartDoor\CC2530DB\"   /
//                          -I "D:\work space\Smart Product\Two               /
//                          YHY\Door\v1.03.0  Green\ZStack-CC2530-2.5.1a\Proj /
//                          ects\zstack\HomeAutomation\SmartDoor\CC2530DB\..\ /
//                          Source\" -I "D:\work space\Smart Product\Two      /
//                          YHY\Door\v1.03.0  Green\ZStack-CC2530-2.5.1a\Proj /
//                          ects\zstack\HomeAutomation\SmartDoor\CC2530DB\..\ /
//                          ..\Source\" -I "D:\work space\Smart Product\Two   /
//                          YHY\Door\v1.03.0  Green\ZStack-CC2530-2.5.1a\Proj /
//                          ects\zstack\HomeAutomation\SmartDoor\CC2530DB\..\ /
//                          ..\..\ZMain\TI2530DB\" -I "D:\work space\Smart    /
//                          Product\Two YHY\Door\v1.03.0                      /
//                          Green\ZStack-CC2530-2.5.1a\Projects\zstack\HomeAu /
//                          tomation\SmartDoor\CC2530DB\..\..\..\..\..\Compon /
//                          ents\hal\include\" -I "D:\work space\Smart        /
//                          Product\Two YHY\Door\v1.03.0                      /
//                          Green\ZStack-CC2530-2.5.1a\Projects\zstack\HomeAu /
//                          tomation\SmartDoor\CC2530DB\..\..\..\..\..\Compon /
//                          ents\hal\target\CC2530EB\" -I "D:\work            /
//                          space\Smart Product\Two YHY\Door\v1.03.0          /
//                          Green\ZStack-CC2530-2.5.1a\Projects\zstack\HomeAu /
//                          tomation\SmartDoor\CC2530DB\..\..\..\..\..\Compon /
//                          ents\mac\include\" -I "D:\work space\Smart        /
//                          Product\Two YHY\Door\v1.03.0                      /
//                          Green\ZStack-CC2530-2.5.1a\Projects\zstack\HomeAu /
//                          tomation\SmartDoor\CC2530DB\..\..\..\..\..\Compon /
//                          ents\mac\high_level\" -I "D:\work space\Smart     /
//                          Product\Two YHY\Door\v1.03.0                      /
//                          Green\ZStack-CC2530-2.5.1a\Projects\zstack\HomeAu /
//                          tomation\SmartDoor\CC2530DB\..\..\..\..\..\Compon /
//                          ents\mac\low_level\srf04\" -I "D:\work            /
//                          space\Smart Product\Two YHY\Door\v1.03.0          /
//                          Green\ZStack-CC2530-2.5.1a\Projects\zstack\HomeAu /
//                          tomation\SmartDoor\CC2530DB\..\..\..\..\..\Compon /
//                          ents\mac\low_level\srf04\single_chip\" -I         /
//                          "D:\work space\Smart Product\Two                  /
//                          YHY\Door\v1.03.0  Green\ZStack-CC2530-2.5.1a\Proj /
//                          ects\zstack\HomeAutomation\SmartDoor\CC2530DB\..\ /
//                          ..\..\..\..\Components\mt\" -I "D:\work           /
//                          space\Smart Product\Two YHY\Door\v1.03.0          /
//                          Green\ZStack-CC2530-2.5.1a\Projects\zstack\HomeAu /
//                          tomation\SmartDoor\CC2530DB\..\..\..\..\..\Compon /
//                          ents\osal\include\" -I "D:\work space\Smart       /
//                          Product\Two YHY\Door\v1.03.0                      /
//                          Green\ZStack-CC2530-2.5.1a\Projects\zstack\HomeAu /
//                          tomation\SmartDoor\CC2530DB\..\..\..\..\..\Compon /
//                          ents\services\saddr\" -I "D:\work space\Smart     /
//                          Product\Two YHY\Door\v1.03.0                      /
//                          Green\ZStack-CC2530-2.5.1a\Projects\zstack\HomeAu /
//                          tomation\SmartDoor\CC2530DB\..\..\..\..\..\Compon /
//                          ents\services\sdata\" -I "D:\work space\Smart     /
//                          Product\Two YHY\Door\v1.03.0                      /
//                          Green\ZStack-CC2530-2.5.1a\Projects\zstack\HomeAu /
//                          tomation\SmartDoor\CC2530DB\..\..\..\..\..\Compon /
//                          ents\stack\af\" -I "D:\work space\Smart           /
//                          Product\Two YHY\Door\v1.03.0                      /
//                          Green\ZStack-CC2530-2.5.1a\Projects\zstack\HomeAu /
//                          tomation\SmartDoor\CC2530DB\..\..\..\..\..\Compon /
//                          ents\stack\nwk\" -I "D:\work space\Smart          /
//                          Product\Two YHY\Door\v1.03.0                      /
//                          Green\ZStack-CC2530-2.5.1a\Projects\zstack\HomeAu /
//                          tomation\SmartDoor\CC2530DB\..\..\..\..\..\Compon /
//                          ents\stack\sapi\" -I "D:\work space\Smart         /
//                          Product\Two YHY\Door\v1.03.0                      /
//                          Green\ZStack-CC2530-2.5.1a\Projects\zstack\HomeAu /
//                          tomation\SmartDoor\CC2530DB\..\..\..\..\..\Compon /
//                          ents\stack\sec\" -I "D:\work space\Smart          /
//                          Product\Two YHY\Door\v1.03.0                      /
//                          Green\ZStack-CC2530-2.5.1a\Projects\zstack\HomeAu /
//                          tomation\SmartDoor\CC2530DB\..\..\..\..\..\Compon /
//                          ents\stack\sys\" -I "D:\work space\Smart          /
//                          Product\Two YHY\Door\v1.03.0                      /
//                          Green\ZStack-CC2530-2.5.1a\Projects\zstack\HomeAu /
//                          tomation\SmartDoor\CC2530DB\..\..\..\..\..\Compon /
//                          ents\stack\zcl\" -I "D:\work space\Smart          /
//                          Product\Two YHY\Door\v1.03.0                      /
//                          Green\ZStack-CC2530-2.5.1a\Projects\zstack\HomeAu /
//                          tomation\SmartDoor\CC2530DB\..\..\..\..\..\Compon /
//                          ents\stack\zdo\" -I "D:\work space\Smart          /
//                          Product\Two YHY\Door\v1.03.0                      /
//                          Green\ZStack-CC2530-2.5.1a\Projects\zstack\HomeAu /
//                          tomation\SmartDoor\CC2530DB\..\..\..\..\..\Compon /
//                          ents\zmac\" -I "D:\work space\Smart Product\Two   /
//                          YHY\Door\v1.03.0  Green\ZStack-CC2530-2.5.1a\Proj /
//                          ects\zstack\HomeAutomation\SmartDoor\CC2530DB\..\ /
//                          ..\..\..\..\Components\zmac\f8w\" -Oh             /
//                          --require_prototypes                              /
//    List file          =  D:\work space\Smart Product\Two YHY\Door\v1.03.0  /
//                           Green\ZStack-CC2530-2.5.1a\Projects\zstack\HomeA /
//                          utomation\SmartDoor\CC2530DB\EndDeviceEB\List\ZDP /
//                          rofile.s51                                        /
//                                                                            /
//                                                                            /
///////////////////////////////////////////////////////////////////////////////

        NAME ZDProfile

        RTMODEL "__SystemLibrary", "CLib"
        RTMODEL "__calling_convention", "xdata_reentrant"
        RTMODEL "__code_model", "banked"
        RTMODEL "__core", "plain"
        RTMODEL "__data_model", "large"
        RTMODEL "__dptr_size", "16"
        RTMODEL "__extended_stack", "disabled"
        RTMODEL "__location_for_constants", "data"
        RTMODEL "__number_of_dptrs", "1"
        RTMODEL "__rt_version", "1"

        RSEG DOVERLAY:DATA:NOROOT(0)
        RSEG IOVERLAY:IDATA:NOROOT(0)
        RSEG ISTACK:IDATA:NOROOT(0)
        RSEG PSTACK:XDATA:NOROOT(0)
        RSEG XSTACK:XDATA:NOROOT(0)

        EXTERN ?ALLOC_XSTACK8
        EXTERN ?BANKED_ENTER_XDATA
        EXTERN ?BANKED_LEAVE_XDATA
        EXTERN ?BDISPATCH
        EXTERN ?CALL_IND
        EXTERN ?DEALLOC_XSTACK8
        EXTERN ?L_MOV_X
        EXTERN ?PUSH_XSTACK_I_FOUR
        EXTERN ?PUSH_XSTACK_I_ONE
        EXTERN ?PUSH_XSTACK_I_THREE
        EXTERN ?PUSH_XSTACK_I_TWO
        EXTERN ?S_SHL
        EXTERN ?US_SHR
        EXTERN ?V0
        EXTERN ?XSP
        EXTERN ?XSTACK_DISP0_8
        EXTERN __INIT_XDATA_I
        EXTERN __INIT_XDATA_Z

        PUBLIC ??ZDO_RegisterForZDOMsg?relay
        FUNCTION ??ZDO_RegisterForZDOMsg?relay,0203H
        PUBLIC ??ZDO_RemoveRegisteredCB?relay
        FUNCTION ??ZDO_RemoveRegisteredCB?relay,0203H
        PUBLIC ??ZDO_SendMsgCBs?relay
        FUNCTION ??ZDO_SendMsgCBs?relay,0203H
        PUBLIC ??ZDP_BindUnbindReq?relay
        FUNCTION ??ZDP_BindUnbindReq?relay,0203H
        PUBLIC ??ZDP_DeviceAnnce?relay
        FUNCTION ??ZDP_DeviceAnnce?relay,0203H
        PUBLIC ??ZDP_EPRsp?relay
        FUNCTION ??ZDP_EPRsp?relay,0203H
        PUBLIC ??ZDP_EndDeviceBindReq?relay
        FUNCTION ??ZDP_EndDeviceBindReq?relay,0203H
        PUBLIC ??ZDP_GenericRsp?relay
        FUNCTION ??ZDP_GenericRsp?relay,0203H
        PUBLIC ??ZDP_IEEEAddrReq?relay
        FUNCTION ??ZDP_IEEEAddrReq?relay,0203H
        PUBLIC ??ZDP_IncomingData?relay
        FUNCTION ??ZDP_IncomingData?relay,0203H
        PUBLIC ??ZDP_MatchDescReq?relay
        FUNCTION ??ZDP_MatchDescReq?relay,0203H
        PUBLIC ??ZDP_MgmtBindRsp?relay
        FUNCTION ??ZDP_MgmtBindRsp?relay,0203H
        PUBLIC ??ZDP_MgmtDirectJoinReq?relay
        FUNCTION ??ZDP_MgmtDirectJoinReq?relay,0203H
        PUBLIC ??ZDP_MgmtLeaveReq?relay
        FUNCTION ??ZDP_MgmtLeaveReq?relay,0203H
        PUBLIC ??ZDP_MgmtLqiRsp?relay
        FUNCTION ??ZDP_MgmtLqiRsp?relay,0203H
        PUBLIC ??ZDP_MgmtNwkDiscReq?relay
        FUNCTION ??ZDP_MgmtNwkDiscReq?relay,0203H
        PUBLIC ??ZDP_MgmtNwkDiscRsp?relay
        FUNCTION ??ZDP_MgmtNwkDiscRsp?relay,0203H
        PUBLIC ??ZDP_MgmtNwkUpdateNotify?relay
        FUNCTION ??ZDP_MgmtNwkUpdateNotify?relay,0203H
        PUBLIC ??ZDP_MgmtNwkUpdateReq?relay
        FUNCTION ??ZDP_MgmtNwkUpdateReq?relay,0203H
        PUBLIC ??ZDP_MgmtPermitJoinReq?relay
        FUNCTION ??ZDP_MgmtPermitJoinReq?relay,0203H
        PUBLIC ??ZDP_MgmtRtgRsp?relay
        FUNCTION ??ZDP_MgmtRtgRsp?relay,0203H
        PUBLIC ??ZDP_NWKAddrOfInterestReq?relay
        FUNCTION ??ZDP_NWKAddrOfInterestReq?relay,0203H
        PUBLIC ??ZDP_NodeDescMsg?relay
        FUNCTION ??ZDP_NodeDescMsg?relay,0203H
        PUBLIC ??ZDP_NwkAddrReq?relay
        FUNCTION ??ZDP_NwkAddrReq?relay,0203H
        PUBLIC ??ZDP_PowerDescMsg?relay
        FUNCTION ??ZDP_PowerDescMsg?relay,0203H
        PUBLIC ??ZDP_SendData?relay
        FUNCTION ??ZDP_SendData?relay,0203H
        PUBLIC ??ZDP_ServerDiscReq?relay
        FUNCTION ??ZDP_ServerDiscReq?relay,0203H
        PUBLIC ??ZDP_ServerDiscRsp?relay
        FUNCTION ??ZDP_ServerDiscRsp?relay,0203H
        PUBLIC ??ZDP_SimpleDescMsg?relay
        FUNCTION ??ZDP_SimpleDescMsg?relay,0203H
        PUBLIC ??ZDP_SimpleDescReq?relay
        FUNCTION ??ZDP_SimpleDescReq?relay,0203H
        PUBLIC ??ZDP_UserDescRsp?relay
        FUNCTION ??ZDP_UserDescRsp?relay,0203H
        PUBLIC ??ZDP_UserDescSet?relay
        FUNCTION ??ZDP_UserDescSet?relay,0203H
        FUNCTION ??fillAndSend?relay,0203H
        PUBLIC ??zdpProcessAddrReq?relay
        FUNCTION ??zdpProcessAddrReq?relay,0203H
        PUBLIC ZDO_RegisterForZDOMsg
        FUNCTION ZDO_RegisterForZDOMsg,021203H
        ARGFRAME XSTACK, 0, STACK
        LOCFRAME ISTACK, 1, STACK
        LOCFRAME XSTACK, 14, STACK
        PUBLIC ZDO_RemoveRegisteredCB
        FUNCTION ZDO_RemoveRegisteredCB,021203H
        ARGFRAME XSTACK, 0, STACK
        LOCFRAME XSTACK, 9, STACK
        PUBLIC ZDO_SendMsgCBs
        FUNCTION ZDO_SendMsgCBs,021203H
        ARGFRAME XSTACK, 31, STACK
        ARGFRAME IOVERLAY, 0, STATIC
        ARGFRAME DOVERLAY, 0, STATIC
        LOCFRAME XSTACK, 27, STACK
        PUBLIC ZDP_AF_ENDPOINT
        PUBLIC ZDP_BindUnbindReq
        FUNCTION ZDP_BindUnbindReq,021203H
        ARGFRAME XSTACK, 8, STACK
        LOCFRAME ISTACK, 1, STACK
        LOCFRAME XSTACK, 24, STACK
        PUBLIC ZDP_DeviceAnnce
        FUNCTION ZDP_DeviceAnnce,021203H
        ARGFRAME XSTACK, 1, STACK
        LOCFRAME ISTACK, 1, STACK
        LOCFRAME XSTACK, 21, STACK
        PUBLIC ZDP_EPRsp
        FUNCTION ZDP_EPRsp,021203H
        ARGFRAME XSTACK, 7, STACK
        LOCFRAME ISTACK, 1, STACK
        LOCFRAME XSTACK, 22, STACK
        PUBLIC ZDP_EndDeviceBindReq
        FUNCTION ZDP_EndDeviceBindReq,021203H
        ARGFRAME XSTACK, 9, STACK
        LOCFRAME ISTACK, 1, STACK
        LOCFRAME XSTACK, 26, STACK
        PUBLIC ZDP_GenericRsp
        FUNCTION ZDP_GenericRsp,021203H
        ARGFRAME XSTACK, 4, STACK
        LOCFRAME ISTACK, 1, STACK
        LOCFRAME XSTACK, 13, STACK
        PUBLIC ZDP_IEEEAddrReq
        FUNCTION ZDP_IEEEAddrReq,021203H
        ARGFRAME XSTACK, 0, STACK
        LOCFRAME ISTACK, 1, STACK
        LOCFRAME XSTACK, 21, STACK
        PUBLIC ZDP_IncomingData
        FUNCTION ZDP_IncomingData,021203H
        ARGFRAME XSTACK, 0, STACK
        LOCFRAME ISTACK, 1, STACK
        LOCFRAME XSTACK, 31, STACK
        PUBLIC ZDP_MatchDescReq
        FUNCTION ZDP_MatchDescReq,021203H
        ARGFRAME XSTACK, 8, STACK
        LOCFRAME ISTACK, 1, STACK
        LOCFRAME XSTACK, 18, STACK
        PUBLIC ZDP_MgmtBindRsp
        FUNCTION ZDP_MgmtBindRsp,021203H
        ARGFRAME XSTACK, 5, STACK
        LOCFRAME ISTACK, 1, STACK
        LOCFRAME XSTACK, 23, STACK
        PUBLIC ZDP_MgmtDirectJoinReq
        FUNCTION ZDP_MgmtDirectJoinReq,021203H
        ARGFRAME XSTACK, 1, STACK
        LOCFRAME ISTACK, 1, STACK
        LOCFRAME XSTACK, 14, STACK
        PUBLIC ZDP_MgmtLeaveReq
        FUNCTION ZDP_MgmtLeaveReq,021203H
        ARGFRAME XSTACK, 2, STACK
        LOCFRAME XSTACK, 14, STACK
        PUBLIC ZDP_MgmtLqiRsp
        FUNCTION ZDP_MgmtLqiRsp,021203H
        ARGFRAME XSTACK, 5, STACK
        LOCFRAME ISTACK, 1, STACK
        LOCFRAME XSTACK, 25, STACK
        PUBLIC ZDP_MgmtNwkDiscReq
        FUNCTION ZDP_MgmtNwkDiscReq,021203H
        ARGFRAME XSTACK, 4, STACK
        LOCFRAME ISTACK, 1, STACK
        LOCFRAME XSTACK, 20, STACK
        PUBLIC ZDP_MgmtNwkDiscRsp
        FUNCTION ZDP_MgmtNwkDiscRsp,021203H
        ARGFRAME XSTACK, 5, STACK
        LOCFRAME ISTACK, 1, STACK
        LOCFRAME XSTACK, 25, STACK
        PUBLIC ZDP_MgmtNwkUpdateNotify
        FUNCTION ZDP_MgmtNwkUpdateNotify,021203H
        ARGFRAME XSTACK, 12, STACK
        LOCFRAME ISTACK, 1, STACK
        LOCFRAME XSTACK, 31, STACK
        PUBLIC ZDP_MgmtNwkUpdateReq
        FUNCTION ZDP_MgmtNwkUpdateReq,021203H
        ARGFRAME XSTACK, 6, STACK
        LOCFRAME ISTACK, 1, STACK
        LOCFRAME XSTACK, 22, STACK
        PUBLIC ZDP_MgmtPermitJoinReq
        FUNCTION ZDP_MgmtPermitJoinReq,021203H
        ARGFRAME XSTACK, 0, STACK
        LOCFRAME ISTACK, 1, STACK
        LOCFRAME XSTACK, 12, STACK
        PUBLIC ZDP_MgmtRtgRsp
        FUNCTION ZDP_MgmtRtgRsp,021203H
        ARGFRAME XSTACK, 5, STACK
        LOCFRAME ISTACK, 1, STACK
        LOCFRAME XSTACK, 23, STACK
        PUBLIC ZDP_NWKAddrOfInterestReq
        FUNCTION ZDP_NWKAddrOfInterestReq,021203H
        ARGFRAME XSTACK, 1, STACK
        LOCFRAME ISTACK, 1, STACK
        LOCFRAME XSTACK, 12, STACK
        PUBLIC ZDP_NodeDescMsg
        FUNCTION ZDP_NodeDescMsg,021203H
        ARGFRAME XSTACK, 2, STACK
        LOCFRAME ISTACK, 1, STACK
        LOCFRAME XSTACK, 12, STACK
        PUBLIC ZDP_NwkAddrReq
        FUNCTION ZDP_NwkAddrReq,021203H
        ARGFRAME XSTACK, 0, STACK
        LOCFRAME ISTACK, 1, STACK
        LOCFRAME XSTACK, 25, STACK
        PUBLIC ZDP_PowerDescMsg
        FUNCTION ZDP_PowerDescMsg,021203H
        ARGFRAME XSTACK, 2, STACK
        LOCFRAME ISTACK, 1, STACK
        LOCFRAME XSTACK, 12, STACK
        PUBLIC ZDP_SendData
        FUNCTION ZDP_SendData,021203H
        ARGFRAME XSTACK, 5, STACK
        LOCFRAME ISTACK, 1, STACK
        LOCFRAME XSTACK, 16, STACK
        PUBLIC ZDP_ServerDiscReq
        FUNCTION ZDP_ServerDiscReq,021203H
        ARGFRAME XSTACK, 0, STACK
        LOCFRAME ISTACK, 1, STACK
        LOCFRAME XSTACK, 21, STACK
        PUBLIC ZDP_ServerDiscRsp
        FUNCTION ZDP_ServerDiscRsp,021203H
        ARGFRAME XSTACK, 4, STACK
        LOCFRAME ISTACK, 1, STACK
        LOCFRAME XSTACK, 13, STACK
        PUBLIC ZDP_SimpleDescMsg
        FUNCTION ZDP_SimpleDescMsg,021203H
        ARGFRAME XSTACK, 0, STACK
        LOCFRAME ISTACK, 2, STACK
        LOCFRAME XSTACK, 20, STACK
        PUBLIC ZDP_SimpleDescReq
        FUNCTION ZDP_SimpleDescReq,021203H
        ARGFRAME XSTACK, 1, STACK
        LOCFRAME ISTACK, 1, STACK
        LOCFRAME XSTACK, 12, STACK
        PUBLIC ZDP_TransID
        PUBLIC ZDP_TxOptions
        PUBLIC ZDP_UserDescRsp
        FUNCTION ZDP_UserDescRsp,021203H
        ARGFRAME XSTACK, 3, STACK
        LOCFRAME ISTACK, 1, STACK
        LOCFRAME XSTACK, 22, STACK
        PUBLIC ZDP_UserDescSet
        FUNCTION ZDP_UserDescSet,021203H
        ARGFRAME XSTACK, 2, STACK
        LOCFRAME ISTACK, 1, STACK
        LOCFRAME XSTACK, 22, STACK
        FUNCTION fillAndSend,021203H
        ARGFRAME XSTACK, 29, STACK
        ARGFRAME IOVERLAY, 0, STATIC
        ARGFRAME DOVERLAY, 0, STATIC
        LOCFRAME ISTACK, 1, STACK
        LOCFRAME XSTACK, 37, STACK
        PUBLIC zdoMsgCBs
        PUBLIC zdpMsgProcs
        PUBLIC zdpProcessAddrReq
        FUNCTION zdpProcessAddrReq,021603H
        ARGFRAME XSTACK, 0, STACK
        LOCFRAME ISTACK, 1, STACK
        LOCFRAME XSTACK, 17, STACK
        
        CFI Names cfiNames0
        CFI StackFrame CFA_SP SP IDATA
        CFI StackFrame CFA_PSP16 PSP16 XDATA
        CFI StackFrame CFA_XSP16 XSP16 XDATA
        CFI StaticOverlayFrame CFA_IOVERLAY IOVERLAY
        CFI StaticOverlayFrame CFA_DOVERLAY DOVERLAY
        CFI Resource `PSW.CY`:1, `B.BR0`:1, `B.BR1`:1, `B.BR2`:1, `B.BR3`:1
        CFI Resource `B.BR4`:1, `B.BR5`:1, `B.BR6`:1, `B.BR7`:1, `VB.BR8`:1
        CFI Resource `VB.BR9`:1, `VB.BR10`:1, `VB.BR11`:1, `VB.BR12`:1
        CFI Resource `VB.BR13`:1, `VB.BR14`:1, `VB.BR15`:1, VB:8, B:8, A:8
        CFI Resource PSW:8, DPL0:8, DPH0:8, R0:8, R1:8, R2:8, R3:8, R4:8, R5:8
        CFI Resource R6:8, R7:8, V0:8, V1:8, V2:8, V3:8, V4:8, V5:8, V6:8, V7:8
        CFI Resource V8:8, V9:8, V10:8, V11:8, V12:8, V13:8, V14:8, V15:8, SP:8
        CFI Resource PSPH:8, PSPL:8, PSP16:16, XSPH:8, XSPL:8, XSP16:16
        CFI VirtualResource ?RET:24
        CFI Resource ?BRET_EXT:8
        CFI VirtualResource ?RET_HIGH:8, ?RET_LOW:8
        CFI ResourceParts PSP16 PSPH, PSPL
        CFI ResourceParts XSP16 XSPH, XSPL
        CFI ResourceParts ?RET ?BRET_EXT, ?RET_HIGH, ?RET_LOW
        CFI EndNames cfiNames0
        
        CFI Common cfiCommon0 Using cfiNames0
        CFI CodeAlign 1
        CFI DataAlign -1
        CFI ReturnAddress ?RET CODE
        CFI CFA_DOVERLAY Used
        CFI CFA_IOVERLAY Used
        CFI CFA_SP SP+-3
        CFI CFA_PSP16 PSP16+0
        CFI CFA_XSP16 XSP16+0
        CFI `PSW.CY` SameValue
        CFI `B.BR0` SameValue
        CFI `B.BR1` SameValue
        CFI `B.BR2` SameValue
        CFI `B.BR3` SameValue
        CFI `B.BR4` SameValue
        CFI `B.BR5` SameValue
        CFI `B.BR6` SameValue
        CFI `B.BR7` SameValue
        CFI `VB.BR8` SameValue
        CFI `VB.BR9` SameValue
        CFI `VB.BR10` SameValue
        CFI `VB.BR11` SameValue
        CFI `VB.BR12` SameValue
        CFI `VB.BR13` SameValue
        CFI `VB.BR14` SameValue
        CFI `VB.BR15` SameValue
        CFI VB SameValue
        CFI B Undefined
        CFI A Undefined
        CFI PSW SameValue
        CFI DPL0 SameValue
        CFI DPH0 SameValue
        CFI R0 Undefined
        CFI R1 Undefined
        CFI R2 Undefined
        CFI R3 Undefined
        CFI R4 Undefined
        CFI R5 Undefined
        CFI R6 SameValue
        CFI R7 SameValue
        CFI V0 SameValue
        CFI V1 SameValue
        CFI V2 SameValue
        CFI V3 SameValue
        CFI V4 SameValue
        CFI V5 SameValue
        CFI V6 SameValue
        CFI V7 SameValue
        CFI V8 SameValue
        CFI V9 SameValue
        CFI V10 SameValue
        CFI V11 SameValue
        CFI V12 SameValue
        CFI V13 SameValue
        CFI V14 SameValue
        CFI V15 SameValue
        CFI PSPH Undefined
        CFI PSPL Undefined
        CFI XSPH Undefined
        CFI XSPL Undefined
        CFI ?RET Concat
        CFI ?BRET_EXT Frame(CFA_SP, 3)
        CFI ?RET_HIGH Frame(CFA_SP, 2)
        CFI ?RET_LOW Frame(CFA_SP, 1)
        CFI EndCommon cfiCommon0
        
        
        CFI Common cfiCommon1 Using cfiNames0
        CFI CodeAlign 1
        CFI DataAlign -1
        CFI ReturnAddress ?RET CODE
        CFI CFA_DOVERLAY Used
        CFI CFA_IOVERLAY Used
        CFI CFA_SP SP+-2
        CFI CFA_PSP16 PSP16+0
        CFI CFA_XSP16 XSP16+0
        CFI `PSW.CY` SameValue
        CFI `B.BR0` SameValue
        CFI `B.BR1` SameValue
        CFI `B.BR2` SameValue
        CFI `B.BR3` SameValue
        CFI `B.BR4` SameValue
        CFI `B.BR5` SameValue
        CFI `B.BR6` SameValue
        CFI `B.BR7` SameValue
        CFI `VB.BR8` SameValue
        CFI `VB.BR9` SameValue
        CFI `VB.BR10` SameValue
        CFI `VB.BR11` SameValue
        CFI `VB.BR12` SameValue
        CFI `VB.BR13` SameValue
        CFI `VB.BR14` SameValue
        CFI `VB.BR15` SameValue
        CFI VB SameValue
        CFI B SameValue
        CFI A SameValue
        CFI PSW SameValue
        CFI DPL0 SameValue
        CFI DPH0 SameValue
        CFI R0 SameValue
        CFI R1 SameValue
        CFI R2 SameValue
        CFI R3 SameValue
        CFI R4 SameValue
        CFI R5 SameValue
        CFI R6 SameValue
        CFI R7 SameValue
        CFI V0 SameValue
        CFI V1 SameValue
        CFI V2 SameValue
        CFI V3 SameValue
        CFI V4 SameValue
        CFI V5 SameValue
        CFI V6 SameValue
        CFI V7 SameValue
        CFI V8 SameValue
        CFI V9 SameValue
        CFI V10 SameValue
        CFI V11 SameValue
        CFI V12 SameValue
        CFI V13 SameValue
        CFI V14 SameValue
        CFI V15 SameValue
        CFI PSPH Undefined
        CFI PSPL Undefined
        CFI XSPH Undefined
        CFI XSPL Undefined
        CFI ?RET Concat
        CFI ?BRET_EXT SameValue
        CFI ?RET_HIGH Frame(CFA_SP, 2)
        CFI ?RET_LOW Frame(CFA_SP, 1)
        CFI EndCommon cfiCommon1
        
osal_memset         SYMBOL "osal_memset"
AF_DataRequest      SYMBOL "AF_DataRequest"
sAddrExtCmp         SYMBOL "sAddrExtCmp"
sAddrExtCpy         SYMBOL "sAddrExtCpy"
osal_memcpy         SYMBOL "osal_memcpy"
NLME_GetShortAddr   SYMBOL "NLME_GetShortAddr"
NLME_GetExtAddr     SYMBOL "NLME_GetExtAddr"
osal_buffer_uint32  SYMBOL "osal_buffer_uint32"
osal_mem_alloc      SYMBOL "osal_mem_alloc"
osal_mem_free       SYMBOL "osal_mem_free"
osal_msg_allocate   SYMBOL "osal_msg_allocate"
osal_msg_send       SYMBOL "osal_msg_send"
ZDApp_InMsgCB       SYMBOL "ZDApp_InMsgCB"
??AF_DataRequest?relay SYMBOL "?relay", AF_DataRequest
??NLME_GetExtAddr?relay SYMBOL "?relay", NLME_GetExtAddr
??NLME_GetShortAddr?relay SYMBOL "?relay", NLME_GetShortAddr
??ZDApp_InMsgCB?relay SYMBOL "?relay", ZDApp_InMsgCB
`?<Name ZDO_ProcessActiveEPR 17>` SYMBOL "ZDO_ProcessActiveEPReq"
??ZDO_ProcessActiveEPReq?relay SYMBOL "?relay", `?<Name ZDO_ProcessActiveEPR 17>`
`?<Name ZDO_ProcessMatchDesc 19>` SYMBOL "ZDO_ProcessMatchDescReq"
??ZDO_ProcessMatchDescReq?relay SYMBOL "?relay", `?<Name ZDO_ProcessMatchDesc 19>`
`?<Name ZDO_ProcessNodeDescR 21>` SYMBOL "ZDO_ProcessNodeDescReq"
??ZDO_ProcessNodeDescReq?relay SYMBOL "?relay", `?<Name ZDO_ProcessNodeDescR 21>`
`?<Name ZDO_ProcessPowerDesc 23>` SYMBOL "ZDO_ProcessPowerDescReq"
??ZDO_ProcessPowerDescReq?relay SYMBOL "?relay", `?<Name ZDO_ProcessPowerDesc 23>`
`?<Name ZDO_ProcessSimpleDes 25>` SYMBOL "ZDO_ProcessSimpleDescReq"
??ZDO_ProcessSimpleDescReq?relay SYMBOL "?relay", `?<Name ZDO_ProcessSimpleDes 25>`
??osal_buffer_uint32?relay SYMBOL "?relay", osal_buffer_uint32
??osal_mem_alloc?relay SYMBOL "?relay", osal_mem_alloc
??osal_mem_free?relay SYMBOL "?relay", osal_mem_free
??osal_memcpy?relay SYMBOL "?relay", osal_memcpy
??osal_memset?relay SYMBOL "?relay", osal_memset
??osal_msg_allocate?relay SYMBOL "?relay", osal_msg_allocate
??osal_msg_send?relay SYMBOL "?relay", osal_msg_send
??sAddrExtCmp?relay SYMBOL "?relay", sAddrExtCmp
??sAddrExtCpy?relay SYMBOL "?relay", sAddrExtCpy
ZDO_RegisterForZDOMsg SYMBOL "ZDO_RegisterForZDOMsg"
??ZDO_RegisterForZDOMsg?relay SYMBOL "?relay", ZDO_RegisterForZDOMsg
ZDO_RemoveRegisteredCB SYMBOL "ZDO_RemoveRegisteredCB"
??ZDO_RemoveRegisteredCB?relay SYMBOL "?relay", ZDO_RemoveRegisteredCB
ZDO_SendMsgCBs      SYMBOL "ZDO_SendMsgCBs"
??ZDO_SendMsgCBs?relay SYMBOL "?relay", ZDO_SendMsgCBs
ZDP_BindUnbindReq   SYMBOL "ZDP_BindUnbindReq"
??ZDP_BindUnbindReq?relay SYMBOL "?relay", ZDP_BindUnbindReq
ZDP_DeviceAnnce     SYMBOL "ZDP_DeviceAnnce"
??ZDP_DeviceAnnce?relay SYMBOL "?relay", ZDP_DeviceAnnce
ZDP_EPRsp           SYMBOL "ZDP_EPRsp"
??ZDP_EPRsp?relay   SYMBOL "?relay", ZDP_EPRsp
ZDP_EndDeviceBindReq SYMBOL "ZDP_EndDeviceBindReq"
??ZDP_EndDeviceBindReq?relay SYMBOL "?relay", ZDP_EndDeviceBindReq
ZDP_GenericRsp      SYMBOL "ZDP_GenericRsp"
??ZDP_GenericRsp?relay SYMBOL "?relay", ZDP_GenericRsp
ZDP_IEEEAddrReq     SYMBOL "ZDP_IEEEAddrReq"
??ZDP_IEEEAddrReq?relay SYMBOL "?relay", ZDP_IEEEAddrReq
ZDP_IncomingData    SYMBOL "ZDP_IncomingData"
??ZDP_IncomingData?relay SYMBOL "?relay", ZDP_IncomingData
ZDP_MatchDescReq    SYMBOL "ZDP_MatchDescReq"
??ZDP_MatchDescReq?relay SYMBOL "?relay", ZDP_MatchDescReq
ZDP_MgmtBindRsp     SYMBOL "ZDP_MgmtBindRsp"
??ZDP_MgmtBindRsp?relay SYMBOL "?relay", ZDP_MgmtBindRsp
ZDP_MgmtDirectJoinReq SYMBOL "ZDP_MgmtDirectJoinReq"
??ZDP_MgmtDirectJoinReq?relay SYMBOL "?relay", ZDP_MgmtDirectJoinReq
ZDP_MgmtLeaveReq    SYMBOL "ZDP_MgmtLeaveReq"
??ZDP_MgmtLeaveReq?relay SYMBOL "?relay", ZDP_MgmtLeaveReq
ZDP_MgmtLqiRsp      SYMBOL "ZDP_MgmtLqiRsp"
??ZDP_MgmtLqiRsp?relay SYMBOL "?relay", ZDP_MgmtLqiRsp
ZDP_MgmtNwkDiscReq  SYMBOL "ZDP_MgmtNwkDiscReq"
??ZDP_MgmtNwkDiscReq?relay SYMBOL "?relay", ZDP_MgmtNwkDiscReq
ZDP_MgmtNwkDiscRsp  SYMBOL "ZDP_MgmtNwkDiscRsp"
??ZDP_MgmtNwkDiscRsp?relay SYMBOL "?relay", ZDP_MgmtNwkDiscRsp
ZDP_MgmtNwkUpdateNotify SYMBOL "ZDP_MgmtNwkUpdateNotify"
??ZDP_MgmtNwkUpdateNotify?relay SYMBOL "?relay", ZDP_MgmtNwkUpdateNotify
ZDP_MgmtNwkUpdateReq SYMBOL "ZDP_MgmtNwkUpdateReq"
??ZDP_MgmtNwkUpdateReq?relay SYMBOL "?relay", ZDP_MgmtNwkUpdateReq
ZDP_MgmtPermitJoinReq SYMBOL "ZDP_MgmtPermitJoinReq"
??ZDP_MgmtPermitJoinReq?relay SYMBOL "?relay", ZDP_MgmtPermitJoinReq
ZDP_MgmtRtgRsp      SYMBOL "ZDP_MgmtRtgRsp"
??ZDP_MgmtRtgRsp?relay SYMBOL "?relay", ZDP_MgmtRtgRsp
ZDP_NWKAddrOfInterestReq SYMBOL "ZDP_NWKAddrOfInterestReq"
??ZDP_NWKAddrOfInterestReq?relay SYMBOL "?relay", ZDP_NWKAddrOfInterestReq
ZDP_NodeDescMsg     SYMBOL "ZDP_NodeDescMsg"
??ZDP_NodeDescMsg?relay SYMBOL "?relay", ZDP_NodeDescMsg
ZDP_NwkAddrReq      SYMBOL "ZDP_NwkAddrReq"
??ZDP_NwkAddrReq?relay SYMBOL "?relay", ZDP_NwkAddrReq
ZDP_PowerDescMsg    SYMBOL "ZDP_PowerDescMsg"
??ZDP_PowerDescMsg?relay SYMBOL "?relay", ZDP_PowerDescMsg
ZDP_SendData        SYMBOL "ZDP_SendData"
??ZDP_SendData?relay SYMBOL "?relay", ZDP_SendData
ZDP_ServerDiscReq   SYMBOL "ZDP_ServerDiscReq"
??ZDP_ServerDiscReq?relay SYMBOL "?relay", ZDP_ServerDiscReq
ZDP_ServerDiscRsp   SYMBOL "ZDP_ServerDiscRsp"
??ZDP_ServerDiscRsp?relay SYMBOL "?relay", ZDP_ServerDiscRsp
ZDP_SimpleDescMsg   SYMBOL "ZDP_SimpleDescMsg"
??ZDP_SimpleDescMsg?relay SYMBOL "?relay", ZDP_SimpleDescMsg
ZDP_SimpleDescReq   SYMBOL "ZDP_SimpleDescReq"
??ZDP_SimpleDescReq?relay SYMBOL "?relay", ZDP_SimpleDescReq
ZDP_UserDescRsp     SYMBOL "ZDP_UserDescRsp"
??ZDP_UserDescRsp?relay SYMBOL "?relay", ZDP_UserDescRsp
ZDP_UserDescSet     SYMBOL "ZDP_UserDescSet"
??ZDP_UserDescSet?relay SYMBOL "?relay", ZDP_UserDescSet
zdpProcessAddrReq   SYMBOL "zdpProcessAddrReq"
??zdpProcessAddrReq?relay SYMBOL "?relay", zdpProcessAddrReq

        EXTERN osal_memset
        FUNCTION osal_memset,0202H
        ARGFRAME ISTACK, 0, STACK
        ARGFRAME PSTACK, 0, STACK
        ARGFRAME XSTACK, 28, STACK
        ARGFRAME IOVERLAY, 0, STATIC
        ARGFRAME DOVERLAY, 0, STATIC
        EXTERN AF_DataRequest
        FUNCTION AF_DataRequest,0202H
        ARGFRAME ISTACK, 0, STACK
        ARGFRAME PSTACK, 0, STACK
        ARGFRAME XSTACK, 37, STACK
        ARGFRAME IOVERLAY, 0, STATIC
        ARGFRAME DOVERLAY, 0, STATIC
        EXTERN sAddrExtCmp
        FUNCTION sAddrExtCmp,0202H
        ARGFRAME ISTACK, 0, STACK
        ARGFRAME PSTACK, 0, STACK
        ARGFRAME XSTACK, 23, STACK
        ARGFRAME IOVERLAY, 0, STATIC
        ARGFRAME DOVERLAY, 0, STATIC
        EXTERN sAddrExtCpy
        FUNCTION sAddrExtCpy,0202H
        ARGFRAME ISTACK, 1, STACK
        ARGFRAME PSTACK, 0, STACK
        ARGFRAME XSTACK, 24, STACK
        ARGFRAME IOVERLAY, 0, STATIC
        ARGFRAME DOVERLAY, 0, STATIC
        EXTERN osal_memcpy
        FUNCTION osal_memcpy,0202H
        ARGFRAME ISTACK, 1, STACK
        ARGFRAME PSTACK, 0, STACK
        ARGFRAME XSTACK, 30, STACK
        ARGFRAME IOVERLAY, 0, STATIC
        ARGFRAME DOVERLAY, 0, STATIC
        EXTERN NLME_GetShortAddr
        FUNCTION NLME_GetShortAddr,0202H
        ARGFRAME ISTACK, 0, STACK
        ARGFRAME PSTACK, 0, STACK
        ARGFRAME XSTACK, 24, STACK
        ARGFRAME IOVERLAY, 0, STATIC
        ARGFRAME DOVERLAY, 0, STATIC
        EXTERN NLME_GetExtAddr
        FUNCTION NLME_GetExtAddr,0202H
        ARGFRAME ISTACK, 0, STACK
        ARGFRAME PSTACK, 0, STACK
        ARGFRAME XSTACK, 24, STACK
        ARGFRAME IOVERLAY, 0, STATIC
        ARGFRAME DOVERLAY, 0, STATIC
        EXTERN osal_buffer_uint32
        FUNCTION osal_buffer_uint32,0202H
        ARGFRAME ISTACK, 0, STACK
        ARGFRAME PSTACK, 0, STACK
        ARGFRAME XSTACK, 31, STACK
        ARGFRAME IOVERLAY, 0, STATIC
        ARGFRAME DOVERLAY, 0, STATIC
        EXTERN osal_mem_alloc
        FUNCTION osal_mem_alloc,0202H
        ARGFRAME ISTACK, 0, STACK
        ARGFRAME PSTACK, 0, STACK
        ARGFRAME XSTACK, 27, STACK
        ARGFRAME IOVERLAY, 0, STATIC
        ARGFRAME DOVERLAY, 0, STATIC
        EXTERN osal_mem_free
        FUNCTION osal_mem_free,0202H
        ARGFRAME ISTACK, 0, STACK
        ARGFRAME PSTACK, 0, STACK
        ARGFRAME XSTACK, 27, STACK
        ARGFRAME IOVERLAY, 0, STATIC
        ARGFRAME DOVERLAY, 0, STATIC
        EXTERN osal_msg_allocate
        FUNCTION osal_msg_allocate,0202H
        ARGFRAME ISTACK, 0, STACK
        ARGFRAME PSTACK, 0, STACK
        ARGFRAME XSTACK, 24, STACK
        ARGFRAME IOVERLAY, 0, STATIC
        ARGFRAME DOVERLAY, 0, STATIC
        EXTERN osal_msg_send
        FUNCTION osal_msg_send,0202H
        ARGFRAME ISTACK, 0, STACK
        ARGFRAME PSTACK, 0, STACK
        ARGFRAME XSTACK, 24, STACK
        ARGFRAME IOVERLAY, 0, STATIC
        ARGFRAME DOVERLAY, 0, STATIC
        EXTERN ZDApp_InMsgCB
        FUNCTION ZDApp_InMsgCB,0202H
        ARGFRAME ISTACK, 0, STACK
        ARGFRAME PSTACK, 0, STACK
        ARGFRAME XSTACK, 31, STACK
        ARGFRAME IOVERLAY, 0, STATIC
        ARGFRAME DOVERLAY, 0, STATIC
        EXTERN ??AF_DataRequest?relay
        FUNCTION ??AF_DataRequest?relay,00H
        EXTERN ??NLME_GetExtAddr?relay
        FUNCTION ??NLME_GetExtAddr?relay,00H
        EXTERN ??NLME_GetShortAddr?relay
        FUNCTION ??NLME_GetShortAddr?relay,00H
        EXTERN ??ZDApp_InMsgCB?relay
        FUNCTION ??ZDApp_InMsgCB?relay,00H
        EXTERN ??ZDO_ProcessActiveEPReq?relay
        FUNCTION ??ZDO_ProcessActiveEPReq?relay,00H
        EXTERN ??ZDO_ProcessMatchDescReq?relay
        FUNCTION ??ZDO_ProcessMatchDescReq?relay,00H
        EXTERN ??ZDO_ProcessNodeDescReq?relay
        FUNCTION ??ZDO_ProcessNodeDescReq?relay,00H
        EXTERN ??ZDO_ProcessPowerDescReq?relay
        FUNCTION ??ZDO_ProcessPowerDescReq?relay,00H
        EXTERN ??ZDO_ProcessSimpleDescReq?relay
        FUNCTION ??ZDO_ProcessSimpleDescReq?relay,00H
        EXTERN ??osal_buffer_uint32?relay
        FUNCTION ??osal_buffer_uint32?relay,00H
        EXTERN ??osal_mem_alloc?relay
        FUNCTION ??osal_mem_alloc?relay,00H
        EXTERN ??osal_mem_free?relay
        FUNCTION ??osal_mem_free?relay,00H
        EXTERN ??osal_memcpy?relay
        FUNCTION ??osal_memcpy?relay,00H
        EXTERN ??osal_memset?relay
        FUNCTION ??osal_memset?relay,00H
        EXTERN ??osal_msg_allocate?relay
        FUNCTION ??osal_msg_allocate?relay,00H
        EXTERN ??osal_msg_send?relay
        FUNCTION ??osal_msg_send?relay,00H
        EXTERN ??sAddrExtCmp?relay
        FUNCTION ??sAddrExtCmp?relay,00H
        EXTERN ??sAddrExtCpy?relay
        FUNCTION ??sAddrExtCpy?relay,00H
        EXTERN ZDAppNwkAddr
        EXTERN ZDApp_epDesc
        EXTERN saveExtAddr

// D:\work space\Smart Product\Two YHY\Door\v1.03.0  Green\ZStack-CC2530-2.5.1a\COMPONENTS\stack\zdo\ZDProfile.c
//    1 /**************************************************************************************************
//    2   Filename:       ZDProfile.c
//    3   Revised:        $Date: 2010-10-13 10:54:13 -0700 (Wed, 13 Oct 2010) $
//    4   Revision:       $Revision: 24112 $
//    5 
//    6   Description:    This is the Zigbee Device Profile.
//    7 
//    8 
//    9   Copyright 2004-2010 Texas Instruments Incorporated. All rights reserved.
//   10 
//   11   IMPORTANT: Your use of this Software is limited to those specific rights
//   12   granted under the terms of a software license agreement between the user
//   13   who downloaded the software, his/her employer (which must be your employer)
//   14   and Texas Instruments Incorporated (the "License").  You may not use this
//   15   Software unless you agree to abide by the terms of the License. The License
//   16   limits your use, and you acknowledge, that the Software may not be modified,
//   17   copied or distributed unless embedded on a Texas Instruments microcontroller
//   18   or used solely and exclusively in conjunction with a Texas Instruments radio
//   19   frequency transceiver, which is integrated into your product.  Other than for
//   20   the foregoing purpose, you may not use, reproduce, copy, prepare derivative
//   21   works of, modify, distribute, perform, display or sell this Software and/or
//   22   its documentation for any purpose.
//   23 
//   24   YOU FURTHER ACKNOWLEDGE AND AGREE THAT THE SOFTWARE AND DOCUMENTATION ARE
//   25   PROVIDED “AS IS” WITHOUT WARRANTY OF ANY KIND, EITHER EXPRESS OR IMPLIED,
//   26   INCLUDING WITHOUT LIMITATION, ANY WARRANTY OF MERCHANTABILITY, TITLE,
//   27   NON-INFRINGEMENT AND FITNESS FOR A PARTICULAR PURPOSE. IN NO EVENT SHALL
//   28   TEXAS INSTRUMENTS OR ITS LICENSORS BE LIABLE OR OBLIGATED UNDER CONTRACT,
//   29   NEGLIGENCE, STRICT LIABILITY, CONTRIBUTION, BREACH OF WARRANTY, OR OTHER
//   30   LEGAL EQUITABLE THEORY ANY DIRECT OR INDIRECT DAMAGES OR EXPENSES
//   31   INCLUDING BUT NOT LIMITED TO ANY INCIDENTAL, SPECIAL, INDIRECT, PUNITIVE
//   32   OR CONSEQUENTIAL DAMAGES, LOST PROFITS OR LOST DATA, COST OF PROCUREMENT
//   33   OF SUBSTITUTE GOODS, TECHNOLOGY, SERVICES, OR ANY CLAIMS BY THIRD PARTIES
//   34   (INCLUDING BUT NOT LIMITED TO ANY DEFENSE THEREOF), OR OTHER SIMILAR COSTS.
//   35 
//   36   Should you have any questions regarding your right to use this Software,
//   37   contact Texas Instruments Incorporated at www.TI.com.
//   38 **************************************************************************************************/
//   39 
//   40 /*********************************************************************
//   41  * INCLUDES
//   42  */
//   43 #include "ZComdef.h"
//   44 #include "OSAL.h"
//   45 #include "AF.h"
//   46 #include "NLMEDE.h"
//   47 #include "nwk_util.h"
//   48 #include "APS.h"
//   49 
//   50 #include "AddrMgr.h"
//   51 #include "ZDConfig.h"
//   52 #include "ZDProfile.h"
//   53 #include "ZDObject.h"
//   54 #include "ZDNwkMgr.h"
//   55 
//   56 #if defined( LCD_SUPPORTED )
//   57   #include "OnBoard.h"
//   58 #endif
//   59 
//   60 #include "nwk_util.h"
//   61 
//   62 #if defined( MT_ZDO_FUNC )
//   63   #include "MT_ZDO.h"
//   64 #endif
//   65 
//   66 /*********************************************************************
//   67  * MACROS
//   68  */
//   69 
//   70 #define ZADDR_TO_AFADDR( pZADDR, AFADDR ) {                            \ 
//   71   (AFADDR).endPoint = ZDP_AF_ENDPOINT;                                 \ 
//   72   (AFADDR).addrMode = (afAddrMode_t)(pZADDR)->addrMode;                \ 
//   73   (AFADDR).addr.shortAddr = (pZADDR)->addr.shortAddr;                  \ 
//   74 }
//   75 
//   76 #define FillAndSendBuffer( TRANSSEQ, ADDR, ID, LEN, BUF ) {     \ 
//   77   afStatus_t stat;                                    \ 
//   78   ZDP_TmpBuf = (BUF)+1;                               \ 
//   79   stat = fillAndSend( (TRANSSEQ), (ADDR), (ID), (LEN) );          \ 
//   80   osal_mem_free( (BUF) );                             \ 
//   81   ZDP_TmpBuf = ZDP_Buf+1;                             \ 
//   82   return stat;                                        \ 
//   83 }
//   84 
//   85 #define FillAndSendTxOptions( TRANSSEQ, ADDR, ID, LEN, TxO ) {  \ 
//   86   afStatus_t stat;                                    \ 
//   87   ZDP_TxOptions = (TxO);                              \ 
//   88   stat = fillAndSend( (TRANSSEQ), (ADDR), (ID), (LEN) );          \ 
//   89   ZDP_TxOptions = AF_TX_OPTIONS_NONE;                 \ 
//   90   return stat;                                        \ 
//   91 }
//   92 
//   93 #define FillAndSendBufferTxOptions( TRANSSEQ, ADDR, ID, LEN, BUF, TxO ) { \ 
//   94   afStatus_t stat;                                    \ 
//   95   ZDP_TmpBuf = (BUF)+1;                               \ 
//   96   ZDP_TxOptions = (TxO);                              \ 
//   97   stat = fillAndSend( (TRANSSEQ), (ADDR), (ID), (LEN) );          \ 
//   98   osal_mem_free( (BUF) );                             \ 
//   99   ZDP_TmpBuf = ZDP_Buf+1;                             \ 
//  100   ZDP_TxOptions = AF_TX_OPTIONS_NONE;                 \ 
//  101   return stat;                                        \ 
//  102 }
//  103 
//  104 /*********************************************************************
//  105  * CONSTANTS
//  106  */
//  107 
//  108 #define ZDP_BUF_SZ          80
//  109 

        RSEG CODE_C:CODE:REORDER:NOROOT(0)
        DATA8
//  110 CONST byte ZDP_AF_ENDPOINT = 0;
ZDP_AF_ENDPOINT:
        DB 0
//  111 
//  112 /*********************************************************************
//  113  * TYPEDEFS
//  114  */
//  115 typedef struct
//  116 {
//  117   void *next;
//  118   uint8 taskID;
//  119   uint16 clusterID;
//  120 } ZDO_MsgCB_t;
//  121 
//  122 
//  123 /*********************************************************************
//  124  * GLOBAL VARIABLES
//  125  */
//  126 

        RSEG XDATA_Z:XDATA:NOROOT(0)
        DATA8
//  127 byte ZDP_TransID = 0;
ZDP_TransID:
        DS 1
        REQUIRE __INIT_XDATA_Z
//  128 
//  129 /*********************************************************************
//  130  * EXTERNAL VARIABLES
//  131  */
//  132 
//  133 extern endPointDesc_t ZDApp_epDesc;
//  134 
//  135 /*********************************************************************
//  136  * EXTERNAL FUNCTIONS
//  137  */
//  138 
//  139 /*********************************************************************
//  140  * LOCAL FUNCTIONS
//  141  */
//  142 
//  143 static afStatus_t fillAndSend( uint8 *transSeq, zAddrType_t *addr, cId_t clusterID, byte len );
//  144 uint8 ZDO_SendMsgCBs( zdoIncomingMsg_t *inMsg );
//  145 void zdpProcessAddrReq( zdoIncomingMsg_t *inMsg );
//  146 
//  147 /*********************************************************************
//  148  * LOCAL VARIABLES
//  149  */
//  150 

        RSEG XDATA_Z:XDATA:NOROOT(0)
        DATA8
//  151 static uint8  ZDP_Buf[ ZDP_BUF_SZ ];
ZDP_Buf:
        DS 80
        REQUIRE __INIT_XDATA_Z

        RSEG XDATA_I:XDATA:NOROOT(0)
//  152 static uint8 *ZDP_TmpBuf = ZDP_Buf+1;
ZDP_TmpBuf:
        DATA16
        DS 2
        REQUIRE `?<Initializer for ZDP_TmpBuf>`
        REQUIRE __INIT_XDATA_I
//  153 

        RSEG XDATA_Z:XDATA:NOROOT(0)
        DATA8
//  154 byte ZDP_TxOptions = AF_TX_OPTIONS_NONE;
ZDP_TxOptions:
        DS 1
        REQUIRE __INIT_XDATA_Z

        RSEG XDATA_Z:XDATA:NOROOT(0)
        DATA16
//  155 ZDO_MsgCB_t *zdoMsgCBs = (ZDO_MsgCB_t *)NULL;
zdoMsgCBs:
        DS 2
        REQUIRE __INIT_XDATA_Z
//  156 
//  157 /*********************************************************************
//  158  * ZDO Message Processing table
//  159  */
//  160 
//  161 typedef void (*pfnZDPMsgProcessor)( zdoIncomingMsg_t *inMsg );
//  162 
//  163 typedef struct
//  164 {
//  165   uint16                clusterID;
//  166   pfnZDPMsgProcessor    pFn;
//  167 } zdpMsgProcItem_t;
//  168 

        RSEG CODE_C:CODE:REORDER:NOROOT(0)
        DATA8
//  169 CONST zdpMsgProcItem_t zdpMsgProcs[] =
zdpMsgProcs:
        DATA16
        DW 1
        DW ??zdpProcessAddrReq?relay
        DW 2
        DW ??ZDO_ProcessNodeDescReq?relay
        DW 3
        DW ??ZDO_ProcessPowerDescReq?relay
        DW 4
        DW ??ZDO_ProcessSimpleDescReq?relay
        DW 5
        DW ??ZDO_ProcessActiveEPReq?relay
        DW 6
        DW ??ZDO_ProcessMatchDescReq?relay
        DW 65535
        DW 0H
//  170 {
//  171 #if ( RFD_RCVC_ALWAYS_ON==TRUE ) || ( ZG_BUILD_RTR_TYPE )
//  172   // These aren't processed by sleeping end devices.
//  173   { NWK_addr_req,           zdpProcessAddrReq },
//  174   { Device_annce,           ZDO_ProcessDeviceAnnce },
//  175 #endif
//  176   { IEEE_addr_req,          zdpProcessAddrReq },
//  177   { Node_Desc_req,          ZDO_ProcessNodeDescReq },
//  178   { Power_Desc_req,         ZDO_ProcessPowerDescReq },
//  179   { Simple_Desc_req,        ZDO_ProcessSimpleDescReq },
//  180   { Active_EP_req,          ZDO_ProcessActiveEPReq },
//  181   { Match_Desc_req,         ZDO_ProcessMatchDescReq },
//  182 #if defined ( ZDO_MGMT_NWKDISC_RESPONSE )
//  183   { Mgmt_NWK_Disc_req,      ZDO_ProcessMgmtNwkDiscReq },
//  184 #endif
//  185 #if defined ( ZDO_MGMT_LQI_RESPONSE ) && ( ZG_BUILD_RTR_TYPE )
//  186   { Mgmt_Lqi_req,           ZDO_ProcessMgmtLqiReq },
//  187 #endif
//  188 #if defined ( ZDO_MGMT_RTG_RESPONSE ) && ( ZG_BUILD_RTR_TYPE )
//  189   { Mgmt_Rtg_req,           ZDO_ProcessMgmtRtgReq },
//  190 #endif
//  191 #if defined ( ZDO_MGMT_BIND_RESPONSE ) && defined ( REFLECTOR )
//  192   { Mgmt_Bind_req,          ZDO_ProcessMgmtBindReq },
//  193 #endif
//  194 #if defined ( ZDO_MGMT_JOINDIRECT_RESPONSE ) && ( ZG_BUILD_RTR_TYPE )
//  195   { Mgmt_Direct_Join_req,   ZDO_ProcessMgmtDirectJoinReq },
//  196 #endif
//  197 #if defined ( ZDO_MGMT_LEAVE_RESPONSE )
//  198   { Mgmt_Leave_req,         ZDO_ProcessMgmtLeaveReq },
//  199 #endif
//  200 #if defined ( ZDO_MGMT_PERMIT_JOIN_RESPONSE )  && ( ZG_BUILD_RTR_TYPE )
//  201   { Mgmt_Permit_Join_req,   ZDO_ProcessMgmtPermitJoinReq },
//  202 #endif
//  203 #if defined ( ZDO_USERDESC_RESPONSE )
//  204   { User_Desc_req,          ZDO_ProcessUserDescReq },
//  205 #endif
//  206 #if defined ( ZDO_USERDESCSET_RESPONSE )
//  207   { User_Desc_set,          ZDO_ProcessUserDescSet },
//  208 #endif
//  209 #if defined ( ZDO_SERVERDISC_RESPONSE )
//  210   { Server_Discovery_req,   ZDO_ProcessServerDiscReq },
//  211 #endif
//  212   {0xFFFF, NULL} // Last
//  213 };
//  214 
//  215 /*********************************************************************
//  216  * @fn          fillAndSend
//  217  *
//  218  * @brief       Combined to reduce space
//  219  *
//  220  * @param
//  221  * @param
//  222  *
//  223  * @return      afStatus_t
//  224  */

        RSEG BANKED_CODE:CODE:NOROOT(0)
//  225 static afStatus_t fillAndSend( uint8 *transSeq, zAddrType_t *addr, cId_t clusterID, byte len )
fillAndSend:
        CFI Block cfiBlock0 Using cfiCommon0
        CFI Function fillAndSend
        CODE
//  226 {
        FUNCALL fillAndSend, osal_memset
        LOCFRAME ISTACK, 0, STACK
        LOCFRAME PSTACK, 0, STACK
        LOCFRAME XSTACK, 28, STACK
        LOCFRAME IOVERLAY, 0, STATIC
        LOCFRAME DOVERLAY, 0, STATIC
        ARGFRAME ISTACK, 0, STACK
        ARGFRAME PSTACK, 0, STACK
        ARGFRAME XSTACK, 28, STACK
        ARGFRAME IOVERLAY, 0, STATIC
        ARGFRAME DOVERLAY, 0, STATIC
        FUNCALL fillAndSend, AF_DataRequest
        LOCFRAME ISTACK, 0, STACK
        LOCFRAME PSTACK, 0, STACK
        LOCFRAME XSTACK, 37, STACK
        LOCFRAME IOVERLAY, 0, STATIC
        LOCFRAME DOVERLAY, 0, STATIC
        ARGFRAME ISTACK, 0, STACK
        ARGFRAME PSTACK, 0, STACK
        ARGFRAME XSTACK, 37, STACK
        ARGFRAME IOVERLAY, 0, STATIC
        ARGFRAME DOVERLAY, 0, STATIC
        MOV     A,#-0x10
        LCALL   ?BANKED_ENTER_XDATA
        CFI DPH0 load(1, XDATA, add(CFA_XSP16, literal(-1)))
        CFI DPL0 load(1, XDATA, add(CFA_XSP16, literal(-2)))
        CFI ?BRET_EXT load(1, XDATA, add(CFA_XSP16, literal(-3)))
        CFI ?RET_HIGH load(1, XDATA, add(CFA_XSP16, literal(-4)))
        CFI ?RET_LOW load(1, XDATA, add(CFA_XSP16, literal(-5)))
        CFI R7 load(1, XDATA, add(CFA_XSP16, literal(-6)))
        CFI V7 load(1, XDATA, add(CFA_XSP16, literal(-7)))
        CFI V6 load(1, XDATA, add(CFA_XSP16, literal(-8)))
        CFI V5 load(1, XDATA, add(CFA_XSP16, literal(-9)))
        CFI V4 load(1, XDATA, add(CFA_XSP16, literal(-10)))
        CFI V3 load(1, XDATA, add(CFA_XSP16, literal(-11)))
        CFI V2 load(1, XDATA, add(CFA_XSP16, literal(-12)))
        CFI V1 load(1, XDATA, add(CFA_XSP16, literal(-13)))
        CFI V0 load(1, XDATA, add(CFA_XSP16, literal(-14)))
        CFI VB load(1, XDATA, add(CFA_XSP16, literal(-15)))
        CFI R6 load(1, XDATA, add(CFA_XSP16, literal(-16)))
        CFI CFA_SP SP+0
        CFI CFA_XSP16 add(XSP16, 16)
        ; Saved register size: 16
        ; Auto size: 12
        MOV     A,#-0xc
        LCALL   ?ALLOC_XSTACK8
        CFI CFA_XSP16 add(XSP16, 28)
        MOV     ?V0 + 2,R2
        MOV     ?V0 + 3,R3
        MOV     A,R4
        MOV     R6,A
        MOV     A,R5
        MOV     R7,A
        MOV     ?V0 + 6,R1
        MOV     A,#0x1c
        LCALL   ?XSTACK_DISP0_8
        LCALL   ??Subroutine99_0 & 0xFFFF
//  227   afAddrType_t afAddr;
//  228 
//  229   osal_memset( &afAddr, 0, sizeof(afAddrType_t) );
??CrossCallReturnLabel_162:
        ; Setup parameters for call to function osal_memset
        MOV     R4,#0xc
        MOV     R5,#0x0
        MOV     R1,#0x0
        MOV     DPL,?XSP + 0
        MOV     DPH,?XSP + 1
        MOV     R2,DPL
        MOV     R3,DPH
        LCALL   ??osal_memset?relay
//  230   ZADDR_TO_AFADDR( addr, afAddr );
        MOV     A,#0x9
        LCALL   ?XSTACK_DISP0_8
        CLR     A
        MOVX    @DPTR,A
        MOV     DPL,R6
        MOV     DPH,R7
        INC     DPTR
        INC     DPTR
        INC     DPTR
        INC     DPTR
        INC     DPTR
        INC     DPTR
        INC     DPTR
        INC     DPTR
        MOVX    A,@DPTR
        PUSH    A
        CFI CFA_SP SP+-1
        MOV     A,#0x8
        LCALL   ?XSTACK_DISP0_8
        POP     A
        CFI CFA_SP SP+0
        MOVX    @DPTR,A
        MOV     DPL,R6
        MOV     DPH,R7
        LCALL   ?Subroutine24 & 0xFFFF
??CrossCallReturnLabel_22:
        MOVX    @DPTR,A
//  231 
//  232   *(ZDP_TmpBuf-1) = *transSeq;
        MOV     DPTR,#ZDP_TmpBuf
        MOVX    A,@DPTR
        ADD     A,#-0x1
        MOV     ?V0 + 4,A
        INC     DPTR
        MOVX    A,@DPTR
        ADDC    A,#-0x1
        MOV     ?V0 + 5,A
        MOV     DPL,?V0 + 2
        MOV     DPH,?V0 + 3
        MOVX    A,@DPTR
        MOV     DPL,?V0 + 4
        MOV     DPH,?V0 + 5
        MOVX    @DPTR,A
//  233 
//  234   return AF_DataRequest( &afAddr, &ZDApp_epDesc, clusterID,
//  235                            (uint16)(len+1), (uint8*)(ZDP_TmpBuf-1),
//  236                            transSeq, ZDP_TxOptions,  AF_DEFAULT_RADIUS );
        ; Setup parameters for call to function AF_DataRequest
        MOV     ?V0 + 7,#0x1e
        MOV     R0,#?V0 + 7
        LCALL   ?PUSH_XSTACK_I_ONE
        CFI CFA_XSP16 add(XSP16, 29)
        MOV     R0,#?V0 + 2
        LCALL   ?PUSH_XSTACK_I_TWO
        CFI CFA_XSP16 add(XSP16, 31)
        MOV     R0,#?V0 + 4
        LCALL   ?PUSH_XSTACK_I_TWO
        CFI CFA_XSP16 add(XSP16, 33)
        MOV     ?V0 + 2,?V0 + 6
        MOV     A,?V0 + 2
        ADD     A,#0x1
        MOV     ?V0 + 2,A
        CLR     A
        ADDC    A,#0x0
        MOV     ?V0 + 3,A
        MOV     R0,#?V0 + 2
        LCALL   ?PUSH_XSTACK_I_TWO
        CFI CFA_XSP16 add(XSP16, 35)
        MOV     R0,#?V0 + 0
        LCALL   ?PUSH_XSTACK_I_TWO
        CFI CFA_XSP16 add(XSP16, 37)
        MOV     DPTR,#ZDP_TxOptions
        MOVX    A,@DPTR
        MOV     R1,A
        MOV     R4,#ZDApp_epDesc & 0xff
        MOV     R5,#(ZDApp_epDesc >> 8) & 0xff
        MOV     A,#0x9
        LCALL   ?XSTACK_DISP0_8
        MOV     R2,DPL
        MOV     R3,DPH
        LCALL   ??AF_DataRequest?relay
        MOV     A,#0x9
        LCALL   ?DEALLOC_XSTACK8
        CFI CFA_XSP16 add(XSP16, 28)
        MOV     A,#0xc
        CFI EndBlock cfiBlock0
        REQUIRE ?Subroutine0
        ; // Fall through to label ?Subroutine0
//  237 
//  238 }

        RSEG BANKED_CODE:CODE:NOROOT(0)
?Subroutine0:
        CFI Block cfiBlock1 Using cfiCommon0
        CFI NoFunction
        CFI CFA_SP SP+0
        CFI CFA_XSP16 add(XSP16, 28)
        CFI VB load(1, XDATA, add(CFA_XSP16, literal(-15)))
        CFI DPL0 load(1, XDATA, add(CFA_XSP16, literal(-2)))
        CFI DPH0 load(1, XDATA, add(CFA_XSP16, literal(-1)))
        CFI R6 load(1, XDATA, add(CFA_XSP16, literal(-16)))
        CFI R7 load(1, XDATA, add(CFA_XSP16, literal(-6)))
        CFI V0 load(1, XDATA, add(CFA_XSP16, literal(-14)))
        CFI V1 load(1, XDATA, add(CFA_XSP16, literal(-13)))
        CFI V2 load(1, XDATA, add(CFA_XSP16, literal(-12)))
        CFI V3 load(1, XDATA, add(CFA_XSP16, literal(-11)))
        CFI V4 load(1, XDATA, add(CFA_XSP16, literal(-10)))
        CFI V5 load(1, XDATA, add(CFA_XSP16, literal(-9)))
        CFI V6 load(1, XDATA, add(CFA_XSP16, literal(-8)))
        CFI V7 load(1, XDATA, add(CFA_XSP16, literal(-7)))
        CFI ?BRET_EXT load(1, XDATA, add(CFA_XSP16, literal(-3)))
        CFI ?RET_HIGH load(1, XDATA, add(CFA_XSP16, literal(-4)))
        CFI ?RET_LOW load(1, XDATA, add(CFA_XSP16, literal(-5)))
        CFI Invalid
        LCALL   ?DEALLOC_XSTACK8
        CFI EndBlock cfiBlock1
        REQUIRE ??Subroutine84_0
        ; // Fall through to label ??Subroutine84_0

        RSEG BANKED_CODE:CODE:NOROOT(0)
??Subroutine84_0:
        CFI Block cfiBlock2 Using cfiCommon0
        CFI NoFunction
        CFI CFA_SP SP+0
        CFI CFA_XSP16 add(XSP16, 16)
        CFI VB load(1, XDATA, add(CFA_XSP16, literal(-15)))
        CFI DPL0 load(1, XDATA, add(CFA_XSP16, literal(-2)))
        CFI DPH0 load(1, XDATA, add(CFA_XSP16, literal(-1)))
        CFI R6 load(1, XDATA, add(CFA_XSP16, literal(-16)))
        CFI R7 load(1, XDATA, add(CFA_XSP16, literal(-6)))
        CFI V0 load(1, XDATA, add(CFA_XSP16, literal(-14)))
        CFI V1 load(1, XDATA, add(CFA_XSP16, literal(-13)))
        CFI V2 load(1, XDATA, add(CFA_XSP16, literal(-12)))
        CFI V3 load(1, XDATA, add(CFA_XSP16, literal(-11)))
        CFI V4 load(1, XDATA, add(CFA_XSP16, literal(-10)))
        CFI V5 load(1, XDATA, add(CFA_XSP16, literal(-9)))
        CFI V6 load(1, XDATA, add(CFA_XSP16, literal(-8)))
        CFI V7 load(1, XDATA, add(CFA_XSP16, literal(-7)))
        CFI ?BRET_EXT load(1, XDATA, add(CFA_XSP16, literal(-3)))
        CFI ?RET_HIGH load(1, XDATA, add(CFA_XSP16, literal(-4)))
        CFI ?RET_LOW load(1, XDATA, add(CFA_XSP16, literal(-5)))
        MOV     R7,#0x8
        LJMP    ?BANKED_LEAVE_XDATA
        CFI EndBlock cfiBlock2
//  239 
//  240 /*********************************************************************
//  241  * @fn          ZDP_SendData
//  242  *
//  243  * @brief       This builds and send a request message that has
//  244  *              NWKAddrOfInterest as its only parameter.
//  245  *
//  246  * @param       dstAddr - destination address
//  247  * @param       cmd - clusterID
//  248  * @param       dataLen - number of bytes of data
//  249  * @param       data - pointer to the data
//  250  * @param       SecurityEnable - Security Options
//  251  *
//  252  * @return      afStatus_t
//  253  */

        RSEG BANKED_CODE:CODE:NOROOT(0)
//  254 afStatus_t ZDP_SendData( uint8 *TransSeq, zAddrType_t *dstAddr, uint16 cmd,
ZDP_SendData:
        CFI Block cfiBlock3 Using cfiCommon0
        CFI Function ZDP_SendData
        CODE
//  255                         byte len, uint8 *buf, byte SecurityEnable )
//  256 {
        FUNCALL ZDP_SendData, fillAndSend
        LOCFRAME ISTACK, 0, STACK
        LOCFRAME PSTACK, 0, STACK
        LOCFRAME XSTACK, 16, STACK
        LOCFRAME IOVERLAY, 0, STATIC
        LOCFRAME DOVERLAY, 0, STATIC
        ARGFRAME ISTACK, 0, STACK
        ARGFRAME PSTACK, 0, STACK
        ARGFRAME XSTACK, 16, STACK
        ARGFRAME IOVERLAY, 0, STATIC
        ARGFRAME DOVERLAY, 0, STATIC
        MOV     A,#-0xe
        LCALL   ?BANKED_ENTER_XDATA
        CFI DPH0 load(1, XDATA, add(CFA_XSP16, literal(-1)))
        CFI DPL0 load(1, XDATA, add(CFA_XSP16, literal(-2)))
        CFI ?BRET_EXT load(1, XDATA, add(CFA_XSP16, literal(-3)))
        CFI ?RET_HIGH load(1, XDATA, add(CFA_XSP16, literal(-4)))
        CFI ?RET_LOW load(1, XDATA, add(CFA_XSP16, literal(-5)))
        CFI R7 load(1, XDATA, add(CFA_XSP16, literal(-6)))
        CFI V5 load(1, XDATA, add(CFA_XSP16, literal(-7)))
        CFI V4 load(1, XDATA, add(CFA_XSP16, literal(-8)))
        CFI V3 load(1, XDATA, add(CFA_XSP16, literal(-9)))
        CFI V2 load(1, XDATA, add(CFA_XSP16, literal(-10)))
        CFI V1 load(1, XDATA, add(CFA_XSP16, literal(-11)))
        CFI V0 load(1, XDATA, add(CFA_XSP16, literal(-12)))
        CFI VB load(1, XDATA, add(CFA_XSP16, literal(-13)))
        CFI R6 load(1, XDATA, add(CFA_XSP16, literal(-14)))
        CFI CFA_SP SP+0
        CFI CFA_XSP16 add(XSP16, 14)
        ; Saved register size: 14
        ; Auto size: 0
        MOV     ?V0 + 0,R1
        MOV     A,#0xe
        LCALL   ?XSTACK_DISP0_8
        MOVX    A,@DPTR
        MOV     ?V0 + 2,A
        INC     DPTR
        MOVX    A,@DPTR
        MOV     ?V0 + 3,A
        MOV     A,#0x10
        LCALL   ?XSTACK_DISP0_8
        LCALL   ??Subroutine108_0 & 0xFFFF
??CrossCallReturnLabel_222:
        MOV     A,#0x12
        LCALL   ?XSTACK_DISP0_8
        MOVX    A,@DPTR
        MOV     ?V0 + 4,A
//  257   uint8 *pBuf = ZDP_TmpBuf;
        LCALL   ??Subroutine113_0 & 0xFFFF
//  258   byte cnt = len;
??CrossCallReturnLabel_273:
        MOV     ?V0 + 1,?V0 + 0
        MOV     A,?V0 + 1
        JZ      ??ZDP_SendData_0
//  259 
//  260   while ( cnt-- )
//  261   {
//  262     *pBuf++ = *buf++;
??ZDP_SendData_1:
        MOV     DPL,R6
        MOV     DPH,R7
        LCALL   ?Subroutine43 & 0xFFFF
//  263   }
??CrossCallReturnLabel_53:
        MOV     DPL,R6
        MOV     DPH,R7
        INC     DPTR
        MOV     R6,DPL
        MOV     R7,DPH
        MOV     DPL,R0
        MOV     DPH,R1
        INC     DPTR
        MOV     R0,DPL
        MOV     R1,DPH
        DEC     ?V0 + 1
        MOV     A,?V0 + 1
        JNZ     ??ZDP_SendData_1
//  264 
//  265   FillAndSendTxOptions( TransSeq, dstAddr, cmd, len, ((SecurityEnable) ? AF_EN_SECURITY : 0) );
??ZDP_SendData_0:
        MOV     A,?V0 + 4
        MOV     DPTR,#ZDP_TxOptions
        JZ      ??ZDP_SendData_2
        MOV     A,#0x40
        SJMP    ??ZDP_SendData_3
??ZDP_SendData_2:
        CLR     A
??ZDP_SendData_3:
        MOVX    @DPTR,A
        ; Setup parameters for call to function fillAndSend
        MOV     R0,#?V0 + 2
        LCALL   ?PUSH_XSTACK_I_TWO
        CFI CFA_XSP16 add(XSP16, 16)
        MOV     R1,?V0 + 0
        LCALL   ??Subroutine107_0 & 0xFFFF
??CrossCallReturnLabel_208:
        LCALL   ?DEALLOC_XSTACK8
        CFI CFA_XSP16 add(XSP16, 14)
        MOV     DPTR,#ZDP_TxOptions
        CLR     A
        MOVX    @DPTR,A
        CFI EndBlock cfiBlock3
        REQUIRE ?Subroutine1
        ; // Fall through to label ?Subroutine1
//  266 }

        RSEG BANKED_CODE:CODE:NOROOT(0)
?Subroutine1:
        CFI Block cfiBlock4 Using cfiCommon0
        CFI NoFunction
        CFI CFA_SP SP+0
        CFI CFA_XSP16 add(XSP16, 14)
        CFI VB load(1, XDATA, add(CFA_XSP16, literal(-13)))
        CFI DPL0 load(1, XDATA, add(CFA_XSP16, literal(-2)))
        CFI DPH0 load(1, XDATA, add(CFA_XSP16, literal(-1)))
        CFI R6 load(1, XDATA, add(CFA_XSP16, literal(-14)))
        CFI R7 load(1, XDATA, add(CFA_XSP16, literal(-6)))
        CFI V0 load(1, XDATA, add(CFA_XSP16, literal(-12)))
        CFI V1 load(1, XDATA, add(CFA_XSP16, literal(-11)))
        CFI V2 load(1, XDATA, add(CFA_XSP16, literal(-10)))
        CFI V3 load(1, XDATA, add(CFA_XSP16, literal(-9)))
        CFI V4 load(1, XDATA, add(CFA_XSP16, literal(-8)))
        CFI V5 load(1, XDATA, add(CFA_XSP16, literal(-7)))
        CFI ?BRET_EXT load(1, XDATA, add(CFA_XSP16, literal(-3)))
        CFI ?RET_HIGH load(1, XDATA, add(CFA_XSP16, literal(-4)))
        CFI ?RET_LOW load(1, XDATA, add(CFA_XSP16, literal(-5)))
        MOV     R7,#0x6
        LJMP    ?BANKED_LEAVE_XDATA
        CFI EndBlock cfiBlock4
//  267 
//  268 /*********************************************************************
//  269  * @fn          ZDP_NWKAddrOfInterestReq
//  270  *
//  271  * @brief       This builds and send a request message that has
//  272  *              NWKAddrOfInterest as its only parameter.
//  273  *
//  274  * @param       dstAddr - destination address
//  275  * @param       nwkAddr - 16 bit address
//  276  * @param       SecurityEnable - Security Options
//  277  *
//  278  * @return      afStatus_t
//  279  */

        RSEG BANKED_CODE:CODE:NOROOT(0)
//  280 afStatus_t ZDP_NWKAddrOfInterestReq( zAddrType_t *dstAddr, uint16 nwkAddr,
ZDP_NWKAddrOfInterestReq:
        CFI Block cfiBlock5 Using cfiCommon0
        CFI Function ZDP_NWKAddrOfInterestReq
        CODE
//  281                                      byte cmd, byte SecurityEnable )
//  282 {
        FUNCALL ZDP_NWKAddrOfInterestReq, fillAndSend
        LOCFRAME ISTACK, 0, STACK
        LOCFRAME PSTACK, 0, STACK
        LOCFRAME XSTACK, 12, STACK
        LOCFRAME IOVERLAY, 0, STATIC
        LOCFRAME DOVERLAY, 0, STATIC
        ARGFRAME ISTACK, 0, STACK
        ARGFRAME PSTACK, 0, STACK
        ARGFRAME XSTACK, 12, STACK
        ARGFRAME IOVERLAY, 0, STATIC
        ARGFRAME DOVERLAY, 0, STATIC
        MOV     A,#-0xa
        LCALL   ?BANKED_ENTER_XDATA
        CFI DPH0 load(1, XDATA, add(CFA_XSP16, literal(-1)))
        CFI DPL0 load(1, XDATA, add(CFA_XSP16, literal(-2)))
        CFI ?BRET_EXT load(1, XDATA, add(CFA_XSP16, literal(-3)))
        CFI ?RET_HIGH load(1, XDATA, add(CFA_XSP16, literal(-4)))
        CFI ?RET_LOW load(1, XDATA, add(CFA_XSP16, literal(-5)))
        CFI R7 load(1, XDATA, add(CFA_XSP16, literal(-6)))
        CFI V1 load(1, XDATA, add(CFA_XSP16, literal(-7)))
        CFI V0 load(1, XDATA, add(CFA_XSP16, literal(-8)))
        CFI VB load(1, XDATA, add(CFA_XSP16, literal(-9)))
        CFI R6 load(1, XDATA, add(CFA_XSP16, literal(-10)))
        CFI CFA_SP SP+0
        CFI CFA_XSP16 add(XSP16, 10)
        ; Saved register size: 10
        ; Auto size: 0
        MOV     A,R1
        MOV     R6,A
//  283   (void)SecurityEnable;  // Intentionally unreferenced parameter
//  284 
//  285   ZDP_TmpBuf[0] = LO_UINT16( nwkAddr );
        LCALL   ?Subroutine17 & 0xFFFF
//  286   ZDP_TmpBuf[1] = HI_UINT16( nwkAddr );
//  287 
//  288   return fillAndSend( &ZDP_TransID, dstAddr, cmd, 2 );
??CrossCallReturnLabel_10:
        ; Setup parameters for call to function fillAndSend
        MOV     ?V0 + 0,R6
        LJMP    ?Subroutine2 & 0xFFFF
        CFI EndBlock cfiBlock5
//  289 }
//  290 
//  291 /*********************************************************************
//  292  * Address Requests
//  293  */
//  294 
//  295 /*********************************************************************
//  296  * @fn          ZDP_NwkAddrReq
//  297  *
//  298  * @brief       This builds and send a NWK_addr_req message.  This
//  299  *              function sends a broadcast message looking for a 16
//  300  *              bit address with a 64 bit address as bait.
//  301  *
//  302  * @param       IEEEAddress - looking for this device
//  303  * @param       SecurityEnable - Security Options
//  304  *
//  305  * @return      afStatus_t
//  306  */

        RSEG BANKED_CODE:CODE:NOROOT(0)
//  307 afStatus_t ZDP_NwkAddrReq( uint8 *IEEEAddress, byte ReqType,
ZDP_NwkAddrReq:
        CFI Block cfiBlock6 Using cfiCommon0
        CFI Function ZDP_NwkAddrReq
        CODE
//  308                            byte StartIndex, byte SecurityEnable )
//  309 {
        FUNCALL ZDP_NwkAddrReq, sAddrExtCmp
        LOCFRAME ISTACK, 0, STACK
        LOCFRAME PSTACK, 0, STACK
        LOCFRAME XSTACK, 23, STACK
        LOCFRAME IOVERLAY, 0, STATIC
        LOCFRAME DOVERLAY, 0, STATIC
        ARGFRAME ISTACK, 0, STACK
        ARGFRAME PSTACK, 0, STACK
        ARGFRAME XSTACK, 23, STACK
        ARGFRAME IOVERLAY, 0, STATIC
        ARGFRAME DOVERLAY, 0, STATIC
        FUNCALL ZDP_NwkAddrReq, sAddrExtCpy
        LOCFRAME ISTACK, 0, STACK
        LOCFRAME PSTACK, 0, STACK
        LOCFRAME XSTACK, 23, STACK
        LOCFRAME IOVERLAY, 0, STATIC
        LOCFRAME DOVERLAY, 0, STATIC
        ARGFRAME ISTACK, 0, STACK
        ARGFRAME PSTACK, 0, STACK
        ARGFRAME XSTACK, 23, STACK
        ARGFRAME IOVERLAY, 0, STATIC
        ARGFRAME DOVERLAY, 0, STATIC
        FUNCALL ZDP_NwkAddrReq, fillAndSend
        LOCFRAME ISTACK, 0, STACK
        LOCFRAME PSTACK, 0, STACK
        LOCFRAME XSTACK, 25, STACK
        LOCFRAME IOVERLAY, 0, STATIC
        LOCFRAME DOVERLAY, 0, STATIC
        ARGFRAME ISTACK, 0, STACK
        ARGFRAME PSTACK, 0, STACK
        ARGFRAME XSTACK, 25, STACK
        ARGFRAME IOVERLAY, 0, STATIC
        ARGFRAME DOVERLAY, 0, STATIC
        MOV     A,#-0xe
        LCALL   ?BANKED_ENTER_XDATA
        CFI DPH0 load(1, XDATA, add(CFA_XSP16, literal(-1)))
        CFI DPL0 load(1, XDATA, add(CFA_XSP16, literal(-2)))
        CFI ?BRET_EXT load(1, XDATA, add(CFA_XSP16, literal(-3)))
        CFI ?RET_HIGH load(1, XDATA, add(CFA_XSP16, literal(-4)))
        CFI ?RET_LOW load(1, XDATA, add(CFA_XSP16, literal(-5)))
        CFI R7 load(1, XDATA, add(CFA_XSP16, literal(-6)))
        CFI V5 load(1, XDATA, add(CFA_XSP16, literal(-7)))
        CFI V4 load(1, XDATA, add(CFA_XSP16, literal(-8)))
        CFI V3 load(1, XDATA, add(CFA_XSP16, literal(-9)))
        CFI V2 load(1, XDATA, add(CFA_XSP16, literal(-10)))
        CFI V1 load(1, XDATA, add(CFA_XSP16, literal(-11)))
        CFI V0 load(1, XDATA, add(CFA_XSP16, literal(-12)))
        CFI VB load(1, XDATA, add(CFA_XSP16, literal(-13)))
        CFI R6 load(1, XDATA, add(CFA_XSP16, literal(-14)))
        CFI CFA_SP SP+0
        CFI CFA_XSP16 add(XSP16, 14)
        ; Saved register size: 14
        ; Auto size: 9
        MOV     A,#-0x9
        LCALL   ?ALLOC_XSTACK8
        CFI CFA_XSP16 add(XSP16, 23)
        MOV     A,R2
        MOV     R6,A
        MOV     A,R3
        MOV     R7,A
        MOV     ?V0 + 2,R1
        MOV     ?V0 + 3,R4
//  310   uint8 *pBuf = ZDP_TmpBuf;
        LCALL   ?Subroutine10 & 0xFFFF
//  311   byte len = Z_EXTADDR_LEN + 1 + 1;  // IEEEAddress + ReqType + StartIndex.
//  312   zAddrType_t dstAddr;
//  313 
//  314   (void)SecurityEnable;  // Intentionally unreferenced parameter
//  315 
//  316   if ( osal_ExtAddrEqual( saveExtAddr, IEEEAddress ) == FALSE )
??CrossCallReturnLabel_171:
        ; Setup parameters for call to function sAddrExtCmp
        MOV     A,R6
        MOV     R4,A
        MOV     A,R7
        MOV     R5,A
        MOV     R2,#saveExtAddr & 0xff
        MOV     R3,#(saveExtAddr >> 8) & 0xff
        LCALL   ??sAddrExtCmp?relay
        MOV     A,R1
        JNZ     ??ZDP_NwkAddrReq_0
//  317   {
//  318     dstAddr.addrMode = AddrBroadcast;
        MOV     A,#0x8
        LCALL   ?XSTACK_DISP0_8
        MOV     A,#0xf
        LCALL   ?Subroutine53 & 0xFFFF
//  319     dstAddr.addr.shortAddr = NWK_BROADCAST_SHORTADDR_DEVRXON;
//  320   }
??CrossCallReturnLabel_77:
        MOV     A,#-0x3
        MOVX    @DPTR,A
        INC     DPTR
        MOV     A,#-0x1
        SJMP    ??CrossCallReturnLabel_23
//  321   else
//  322   {
//  323     dstAddr.addrMode = Addr16Bit;
??ZDP_NwkAddrReq_0:
        MOV     A,#0x8
        LCALL   ?XSTACK_DISP0_8
        MOV     A,#0x2
        MOVX    @DPTR,A
//  324     dstAddr.addr.shortAddr = ZDAppNwkAddr.addr.shortAddr;
        MOV     DPTR,#ZDAppNwkAddr
        LCALL   ?Subroutine24 & 0xFFFF
//  325   }
??CrossCallReturnLabel_23:
        MOVX    @DPTR,A
//  326 
//  327   pBuf = osal_cpyExtAddr( pBuf, IEEEAddress );
        ; Setup parameters for call to function sAddrExtCpy
        MOV     A,R6
        MOV     R4,A
        MOV     A,R7
        MOV     R5,A
        MOV     R2,?V0 + 0
        MOV     R3,?V0 + 1
        LCALL   ?Subroutine69 & 0xFFFF
//  328 
//  329   *pBuf++ = ReqType;
??CrossCallReturnLabel_99:
        MOV     A,?V0 + 2
        MOVX    @DPTR,A
        INC     DPTR
//  330   *pBuf++ = StartIndex;
        MOV     A,?V0 + 3
        MOVX    @DPTR,A
//  331 
//  332   return fillAndSend( &ZDP_TransID, &dstAddr, NWK_addr_req, len );
        ; Setup parameters for call to function fillAndSend
        CLR     A
        MOV     ?V0 + 0,A
        MOV     ?V0 + 1,A
        MOV     R0,#?V0 + 0
        LCALL   ?PUSH_XSTACK_I_TWO
        CFI CFA_XSP16 add(XSP16, 25)
        MOV     R1,#0xa
        MOV     A,#0x2
        LCALL   ?XSTACK_DISP0_8
        LCALL   ?Subroutine60 & 0xFFFF
??CrossCallReturnLabel_198:
        LCALL   ?DEALLOC_XSTACK8
        CFI CFA_XSP16 add(XSP16, 23)
        MOV     A,#0x9
        LCALL   ?DEALLOC_XSTACK8
        CFI CFA_XSP16 add(XSP16, 14)
        LJMP    ?Subroutine1 & 0xFFFF
        CFI EndBlock cfiBlock6
//  333 }

        RSEG BANKED_CODE:CODE:NOROOT(0)
?Subroutine24:
        CFI Block cfiCond7 Using cfiCommon0
        CFI NoFunction
        CFI Conditional ??CrossCallReturnLabel_22
        CFI R6 load(1, XDATA, add(CFA_XSP16, literal(-16)))
        CFI VB load(1, XDATA, add(CFA_XSP16, literal(-15)))
        CFI V0 load(1, XDATA, add(CFA_XSP16, literal(-14)))
        CFI V1 load(1, XDATA, add(CFA_XSP16, literal(-13)))
        CFI V2 load(1, XDATA, add(CFA_XSP16, literal(-12)))
        CFI V3 load(1, XDATA, add(CFA_XSP16, literal(-11)))
        CFI V4 load(1, XDATA, add(CFA_XSP16, literal(-10)))
        CFI V5 load(1, XDATA, add(CFA_XSP16, literal(-9)))
        CFI V6 load(1, XDATA, add(CFA_XSP16, literal(-8)))
        CFI V7 load(1, XDATA, add(CFA_XSP16, literal(-7)))
        CFI R7 load(1, XDATA, add(CFA_XSP16, literal(-6)))
        CFI ?RET_LOW load(1, XDATA, add(CFA_XSP16, literal(-5)))
        CFI ?RET_HIGH load(1, XDATA, add(CFA_XSP16, literal(-4)))
        CFI ?BRET_EXT load(1, XDATA, add(CFA_XSP16, literal(-3)))
        CFI DPL0 load(1, XDATA, add(CFA_XSP16, literal(-2)))
        CFI DPH0 load(1, XDATA, add(CFA_XSP16, literal(-1)))
        CFI CFA_SP SP+0
        CFI CFA_XSP16 add(XSP16, 28)
        CFI Block cfiCond8 Using cfiCommon0
        CFI (cfiCond8) NoFunction
        CFI (cfiCond8) Conditional ??CrossCallReturnLabel_23
        CFI (cfiCond8) R6 load(1, XDATA, add(CFA_XSP16, literal(-14)))
        CFI (cfiCond8) VB load(1, XDATA, add(CFA_XSP16, literal(-13)))
        CFI (cfiCond8) V0 load(1, XDATA, add(CFA_XSP16, literal(-12)))
        CFI (cfiCond8) V1 load(1, XDATA, add(CFA_XSP16, literal(-11)))
        CFI (cfiCond8) V2 load(1, XDATA, add(CFA_XSP16, literal(-10)))
        CFI (cfiCond8) V3 load(1, XDATA, add(CFA_XSP16, literal(-9)))
        CFI (cfiCond8) V4 load(1, XDATA, add(CFA_XSP16, literal(-8)))
        CFI (cfiCond8) V5 load(1, XDATA, add(CFA_XSP16, literal(-7)))
        CFI (cfiCond8) R7 load(1, XDATA, add(CFA_XSP16, literal(-6)))
        CFI (cfiCond8) ?RET_LOW load(1, XDATA, add(CFA_XSP16, literal(-5)))
        CFI (cfiCond8) ?RET_HIGH load(1, XDATA, add(CFA_XSP16, literal(-4)))
        CFI (cfiCond8) ?BRET_EXT load(1, XDATA, add(CFA_XSP16, literal(-3)))
        CFI (cfiCond8) DPL0 load(1, XDATA, add(CFA_XSP16, literal(-2)))
        CFI (cfiCond8) DPH0 load(1, XDATA, add(CFA_XSP16, literal(-1)))
        CFI (cfiCond8) CFA_SP SP+0
        CFI (cfiCond8) CFA_XSP16 add(XSP16, 23)
        CFI Block cfiPicker9 Using cfiCommon1
        CFI (cfiPicker9) NoFunction
        CFI (cfiPicker9) Picker
        MOVX    A,@DPTR
        MOV     R0,A
        INC     DPTR
        MOVX    A,@DPTR
        MOV     R1,A
        MOV     DPL,?XSP + 0
        MOV     DPH,?XSP + 1
        MOV     A,R0
        MOVX    @DPTR,A
        INC     DPTR
        MOV     A,R1
        RET
        CFI EndBlock cfiCond7
        CFI EndBlock cfiCond8
        CFI EndBlock cfiPicker9
//  334 
//  335 /*********************************************************************
//  336  * @fn          ZDP_IEEEAddrReq
//  337  *
//  338  * @brief       This builds and send a IEEE_addr_req message.  This
//  339  *              function sends a unicast message looking for a 64
//  340  *              bit IEEE address with a 16 bit address as bait.
//  341  *
//  342  * @param       ReqType - ZDP_IEEEADDR_REQTYPE_SINGLE or
//  343  *                        ZDP_IEEEADDR_REQTYPE_EXTENDED
//  344  * @param       SecurityEnable - Security Options
//  345  *
//  346  * @return      afStatus_t
//  347  */

        RSEG BANKED_CODE:CODE:NOROOT(0)
//  348 afStatus_t ZDP_IEEEAddrReq( uint16 shortAddr, byte ReqType,
ZDP_IEEEAddrReq:
        CFI Block cfiBlock10 Using cfiCommon0
        CFI Function ZDP_IEEEAddrReq
        CODE
//  349                             byte StartIndex, byte SecurityEnable )
//  350 {
        FUNCALL ZDP_IEEEAddrReq, fillAndSend
        LOCFRAME ISTACK, 0, STACK
        LOCFRAME PSTACK, 0, STACK
        LOCFRAME XSTACK, 21, STACK
        LOCFRAME IOVERLAY, 0, STATIC
        LOCFRAME DOVERLAY, 0, STATIC
        ARGFRAME ISTACK, 0, STACK
        ARGFRAME PSTACK, 0, STACK
        ARGFRAME XSTACK, 21, STACK
        ARGFRAME IOVERLAY, 0, STATIC
        ARGFRAME DOVERLAY, 0, STATIC
        MOV     A,#-0xa
        LCALL   ?BANKED_ENTER_XDATA
        CFI DPH0 load(1, XDATA, add(CFA_XSP16, literal(-1)))
        CFI DPL0 load(1, XDATA, add(CFA_XSP16, literal(-2)))
        CFI ?BRET_EXT load(1, XDATA, add(CFA_XSP16, literal(-3)))
        CFI ?RET_HIGH load(1, XDATA, add(CFA_XSP16, literal(-4)))
        CFI ?RET_LOW load(1, XDATA, add(CFA_XSP16, literal(-5)))
        CFI R7 load(1, XDATA, add(CFA_XSP16, literal(-6)))
        CFI V1 load(1, XDATA, add(CFA_XSP16, literal(-7)))
        CFI V0 load(1, XDATA, add(CFA_XSP16, literal(-8)))
        CFI VB load(1, XDATA, add(CFA_XSP16, literal(-9)))
        CFI R6 load(1, XDATA, add(CFA_XSP16, literal(-10)))
        CFI CFA_SP SP+0
        CFI CFA_XSP16 add(XSP16, 10)
        ; Saved register size: 10
        ; Auto size: 9
        MOV     A,#-0x9
        LCALL   ?ALLOC_XSTACK8
        CFI CFA_XSP16 add(XSP16, 19)
        MOV     A,R1
        MOV     R6,A
        MOV     A,R4
        MOV     R7,A
//  351   uint8 *pBuf = ZDP_TmpBuf;
        LCALL   ??Subroutine113_0 & 0xFFFF
//  352   byte len = 2 + 1 + 1;  // shortAddr + ReqType + StartIndex.
//  353   zAddrType_t dstAddr;
//  354 
//  355   (void)SecurityEnable;  // Intentionally unreferenced parameter
//  356 
//  357   dstAddr.addrMode = (afAddrMode_t)Addr16Bit;
??CrossCallReturnLabel_274:
        MOV     A,#0x8
        LCALL   ?XSTACK_DISP0_8
        MOV     A,#0x2
        LCALL   ?Subroutine53 & 0xFFFF
//  358   dstAddr.addr.shortAddr = shortAddr;
??CrossCallReturnLabel_78:
        MOV     A,R2
        LCALL   ??Subroutine109_0 & 0xFFFF
//  359 
//  360   *pBuf++ = LO_UINT16( shortAddr );
??CrossCallReturnLabel_236:
        LCALL   ?Subroutine59 & 0xFFFF
//  361   *pBuf++ = HI_UINT16( shortAddr );
??CrossCallReturnLabel_234:
        INC     DPTR
//  362 
//  363   *pBuf++ = ReqType;
        MOV     A,R6
        MOVX    @DPTR,A
        INC     DPTR
//  364   *pBuf++ = StartIndex;
        MOV     A,R7
        MOVX    @DPTR,A
//  365 
//  366   return fillAndSend( &ZDP_TransID, &dstAddr, IEEE_addr_req, len );
        ; Setup parameters for call to function fillAndSend
        MOV     ?V0 + 0,#0x1
        MOV     ?V0 + 1,#0x0
        MOV     R0,#?V0 + 0
        LCALL   ?PUSH_XSTACK_I_TWO
        CFI CFA_XSP16 add(XSP16, 21)
        MOV     R1,#0x4
        CFI EndBlock cfiBlock10
        REQUIRE ?Subroutine8
        ; // Fall through to label ?Subroutine8
//  367 }

        RSEG BANKED_CODE:CODE:NOROOT(0)
?Subroutine8:
        CFI Block cfiBlock11 Using cfiCommon0
        CFI NoFunction
        CFI CFA_SP SP+0
        CFI CFA_XSP16 add(XSP16, 21)
        CFI VB load(1, XDATA, add(CFA_XSP16, literal(-9)))
        CFI DPL0 load(1, XDATA, add(CFA_XSP16, literal(-2)))
        CFI DPH0 load(1, XDATA, add(CFA_XSP16, literal(-1)))
        CFI R6 load(1, XDATA, add(CFA_XSP16, literal(-10)))
        CFI R7 load(1, XDATA, add(CFA_XSP16, literal(-6)))
        CFI V0 load(1, XDATA, add(CFA_XSP16, literal(-8)))
        CFI V1 load(1, XDATA, add(CFA_XSP16, literal(-7)))
        CFI ?BRET_EXT load(1, XDATA, add(CFA_XSP16, literal(-3)))
        CFI ?RET_HIGH load(1, XDATA, add(CFA_XSP16, literal(-4)))
        CFI ?RET_LOW load(1, XDATA, add(CFA_XSP16, literal(-5)))
        MOV     A,#0x2
        LCALL   ?XSTACK_DISP0_8
        LCALL   ?Subroutine60 & 0xFFFF
??CrossCallReturnLabel_199:
        LCALL   ?DEALLOC_XSTACK8
        CFI EndBlock cfiBlock11
        REQUIRE ??Subroutine85_0
        ; // Fall through to label ??Subroutine85_0

        RSEG BANKED_CODE:CODE:NOROOT(0)
??Subroutine85_0:
        CFI Block cfiBlock12 Using cfiCommon0
        CFI NoFunction
        CFI CFA_SP SP+0
        CFI CFA_XSP16 add(XSP16, 19)
        CFI VB load(1, XDATA, add(CFA_XSP16, literal(-9)))
        CFI DPL0 load(1, XDATA, add(CFA_XSP16, literal(-2)))
        CFI DPH0 load(1, XDATA, add(CFA_XSP16, literal(-1)))
        CFI R6 load(1, XDATA, add(CFA_XSP16, literal(-10)))
        CFI R7 load(1, XDATA, add(CFA_XSP16, literal(-6)))
        CFI V0 load(1, XDATA, add(CFA_XSP16, literal(-8)))
        CFI V1 load(1, XDATA, add(CFA_XSP16, literal(-7)))
        CFI ?BRET_EXT load(1, XDATA, add(CFA_XSP16, literal(-3)))
        CFI ?RET_HIGH load(1, XDATA, add(CFA_XSP16, literal(-4)))
        CFI ?RET_LOW load(1, XDATA, add(CFA_XSP16, literal(-5)))
        MOV     A,#0x9
        SJMP    ??Subroutine88_0
        CFI EndBlock cfiBlock12

        RSEG BANKED_CODE:CODE:NOROOT(0)
?Subroutine53:
        CFI Block cfiCond13 Using cfiCommon0
        CFI NoFunction
        CFI Conditional ??CrossCallReturnLabel_77
        CFI R6 load(1, XDATA, add(CFA_XSP16, literal(-14)))
        CFI VB load(1, XDATA, add(CFA_XSP16, literal(-13)))
        CFI V0 load(1, XDATA, add(CFA_XSP16, literal(-12)))
        CFI V1 load(1, XDATA, add(CFA_XSP16, literal(-11)))
        CFI V2 load(1, XDATA, add(CFA_XSP16, literal(-10)))
        CFI V3 load(1, XDATA, add(CFA_XSP16, literal(-9)))
        CFI V4 load(1, XDATA, add(CFA_XSP16, literal(-8)))
        CFI V5 load(1, XDATA, add(CFA_XSP16, literal(-7)))
        CFI R7 load(1, XDATA, add(CFA_XSP16, literal(-6)))
        CFI ?RET_LOW load(1, XDATA, add(CFA_XSP16, literal(-5)))
        CFI ?RET_HIGH load(1, XDATA, add(CFA_XSP16, literal(-4)))
        CFI ?BRET_EXT load(1, XDATA, add(CFA_XSP16, literal(-3)))
        CFI DPL0 load(1, XDATA, add(CFA_XSP16, literal(-2)))
        CFI DPH0 load(1, XDATA, add(CFA_XSP16, literal(-1)))
        CFI CFA_SP SP+0
        CFI CFA_XSP16 add(XSP16, 23)
        CFI Block cfiCond14 Using cfiCommon0
        CFI (cfiCond14) NoFunction
        CFI (cfiCond14) Conditional ??CrossCallReturnLabel_78
        CFI (cfiCond14) R6 load(1, XDATA, add(CFA_XSP16, literal(-10)))
        CFI (cfiCond14) VB load(1, XDATA, add(CFA_XSP16, literal(-9)))
        CFI (cfiCond14) V0 load(1, XDATA, add(CFA_XSP16, literal(-8)))
        CFI (cfiCond14) V1 load(1, XDATA, add(CFA_XSP16, literal(-7)))
        CFI (cfiCond14) R7 load(1, XDATA, add(CFA_XSP16, literal(-6)))
        CFI (cfiCond14) ?RET_LOW load(1, XDATA, add(CFA_XSP16, literal(-5)))
        CFI (cfiCond14) ?RET_HIGH load(1, XDATA, add(CFA_XSP16, literal(-4)))
        CFI (cfiCond14) ?BRET_EXT load(1, XDATA, add(CFA_XSP16, literal(-3)))
        CFI (cfiCond14) DPL0 load(1, XDATA, add(CFA_XSP16, literal(-2)))
        CFI (cfiCond14) DPH0 load(1, XDATA, add(CFA_XSP16, literal(-1)))
        CFI (cfiCond14) CFA_SP SP+0
        CFI (cfiCond14) CFA_XSP16 add(XSP16, 19)
        CFI Block cfiCond15 Using cfiCommon0
        CFI (cfiCond15) NoFunction
        CFI (cfiCond15) Conditional ??CrossCallReturnLabel_79
        CFI (cfiCond15) R6 load(1, XDATA, add(CFA_XSP16, literal(-10)))
        CFI (cfiCond15) VB load(1, XDATA, add(CFA_XSP16, literal(-9)))
        CFI (cfiCond15) V0 load(1, XDATA, add(CFA_XSP16, literal(-8)))
        CFI (cfiCond15) V1 load(1, XDATA, add(CFA_XSP16, literal(-7)))
        CFI (cfiCond15) R7 load(1, XDATA, add(CFA_XSP16, literal(-6)))
        CFI (cfiCond15) ?RET_LOW load(1, XDATA, add(CFA_XSP16, literal(-5)))
        CFI (cfiCond15) ?RET_HIGH load(1, XDATA, add(CFA_XSP16, literal(-4)))
        CFI (cfiCond15) ?BRET_EXT load(1, XDATA, add(CFA_XSP16, literal(-3)))
        CFI (cfiCond15) DPL0 load(1, XDATA, add(CFA_XSP16, literal(-2)))
        CFI (cfiCond15) DPH0 load(1, XDATA, add(CFA_XSP16, literal(-1)))
        CFI (cfiCond15) CFA_SP SP+0
        CFI (cfiCond15) CFA_XSP16 add(XSP16, 31)
        CFI Block cfiPicker16 Using cfiCommon1
        CFI (cfiPicker16) NoFunction
        CFI (cfiPicker16) Picker
        MOVX    @DPTR,A
        ; Setup parameters for call to function ZDO_SendMsgCBs
        MOV     DPL,?XSP + 0
        MOV     DPH,?XSP + 1
        RET
        CFI EndBlock cfiCond13
        CFI EndBlock cfiCond14
        CFI EndBlock cfiCond15
        CFI EndBlock cfiPicker16

        RSEG BANKED_CODE:CODE:NOROOT(0)
?Subroutine2:
        CFI Block cfiBlock17 Using cfiCommon0
        CFI NoFunction
        CFI CFA_SP SP+0
        CFI CFA_XSP16 add(XSP16, 10)
        CFI VB load(1, XDATA, add(CFA_XSP16, literal(-9)))
        CFI DPL0 load(1, XDATA, add(CFA_XSP16, literal(-2)))
        CFI DPH0 load(1, XDATA, add(CFA_XSP16, literal(-1)))
        CFI R6 load(1, XDATA, add(CFA_XSP16, literal(-10)))
        CFI R7 load(1, XDATA, add(CFA_XSP16, literal(-6)))
        CFI V0 load(1, XDATA, add(CFA_XSP16, literal(-8)))
        CFI V1 load(1, XDATA, add(CFA_XSP16, literal(-7)))
        CFI ?BRET_EXT load(1, XDATA, add(CFA_XSP16, literal(-3)))
        CFI ?RET_HIGH load(1, XDATA, add(CFA_XSP16, literal(-4)))
        CFI ?RET_LOW load(1, XDATA, add(CFA_XSP16, literal(-5)))
        MOV     ?V0 + 1,#0x0
        MOV     R0,#?V0 + 0
        LCALL   ?PUSH_XSTACK_I_TWO
        CFI CFA_XSP16 add(XSP16, 12)
        MOV     R1,#0x2
        CFI EndBlock cfiBlock17
        REQUIRE ??Subroutine86_0
        ; // Fall through to label ??Subroutine86_0

        RSEG BANKED_CODE:CODE:NOROOT(0)
??Subroutine86_0:
        CFI Block cfiBlock18 Using cfiCommon0
        CFI NoFunction
        CFI CFA_SP SP+0
        CFI CFA_XSP16 add(XSP16, 12)
        CFI VB load(1, XDATA, add(CFA_XSP16, literal(-9)))
        CFI DPL0 load(1, XDATA, add(CFA_XSP16, literal(-2)))
        CFI DPH0 load(1, XDATA, add(CFA_XSP16, literal(-1)))
        CFI R6 load(1, XDATA, add(CFA_XSP16, literal(-10)))
        CFI R7 load(1, XDATA, add(CFA_XSP16, literal(-6)))
        CFI V0 load(1, XDATA, add(CFA_XSP16, literal(-8)))
        CFI V1 load(1, XDATA, add(CFA_XSP16, literal(-7)))
        CFI ?BRET_EXT load(1, XDATA, add(CFA_XSP16, literal(-3)))
        CFI ?RET_HIGH load(1, XDATA, add(CFA_XSP16, literal(-4)))
        CFI ?RET_LOW load(1, XDATA, add(CFA_XSP16, literal(-5)))
        MOV     A,R2
        MOV     R4,A
        MOV     A,R3
        MOV     R5,A
        MOV     R2,#ZDP_TransID & 0xff
        MOV     R3,#(ZDP_TransID >> 8) & 0xff
        CFI EndBlock cfiBlock18
        REQUIRE ??Subroutine87_0
        ; // Fall through to label ??Subroutine87_0

        RSEG BANKED_CODE:CODE:NOROOT(0)
??Subroutine87_0:
        CFI Block cfiBlock19 Using cfiCommon0
        CFI NoFunction
        CFI CFA_SP SP+0
        CFI CFA_XSP16 add(XSP16, 12)
        CFI VB load(1, XDATA, add(CFA_XSP16, literal(-9)))
        CFI DPL0 load(1, XDATA, add(CFA_XSP16, literal(-2)))
        CFI DPH0 load(1, XDATA, add(CFA_XSP16, literal(-1)))
        CFI R6 load(1, XDATA, add(CFA_XSP16, literal(-10)))
        CFI R7 load(1, XDATA, add(CFA_XSP16, literal(-6)))
        CFI V0 load(1, XDATA, add(CFA_XSP16, literal(-8)))
        CFI V1 load(1, XDATA, add(CFA_XSP16, literal(-7)))
        CFI ?BRET_EXT load(1, XDATA, add(CFA_XSP16, literal(-3)))
        CFI ?RET_HIGH load(1, XDATA, add(CFA_XSP16, literal(-4)))
        CFI ?RET_LOW load(1, XDATA, add(CFA_XSP16, literal(-5)))
        LCALL   ??Subroutine107_0 & 0xFFFF
        CFI EndBlock cfiBlock19
??CrossCallReturnLabel_209:
        REQUIRE ??Subroutine88_0
        ; // Fall through to label ??Subroutine88_0

        RSEG BANKED_CODE:CODE:NOROOT(0)
??Subroutine88_0:
        CFI Block cfiBlock20 Using cfiCommon0
        CFI NoFunction
        CFI CFA_SP SP+0
        CFI CFA_XSP16 add(XSP16, 19)
        CFI VB load(1, XDATA, add(CFA_XSP16, literal(-9)))
        CFI DPL0 load(1, XDATA, add(CFA_XSP16, literal(-2)))
        CFI DPH0 load(1, XDATA, add(CFA_XSP16, literal(-1)))
        CFI R6 load(1, XDATA, add(CFA_XSP16, literal(-10)))
        CFI R7 load(1, XDATA, add(CFA_XSP16, literal(-6)))
        CFI V0 load(1, XDATA, add(CFA_XSP16, literal(-8)))
        CFI V1 load(1, XDATA, add(CFA_XSP16, literal(-7)))
        CFI ?BRET_EXT load(1, XDATA, add(CFA_XSP16, literal(-3)))
        CFI ?RET_HIGH load(1, XDATA, add(CFA_XSP16, literal(-4)))
        CFI ?RET_LOW load(1, XDATA, add(CFA_XSP16, literal(-5)))
        CFI Invalid
        LCALL   ?DEALLOC_XSTACK8
        CFI CFA_XSP16 add(XSP16, 10)
        CFI Valid
        MOV     R7,#0x2
        LJMP    ?BANKED_LEAVE_XDATA
        CFI EndBlock cfiBlock20
//  368 
//  369 /*********************************************************************
//  370  * @fn          ZDP_MatchDescReq
//  371  *
//  372  * @brief       This builds and send a Match_Desc_req message.  This
//  373  *              function sends a broadcast or unicast message
//  374  *              requesting the list of endpoint/interfaces that
//  375  *              match profile ID and cluster IDs.
//  376  *
//  377  * @param       dstAddr - destination address
//  378  * @param       nwkAddr - network address of interest
//  379  * @param       ProfileID - Profile ID
//  380  * @param       NumInClusters - number of input clusters
//  381  * @param       InClusterList - input cluster ID list
//  382  * @param       NumOutClusters - number of output clusters
//  383  * @param       OutClusterList - output cluster ID list
//  384  * @param       SecurityEnable - Security Options
//  385  *
//  386  * @return      afStatus_t
//  387  */

        RSEG BANKED_CODE:CODE:NOROOT(0)
//  388 afStatus_t ZDP_MatchDescReq( zAddrType_t *dstAddr, uint16 nwkAddr,
ZDP_MatchDescReq:
        CFI Block cfiBlock21 Using cfiCommon0
        CFI Function ZDP_MatchDescReq
        CODE
//  389                                 uint16 ProfileID,
//  390                                 byte NumInClusters, cId_t *InClusterList,
//  391                                 byte NumOutClusters, cId_t *OutClusterList,
//  392                                 byte SecurityEnable )
//  393 {
        FUNCALL ZDP_MatchDescReq, fillAndSend
        LOCFRAME ISTACK, 0, STACK
        LOCFRAME PSTACK, 0, STACK
        LOCFRAME XSTACK, 18, STACK
        LOCFRAME IOVERLAY, 0, STATIC
        LOCFRAME DOVERLAY, 0, STATIC
        ARGFRAME ISTACK, 0, STACK
        ARGFRAME PSTACK, 0, STACK
        ARGFRAME XSTACK, 18, STACK
        ARGFRAME IOVERLAY, 0, STATIC
        ARGFRAME DOVERLAY, 0, STATIC
        MOV     A,#-0x10
        LCALL   ?BANKED_ENTER_XDATA
        CFI DPH0 load(1, XDATA, add(CFA_XSP16, literal(-1)))
        CFI DPL0 load(1, XDATA, add(CFA_XSP16, literal(-2)))
        CFI ?BRET_EXT load(1, XDATA, add(CFA_XSP16, literal(-3)))
        CFI ?RET_HIGH load(1, XDATA, add(CFA_XSP16, literal(-4)))
        CFI ?RET_LOW load(1, XDATA, add(CFA_XSP16, literal(-5)))
        CFI R7 load(1, XDATA, add(CFA_XSP16, literal(-6)))
        CFI V7 load(1, XDATA, add(CFA_XSP16, literal(-7)))
        CFI V6 load(1, XDATA, add(CFA_XSP16, literal(-8)))
        CFI V5 load(1, XDATA, add(CFA_XSP16, literal(-9)))
        CFI V4 load(1, XDATA, add(CFA_XSP16, literal(-10)))
        CFI V3 load(1, XDATA, add(CFA_XSP16, literal(-11)))
        CFI V2 load(1, XDATA, add(CFA_XSP16, literal(-12)))
        CFI V1 load(1, XDATA, add(CFA_XSP16, literal(-13)))
        CFI V0 load(1, XDATA, add(CFA_XSP16, literal(-14)))
        CFI VB load(1, XDATA, add(CFA_XSP16, literal(-15)))
        CFI R6 load(1, XDATA, add(CFA_XSP16, literal(-16)))
        CFI CFA_SP SP+0
        CFI CFA_XSP16 add(XSP16, 16)
        ; Saved register size: 16
        ; Auto size: 0
        MOV     A,R1
        MOV     R6,A
        MOV     A,#0x10
        LCALL   ?XSTACK_DISP0_8
        LCALL   ??Subroutine99_0 & 0xFFFF
??CrossCallReturnLabel_163:
        MOV     A,#0x12
        LCALL   ?XSTACK_DISP0_8
        MOVX    A,@DPTR
        MOV     ?V0 + 6,A
        INC     DPTR
        MOVX    A,@DPTR
        MOV     ?V0 + 7,A
        MOV     A,#0x14
        LCALL   ?XSTACK_DISP0_8
        MOVX    A,@DPTR
        MOV     ?V0 + 2,A
        MOV     A,#0x15
        LCALL   ?XSTACK_DISP0_8
        LCALL   ?Subroutine32 & 0xFFFF
//  394   uint8 *pBuf = ZDP_TmpBuf;
??CrossCallReturnLabel_36:
        MOV     R0,A
        INC     DPTR
        MOVX    A,@DPTR
        MOV     R1,A
//  395   // nwkAddr+ProfileID+NumInClusters+NumOutClusters.
//  396   byte i, len = 2 + 2 + 1 + 1;  // nwkAddr+ProfileID+NumInClusters+NumOutClusters.
//  397 
//  398   (void)SecurityEnable;  // Intentionally unreferenced parameter
//  399 
//  400   len += (NumInClusters + NumOutClusters) * sizeof(uint16);
        MOV     A,R6
        ADD     A,?V0 + 2
        CLR     C
        RLC     A
        ADD     A,#0x6
        MOV     R7,A
//  401 
//  402   if ( len >= ZDP_BUF_SZ-1 )
        CLR     C
        SUBB    A,#0x4f
        JC      ??ZDP_MatchDescReq_0
//  403   {
//  404     return afStatus_MEM_FAIL;
        MOV     R1,#0x10
        LJMP    ??ZDP_MatchDescReq_1 & 0xFFFF
//  405   }
//  406 
//  407   // The spec changed in Zigbee 2007 (2.4.3.1.7.1) to not allow sending
//  408   // this command to 0xFFFF.  So, here we will filter this and replace 
//  409   // with 0xFFFD to only send to devices with RX ON.  This includes the 
//  410   // network address of interest.
//  411   if ( ((dstAddr->addrMode == AddrBroadcast) || (dstAddr->addrMode == Addr16Bit))
//  412       && (dstAddr->addr.shortAddr == NWK_BROADCAST_SHORTADDR_DEVALL) )
??ZDP_MatchDescReq_0:
        MOV     DPL,R2
        MOV     DPH,R3
        INC     DPTR
        INC     DPTR
        INC     DPTR
        INC     DPTR
        INC     DPTR
        INC     DPTR
        INC     DPTR
        INC     DPTR
        MOVX    A,@DPTR
        MOV     ?V0 + 3,A
        MOV     A,#0xf
        XRL     A,?V0 + 3
        JZ      ??ZDP_MatchDescReq_2
        MOV     A,#0x2
        XRL     A,?V0 + 3
        JNZ     ??ZDP_MatchDescReq_3
??ZDP_MatchDescReq_2:
        MOV     DPL,R2
        MOV     DPH,R3
        MOVX    A,@DPTR
        CPL     A
        JNZ     ??ZDP_MatchDescReq_4
        INC     DPTR
        MOVX    A,@DPTR
        CPL     A
??ZDP_MatchDescReq_4:
        JNZ     ??ZDP_MatchDescReq_3
//  413   {
//  414     dstAddr->addr.shortAddr = NWK_BROADCAST_SHORTADDR_DEVRXON;
        MOV     DPL,R2
        MOV     DPH,R3
        MOV     A,#-0x3
        MOVX    @DPTR,A
        INC     DPTR
        MOV     A,#-0x1
        MOVX    @DPTR,A
//  415   }
//  416   if ( nwkAddr == NWK_BROADCAST_SHORTADDR_DEVALL )
??ZDP_MatchDescReq_3:
        MOV     A,#-0x1
        XRL     A,R4
        JNZ     ??ZDP_MatchDescReq_5
        MOV     A,#-0x1
        XRL     A,R5
??ZDP_MatchDescReq_5:
        JNZ     ??ZDP_MatchDescReq_6
//  417   {
//  418     nwkAddr = NWK_BROADCAST_SHORTADDR_DEVRXON;
        MOV     R4,#-0x3
        MOV     R5,#-0x1
//  419   }
//  420   
//  421   *pBuf++ = LO_UINT16( nwkAddr );   // NWKAddrOfInterest
??ZDP_MatchDescReq_6:
        MOV     A,R4
        MOV     DPL,R0
        MOV     DPH,R1
        MOVX    @DPTR,A
        INC     DPTR
//  422   *pBuf++ = HI_UINT16( nwkAddr );
        MOV     A,R5
        LCALL   ?Subroutine47 & 0xFFFF
//  423 
//  424   *pBuf++ = LO_UINT16( ProfileID );   // Profile ID
//  425   *pBuf++ = HI_UINT16( ProfileID );
//  426 
//  427   *pBuf++ = NumInClusters; // Input cluster list
??CrossCallReturnLabel_64:
        MOV     A,R6
        LCALL   ?Subroutine49 & 0xFFFF
//  428   if ( NumInClusters )
??CrossCallReturnLabel_68:
        JZ      ??ZDP_MatchDescReq_7
//  429   {
//  430     for (i=0; i<NumInClusters; ++i)  {
        MOV     R4,?V0 + 6
        MOV     R5,?V0 + 7
        MOV     ?V0 + 0,R6
//  431       *pBuf++ = LO_UINT16( InClusterList[i] );
??ZDP_MatchDescReq_8:
        LCALL   ?Subroutine11 & 0xFFFF
//  432       *pBuf++ = HI_UINT16( InClusterList[i] );
//  433     }
??CrossCallReturnLabel_0:
        DEC     ?V0 + 0
        MOV     A,?V0 + 0
        JNZ     ??ZDP_MatchDescReq_8
//  434   }
//  435 
//  436   *pBuf++ = NumOutClusters; // Output cluster list
??ZDP_MatchDescReq_7:
        MOV     DPL,R0
        MOV     DPH,R1
        MOV     A,?V0 + 2
        LCALL   ?Subroutine49 & 0xFFFF
//  437   if ( NumOutClusters )
??CrossCallReturnLabel_69:
        JZ      ??ZDP_MatchDescReq_9
//  438   {
//  439     for (i=0; i<NumOutClusters; ++i)  {
        MOV     R4,?V0 + 4
        MOV     R5,?V0 + 5
        MOV     ?V0 + 1,A
//  440       *pBuf++ = LO_UINT16( OutClusterList[i] );
??ZDP_MatchDescReq_10:
        LCALL   ?Subroutine11 & 0xFFFF
//  441       *pBuf++ = HI_UINT16( OutClusterList[i] );
//  442     }
??CrossCallReturnLabel_1:
        DEC     ?V0 + 1
        MOV     A,?V0 + 1
        JNZ     ??ZDP_MatchDescReq_10
//  443   }
//  444 
//  445   return fillAndSend( &ZDP_TransID, dstAddr, Match_Desc_req, len );
??ZDP_MatchDescReq_9:
        ; Setup parameters for call to function fillAndSend
        MOV     ?V0 + 2,#0x6
        MOV     ?V0 + 3,#0x0
        MOV     R0,#?V0 + 2
        LCALL   ?PUSH_XSTACK_I_TWO
        CFI CFA_XSP16 add(XSP16, 18)
        MOV     A,R7
        MOV     R1,A
        MOV     A,R2
        MOV     R4,A
        MOV     A,R3
        MOV     R5,A
        LCALL   ??Subroutine106_0 & 0xFFFF
??CrossCallReturnLabel_201:
        LCALL   ?DEALLOC_XSTACK8
        CFI CFA_XSP16 add(XSP16, 16)
??ZDP_MatchDescReq_1:
        LJMP    ??Subroutine84_0 & 0xFFFF
        CFI EndBlock cfiBlock21
//  446 }

        RSEG BANKED_CODE:CODE:NOROOT(0)
?Subroutine11:
        CFI Block cfiCond22 Using cfiCommon0
        CFI NoFunction
        CFI Conditional ??CrossCallReturnLabel_0
        CFI R6 load(1, XDATA, add(CFA_XSP16, literal(-16)))
        CFI VB load(1, XDATA, add(CFA_XSP16, literal(-15)))
        CFI V0 load(1, XDATA, add(CFA_XSP16, literal(-14)))
        CFI V1 load(1, XDATA, add(CFA_XSP16, literal(-13)))
        CFI V2 load(1, XDATA, add(CFA_XSP16, literal(-12)))
        CFI V3 load(1, XDATA, add(CFA_XSP16, literal(-11)))
        CFI V4 load(1, XDATA, add(CFA_XSP16, literal(-10)))
        CFI V5 load(1, XDATA, add(CFA_XSP16, literal(-9)))
        CFI V6 load(1, XDATA, add(CFA_XSP16, literal(-8)))
        CFI V7 load(1, XDATA, add(CFA_XSP16, literal(-7)))
        CFI R7 load(1, XDATA, add(CFA_XSP16, literal(-6)))
        CFI ?RET_LOW load(1, XDATA, add(CFA_XSP16, literal(-5)))
        CFI ?RET_HIGH load(1, XDATA, add(CFA_XSP16, literal(-4)))
        CFI ?BRET_EXT load(1, XDATA, add(CFA_XSP16, literal(-3)))
        CFI DPL0 load(1, XDATA, add(CFA_XSP16, literal(-2)))
        CFI DPH0 load(1, XDATA, add(CFA_XSP16, literal(-1)))
        CFI CFA_SP SP+0
        CFI CFA_XSP16 add(XSP16, 16)
        CFI Block cfiCond23 Using cfiCommon0
        CFI (cfiCond23) NoFunction
        CFI (cfiCond23) Conditional ??CrossCallReturnLabel_1
        CFI (cfiCond23) R6 load(1, XDATA, add(CFA_XSP16, literal(-16)))
        CFI (cfiCond23) VB load(1, XDATA, add(CFA_XSP16, literal(-15)))
        CFI (cfiCond23) V0 load(1, XDATA, add(CFA_XSP16, literal(-14)))
        CFI (cfiCond23) V1 load(1, XDATA, add(CFA_XSP16, literal(-13)))
        CFI (cfiCond23) V2 load(1, XDATA, add(CFA_XSP16, literal(-12)))
        CFI (cfiCond23) V3 load(1, XDATA, add(CFA_XSP16, literal(-11)))
        CFI (cfiCond23) V4 load(1, XDATA, add(CFA_XSP16, literal(-10)))
        CFI (cfiCond23) V5 load(1, XDATA, add(CFA_XSP16, literal(-9)))
        CFI (cfiCond23) V6 load(1, XDATA, add(CFA_XSP16, literal(-8)))
        CFI (cfiCond23) V7 load(1, XDATA, add(CFA_XSP16, literal(-7)))
        CFI (cfiCond23) R7 load(1, XDATA, add(CFA_XSP16, literal(-6)))
        CFI (cfiCond23) ?RET_LOW load(1, XDATA, add(CFA_XSP16, literal(-5)))
        CFI (cfiCond23) ?RET_HIGH load(1, XDATA, add(CFA_XSP16, literal(-4)))
        CFI (cfiCond23) ?BRET_EXT load(1, XDATA, add(CFA_XSP16, literal(-3)))
        CFI (cfiCond23) DPL0 load(1, XDATA, add(CFA_XSP16, literal(-2)))
        CFI (cfiCond23) DPH0 load(1, XDATA, add(CFA_XSP16, literal(-1)))
        CFI (cfiCond23) CFA_SP SP+0
        CFI (cfiCond23) CFA_XSP16 add(XSP16, 16)
        CFI Block cfiPicker24 Using cfiCommon1
        CFI (cfiPicker24) NoFunction
        CFI (cfiPicker24) Picker
        MOV     DPL,R4
        MOV     DPH,R5
        LCALL   ?Subroutine72 & 0xFFFF
??CrossCallReturnLabel_136:
        LCALL   ?Subroutine74 & 0xFFFF
??CrossCallReturnLabel_196:
        MOV     A,R4
        ADD     A,#0x2
        INC     R4
        INC     R4
        MOV     A,R5
        ADDC    A,#0x0
        MOV     R5,A
        RET
        CFI EndBlock cfiCond22
        CFI EndBlock cfiCond23
        CFI EndBlock cfiPicker24
//  447 
//  448 /*********************************************************************
//  449  * @fn          ZDP_SimpleDescReq
//  450  *
//  451  * @brief       This builds and send a NWK_Simple_Desc_req
//  452  *              message.  This function sends unicast message to the
//  453  *              destination device.
//  454  *
//  455  * @param       dstAddr - destination address
//  456  * @param       nwkAddr - 16 bit address
//  457  * @param       epIntf - endpoint/interface
//  458  * @param       SecurityEnable - Security Options
//  459  *
//  460  * @return      afStatus_t
//  461  */

        RSEG BANKED_CODE:CODE:NOROOT(0)
//  462 afStatus_t ZDP_SimpleDescReq( zAddrType_t *dstAddr, uint16 nwkAddr,
ZDP_SimpleDescReq:
        CFI Block cfiBlock25 Using cfiCommon0
        CFI Function ZDP_SimpleDescReq
        CODE
//  463                                     byte endPoint, byte SecurityEnable )
//  464 
//  465 {
        FUNCALL ZDP_SimpleDescReq, fillAndSend
        LOCFRAME ISTACK, 0, STACK
        LOCFRAME PSTACK, 0, STACK
        LOCFRAME XSTACK, 12, STACK
        LOCFRAME IOVERLAY, 0, STATIC
        LOCFRAME DOVERLAY, 0, STATIC
        ARGFRAME ISTACK, 0, STACK
        ARGFRAME PSTACK, 0, STACK
        ARGFRAME XSTACK, 12, STACK
        ARGFRAME IOVERLAY, 0, STATIC
        ARGFRAME DOVERLAY, 0, STATIC
        MOV     A,#-0xa
        LCALL   ?BANKED_ENTER_XDATA
        CFI DPH0 load(1, XDATA, add(CFA_XSP16, literal(-1)))
        CFI DPL0 load(1, XDATA, add(CFA_XSP16, literal(-2)))
        CFI ?BRET_EXT load(1, XDATA, add(CFA_XSP16, literal(-3)))
        CFI ?RET_HIGH load(1, XDATA, add(CFA_XSP16, literal(-4)))
        CFI ?RET_LOW load(1, XDATA, add(CFA_XSP16, literal(-5)))
        CFI R7 load(1, XDATA, add(CFA_XSP16, literal(-6)))
        CFI V1 load(1, XDATA, add(CFA_XSP16, literal(-7)))
        CFI V0 load(1, XDATA, add(CFA_XSP16, literal(-8)))
        CFI VB load(1, XDATA, add(CFA_XSP16, literal(-9)))
        CFI R6 load(1, XDATA, add(CFA_XSP16, literal(-10)))
        CFI CFA_SP SP+0
        CFI CFA_XSP16 add(XSP16, 10)
        ; Saved register size: 10
        ; Auto size: 0
//  466   (void)SecurityEnable;  // Intentionally unreferenced parameter
//  467 
//  468   ZDP_TmpBuf[0] = LO_UINT16( nwkAddr );
        LCALL   ?Subroutine17 & 0xFFFF
//  469   ZDP_TmpBuf[1] = HI_UINT16( nwkAddr );
//  470   ZDP_TmpBuf[2] = endPoint;
??CrossCallReturnLabel_11:
        LCALL   ?Subroutine27 & 0xFFFF
//  471 
//  472   return fillAndSend( &ZDP_TransID, dstAddr, Simple_Desc_req, 3 );
??CrossCallReturnLabel_30:
        ; Setup parameters for call to function fillAndSend
        MOV     ?V0 + 0,#0x4
        MOV     ?V0 + 1,#0x0
        MOV     R0,#?V0 + 0
        LCALL   ?PUSH_XSTACK_I_TWO
        CFI CFA_XSP16 add(XSP16, 12)
        MOV     R1,#0x3
        LJMP    ??Subroutine86_0 & 0xFFFF
        CFI EndBlock cfiBlock25
//  473 }

        RSEG BANKED_CODE:CODE:NOROOT(0)
?Subroutine17:
        CFI Block cfiCond26 Using cfiCommon0
        CFI NoFunction
        CFI Conditional ??CrossCallReturnLabel_10
        CFI R6 load(1, XDATA, add(CFA_XSP16, literal(-10)))
        CFI VB load(1, XDATA, add(CFA_XSP16, literal(-9)))
        CFI V0 load(1, XDATA, add(CFA_XSP16, literal(-8)))
        CFI V1 load(1, XDATA, add(CFA_XSP16, literal(-7)))
        CFI R7 load(1, XDATA, add(CFA_XSP16, literal(-6)))
        CFI ?RET_LOW load(1, XDATA, add(CFA_XSP16, literal(-5)))
        CFI ?RET_HIGH load(1, XDATA, add(CFA_XSP16, literal(-4)))
        CFI ?BRET_EXT load(1, XDATA, add(CFA_XSP16, literal(-3)))
        CFI DPL0 load(1, XDATA, add(CFA_XSP16, literal(-2)))
        CFI DPH0 load(1, XDATA, add(CFA_XSP16, literal(-1)))
        CFI CFA_SP SP+0
        CFI CFA_XSP16 add(XSP16, 10)
        CFI Block cfiCond27 Using cfiCommon0
        CFI (cfiCond27) NoFunction
        CFI (cfiCond27) Conditional ??CrossCallReturnLabel_11
        CFI (cfiCond27) R6 load(1, XDATA, add(CFA_XSP16, literal(-10)))
        CFI (cfiCond27) VB load(1, XDATA, add(CFA_XSP16, literal(-9)))
        CFI (cfiCond27) V0 load(1, XDATA, add(CFA_XSP16, literal(-8)))
        CFI (cfiCond27) V1 load(1, XDATA, add(CFA_XSP16, literal(-7)))
        CFI (cfiCond27) R7 load(1, XDATA, add(CFA_XSP16, literal(-6)))
        CFI (cfiCond27) ?RET_LOW load(1, XDATA, add(CFA_XSP16, literal(-5)))
        CFI (cfiCond27) ?RET_HIGH load(1, XDATA, add(CFA_XSP16, literal(-4)))
        CFI (cfiCond27) ?BRET_EXT load(1, XDATA, add(CFA_XSP16, literal(-3)))
        CFI (cfiCond27) DPL0 load(1, XDATA, add(CFA_XSP16, literal(-2)))
        CFI (cfiCond27) DPH0 load(1, XDATA, add(CFA_XSP16, literal(-1)))
        CFI (cfiCond27) CFA_SP SP+0
        CFI (cfiCond27) CFA_XSP16 add(XSP16, 10)
        CFI Block cfiPicker28 Using cfiCommon1
        CFI (cfiPicker28) NoFunction
        CFI (cfiPicker28) Picker
        MOV     DPTR,#ZDP_TmpBuf
        LCALL   ?Subroutine79 & 0xFFFF
??CrossCallReturnLabel_149:
        MOV     A,R4
        MOVX    @DPTR,A
        LCALL   ?Subroutine76 & 0xFFFF
??CrossCallReturnLabel_121:
        MOV     A,R5
        MOVX    @DPTR,A
        RET
        CFI EndBlock cfiCond26
        CFI EndBlock cfiCond27
        CFI EndBlock cfiPicker28
//  474 
//  475 /*********************************************************************
//  476  * @fn          ZDP_UserDescSet
//  477  *
//  478  * @brief       This builds and send a User_Desc_set message to set
//  479  *              the user descriptor.  This function sends unicast
//  480  *              message to the destination device.
//  481  *
//  482  * @param       dstAddr - destination address
//  483  * @param       nwkAddr - 16 bit address
//  484  * @param       UserDescriptor - user descriptor
//  485  * @param       SecurityEnable - Security Options
//  486  *
//  487  * @return      afStatus_t
//  488  */

        RSEG BANKED_CODE:CODE:NOROOT(0)
//  489 afStatus_t ZDP_UserDescSet( zAddrType_t *dstAddr, uint16 nwkAddr,
ZDP_UserDescSet:
        CFI Block cfiBlock29 Using cfiCommon0
        CFI Function ZDP_UserDescSet
        CODE
//  490                           UserDescriptorFormat_t *UserDescriptor,
//  491                           byte SecurityEnable )
//  492 {
        FUNCALL ZDP_UserDescSet, osal_memcpy
        LOCFRAME ISTACK, 1, STACK
        LOCFRAME PSTACK, 0, STACK
        LOCFRAME XSTACK, 22, STACK
        LOCFRAME IOVERLAY, 0, STATIC
        LOCFRAME DOVERLAY, 0, STATIC
        ARGFRAME ISTACK, 1, STACK
        ARGFRAME PSTACK, 0, STACK
        ARGFRAME XSTACK, 22, STACK
        ARGFRAME IOVERLAY, 0, STATIC
        ARGFRAME DOVERLAY, 0, STATIC
        FUNCALL ZDP_UserDescSet, osal_memset
        LOCFRAME ISTACK, 0, STACK
        LOCFRAME PSTACK, 0, STACK
        LOCFRAME XSTACK, 19, STACK
        LOCFRAME IOVERLAY, 0, STATIC
        LOCFRAME DOVERLAY, 0, STATIC
        ARGFRAME ISTACK, 0, STACK
        ARGFRAME PSTACK, 0, STACK
        ARGFRAME XSTACK, 19, STACK
        ARGFRAME IOVERLAY, 0, STATIC
        ARGFRAME DOVERLAY, 0, STATIC
        FUNCALL ZDP_UserDescSet, fillAndSend
        LOCFRAME ISTACK, 0, STACK
        LOCFRAME PSTACK, 0, STACK
        LOCFRAME XSTACK, 21, STACK
        LOCFRAME IOVERLAY, 0, STATIC
        LOCFRAME DOVERLAY, 0, STATIC
        ARGFRAME ISTACK, 0, STACK
        ARGFRAME PSTACK, 0, STACK
        ARGFRAME XSTACK, 21, STACK
        ARGFRAME IOVERLAY, 0, STATIC
        ARGFRAME DOVERLAY, 0, STATIC
        MOV     A,#-0x13
        LCALL   ?BANKED_ENTER_XDATA
        CFI DPH0 load(1, XDATA, add(CFA_XSP16, literal(-1)))
        CFI DPL0 load(1, XDATA, add(CFA_XSP16, literal(-2)))
        CFI ?BRET_EXT load(1, XDATA, add(CFA_XSP16, literal(-3)))
        CFI ?RET_HIGH load(1, XDATA, add(CFA_XSP16, literal(-4)))
        CFI ?RET_LOW load(1, XDATA, add(CFA_XSP16, literal(-5)))
        CFI R7 load(1, XDATA, add(CFA_XSP16, literal(-6)))
        CFI V10 load(1, XDATA, add(CFA_XSP16, literal(-7)))
        CFI V9 load(1, XDATA, add(CFA_XSP16, literal(-8)))
        CFI V8 load(1, XDATA, add(CFA_XSP16, literal(-9)))
        CFI V7 load(1, XDATA, add(CFA_XSP16, literal(-10)))
        CFI V6 load(1, XDATA, add(CFA_XSP16, literal(-11)))
        CFI V5 load(1, XDATA, add(CFA_XSP16, literal(-12)))
        CFI V4 load(1, XDATA, add(CFA_XSP16, literal(-13)))
        CFI V3 load(1, XDATA, add(CFA_XSP16, literal(-14)))
        CFI V2 load(1, XDATA, add(CFA_XSP16, literal(-15)))
        CFI V1 load(1, XDATA, add(CFA_XSP16, literal(-16)))
        CFI V0 load(1, XDATA, add(CFA_XSP16, literal(-17)))
        CFI VB load(1, XDATA, add(CFA_XSP16, literal(-18)))
        CFI R6 load(1, XDATA, add(CFA_XSP16, literal(-19)))
        CFI CFA_SP SP+0
        CFI CFA_XSP16 add(XSP16, 19)
        ; Saved register size: 19
        ; Auto size: 0
        MOV     ?V0 + 2,R2
        MOV     ?V0 + 3,R3
        MOV     A,#0x13
        LCALL   ?XSTACK_DISP0_8
        LCALL   ?Subroutine26 & 0xFFFF
??CrossCallReturnLabel_27:
        MOV     R2,A
        MOV     A,R1
        MOV     R3,A
//  493   uint8 *pBuf = ZDP_TmpBuf;
        MOV     DPTR,#ZDP_TmpBuf
        LCALL   ?Subroutine77 & 0xFFFF
//  494   byte len = (UserDescriptor->len < AF_MAX_USER_DESCRIPTOR_LEN) ?
//  495               UserDescriptor->len : AF_MAX_USER_DESCRIPTOR_LEN;
??CrossCallReturnLabel_111:
        MOV     DPL,R2
        MOV     DPH,R3
        MOVX    A,@DPTR
        MOV     R0,A
        CLR     C
        SUBB    A,#0x10
        JNC     ??ZDP_UserDescSet_0
        MOV     ?V0 + 0,R0
        SJMP    ??ZDP_UserDescSet_1
??ZDP_UserDescSet_0:
        MOV     ?V0 + 0,#0x10
//  496   byte addrLen = 2;
//  497 
//  498   (void)SecurityEnable;  // Intentionally unreferenced parameter
//  499 
//  500   *pBuf++ = LO_UINT16( nwkAddr );
??ZDP_UserDescSet_1:
        MOV     A,R4
        MOV     DPL,?V0 + 4
        MOV     DPH,?V0 + 5
        MOVX    @DPTR,A
        INC     DPTR
//  501   *pBuf++ = HI_UINT16( nwkAddr );
        MOV     A,R5
        MOVX    @DPTR,A
        INC     DPTR
//  502 
//  503   *pBuf++ = len;
        MOV     A,?V0 + 0
        MOVX    @DPTR,A
        INC     DPTR
        MOV     ?V0 + 4,DPL
        MOV     ?V0 + 5,DPH
//  504   addrLen = 3;
//  505 
//  506   pBuf = osal_memcpy( pBuf, UserDescriptor->desc, len );
//  507   osal_memset( pBuf, AF_USER_DESCRIPTOR_FILL, AF_MAX_USER_DESCRIPTOR_LEN-len );
        ; Setup parameters for call to function osal_memset
        MOV     ?V0 + 6,A
        MOV     A,#0x10
        CLR     C
        SUBB    A,?V0 + 6
        MOV     R4,A
        SUBB    A,0xE0 /* A   */
        MOV     R5,A
        MOV     R1,#0x20
        MOV     A,R1
        PUSH    A
        CFI CFA_SP SP+-1
        MOV     A,R4
        MOV     R6,A
        MOV     A,R5
        MOV     R7,A
        ; Setup parameters for call to function osal_memcpy
        MOV     DPL,R2
        MOV     DPH,R3
        INC     DPTR
        MOV     R1,DPL
        MOV     R2,DPH
        MOV     ?V0 + 8,R1
        MOV     ?V0 + 9,R2
        MOV     ?V0 + 10,#0x0
        MOV     R0,#?V0 + 8
        LCALL   ?PUSH_XSTACK_I_THREE
        CFI CFA_XSP16 add(XSP16, 22)
        MOV     R4,?V0 + 6
        MOV     R5,#0x0
        MOV     R2,?V0 + 4
        MOV     R3,?V0 + 5
        LCALL   ??Subroutine93_0 & 0xFFFF
??CrossCallReturnLabel_143:
        LCALL   ?DEALLOC_XSTACK8
        CFI CFA_XSP16 add(XSP16, 19)
        MOV     A,R6
        MOV     R4,A
        MOV     A,R7
        MOV     R5,A
        POP     A
        CFI CFA_SP SP+0
        MOV     R1,A
        LCALL   ??osal_memset?relay
//  508 
//  509   return fillAndSend( &ZDP_TransID, dstAddr, User_Desc_set, (AF_MAX_USER_DESCRIPTOR_LEN + addrLen) );
        ; Setup parameters for call to function fillAndSend
        MOV     ?V0 + 4,#0x14
        MOV     ?V0 + 5,#0x0
        MOV     R0,#?V0 + 4
        LCALL   ?PUSH_XSTACK_I_TWO
        CFI CFA_XSP16 add(XSP16, 21)
        MOV     R1,#0x13
        MOV     R4,?V0 + 2
        MOV     R5,?V0 + 3
        LCALL   ??Subroutine106_0 & 0xFFFF
??CrossCallReturnLabel_202:
        LCALL   ?DEALLOC_XSTACK8
        CFI CFA_XSP16 add(XSP16, 19)
        MOV     R7,#0xb
        LJMP    ?BANKED_LEAVE_XDATA
        CFI EndBlock cfiBlock29
//  510 }
//  511 
//  512 /*********************************************************************
//  513  * @fn          ZDP_ServerDiscReq
//  514  *
//  515  * @brief       Build and send a Server_Discovery_req request message.
//  516  *
//  517  * @param       serverMask - 16-bit bit-mask of server services being sought.
//  518  * @param       SecurityEnable - Security Options
//  519  *
//  520  * @return      afStatus_t
//  521  */

        RSEG BANKED_CODE:CODE:NOROOT(0)
//  522 afStatus_t ZDP_ServerDiscReq( uint16 serverMask, byte SecurityEnable )
ZDP_ServerDiscReq:
        CFI Block cfiBlock30 Using cfiCommon0
        CFI Function ZDP_ServerDiscReq
        CODE
//  523 {
        FUNCALL ZDP_ServerDiscReq, fillAndSend
        LOCFRAME ISTACK, 0, STACK
        LOCFRAME PSTACK, 0, STACK
        LOCFRAME XSTACK, 21, STACK
        LOCFRAME IOVERLAY, 0, STATIC
        LOCFRAME DOVERLAY, 0, STATIC
        ARGFRAME ISTACK, 0, STACK
        ARGFRAME PSTACK, 0, STACK
        ARGFRAME XSTACK, 21, STACK
        ARGFRAME IOVERLAY, 0, STATIC
        ARGFRAME DOVERLAY, 0, STATIC
        MOV     A,#-0xa
        LCALL   ?BANKED_ENTER_XDATA
        CFI DPH0 load(1, XDATA, add(CFA_XSP16, literal(-1)))
        CFI DPL0 load(1, XDATA, add(CFA_XSP16, literal(-2)))
        CFI ?BRET_EXT load(1, XDATA, add(CFA_XSP16, literal(-3)))
        CFI ?RET_HIGH load(1, XDATA, add(CFA_XSP16, literal(-4)))
        CFI ?RET_LOW load(1, XDATA, add(CFA_XSP16, literal(-5)))
        CFI R7 load(1, XDATA, add(CFA_XSP16, literal(-6)))
        CFI V1 load(1, XDATA, add(CFA_XSP16, literal(-7)))
        CFI V0 load(1, XDATA, add(CFA_XSP16, literal(-8)))
        CFI VB load(1, XDATA, add(CFA_XSP16, literal(-9)))
        CFI R6 load(1, XDATA, add(CFA_XSP16, literal(-10)))
        CFI CFA_SP SP+0
        CFI CFA_XSP16 add(XSP16, 10)
        ; Saved register size: 10
        ; Auto size: 9
        MOV     A,#-0x9
        LCALL   ?ALLOC_XSTACK8
        CFI CFA_XSP16 add(XSP16, 19)
        LCALL   ?Subroutine40 & 0xFFFF
//  524   uint8 *pBuf = ZDP_TmpBuf;
//  525   zAddrType_t dstAddr;
//  526 
//  527   dstAddr.addrMode = AddrBroadcast;
??CrossCallReturnLabel_262:
        MOV     A,#0x8
        LCALL   ?XSTACK_DISP0_8
        LCALL   ?Subroutine51 & 0xFFFF
//  528   dstAddr.addr.shortAddr = NWK_BROADCAST_SHORTADDR_DEVRXON;
//  529 
//  530   *pBuf++ = LO_UINT16( serverMask );
??CrossCallReturnLabel_73:
        LCALL   ?Subroutine59 & 0xFFFF
//  531   *pBuf = HI_UINT16( serverMask );
//  532 
//  533   FillAndSendTxOptions( &ZDP_TransID, &dstAddr, Server_Discovery_req, 2,
//  534              ((SecurityEnable) ? AF_EN_SECURITY : AF_TX_OPTIONS_NONE) );
??CrossCallReturnLabel_235:
        MOV     A,R6
        MOV     DPTR,#ZDP_TxOptions
        JZ      ??ZDP_ServerDiscReq_0
        MOV     A,#0x40
        SJMP    ??ZDP_ServerDiscReq_1
??ZDP_ServerDiscReq_0:
        CLR     A
??ZDP_ServerDiscReq_1:
        MOVX    @DPTR,A
        ; Setup parameters for call to function fillAndSend
        MOV     ?V0 + 0,#0x15
        MOV     ?V0 + 1,#0x0
        MOV     R0,#?V0 + 0
        LCALL   ?PUSH_XSTACK_I_TWO
        CFI CFA_XSP16 add(XSP16, 21)
        MOV     R1,#0x2
        MOV     A,R1
        LCALL   ?XSTACK_DISP0_8
        LCALL   ?Subroutine60 & 0xFFFF
??CrossCallReturnLabel_200:
        LCALL   ?DEALLOC_XSTACK8
        CFI CFA_XSP16 add(XSP16, 19)
        MOV     DPTR,#ZDP_TxOptions
        CLR     A
        MOVX    @DPTR,A
        LJMP    ??Subroutine85_0 & 0xFFFF
        CFI EndBlock cfiBlock30
//  535 }
//  536 
//  537 /*********************************************************************
//  538  * @fn          ZDP_DeviceAnnce
//  539  *
//  540  * @brief       This builds and send a Device_Annce message.  This
//  541  *              function sends a broadcast message.
//  542  *
//  543  * @param       nwkAddr - 16 bit address of the device
//  544  * @param       IEEEAddr - 64 bit address of the device
//  545  * @param       capabilities - device capabilities.  This field is only
//  546  *                 sent for v1.1 networks.
//  547  * @param       SecurityEnable - Security Options
//  548  *
//  549  * @return      afStatus_t
//  550  */

        RSEG BANKED_CODE:CODE:NOROOT(0)
//  551 afStatus_t ZDP_DeviceAnnce( uint16 nwkAddr, uint8 *IEEEAddr,
ZDP_DeviceAnnce:
        CFI Block cfiBlock31 Using cfiCommon0
        CFI Function ZDP_DeviceAnnce
        CODE
//  552                               byte capabilities, byte SecurityEnable )
//  553 {
        FUNCALL ZDP_DeviceAnnce, sAddrExtCpy
        LOCFRAME ISTACK, 0, STACK
        LOCFRAME PSTACK, 0, STACK
        LOCFRAME XSTACK, 19, STACK
        LOCFRAME IOVERLAY, 0, STATIC
        LOCFRAME DOVERLAY, 0, STATIC
        ARGFRAME ISTACK, 0, STACK
        ARGFRAME PSTACK, 0, STACK
        ARGFRAME XSTACK, 19, STACK
        ARGFRAME IOVERLAY, 0, STATIC
        ARGFRAME DOVERLAY, 0, STATIC
        FUNCALL ZDP_DeviceAnnce, fillAndSend
        LOCFRAME ISTACK, 0, STACK
        LOCFRAME PSTACK, 0, STACK
        LOCFRAME XSTACK, 21, STACK
        LOCFRAME IOVERLAY, 0, STATIC
        LOCFRAME DOVERLAY, 0, STATIC
        ARGFRAME ISTACK, 0, STACK
        ARGFRAME PSTACK, 0, STACK
        ARGFRAME XSTACK, 21, STACK
        ARGFRAME IOVERLAY, 0, STATIC
        ARGFRAME DOVERLAY, 0, STATIC
        MOV     A,#-0xa
        LCALL   ?BANKED_ENTER_XDATA
        CFI DPH0 load(1, XDATA, add(CFA_XSP16, literal(-1)))
        CFI DPL0 load(1, XDATA, add(CFA_XSP16, literal(-2)))
        CFI ?BRET_EXT load(1, XDATA, add(CFA_XSP16, literal(-3)))
        CFI ?RET_HIGH load(1, XDATA, add(CFA_XSP16, literal(-4)))
        CFI ?RET_LOW load(1, XDATA, add(CFA_XSP16, literal(-5)))
        CFI R7 load(1, XDATA, add(CFA_XSP16, literal(-6)))
        CFI V1 load(1, XDATA, add(CFA_XSP16, literal(-7)))
        CFI V0 load(1, XDATA, add(CFA_XSP16, literal(-8)))
        CFI VB load(1, XDATA, add(CFA_XSP16, literal(-9)))
        CFI R6 load(1, XDATA, add(CFA_XSP16, literal(-10)))
        CFI CFA_SP SP+0
        CFI CFA_XSP16 add(XSP16, 10)
        ; Saved register size: 10
        ; Auto size: 9
        MOV     A,#-0x9
        LCALL   ?ALLOC_XSTACK8
        CFI CFA_XSP16 add(XSP16, 19)
        MOV     A,R1
        MOV     R6,A
//  554   zAddrType_t dstAddr;
//  555   uint8 len;
//  556 
//  557   (void)SecurityEnable;  // Intentionally unreferenced parameter
//  558 
//  559   dstAddr.addrMode = (afAddrMode_t)AddrBroadcast;
        MOV     A,#0x8
        LCALL   ?XSTACK_DISP0_8
        LCALL   ?Subroutine51 & 0xFFFF
//  560   dstAddr.addr.shortAddr = NWK_BROADCAST_SHORTADDR_DEVRXON;
//  561 
//  562   ZDP_TmpBuf[0] = LO_UINT16( nwkAddr );
??CrossCallReturnLabel_74:
        LCALL   ?Subroutine29 & 0xFFFF
??CrossCallReturnLabel_146:
        MOV     A,R2
        LCALL   ?Subroutine28 & 0xFFFF
//  563   ZDP_TmpBuf[1] = HI_UINT16( nwkAddr );
??CrossCallReturnLabel_118:
        MOV     A,R3
        MOVX    @DPTR,A
//  564   osal_cpyExtAddr( &ZDP_TmpBuf[2], IEEEAddr );
        ; Setup parameters for call to function sAddrExtCpy
        MOV     DPTR,#ZDP_TmpBuf
        MOVX    A,@DPTR
        ADD     A,#0x2
        MOV     R2,A
        INC     DPTR
        MOVX    A,@DPTR
        ADDC    A,#0x0
        LCALL   ?Subroutine22 & 0xFFFF
//  565   len = 2 + Z_EXTADDR_LEN;
//  566 
//  567   ZDP_TmpBuf[10] = capabilities;
??CrossCallReturnLabel_18:
        INC     DPTR
        INC     DPTR
        MOV     A,R6
        MOVX    @DPTR,A
//  568   len++;
//  569 
//  570   return fillAndSend( &ZDP_TransID, &dstAddr, Device_annce, len );
        ; Setup parameters for call to function fillAndSend
        MOV     ?V0 + 0,#0x13
        MOV     ?V0 + 1,#0x0
        MOV     R0,#?V0 + 0
        LCALL   ?PUSH_XSTACK_I_TWO
        CFI CFA_XSP16 add(XSP16, 21)
        MOV     R1,#0xb
        LJMP    ?Subroutine8 & 0xFFFF
        CFI EndBlock cfiBlock31
//  571 }

        RSEG BANKED_CODE:CODE:NOROOT(0)
?Subroutine51:
        CFI Block cfiCond32 Using cfiCommon0
        CFI NoFunction
        CFI Conditional ??CrossCallReturnLabel_73
        CFI R6 load(1, XDATA, add(CFA_XSP16, literal(-10)))
        CFI VB load(1, XDATA, add(CFA_XSP16, literal(-9)))
        CFI V0 load(1, XDATA, add(CFA_XSP16, literal(-8)))
        CFI V1 load(1, XDATA, add(CFA_XSP16, literal(-7)))
        CFI R7 load(1, XDATA, add(CFA_XSP16, literal(-6)))
        CFI ?RET_LOW load(1, XDATA, add(CFA_XSP16, literal(-5)))
        CFI ?RET_HIGH load(1, XDATA, add(CFA_XSP16, literal(-4)))
        CFI ?BRET_EXT load(1, XDATA, add(CFA_XSP16, literal(-3)))
        CFI DPL0 load(1, XDATA, add(CFA_XSP16, literal(-2)))
        CFI DPH0 load(1, XDATA, add(CFA_XSP16, literal(-1)))
        CFI CFA_SP SP+0
        CFI CFA_XSP16 add(XSP16, 19)
        CFI Block cfiCond33 Using cfiCommon0
        CFI (cfiCond33) NoFunction
        CFI (cfiCond33) Conditional ??CrossCallReturnLabel_74
        CFI (cfiCond33) R6 load(1, XDATA, add(CFA_XSP16, literal(-10)))
        CFI (cfiCond33) VB load(1, XDATA, add(CFA_XSP16, literal(-9)))
        CFI (cfiCond33) V0 load(1, XDATA, add(CFA_XSP16, literal(-8)))
        CFI (cfiCond33) V1 load(1, XDATA, add(CFA_XSP16, literal(-7)))
        CFI (cfiCond33) R7 load(1, XDATA, add(CFA_XSP16, literal(-6)))
        CFI (cfiCond33) ?RET_LOW load(1, XDATA, add(CFA_XSP16, literal(-5)))
        CFI (cfiCond33) ?RET_HIGH load(1, XDATA, add(CFA_XSP16, literal(-4)))
        CFI (cfiCond33) ?BRET_EXT load(1, XDATA, add(CFA_XSP16, literal(-3)))
        CFI (cfiCond33) DPL0 load(1, XDATA, add(CFA_XSP16, literal(-2)))
        CFI (cfiCond33) DPH0 load(1, XDATA, add(CFA_XSP16, literal(-1)))
        CFI (cfiCond33) CFA_SP SP+0
        CFI (cfiCond33) CFA_XSP16 add(XSP16, 19)
        CFI Block cfiPicker34 Using cfiCommon1
        CFI (cfiPicker34) NoFunction
        CFI (cfiPicker34) Picker
        MOV     A,#0xf
        MOVX    @DPTR,A
        MOV     DPL,?XSP + 0
        MOV     DPH,?XSP + 1
        MOV     A,#-0x3
        MOVX    @DPTR,A
        INC     DPTR
        MOV     A,#-0x1
        MOVX    @DPTR,A
        RET
        CFI EndBlock cfiCond32
        CFI EndBlock cfiCond33
        CFI EndBlock cfiPicker34

        RSEG BANKED_CODE:CODE:NOROOT(0)
?Subroutine28:
        CFI Block cfiCond35 Using cfiCommon0
        CFI NoFunction
        CFI Conditional ??CrossCallReturnLabel_118
        CFI R6 load(1, XDATA, add(CFA_XSP16, literal(-10)))
        CFI VB load(1, XDATA, add(CFA_XSP16, literal(-9)))
        CFI V0 load(1, XDATA, add(CFA_XSP16, literal(-8)))
        CFI V1 load(1, XDATA, add(CFA_XSP16, literal(-7)))
        CFI R7 load(1, XDATA, add(CFA_XSP16, literal(-6)))
        CFI ?RET_LOW load(1, XDATA, add(CFA_XSP16, literal(-5)))
        CFI ?RET_HIGH load(1, XDATA, add(CFA_XSP16, literal(-4)))
        CFI ?BRET_EXT load(1, XDATA, add(CFA_XSP16, literal(-3)))
        CFI DPL0 load(1, XDATA, add(CFA_XSP16, literal(-2)))
        CFI DPH0 load(1, XDATA, add(CFA_XSP16, literal(-1)))
        CFI CFA_SP SP+0
        CFI CFA_XSP16 add(XSP16, 19)
        CFI Block cfiCond36 Using cfiCommon0
        CFI (cfiCond36) NoFunction
        CFI (cfiCond36) Conditional ??CrossCallReturnLabel_119
        CFI (cfiCond36) R6 load(1, XDATA, add(CFA_XSP16, literal(-10)))
        CFI (cfiCond36) VB load(1, XDATA, add(CFA_XSP16, literal(-9)))
        CFI (cfiCond36) V0 load(1, XDATA, add(CFA_XSP16, literal(-8)))
        CFI (cfiCond36) V1 load(1, XDATA, add(CFA_XSP16, literal(-7)))
        CFI (cfiCond36) R7 load(1, XDATA, add(CFA_XSP16, literal(-6)))
        CFI (cfiCond36) ?RET_LOW load(1, XDATA, add(CFA_XSP16, literal(-5)))
        CFI (cfiCond36) ?RET_HIGH load(1, XDATA, add(CFA_XSP16, literal(-4)))
        CFI (cfiCond36) ?BRET_EXT load(1, XDATA, add(CFA_XSP16, literal(-3)))
        CFI (cfiCond36) DPL0 load(1, XDATA, add(CFA_XSP16, literal(-2)))
        CFI (cfiCond36) DPH0 load(1, XDATA, add(CFA_XSP16, literal(-1)))
        CFI (cfiCond36) CFA_SP SP+0
        CFI (cfiCond36) CFA_XSP16 add(XSP16, 10)
        CFI Block cfiPicker37 Using cfiCommon1
        CFI (cfiPicker37) NoFunction
        CFI (cfiPicker37) Picker
        MOVX    @DPTR,A
        CFI EndBlock cfiCond35
        CFI EndBlock cfiCond36
        CFI EndBlock cfiPicker37
        REQUIRE ??Subroutine89_0
        ; // Fall through to label ??Subroutine89_0

        RSEG BANKED_CODE:CODE:NOROOT(0)
??Subroutine89_0:
        CFI Block cfiCond38 Using cfiCommon0
        CFI NoFunction
        CFI Conditional ??CrossCallReturnLabel_120
        CFI R6 load(1, XDATA, add(CFA_XSP16, literal(-10)))
        CFI VB load(1, XDATA, add(CFA_XSP16, literal(-9)))
        CFI V0 load(1, XDATA, add(CFA_XSP16, literal(-8)))
        CFI V1 load(1, XDATA, add(CFA_XSP16, literal(-7)))
        CFI R7 load(1, XDATA, add(CFA_XSP16, literal(-6)))
        CFI ?RET_LOW load(1, XDATA, add(CFA_XSP16, literal(-5)))
        CFI ?RET_HIGH load(1, XDATA, add(CFA_XSP16, literal(-4)))
        CFI ?BRET_EXT load(1, XDATA, add(CFA_XSP16, literal(-3)))
        CFI DPL0 load(1, XDATA, add(CFA_XSP16, literal(-2)))
        CFI DPH0 load(1, XDATA, add(CFA_XSP16, literal(-1)))
        CFI CFA_SP SP+0
        CFI CFA_XSP16 add(XSP16, 11)
        CFI Block cfiCond39 Using cfiCommon0
        CFI (cfiCond39) NoFunction
        CFI (cfiCond39) Conditional ??CrossCallReturnLabel_118
        CFI (cfiCond39) R6 load(1, XDATA, add(CFA_XSP16, literal(-10)))
        CFI (cfiCond39) VB load(1, XDATA, add(CFA_XSP16, literal(-9)))
        CFI (cfiCond39) V0 load(1, XDATA, add(CFA_XSP16, literal(-8)))
        CFI (cfiCond39) V1 load(1, XDATA, add(CFA_XSP16, literal(-7)))
        CFI (cfiCond39) R7 load(1, XDATA, add(CFA_XSP16, literal(-6)))
        CFI (cfiCond39) ?RET_LOW load(1, XDATA, add(CFA_XSP16, literal(-5)))
        CFI (cfiCond39) ?RET_HIGH load(1, XDATA, add(CFA_XSP16, literal(-4)))
        CFI (cfiCond39) ?BRET_EXT load(1, XDATA, add(CFA_XSP16, literal(-3)))
        CFI (cfiCond39) DPL0 load(1, XDATA, add(CFA_XSP16, literal(-2)))
        CFI (cfiCond39) DPH0 load(1, XDATA, add(CFA_XSP16, literal(-1)))
        CFI (cfiCond39) CFA_SP SP+0
        CFI (cfiCond39) CFA_XSP16 add(XSP16, 19)
        CFI Block cfiCond40 Using cfiCommon0
        CFI (cfiCond40) NoFunction
        CFI (cfiCond40) Conditional ??CrossCallReturnLabel_119
        CFI (cfiCond40) R6 load(1, XDATA, add(CFA_XSP16, literal(-10)))
        CFI (cfiCond40) VB load(1, XDATA, add(CFA_XSP16, literal(-9)))
        CFI (cfiCond40) V0 load(1, XDATA, add(CFA_XSP16, literal(-8)))
        CFI (cfiCond40) V1 load(1, XDATA, add(CFA_XSP16, literal(-7)))
        CFI (cfiCond40) R7 load(1, XDATA, add(CFA_XSP16, literal(-6)))
        CFI (cfiCond40) ?RET_LOW load(1, XDATA, add(CFA_XSP16, literal(-5)))
        CFI (cfiCond40) ?RET_HIGH load(1, XDATA, add(CFA_XSP16, literal(-4)))
        CFI (cfiCond40) ?BRET_EXT load(1, XDATA, add(CFA_XSP16, literal(-3)))
        CFI (cfiCond40) DPL0 load(1, XDATA, add(CFA_XSP16, literal(-2)))
        CFI (cfiCond40) DPH0 load(1, XDATA, add(CFA_XSP16, literal(-1)))
        CFI (cfiCond40) CFA_SP SP+0
        CFI (cfiCond40) CFA_XSP16 add(XSP16, 10)
        CFI Block cfiPicker41 Using cfiCommon1
        CFI (cfiPicker41) NoFunction
        CFI (cfiPicker41) Picker
        LCALL   ?Subroutine76 & 0xFFFF
??CrossCallReturnLabel_124:
        RET
        CFI EndBlock cfiCond38
        CFI EndBlock cfiCond39
        CFI EndBlock cfiCond40
        CFI EndBlock cfiPicker41

        RSEG BANKED_CODE:CODE:NOROOT(0)
?Subroutine76:
        CFI Block cfiCond42 Using cfiCommon0
        CFI NoFunction
        CFI Conditional ??CrossCallReturnLabel_121, ??CrossCallReturnLabel_10
        CFI R6 load(1, XDATA, add(CFA_XSP16, literal(-10)))
        CFI VB load(1, XDATA, add(CFA_XSP16, literal(-9)))
        CFI V0 load(1, XDATA, add(CFA_XSP16, literal(-8)))
        CFI V1 load(1, XDATA, add(CFA_XSP16, literal(-7)))
        CFI R7 load(1, XDATA, add(CFA_XSP16, literal(-6)))
        CFI ?RET_LOW load(1, XDATA, add(CFA_XSP16, literal(-5)))
        CFI ?RET_HIGH load(1, XDATA, add(CFA_XSP16, literal(-4)))
        CFI ?BRET_EXT load(1, XDATA, add(CFA_XSP16, literal(-3)))
        CFI DPL0 load(1, XDATA, add(CFA_XSP16, literal(-2)))
        CFI DPH0 load(1, XDATA, add(CFA_XSP16, literal(-1)))
        CFI CFA_SP SP+0
        CFI CFA_XSP16 add(XSP16, 10)
        CFI Block cfiCond43 Using cfiCommon0
        CFI (cfiCond43) NoFunction
        CFI (cfiCond43) Conditional ??CrossCallReturnLabel_121, ??CrossCallReturnLabel_11
        CFI (cfiCond43) R6 load(1, XDATA, add(CFA_XSP16, literal(-10)))
        CFI (cfiCond43) VB load(1, XDATA, add(CFA_XSP16, literal(-9)))
        CFI (cfiCond43) V0 load(1, XDATA, add(CFA_XSP16, literal(-8)))
        CFI (cfiCond43) V1 load(1, XDATA, add(CFA_XSP16, literal(-7)))
        CFI (cfiCond43) R7 load(1, XDATA, add(CFA_XSP16, literal(-6)))
        CFI (cfiCond43) ?RET_LOW load(1, XDATA, add(CFA_XSP16, literal(-5)))
        CFI (cfiCond43) ?RET_HIGH load(1, XDATA, add(CFA_XSP16, literal(-4)))
        CFI (cfiCond43) ?BRET_EXT load(1, XDATA, add(CFA_XSP16, literal(-3)))
        CFI (cfiCond43) DPL0 load(1, XDATA, add(CFA_XSP16, literal(-2)))
        CFI (cfiCond43) DPH0 load(1, XDATA, add(CFA_XSP16, literal(-1)))
        CFI (cfiCond43) CFA_SP SP+0
        CFI (cfiCond43) CFA_XSP16 add(XSP16, 10)
        CFI Block cfiCond44 Using cfiCommon0
        CFI (cfiCond44) NoFunction
        CFI (cfiCond44) Conditional ??CrossCallReturnLabel_124, ??CrossCallReturnLabel_118
        CFI (cfiCond44) R6 load(1, XDATA, add(CFA_XSP16, literal(-10)))
        CFI (cfiCond44) VB load(1, XDATA, add(CFA_XSP16, literal(-9)))
        CFI (cfiCond44) V0 load(1, XDATA, add(CFA_XSP16, literal(-8)))
        CFI (cfiCond44) V1 load(1, XDATA, add(CFA_XSP16, literal(-7)))
        CFI (cfiCond44) R7 load(1, XDATA, add(CFA_XSP16, literal(-6)))
        CFI (cfiCond44) ?RET_LOW load(1, XDATA, add(CFA_XSP16, literal(-5)))
        CFI (cfiCond44) ?RET_HIGH load(1, XDATA, add(CFA_XSP16, literal(-4)))
        CFI (cfiCond44) ?BRET_EXT load(1, XDATA, add(CFA_XSP16, literal(-3)))
        CFI (cfiCond44) DPL0 load(1, XDATA, add(CFA_XSP16, literal(-2)))
        CFI (cfiCond44) DPH0 load(1, XDATA, add(CFA_XSP16, literal(-1)))
        CFI (cfiCond44) CFA_SP SP+0
        CFI (cfiCond44) CFA_XSP16 add(XSP16, 19)
        CFI Block cfiCond45 Using cfiCommon0
        CFI (cfiCond45) NoFunction
        CFI (cfiCond45) Conditional ??CrossCallReturnLabel_124, ??CrossCallReturnLabel_119
        CFI (cfiCond45) R6 load(1, XDATA, add(CFA_XSP16, literal(-10)))
        CFI (cfiCond45) VB load(1, XDATA, add(CFA_XSP16, literal(-9)))
        CFI (cfiCond45) V0 load(1, XDATA, add(CFA_XSP16, literal(-8)))
        CFI (cfiCond45) V1 load(1, XDATA, add(CFA_XSP16, literal(-7)))
        CFI (cfiCond45) R7 load(1, XDATA, add(CFA_XSP16, literal(-6)))
        CFI (cfiCond45) ?RET_LOW load(1, XDATA, add(CFA_XSP16, literal(-5)))
        CFI (cfiCond45) ?RET_HIGH load(1, XDATA, add(CFA_XSP16, literal(-4)))
        CFI (cfiCond45) ?BRET_EXT load(1, XDATA, add(CFA_XSP16, literal(-3)))
        CFI (cfiCond45) DPL0 load(1, XDATA, add(CFA_XSP16, literal(-2)))
        CFI (cfiCond45) DPH0 load(1, XDATA, add(CFA_XSP16, literal(-1)))
        CFI (cfiCond45) CFA_SP SP+0
        CFI (cfiCond45) CFA_XSP16 add(XSP16, 10)
        CFI Block cfiCond46 Using cfiCommon0
        CFI (cfiCond46) NoFunction
        CFI (cfiCond46) Conditional ??CrossCallReturnLabel_124, ??CrossCallReturnLabel_120
        CFI (cfiCond46) R6 load(1, XDATA, add(CFA_XSP16, literal(-10)))
        CFI (cfiCond46) VB load(1, XDATA, add(CFA_XSP16, literal(-9)))
        CFI (cfiCond46) V0 load(1, XDATA, add(CFA_XSP16, literal(-8)))
        CFI (cfiCond46) V1 load(1, XDATA, add(CFA_XSP16, literal(-7)))
        CFI (cfiCond46) R7 load(1, XDATA, add(CFA_XSP16, literal(-6)))
        CFI (cfiCond46) ?RET_LOW load(1, XDATA, add(CFA_XSP16, literal(-5)))
        CFI (cfiCond46) ?RET_HIGH load(1, XDATA, add(CFA_XSP16, literal(-4)))
        CFI (cfiCond46) ?BRET_EXT load(1, XDATA, add(CFA_XSP16, literal(-3)))
        CFI (cfiCond46) DPL0 load(1, XDATA, add(CFA_XSP16, literal(-2)))
        CFI (cfiCond46) DPH0 load(1, XDATA, add(CFA_XSP16, literal(-1)))
        CFI (cfiCond46) CFA_SP SP+0
        CFI (cfiCond46) CFA_XSP16 add(XSP16, 11)
        CFI Block cfiCond47 Using cfiCommon0
        CFI (cfiCond47) NoFunction
        CFI (cfiCond47) Conditional ??CrossCallReturnLabel_123, ??CrossCallReturnLabel_30
        CFI (cfiCond47) R6 load(1, XDATA, add(CFA_XSP16, literal(-10)))
        CFI (cfiCond47) VB load(1, XDATA, add(CFA_XSP16, literal(-9)))
        CFI (cfiCond47) V0 load(1, XDATA, add(CFA_XSP16, literal(-8)))
        CFI (cfiCond47) V1 load(1, XDATA, add(CFA_XSP16, literal(-7)))
        CFI (cfiCond47) R7 load(1, XDATA, add(CFA_XSP16, literal(-6)))
        CFI (cfiCond47) ?RET_LOW load(1, XDATA, add(CFA_XSP16, literal(-5)))
        CFI (cfiCond47) ?RET_HIGH load(1, XDATA, add(CFA_XSP16, literal(-4)))
        CFI (cfiCond47) ?BRET_EXT load(1, XDATA, add(CFA_XSP16, literal(-3)))
        CFI (cfiCond47) DPL0 load(1, XDATA, add(CFA_XSP16, literal(-2)))
        CFI (cfiCond47) DPH0 load(1, XDATA, add(CFA_XSP16, literal(-1)))
        CFI (cfiCond47) CFA_SP SP+0
        CFI (cfiCond47) CFA_XSP16 add(XSP16, 10)
        CFI Block cfiCond48 Using cfiCommon0
        CFI (cfiCond48) NoFunction
        CFI (cfiCond48) Conditional ??CrossCallReturnLabel_123, ??CrossCallReturnLabel_31
        CFI (cfiCond48) R6 load(1, XDATA, add(CFA_XSP16, literal(-10)))
        CFI (cfiCond48) VB load(1, XDATA, add(CFA_XSP16, literal(-9)))
        CFI (cfiCond48) V0 load(1, XDATA, add(CFA_XSP16, literal(-8)))
        CFI (cfiCond48) V1 load(1, XDATA, add(CFA_XSP16, literal(-7)))
        CFI (cfiCond48) R7 load(1, XDATA, add(CFA_XSP16, literal(-6)))
        CFI (cfiCond48) ?RET_LOW load(1, XDATA, add(CFA_XSP16, literal(-5)))
        CFI (cfiCond48) ?RET_HIGH load(1, XDATA, add(CFA_XSP16, literal(-4)))
        CFI (cfiCond48) ?BRET_EXT load(1, XDATA, add(CFA_XSP16, literal(-3)))
        CFI (cfiCond48) DPL0 load(1, XDATA, add(CFA_XSP16, literal(-2)))
        CFI (cfiCond48) DPH0 load(1, XDATA, add(CFA_XSP16, literal(-1)))
        CFI (cfiCond48) CFA_SP SP+0
        CFI (cfiCond48) CFA_XSP16 add(XSP16, 11)
        CFI Block cfiCond49 Using cfiCommon0
        CFI (cfiCond49) NoFunction
        CFI (cfiCond49) Conditional ??CrossCallReturnLabel_122, ??CrossCallReturnLabel_18
        CFI (cfiCond49) R6 load(1, XDATA, add(CFA_XSP16, literal(-10)))
        CFI (cfiCond49) VB load(1, XDATA, add(CFA_XSP16, literal(-9)))
        CFI (cfiCond49) V0 load(1, XDATA, add(CFA_XSP16, literal(-8)))
        CFI (cfiCond49) V1 load(1, XDATA, add(CFA_XSP16, literal(-7)))
        CFI (cfiCond49) R7 load(1, XDATA, add(CFA_XSP16, literal(-6)))
        CFI (cfiCond49) ?RET_LOW load(1, XDATA, add(CFA_XSP16, literal(-5)))
        CFI (cfiCond49) ?RET_HIGH load(1, XDATA, add(CFA_XSP16, literal(-4)))
        CFI (cfiCond49) ?BRET_EXT load(1, XDATA, add(CFA_XSP16, literal(-3)))
        CFI (cfiCond49) DPL0 load(1, XDATA, add(CFA_XSP16, literal(-2)))
        CFI (cfiCond49) DPH0 load(1, XDATA, add(CFA_XSP16, literal(-1)))
        CFI (cfiCond49) CFA_SP SP+0
        CFI (cfiCond49) CFA_XSP16 add(XSP16, 19)
        CFI Block cfiCond50 Using cfiCommon0
        CFI (cfiCond50) NoFunction
        CFI (cfiCond50) Conditional ??CrossCallReturnLabel_122, ??CrossCallReturnLabel_19
        CFI (cfiCond50) R6 load(1, XDATA, add(CFA_XSP16, literal(-12)))
        CFI (cfiCond50) VB load(1, XDATA, add(CFA_XSP16, literal(-11)))
        CFI (cfiCond50) V0 load(1, XDATA, add(CFA_XSP16, literal(-10)))
        CFI (cfiCond50) V1 load(1, XDATA, add(CFA_XSP16, literal(-9)))
        CFI (cfiCond50) V2 load(1, XDATA, add(CFA_XSP16, literal(-8)))
        CFI (cfiCond50) V3 load(1, XDATA, add(CFA_XSP16, literal(-7)))
        CFI (cfiCond50) R7 load(1, XDATA, add(CFA_XSP16, literal(-6)))
        CFI (cfiCond50) ?RET_LOW load(1, XDATA, add(CFA_XSP16, literal(-5)))
        CFI (cfiCond50) ?RET_HIGH load(1, XDATA, add(CFA_XSP16, literal(-4)))
        CFI (cfiCond50) ?BRET_EXT load(1, XDATA, add(CFA_XSP16, literal(-3)))
        CFI (cfiCond50) DPL0 load(1, XDATA, add(CFA_XSP16, literal(-2)))
        CFI (cfiCond50) DPH0 load(1, XDATA, add(CFA_XSP16, literal(-1)))
        CFI (cfiCond50) CFA_SP SP+0
        CFI (cfiCond50) CFA_XSP16 add(XSP16, 12)
        CFI Block cfiPicker51 Using cfiCommon1
        CFI (cfiPicker51) NoFunction
        CFI (cfiPicker51) Picker
        MOV     DPTR,#ZDP_TmpBuf
        LCALL   ?Subroutine82 & 0xFFFF
??CrossCallReturnLabel_151:
        INC     DPTR
        RET
        CFI EndBlock cfiCond42
        CFI EndBlock cfiCond43
        CFI EndBlock cfiCond44
        CFI EndBlock cfiCond45
        CFI EndBlock cfiCond46
        CFI EndBlock cfiCond47
        CFI EndBlock cfiCond48
        CFI EndBlock cfiCond49
        CFI EndBlock cfiCond50
        CFI EndBlock cfiPicker51
//  572 
//  573 /*********************************************************************
//  574  * Address Responses
//  575  */
//  576 
//  577 /*********************************************************************
//  578  * @fn      zdpProcessAddrReq
//  579  *
//  580  * @brief   Process an incoming NWK_addr_req or IEEE_addr_req message and then
//  581  *          build and send a corresponding NWK_addr_rsp or IEEE_addr_rsp msg.
//  582  *
//  583  * @param   inMsg - incoming message
//  584  *
//  585  * @return  none
//  586  */

        RSEG BANKED_CODE:CODE:NOROOT(0)
//  587 void zdpProcessAddrReq( zdoIncomingMsg_t *inMsg )
zdpProcessAddrReq:
        CFI Block cfiBlock52 Using cfiCommon0
        CFI Function zdpProcessAddrReq
        CODE
//  588 {
        FUNCALL zdpProcessAddrReq, sAddrExtCmp
        LOCFRAME ISTACK, 0, STACK
        LOCFRAME PSTACK, 0, STACK
        LOCFRAME XSTACK, 15, STACK
        LOCFRAME IOVERLAY, 0, STATIC
        LOCFRAME DOVERLAY, 0, STATIC
        ARGFRAME ISTACK, 0, STACK
        ARGFRAME PSTACK, 0, STACK
        ARGFRAME XSTACK, 15, STACK
        ARGFRAME IOVERLAY, 0, STATIC
        ARGFRAME DOVERLAY, 0, STATIC
        FUNCALL zdpProcessAddrReq, sAddrExtCpy
        LOCFRAME ISTACK, 0, STACK
        LOCFRAME PSTACK, 0, STACK
        LOCFRAME XSTACK, 15, STACK
        LOCFRAME IOVERLAY, 0, STATIC
        LOCFRAME DOVERLAY, 0, STATIC
        ARGFRAME ISTACK, 0, STACK
        ARGFRAME PSTACK, 0, STACK
        ARGFRAME XSTACK, 15, STACK
        ARGFRAME IOVERLAY, 0, STATIC
        ARGFRAME DOVERLAY, 0, STATIC
        FUNCALL zdpProcessAddrReq, fillAndSend
        LOCFRAME ISTACK, 0, STACK
        LOCFRAME PSTACK, 0, STACK
        LOCFRAME XSTACK, 17, STACK
        LOCFRAME IOVERLAY, 0, STATIC
        LOCFRAME DOVERLAY, 0, STATIC
        ARGFRAME ISTACK, 0, STACK
        ARGFRAME PSTACK, 0, STACK
        ARGFRAME XSTACK, 17, STACK
        ARGFRAME IOVERLAY, 0, STATIC
        ARGFRAME DOVERLAY, 0, STATIC
        MOV     A,#-0xf
        LCALL   ?BANKED_ENTER_XDATA
        CFI DPH0 load(1, XDATA, add(CFA_XSP16, literal(-1)))
        CFI DPL0 load(1, XDATA, add(CFA_XSP16, literal(-2)))
        CFI ?BRET_EXT load(1, XDATA, add(CFA_XSP16, literal(-3)))
        CFI ?RET_HIGH load(1, XDATA, add(CFA_XSP16, literal(-4)))
        CFI ?RET_LOW load(1, XDATA, add(CFA_XSP16, literal(-5)))
        CFI R7 load(1, XDATA, add(CFA_XSP16, literal(-6)))
        CFI V6 load(1, XDATA, add(CFA_XSP16, literal(-7)))
        CFI V5 load(1, XDATA, add(CFA_XSP16, literal(-8)))
        CFI V4 load(1, XDATA, add(CFA_XSP16, literal(-9)))
        CFI V3 load(1, XDATA, add(CFA_XSP16, literal(-10)))
        CFI V2 load(1, XDATA, add(CFA_XSP16, literal(-11)))
        CFI V1 load(1, XDATA, add(CFA_XSP16, literal(-12)))
        CFI V0 load(1, XDATA, add(CFA_XSP16, literal(-13)))
        CFI VB load(1, XDATA, add(CFA_XSP16, literal(-14)))
        CFI R6 load(1, XDATA, add(CFA_XSP16, literal(-15)))
        CFI CFA_SP SP+0
        CFI CFA_XSP16 add(XSP16, 15)
        ; Saved register size: 15
        ; Auto size: 0
        MOV     ?V0 + 0,R2
        MOV     ?V0 + 1,R3
//  589   associated_devices_t *pAssoc;
//  590   uint8 reqType;
//  591   uint16 aoi = INVALID_NODE_ADDR;
        MOV     R6,#-0x2
        MOV     R7,#-0x1
//  592   uint8 *ieee = NULL;
        MOV     ?V0 + 2,#0x0
        MOV     ?V0 + 3,#0x0
//  593 
//  594   reqType = inMsg->asdu[(inMsg->clusterID == NWK_addr_req) ? Z_EXTADDR_LEN : sizeof( uint16 ) ];
        MOV     A,R2
        ADD     A,#0xc
        MOV     ?V0 + 4,A
        MOV     A,R3
        ADDC    A,#0x0
        MOV     ?V0 + 5,A
        MOV     DPL,?V0 + 4
        MOV     DPH,A
        LCALL   ??Subroutine91_0 & 0xFFFF
??CrossCallReturnLabel_128:
        MOV     A,R2
        ORL     A,R3
        JNZ     ??zdpProcessAddrReq_0
        MOV     R4,#0x8
        SJMP    ??zdpProcessAddrReq_1
??zdpProcessAddrReq_0:
        MOV     R4,#0x2
??zdpProcessAddrReq_1:
        MOV     A,?V0 + 0
        ADD     A,#0x13
        LCALL   ?Subroutine66 & 0xFFFF
??CrossCallReturnLabel_252:
        LCALL   ?Subroutine26 & 0xFFFF
??CrossCallReturnLabel_28:
        ADD     A,R4
        MOV     DPL,A
        MOV     A,R1
        LCALL   ??Subroutine112_0 & 0xFFFF
??CrossCallReturnLabel_255:
        MOV     ?V0 + 6,A
//  595 
//  596   if ( inMsg->clusterID == NWK_addr_req )
        MOV     A,R2
        ORL     A,R3
        JNZ     ??zdpProcessAddrReq_2
//  597 
//  598   {
//  599     ieee = inMsg->asdu;
        MOV     ?V0 + 2,R0
        MOV     ?V0 + 3,R1
//  600 
//  601     if ( osal_ExtAddrEqual( saveExtAddr, ieee ) )
        ; Setup parameters for call to function sAddrExtCmp
        MOV     R4,?V0 + 2
        MOV     R5,?V0 + 3
        MOV     R2,#saveExtAddr & 0xff
        MOV     R3,#(saveExtAddr >> 8) & 0xff
        LCALL   ??sAddrExtCmp?relay
        MOV     A,R1
        JZ      ??zdpProcessAddrReq_3
//  602     {
//  603       aoi = ZDAppNwkAddr.addr.shortAddr;
        LCALL   ?Subroutine15 & 0xFFFF
//  604     }
//  605     // Handle response for sleeping end devices
//  606     else if ( (ZSTACK_ROUTER_BUILD)
//  607       && (((pAssoc = AssocGetWithExt( ieee )) != NULL)
//  608              && (pAssoc->nodeRelation == CHILD_RFD)) )
//  609     {
//  610       aoi = pAssoc->shortAddr;
//  611       if ( reqType != ZDP_ADDR_REQTYPE_SINGLE )
//  612         reqType = 0xFF; // Force Invalid
//  613     }
//  614   }
??CrossCallReturnLabel_232:
        SJMP    ??zdpProcessAddrReq_4
//  615   else  // if ( inMsg->clusterID == IEEE_addr_req )
//  616   {
//  617     aoi = BUILD_UINT16( inMsg->asdu[0], inMsg->asdu[1] );
??zdpProcessAddrReq_2:
        MOV     DPL,R0
        MOV     DPH,R1
        MOVX    A,@DPTR
        MOV     R2,A
        INC     DPTR
        MOVX    A,@DPTR
        MOV     R1,A
        MOV     A,R2
        ADD     A,#0x0
        MOV     R6,A
        CLR     A
        ADDC    A,R1
        MOV     R7,A
//  618 
//  619     if ( aoi == ZDAppNwkAddr.addr.shortAddr )
        MOV     DPTR,#ZDAppNwkAddr
        MOVX    A,@DPTR
        XRL     A,R6
        JNZ     ??zdpProcessAddrReq_5
        INC     DPTR
        MOVX    A,@DPTR
        XRL     A,R7
??zdpProcessAddrReq_5:
        JNZ     ??zdpProcessAddrReq_4
//  620     {
//  621       ieee = saveExtAddr;
        MOV     ?V0 + 2,#saveExtAddr & 0xff
        MOV     ?V0 + 3,#(saveExtAddr >> 8) & 0xff
//  622     }
//  623     else if ( (ZSTACK_ROUTER_BUILD)
//  624       && (((pAssoc = AssocGetWithShort( aoi )) != NULL)
//  625              && (pAssoc->nodeRelation == CHILD_RFD)) )
//  626     {
//  627       AddrMgrEntry_t addrEntry;
//  628       addrEntry.user = ADDRMGR_USER_DEFAULT;
//  629       addrEntry.index = pAssoc->addrIdx;
//  630       if ( AddrMgrEntryGet( &addrEntry ) )
//  631       {
//  632         ieee = addrEntry.extAddr;
//  633       }
//  634 
//  635       if ( reqType != ZDP_ADDR_REQTYPE_SINGLE )
//  636         reqType = 0xFF; // Force Invalid
//  637     }
//  638   }
//  639 
//  640   if ( ((aoi != INVALID_NODE_ADDR) && (ieee != NULL)) || (inMsg->wasBroadcast == FALSE) )
??zdpProcessAddrReq_4:
        MOV     A,#-0x2
        XRL     A,R6
        JNZ     ??zdpProcessAddrReq_6
        MOV     A,#-0x1
        XRL     A,R7
??zdpProcessAddrReq_6:
        JZ      ??zdpProcessAddrReq_3
        MOV     A,?V0 + 2
        ORL     A,?V0 + 3
        JNZ     ??zdpProcessAddrReq_7
??zdpProcessAddrReq_3:
        MOV     A,?V0 + 0
        ADD     A,#0xb
        LCALL   ?Subroutine62 & 0xFFFF
??CrossCallReturnLabel_259:
        JZ      $+5
        LJMP    ??zdpProcessAddrReq_8 & 0xFFFF
//  641   {
//  642     uint8 stat;
//  643     uint8 *pBuf = ZDP_TmpBuf;
??zdpProcessAddrReq_7:
        LCALL   ?Subroutine39 & 0xFFFF
//  644     // Status + IEEE-Addr + Nwk-Addr.
//  645     uint8 len = 1 + Z_EXTADDR_LEN + 2;
//  646     
//  647     // If aoi and iee are both setup, we found results
//  648     if ( (aoi != INVALID_NODE_ADDR) && (ieee != NULL) )
??CrossCallReturnLabel_131:
        MOV     A,#-0x2
        XRL     A,R6
        JNZ     ??zdpProcessAddrReq_9
        MOV     A,#-0x1
        XRL     A,R7
??zdpProcessAddrReq_9:
        JZ      ??zdpProcessAddrReq_10
        MOV     A,?V0 + 2
        ORL     A,?V0 + 3
        JZ      ??zdpProcessAddrReq_10
//  649     {
//  650       stat = ((reqType == ZDP_ADDR_REQTYPE_SINGLE) || (reqType == ZDP_ADDR_REQTYPE_EXTENDED)) 
//  651                     ? ZDP_SUCCESS : ZDP_INVALID_REQTYPE;
        MOV     A,?V0 + 6
        JZ      ??zdpProcessAddrReq_11
        MOV     A,#0x1
        XRL     A,?V0 + 6
        JNZ     ??zdpProcessAddrReq_12
??zdpProcessAddrReq_11:
        MOV     R4,#0x0
        SJMP    ??zdpProcessAddrReq_13
??zdpProcessAddrReq_12:
        MOV     R4,#-0x80
        SJMP    ??zdpProcessAddrReq_13
//  652     }
//  653     else 
//  654     {
//  655       // not found and the req was unicast to this device
//  656       stat = ZDP_DEVICE_NOT_FOUND;
??zdpProcessAddrReq_10:
        MOV     R4,#-0x7f
//  657       
//  658       // Fill in the missing field with this device's address
//  659       if ( inMsg->clusterID == NWK_addr_req )
        MOV     DPL,?V0 + 4
        MOV     DPH,?V0 + 5
        LCALL   ?Subroutine26 & 0xFFFF
??CrossCallReturnLabel_29:
        ORL     A,R1
        JNZ     ??zdpProcessAddrReq_14
//  660       {
//  661         aoi = ZDAppNwkAddr.addr.shortAddr;
        LCALL   ?Subroutine15 & 0xFFFF
//  662       }
??CrossCallReturnLabel_233:
        SJMP    ??zdpProcessAddrReq_13
//  663       else
//  664       {
//  665         ieee = saveExtAddr;
??zdpProcessAddrReq_14:
        MOV     ?V0 + 2,#saveExtAddr & 0xff
        MOV     ?V0 + 3,#(saveExtAddr >> 8) & 0xff
//  666       }
//  667     }
//  668 
//  669     *pBuf++ = stat;
??zdpProcessAddrReq_13:
        MOV     A,R4
        MOV     DPL,R2
        MOV     DPH,R3
        LCALL   ??Subroutine110_0 & 0xFFFF
//  670 
//  671     pBuf = osal_cpyExtAddr( pBuf, ieee );
??CrossCallReturnLabel_242:
        ; Setup parameters for call to function sAddrExtCpy
        MOV     R4,?V0 + 2
        MOV     R5,?V0 + 3
        LCALL   ??sAddrExtCpy?relay
//  672 
//  673     *pBuf++ = LO_UINT16( aoi );
        MOV     A,R6
        MOV     DPL,R2
        MOV     DPH,R3
        MOVX    @DPTR,A
        INC     DPTR
//  674     *pBuf++ = HI_UINT16( aoi );
        MOV     A,R7
        MOVX    @DPTR,A
//  675 
//  676     if ( ZSTACK_ROUTER_BUILD )
//  677     {
//  678       if ( (reqType == ZDP_ADDR_REQTYPE_EXTENDED) && (aoi == ZDAppNwkAddr.addr.shortAddr)
//  679            && (stat == ZDP_SUCCESS) )
//  680       {
//  681         uint8  cnt = 0;
//  682         uint16 *list = AssocMakeList( &cnt );
//  683 
//  684         if ( list != NULL )
//  685         {
//  686           byte idx = inMsg->asdu[(((inMsg->clusterID == NWK_addr_req) ? Z_EXTADDR_LEN : sizeof( uint16 )) + 1)];
//  687           uint16 *pList = list + idx;
//  688 
//  689           // NumAssocDev field is only present on success.
//  690           if ( cnt > idx )
//  691           {
//  692             cnt -= idx;
//  693             len += (cnt * sizeof( uint16 ));
//  694           }
//  695           else
//  696           {
//  697             cnt = 0;
//  698           }
//  699           *pBuf++ = cnt;
//  700           len++;
//  701 
//  702           // StartIndex field is only present if NumAssocDev field is non-zero.
//  703           *pBuf++ = idx;
//  704           len++;
//  705 
//  706           while ( cnt != 0 )
//  707           {
//  708             *pBuf++ = LO_UINT16( *pList );
//  709             *pBuf++ = HI_UINT16( *pList );
//  710             pList++;
//  711             cnt--;
//  712           }
//  713 
//  714           osal_mem_free( (uint8 *)list );
//  715         }
//  716         else
//  717         {
//  718           // NumAssocDev field is only present on success.
//  719           *pBuf++ = 0;
//  720           len++;
//  721         }
//  722       }
//  723     }
//  724 
//  725     ZDP_TxOptions = AF_MSG_ACK_REQUEST;
        MOV     DPTR,#ZDP_TxOptions
        MOV     A,#0x10
        MOVX    @DPTR,A
//  726     fillAndSend( &(inMsg->TransSeq), &(inMsg->srcAddr), (cId_t)(inMsg->clusterID | ZDO_RESPONSE_BIT), len );
        ; Setup parameters for call to function fillAndSend
        MOV     DPL,?V0 + 4
        MOV     DPH,?V0 + 5
        MOVX    A,@DPTR
        MOV     ?V0 + 2,A
        INC     DPTR
        MOVX    A,@DPTR
        ORL     A,#0x80
        MOV     ?V0 + 3,A
        MOV     R0,#?V0 + 2
        LCALL   ?PUSH_XSTACK_I_TWO
        CFI CFA_XSP16 add(XSP16, 17)
        MOV     R1,#0xb
        LCALL   ?Subroutine64 & 0xFFFF
??CrossCallReturnLabel_93:
        LCALL   ??Subroutine107_0 & 0xFFFF
??CrossCallReturnLabel_210:
        LCALL   ?DEALLOC_XSTACK8
        CFI CFA_XSP16 add(XSP16, 15)
//  727     ZDP_TxOptions = AF_TX_OPTIONS_NONE;
        MOV     DPTR,#ZDP_TxOptions
        CLR     A
        MOVX    @DPTR,A
//  728   }
//  729 }
??zdpProcessAddrReq_8:
        MOV     R7,#0x7
        LJMP    ?BANKED_LEAVE_XDATA
        CFI EndBlock cfiBlock52

        RSEG BANKED_CODE:CODE:NOROOT(0)
?Subroutine26:
        CFI Block cfiCond53 Using cfiCommon0
        CFI NoFunction
        CFI Conditional ??CrossCallReturnLabel_27
        CFI R6 load(1, XDATA, add(CFA_XSP16, literal(-19)))
        CFI VB load(1, XDATA, add(CFA_XSP16, literal(-18)))
        CFI V0 load(1, XDATA, add(CFA_XSP16, literal(-17)))
        CFI V1 load(1, XDATA, add(CFA_XSP16, literal(-16)))
        CFI V2 load(1, XDATA, add(CFA_XSP16, literal(-15)))
        CFI V3 load(1, XDATA, add(CFA_XSP16, literal(-14)))
        CFI V4 load(1, XDATA, add(CFA_XSP16, literal(-13)))
        CFI V5 load(1, XDATA, add(CFA_XSP16, literal(-12)))
        CFI V6 load(1, XDATA, add(CFA_XSP16, literal(-11)))
        CFI V7 load(1, XDATA, add(CFA_XSP16, literal(-10)))
        CFI V8 load(1, XDATA, add(CFA_XSP16, literal(-9)))
        CFI V9 load(1, XDATA, add(CFA_XSP16, literal(-8)))
        CFI V10 load(1, XDATA, add(CFA_XSP16, literal(-7)))
        CFI R7 load(1, XDATA, add(CFA_XSP16, literal(-6)))
        CFI ?RET_LOW load(1, XDATA, add(CFA_XSP16, literal(-5)))
        CFI ?RET_HIGH load(1, XDATA, add(CFA_XSP16, literal(-4)))
        CFI ?BRET_EXT load(1, XDATA, add(CFA_XSP16, literal(-3)))
        CFI DPL0 load(1, XDATA, add(CFA_XSP16, literal(-2)))
        CFI DPH0 load(1, XDATA, add(CFA_XSP16, literal(-1)))
        CFI CFA_SP SP+0
        CFI CFA_XSP16 add(XSP16, 19)
        CFI Block cfiCond54 Using cfiCommon0
        CFI (cfiCond54) NoFunction
        CFI (cfiCond54) Conditional ??CrossCallReturnLabel_28
        CFI (cfiCond54) R6 load(1, XDATA, add(CFA_XSP16, literal(-15)))
        CFI (cfiCond54) VB load(1, XDATA, add(CFA_XSP16, literal(-14)))
        CFI (cfiCond54) V0 load(1, XDATA, add(CFA_XSP16, literal(-13)))
        CFI (cfiCond54) V1 load(1, XDATA, add(CFA_XSP16, literal(-12)))
        CFI (cfiCond54) V2 load(1, XDATA, add(CFA_XSP16, literal(-11)))
        CFI (cfiCond54) V3 load(1, XDATA, add(CFA_XSP16, literal(-10)))
        CFI (cfiCond54) V4 load(1, XDATA, add(CFA_XSP16, literal(-9)))
        CFI (cfiCond54) V5 load(1, XDATA, add(CFA_XSP16, literal(-8)))
        CFI (cfiCond54) V6 load(1, XDATA, add(CFA_XSP16, literal(-7)))
        CFI (cfiCond54) R7 load(1, XDATA, add(CFA_XSP16, literal(-6)))
        CFI (cfiCond54) ?RET_LOW load(1, XDATA, add(CFA_XSP16, literal(-5)))
        CFI (cfiCond54) ?RET_HIGH load(1, XDATA, add(CFA_XSP16, literal(-4)))
        CFI (cfiCond54) ?BRET_EXT load(1, XDATA, add(CFA_XSP16, literal(-3)))
        CFI (cfiCond54) DPL0 load(1, XDATA, add(CFA_XSP16, literal(-2)))
        CFI (cfiCond54) DPH0 load(1, XDATA, add(CFA_XSP16, literal(-1)))
        CFI (cfiCond54) CFA_SP SP+0
        CFI (cfiCond54) CFA_XSP16 add(XSP16, 15)
        CFI Block cfiCond55 Using cfiCommon0
        CFI (cfiCond55) NoFunction
        CFI (cfiCond55) Conditional ??CrossCallReturnLabel_29
        CFI (cfiCond55) R6 load(1, XDATA, add(CFA_XSP16, literal(-15)))
        CFI (cfiCond55) VB load(1, XDATA, add(CFA_XSP16, literal(-14)))
        CFI (cfiCond55) V0 load(1, XDATA, add(CFA_XSP16, literal(-13)))
        CFI (cfiCond55) V1 load(1, XDATA, add(CFA_XSP16, literal(-12)))
        CFI (cfiCond55) V2 load(1, XDATA, add(CFA_XSP16, literal(-11)))
        CFI (cfiCond55) V3 load(1, XDATA, add(CFA_XSP16, literal(-10)))
        CFI (cfiCond55) V4 load(1, XDATA, add(CFA_XSP16, literal(-9)))
        CFI (cfiCond55) V5 load(1, XDATA, add(CFA_XSP16, literal(-8)))
        CFI (cfiCond55) V6 load(1, XDATA, add(CFA_XSP16, literal(-7)))
        CFI (cfiCond55) R7 load(1, XDATA, add(CFA_XSP16, literal(-6)))
        CFI (cfiCond55) ?RET_LOW load(1, XDATA, add(CFA_XSP16, literal(-5)))
        CFI (cfiCond55) ?RET_HIGH load(1, XDATA, add(CFA_XSP16, literal(-4)))
        CFI (cfiCond55) ?BRET_EXT load(1, XDATA, add(CFA_XSP16, literal(-3)))
        CFI (cfiCond55) DPL0 load(1, XDATA, add(CFA_XSP16, literal(-2)))
        CFI (cfiCond55) DPH0 load(1, XDATA, add(CFA_XSP16, literal(-1)))
        CFI (cfiCond55) CFA_SP SP+0
        CFI (cfiCond55) CFA_XSP16 add(XSP16, 15)
        CFI Block cfiCond56 Using cfiCommon0
        CFI (cfiCond56) NoFunction
        CFI (cfiCond56) Conditional ??CrossCallReturnLabel_26
        CFI (cfiCond56) R6 load(1, XDATA, add(CFA_XSP16, literal(-9)))
        CFI (cfiCond56) VB load(1, XDATA, add(CFA_XSP16, literal(-8)))
        CFI (cfiCond56) V0 load(1, XDATA, add(CFA_XSP16, literal(-7)))
        CFI (cfiCond56) R7 load(1, XDATA, add(CFA_XSP16, literal(-6)))
        CFI (cfiCond56) ?RET_LOW load(1, XDATA, add(CFA_XSP16, literal(-5)))
        CFI (cfiCond56) ?RET_HIGH load(1, XDATA, add(CFA_XSP16, literal(-4)))
        CFI (cfiCond56) ?BRET_EXT load(1, XDATA, add(CFA_XSP16, literal(-3)))
        CFI (cfiCond56) DPL0 load(1, XDATA, add(CFA_XSP16, literal(-2)))
        CFI (cfiCond56) DPH0 load(1, XDATA, add(CFA_XSP16, literal(-1)))
        CFI (cfiCond56) CFA_SP SP+0
        CFI (cfiCond56) CFA_XSP16 add(XSP16, 9)
        CFI Block cfiPicker57 Using cfiCommon1
        CFI (cfiPicker57) NoFunction
        CFI (cfiPicker57) Picker
        MOVX    A,@DPTR
        MOV     R0,A
        INC     DPTR
        MOVX    A,@DPTR
        MOV     R1,A
        MOV     A,R0
        RET
        CFI EndBlock cfiCond53
        CFI EndBlock cfiCond54
        CFI EndBlock cfiCond55
        CFI EndBlock cfiCond56
        CFI EndBlock cfiPicker57
//  730 
//  731 /*********************************************************************
//  732  * @fn          ZDP_NodeDescMsg
//  733  *
//  734  * @brief       Builds and sends a Node Descriptor message, unicast to the
//  735  *              specified device.
//  736  *
//  737  * @param       inMsg - incoming message
//  738  * @param       nwkAddr - 16 bit network address for device
//  739  * @param       pNodeDesc - pointer to the node descriptor
//  740  *
//  741  * @return      afStatus_t
//  742  */

        RSEG BANKED_CODE:CODE:NOROOT(0)
//  743 afStatus_t ZDP_NodeDescMsg( zdoIncomingMsg_t *inMsg,
ZDP_NodeDescMsg:
        CFI Block cfiBlock58 Using cfiCommon0
        CFI Function ZDP_NodeDescMsg
        CODE
//  744                            uint16 nwkAddr, NodeDescriptorFormat_t *pNodeDesc )
//  745 {
        FUNCALL ZDP_NodeDescMsg, fillAndSend
        LOCFRAME ISTACK, 0, STACK
        LOCFRAME PSTACK, 0, STACK
        LOCFRAME XSTACK, 12, STACK
        LOCFRAME IOVERLAY, 0, STATIC
        LOCFRAME DOVERLAY, 0, STATIC
        ARGFRAME ISTACK, 0, STACK
        ARGFRAME PSTACK, 0, STACK
        ARGFRAME XSTACK, 12, STACK
        ARGFRAME IOVERLAY, 0, STATIC
        ARGFRAME DOVERLAY, 0, STATIC
        MOV     A,#-0xa
        LCALL   ?BANKED_ENTER_XDATA
        CFI DPH0 load(1, XDATA, add(CFA_XSP16, literal(-1)))
        CFI DPL0 load(1, XDATA, add(CFA_XSP16, literal(-2)))
        CFI ?BRET_EXT load(1, XDATA, add(CFA_XSP16, literal(-3)))
        CFI ?RET_HIGH load(1, XDATA, add(CFA_XSP16, literal(-4)))
        CFI ?RET_LOW load(1, XDATA, add(CFA_XSP16, literal(-5)))
        CFI R7 load(1, XDATA, add(CFA_XSP16, literal(-6)))
        CFI V1 load(1, XDATA, add(CFA_XSP16, literal(-7)))
        CFI V0 load(1, XDATA, add(CFA_XSP16, literal(-8)))
        CFI VB load(1, XDATA, add(CFA_XSP16, literal(-9)))
        CFI R6 load(1, XDATA, add(CFA_XSP16, literal(-10)))
        CFI CFA_SP SP+0
        CFI CFA_XSP16 add(XSP16, 10)
        ; Saved register size: 10
        ; Auto size: 0
        MOV     A,#0xa
        LCALL   ?XSTACK_DISP0_8
        LCALL   ??Subroutine108_0 & 0xFFFF
//  746   uint8 *pBuf = ZDP_TmpBuf;
??CrossCallReturnLabel_223:
        LCALL   ??Subroutine113_0 & 0xFFFF
//  747   byte len;
//  748 
//  749   len = 1 + 2 + 13;  // Status + nwkAddr + Node descriptor
//  750 
//  751   *pBuf++ = ZDP_SUCCESS;
??CrossCallReturnLabel_275:
        MOV     DPL,R0
        MOV     DPH,R1
        LCALL   ?Subroutine55 & 0xFFFF
//  752 
//  753   *pBuf++ = LO_UINT16( nwkAddr );
//  754   *pBuf++ = HI_UINT16( nwkAddr );
??CrossCallReturnLabel_80:
        LCALL   ?Subroutine49 & 0xFFFF
//  755 
//  756   *pBuf++ = (byte)((pNodeDesc->ComplexDescAvail << 3) |
//  757                      (pNodeDesc->UserDescAvail << 4) |
//  758                      (pNodeDesc->LogicalType & 0x07));
??CrossCallReturnLabel_70:
        MOV     DPL,R6
        MOV     DPH,R7
        MOVX    A,@DPTR
        ANL     A,#0x1f
        LCALL   ?Subroutine73 & 0xFFFF
//  759 
//  760   *pBuf++ = (byte)((pNodeDesc->FrequencyBand << 3) | (pNodeDesc->APSFlags & 0x07));
??CrossCallReturnLabel_106:
        LCALL   ?Subroutine23 & 0xFFFF
//  761   *pBuf++ = pNodeDesc->CapabilityFlags;
??CrossCallReturnLabel_20:
        LCALL   ?Subroutine23 & 0xFFFF
//  762   *pBuf++ = pNodeDesc->ManufacturerCode[0];
??CrossCallReturnLabel_21:
        INC     DPTR
        LCALL   ?Subroutine20 & 0xFFFF
//  763   *pBuf++ = pNodeDesc->ManufacturerCode[1];
??CrossCallReturnLabel_14:
        LCALL   ?Subroutine20 & 0xFFFF
//  764   *pBuf++ = pNodeDesc->MaxBufferSize;
??CrossCallReturnLabel_15:
        INC     DPTR
        LCALL   ?Subroutine18 & 0xFFFF
//  765   *pBuf++ = pNodeDesc->MaxInTransferSize[0];
??CrossCallReturnLabel_12:
        LCALL   ?Subroutine18 & 0xFFFF
//  766   *pBuf++ = pNodeDesc->MaxInTransferSize[1];
??CrossCallReturnLabel_13:
        LCALL   ?Subroutine19 & 0xFFFF
//  767 
//  768   *pBuf++ = LO_UINT16( pNodeDesc->ServerMask );
??CrossCallReturnLabel_125:
        ADD     A,#0x8
        MOV     R4,A
        MOV     A,R7
        LCALL   ?Subroutine16 & 0xFFFF
//  769   *pBuf++ = HI_UINT16( pNodeDesc->ServerMask );
//  770   *pBuf++ = pNodeDesc->MaxOutTransferSize[0];
??CrossCallReturnLabel_8:
        MOV     DPL,R6
        MOV     DPH,R7
        INC     DPTR
        INC     DPTR
        INC     DPTR
        INC     DPTR
        INC     DPTR
        INC     DPTR
        INC     DPTR
        INC     DPTR
        INC     DPTR
        LCALL   ?Subroutine19 & 0xFFFF
//  771   *pBuf++ = pNodeDesc->MaxOutTransferSize[1];
??CrossCallReturnLabel_126:
        ADD     A,#0xb
        MOV     DPL,A
        MOV     A,R7
        LCALL   ??Subroutine111_0 & 0xFFFF
??CrossCallReturnLabel_247:
        LCALL   ??Subroutine90_0 & 0xFFFF
//  772   *pBuf = pNodeDesc->DescriptorCapability;
??CrossCallReturnLabel_127:
        ADD     A,#0xc
        MOV     DPL,A
        MOV     A,R7
        LCALL   ??Subroutine111_0 & 0xFFFF
??CrossCallReturnLabel_248:
        LCALL   ?Subroutine43 & 0xFFFF
//  773 
//  774   return fillAndSend( &(inMsg->TransSeq), &(inMsg->srcAddr), Node_Desc_rsp, len );
??CrossCallReturnLabel_54:
        ; Setup parameters for call to function fillAndSend
        MOV     ?V0 + 0,#0x2
        MOV     ?V0 + 1,#-0x80
        MOV     R0,#?V0 + 0
        LCALL   ?PUSH_XSTACK_I_TWO
        CFI CFA_XSP16 add(XSP16, 12)
        MOV     R1,#0x10
        MOV     A,R2
        ADD     A,#0x2
        MOV     R4,A
        MOV     A,R3
        ADDC    A,#0x0
        MOV     R5,A
        MOV     A,R2
        ADD     A,#0xf
        MOV     R2,A
        MOV     A,R3
        CFI EndBlock cfiBlock58
        REQUIRE ?Subroutine9
        ; // Fall through to label ?Subroutine9
//  775 }

        RSEG BANKED_CODE:CODE:NOROOT(0)
?Subroutine9:
        CFI Block cfiBlock59 Using cfiCommon0
        CFI NoFunction
        CFI CFA_SP SP+0
        CFI CFA_XSP16 add(XSP16, 12)
        CFI VB load(1, XDATA, add(CFA_XSP16, literal(-9)))
        CFI DPL0 load(1, XDATA, add(CFA_XSP16, literal(-2)))
        CFI DPH0 load(1, XDATA, add(CFA_XSP16, literal(-1)))
        CFI R6 load(1, XDATA, add(CFA_XSP16, literal(-10)))
        CFI R7 load(1, XDATA, add(CFA_XSP16, literal(-6)))
        CFI V0 load(1, XDATA, add(CFA_XSP16, literal(-8)))
        CFI V1 load(1, XDATA, add(CFA_XSP16, literal(-7)))
        CFI ?BRET_EXT load(1, XDATA, add(CFA_XSP16, literal(-3)))
        CFI ?RET_HIGH load(1, XDATA, add(CFA_XSP16, literal(-4)))
        CFI ?RET_LOW load(1, XDATA, add(CFA_XSP16, literal(-5)))
        ADDC    A,#0x0
        MOV     R3,A
        LJMP    ??Subroutine87_0 & 0xFFFF
        CFI EndBlock cfiBlock59

        RSEG BANKED_CODE:CODE:NOROOT(0)
?Subroutine43:
        CFI Block cfiCond60 Using cfiCommon0
        CFI NoFunction
        CFI Conditional ??CrossCallReturnLabel_53
        CFI R6 load(1, XDATA, add(CFA_XSP16, literal(-14)))
        CFI VB load(1, XDATA, add(CFA_XSP16, literal(-13)))
        CFI V0 load(1, XDATA, add(CFA_XSP16, literal(-12)))
        CFI V1 load(1, XDATA, add(CFA_XSP16, literal(-11)))
        CFI V2 load(1, XDATA, add(CFA_XSP16, literal(-10)))
        CFI V3 load(1, XDATA, add(CFA_XSP16, literal(-9)))
        CFI V4 load(1, XDATA, add(CFA_XSP16, literal(-8)))
        CFI V5 load(1, XDATA, add(CFA_XSP16, literal(-7)))
        CFI R7 load(1, XDATA, add(CFA_XSP16, literal(-6)))
        CFI ?RET_LOW load(1, XDATA, add(CFA_XSP16, literal(-5)))
        CFI ?RET_HIGH load(1, XDATA, add(CFA_XSP16, literal(-4)))
        CFI ?BRET_EXT load(1, XDATA, add(CFA_XSP16, literal(-3)))
        CFI DPL0 load(1, XDATA, add(CFA_XSP16, literal(-2)))
        CFI DPH0 load(1, XDATA, add(CFA_XSP16, literal(-1)))
        CFI CFA_SP SP+0
        CFI CFA_XSP16 add(XSP16, 14)
        CFI Block cfiCond61 Using cfiCommon0
        CFI (cfiCond61) NoFunction
        CFI (cfiCond61) Conditional ??CrossCallReturnLabel_54
        CFI (cfiCond61) R6 load(1, XDATA, add(CFA_XSP16, literal(-10)))
        CFI (cfiCond61) VB load(1, XDATA, add(CFA_XSP16, literal(-9)))
        CFI (cfiCond61) V0 load(1, XDATA, add(CFA_XSP16, literal(-8)))
        CFI (cfiCond61) V1 load(1, XDATA, add(CFA_XSP16, literal(-7)))
        CFI (cfiCond61) R7 load(1, XDATA, add(CFA_XSP16, literal(-6)))
        CFI (cfiCond61) ?RET_LOW load(1, XDATA, add(CFA_XSP16, literal(-5)))
        CFI (cfiCond61) ?RET_HIGH load(1, XDATA, add(CFA_XSP16, literal(-4)))
        CFI (cfiCond61) ?BRET_EXT load(1, XDATA, add(CFA_XSP16, literal(-3)))
        CFI (cfiCond61) DPL0 load(1, XDATA, add(CFA_XSP16, literal(-2)))
        CFI (cfiCond61) DPH0 load(1, XDATA, add(CFA_XSP16, literal(-1)))
        CFI (cfiCond61) CFA_SP SP+0
        CFI (cfiCond61) CFA_XSP16 add(XSP16, 10)
        CFI Block cfiCond62 Using cfiCommon0
        CFI (cfiCond62) NoFunction
        CFI (cfiCond62) Conditional ??CrossCallReturnLabel_55
        CFI (cfiCond62) R6 load(1, XDATA, add(CFA_XSP16, literal(-18)))
        CFI (cfiCond62) VB load(1, XDATA, add(CFA_XSP16, literal(-17)))
        CFI (cfiCond62) V0 load(1, XDATA, add(CFA_XSP16, literal(-16)))
        CFI (cfiCond62) V1 load(1, XDATA, add(CFA_XSP16, literal(-15)))
        CFI (cfiCond62) V2 load(1, XDATA, add(CFA_XSP16, literal(-14)))
        CFI (cfiCond62) V3 load(1, XDATA, add(CFA_XSP16, literal(-13)))
        CFI (cfiCond62) V4 load(1, XDATA, add(CFA_XSP16, literal(-12)))
        CFI (cfiCond62) V5 load(1, XDATA, add(CFA_XSP16, literal(-11)))
        CFI (cfiCond62) V6 load(1, XDATA, add(CFA_XSP16, literal(-10)))
        CFI (cfiCond62) V7 load(1, XDATA, add(CFA_XSP16, literal(-9)))
        CFI (cfiCond62) V8 load(1, XDATA, add(CFA_XSP16, literal(-8)))
        CFI (cfiCond62) V9 load(1, XDATA, add(CFA_XSP16, literal(-7)))
        CFI (cfiCond62) R7 load(1, XDATA, add(CFA_XSP16, literal(-6)))
        CFI (cfiCond62) ?RET_LOW load(1, XDATA, add(CFA_XSP16, literal(-5)))
        CFI (cfiCond62) ?RET_HIGH load(1, XDATA, add(CFA_XSP16, literal(-4)))
        CFI (cfiCond62) ?BRET_EXT load(1, XDATA, add(CFA_XSP16, literal(-3)))
        CFI (cfiCond62) DPL0 load(1, XDATA, add(CFA_XSP16, literal(-2)))
        CFI (cfiCond62) DPH0 load(1, XDATA, add(CFA_XSP16, literal(-1)))
        CFI (cfiCond62) CFA_SP SP+0
        CFI (cfiCond62) CFA_XSP16 add(XSP16, 18)
        CFI Block cfiPicker63 Using cfiCommon1
        CFI (cfiPicker63) NoFunction
        CFI (cfiPicker63) Picker
        MOVX    A,@DPTR
        MOV     DPL,R0
        MOV     DPH,R1
        MOVX    @DPTR,A
        RET
        CFI EndBlock cfiCond60
        CFI EndBlock cfiCond61
        CFI EndBlock cfiCond62
        CFI EndBlock cfiPicker63

        RSEG BANKED_CODE:CODE:NOROOT(0)
?Subroutine23:
        CFI Block cfiCond64 Using cfiCommon0
        CFI NoFunction
        CFI Conditional ??CrossCallReturnLabel_20
        CFI R6 load(1, XDATA, add(CFA_XSP16, literal(-10)))
        CFI VB load(1, XDATA, add(CFA_XSP16, literal(-9)))
        CFI V0 load(1, XDATA, add(CFA_XSP16, literal(-8)))
        CFI V1 load(1, XDATA, add(CFA_XSP16, literal(-7)))
        CFI R7 load(1, XDATA, add(CFA_XSP16, literal(-6)))
        CFI ?RET_LOW load(1, XDATA, add(CFA_XSP16, literal(-5)))
        CFI ?RET_HIGH load(1, XDATA, add(CFA_XSP16, literal(-4)))
        CFI ?BRET_EXT load(1, XDATA, add(CFA_XSP16, literal(-3)))
        CFI DPL0 load(1, XDATA, add(CFA_XSP16, literal(-2)))
        CFI DPH0 load(1, XDATA, add(CFA_XSP16, literal(-1)))
        CFI CFA_SP SP+0
        CFI CFA_XSP16 add(XSP16, 10)
        CFI Block cfiCond65 Using cfiCommon0
        CFI (cfiCond65) NoFunction
        CFI (cfiCond65) Conditional ??CrossCallReturnLabel_21
        CFI (cfiCond65) R6 load(1, XDATA, add(CFA_XSP16, literal(-10)))
        CFI (cfiCond65) VB load(1, XDATA, add(CFA_XSP16, literal(-9)))
        CFI (cfiCond65) V0 load(1, XDATA, add(CFA_XSP16, literal(-8)))
        CFI (cfiCond65) V1 load(1, XDATA, add(CFA_XSP16, literal(-7)))
        CFI (cfiCond65) R7 load(1, XDATA, add(CFA_XSP16, literal(-6)))
        CFI (cfiCond65) ?RET_LOW load(1, XDATA, add(CFA_XSP16, literal(-5)))
        CFI (cfiCond65) ?RET_HIGH load(1, XDATA, add(CFA_XSP16, literal(-4)))
        CFI (cfiCond65) ?BRET_EXT load(1, XDATA, add(CFA_XSP16, literal(-3)))
        CFI (cfiCond65) DPL0 load(1, XDATA, add(CFA_XSP16, literal(-2)))
        CFI (cfiCond65) DPH0 load(1, XDATA, add(CFA_XSP16, literal(-1)))
        CFI (cfiCond65) CFA_SP SP+0
        CFI (cfiCond65) CFA_XSP16 add(XSP16, 10)
        CFI Block cfiPicker66 Using cfiCommon1
        CFI (cfiPicker66) NoFunction
        CFI (cfiPicker66) Picker
        MOVX    A,@DPTR
        LCALL   ?Subroutine73 & 0xFFFF
??CrossCallReturnLabel_107:
        INC     DPTR
        RET
        CFI EndBlock cfiCond64
        CFI EndBlock cfiCond65
        CFI EndBlock cfiPicker66

        RSEG BANKED_CODE:CODE:NOROOT(0)
?Subroutine73:
        CFI Block cfiCond67 Using cfiCommon0
        CFI NoFunction
        CFI Conditional ??CrossCallReturnLabel_106
        CFI R6 load(1, XDATA, add(CFA_XSP16, literal(-10)))
        CFI VB load(1, XDATA, add(CFA_XSP16, literal(-9)))
        CFI V0 load(1, XDATA, add(CFA_XSP16, literal(-8)))
        CFI V1 load(1, XDATA, add(CFA_XSP16, literal(-7)))
        CFI R7 load(1, XDATA, add(CFA_XSP16, literal(-6)))
        CFI ?RET_LOW load(1, XDATA, add(CFA_XSP16, literal(-5)))
        CFI ?RET_HIGH load(1, XDATA, add(CFA_XSP16, literal(-4)))
        CFI ?BRET_EXT load(1, XDATA, add(CFA_XSP16, literal(-3)))
        CFI DPL0 load(1, XDATA, add(CFA_XSP16, literal(-2)))
        CFI DPH0 load(1, XDATA, add(CFA_XSP16, literal(-1)))
        CFI CFA_SP SP+0
        CFI CFA_XSP16 add(XSP16, 10)
        CFI Block cfiCond68 Using cfiCommon0
        CFI (cfiCond68) NoFunction
        CFI (cfiCond68) Conditional ??CrossCallReturnLabel_107, ??CrossCallReturnLabel_20
        CFI (cfiCond68) R6 load(1, XDATA, add(CFA_XSP16, literal(-10)))
        CFI (cfiCond68) VB load(1, XDATA, add(CFA_XSP16, literal(-9)))
        CFI (cfiCond68) V0 load(1, XDATA, add(CFA_XSP16, literal(-8)))
        CFI (cfiCond68) V1 load(1, XDATA, add(CFA_XSP16, literal(-7)))
        CFI (cfiCond68) R7 load(1, XDATA, add(CFA_XSP16, literal(-6)))
        CFI (cfiCond68) ?RET_LOW load(1, XDATA, add(CFA_XSP16, literal(-5)))
        CFI (cfiCond68) ?RET_HIGH load(1, XDATA, add(CFA_XSP16, literal(-4)))
        CFI (cfiCond68) ?BRET_EXT load(1, XDATA, add(CFA_XSP16, literal(-3)))
        CFI (cfiCond68) DPL0 load(1, XDATA, add(CFA_XSP16, literal(-2)))
        CFI (cfiCond68) DPH0 load(1, XDATA, add(CFA_XSP16, literal(-1)))
        CFI (cfiCond68) CFA_SP SP+0
        CFI (cfiCond68) CFA_XSP16 add(XSP16, 10)
        CFI Block cfiCond69 Using cfiCommon0
        CFI (cfiCond69) NoFunction
        CFI (cfiCond69) Conditional ??CrossCallReturnLabel_107, ??CrossCallReturnLabel_21
        CFI (cfiCond69) R6 load(1, XDATA, add(CFA_XSP16, literal(-10)))
        CFI (cfiCond69) VB load(1, XDATA, add(CFA_XSP16, literal(-9)))
        CFI (cfiCond69) V0 load(1, XDATA, add(CFA_XSP16, literal(-8)))
        CFI (cfiCond69) V1 load(1, XDATA, add(CFA_XSP16, literal(-7)))
        CFI (cfiCond69) R7 load(1, XDATA, add(CFA_XSP16, literal(-6)))
        CFI (cfiCond69) ?RET_LOW load(1, XDATA, add(CFA_XSP16, literal(-5)))
        CFI (cfiCond69) ?RET_HIGH load(1, XDATA, add(CFA_XSP16, literal(-4)))
        CFI (cfiCond69) ?BRET_EXT load(1, XDATA, add(CFA_XSP16, literal(-3)))
        CFI (cfiCond69) DPL0 load(1, XDATA, add(CFA_XSP16, literal(-2)))
        CFI (cfiCond69) DPH0 load(1, XDATA, add(CFA_XSP16, literal(-1)))
        CFI (cfiCond69) CFA_SP SP+0
        CFI (cfiCond69) CFA_XSP16 add(XSP16, 10)
        CFI Block cfiPicker70 Using cfiCommon1
        CFI (cfiPicker70) NoFunction
        CFI (cfiPicker70) Picker
        LCALL   ?Subroutine81 & 0xFFFF
??CrossCallReturnLabel_114:
        RET
        CFI EndBlock cfiCond67
        CFI EndBlock cfiCond68
        CFI EndBlock cfiCond69
        CFI EndBlock cfiPicker70

        RSEG BANKED_CODE:CODE:NOROOT(0)
?Subroutine81:
        CFI Block cfiCond71 Using cfiCommon0
        CFI NoFunction
        CFI Conditional ??CrossCallReturnLabel_114, ??CrossCallReturnLabel_106
        CFI R6 load(1, XDATA, add(CFA_XSP16, literal(-10)))
        CFI VB load(1, XDATA, add(CFA_XSP16, literal(-9)))
        CFI V0 load(1, XDATA, add(CFA_XSP16, literal(-8)))
        CFI V1 load(1, XDATA, add(CFA_XSP16, literal(-7)))
        CFI R7 load(1, XDATA, add(CFA_XSP16, literal(-6)))
        CFI ?RET_LOW load(1, XDATA, add(CFA_XSP16, literal(-5)))
        CFI ?RET_HIGH load(1, XDATA, add(CFA_XSP16, literal(-4)))
        CFI ?BRET_EXT load(1, XDATA, add(CFA_XSP16, literal(-3)))
        CFI DPL0 load(1, XDATA, add(CFA_XSP16, literal(-2)))
        CFI DPH0 load(1, XDATA, add(CFA_XSP16, literal(-1)))
        CFI CFA_SP SP+0
        CFI CFA_XSP16 add(XSP16, 10)
        CFI Block cfiCond72 Using cfiCommon0
        CFI (cfiCond72) NoFunction
        CFI (cfiCond72) Conditional ??CrossCallReturnLabel_114, ??CrossCallReturnLabel_107, ??CrossCallReturnLabel_20
        CFI (cfiCond72) R6 load(1, XDATA, add(CFA_XSP16, literal(-10)))
        CFI (cfiCond72) VB load(1, XDATA, add(CFA_XSP16, literal(-9)))
        CFI (cfiCond72) V0 load(1, XDATA, add(CFA_XSP16, literal(-8)))
        CFI (cfiCond72) V1 load(1, XDATA, add(CFA_XSP16, literal(-7)))
        CFI (cfiCond72) R7 load(1, XDATA, add(CFA_XSP16, literal(-6)))
        CFI (cfiCond72) ?RET_LOW load(1, XDATA, add(CFA_XSP16, literal(-5)))
        CFI (cfiCond72) ?RET_HIGH load(1, XDATA, add(CFA_XSP16, literal(-4)))
        CFI (cfiCond72) ?BRET_EXT load(1, XDATA, add(CFA_XSP16, literal(-3)))
        CFI (cfiCond72) DPL0 load(1, XDATA, add(CFA_XSP16, literal(-2)))
        CFI (cfiCond72) DPH0 load(1, XDATA, add(CFA_XSP16, literal(-1)))
        CFI (cfiCond72) CFA_SP SP+0
        CFI (cfiCond72) CFA_XSP16 add(XSP16, 10)
        CFI Block cfiCond73 Using cfiCommon0
        CFI (cfiCond73) NoFunction
        CFI (cfiCond73) Conditional ??CrossCallReturnLabel_114, ??CrossCallReturnLabel_107, ??CrossCallReturnLabel_21
        CFI (cfiCond73) R6 load(1, XDATA, add(CFA_XSP16, literal(-10)))
        CFI (cfiCond73) VB load(1, XDATA, add(CFA_XSP16, literal(-9)))
        CFI (cfiCond73) V0 load(1, XDATA, add(CFA_XSP16, literal(-8)))
        CFI (cfiCond73) V1 load(1, XDATA, add(CFA_XSP16, literal(-7)))
        CFI (cfiCond73) R7 load(1, XDATA, add(CFA_XSP16, literal(-6)))
        CFI (cfiCond73) ?RET_LOW load(1, XDATA, add(CFA_XSP16, literal(-5)))
        CFI (cfiCond73) ?RET_HIGH load(1, XDATA, add(CFA_XSP16, literal(-4)))
        CFI (cfiCond73) ?BRET_EXT load(1, XDATA, add(CFA_XSP16, literal(-3)))
        CFI (cfiCond73) DPL0 load(1, XDATA, add(CFA_XSP16, literal(-2)))
        CFI (cfiCond73) DPH0 load(1, XDATA, add(CFA_XSP16, literal(-1)))
        CFI (cfiCond73) CFA_SP SP+0
        CFI (cfiCond73) CFA_XSP16 add(XSP16, 10)
        CFI Block cfiCond74 Using cfiCommon0
        CFI (cfiCond74) NoFunction
        CFI (cfiCond74) Conditional ??CrossCallReturnLabel_115, ??CrossCallReturnLabel_104, ??CrossCallReturnLabel_14
        CFI (cfiCond74) R6 load(1, XDATA, add(CFA_XSP16, literal(-10)))
        CFI (cfiCond74) VB load(1, XDATA, add(CFA_XSP16, literal(-9)))
        CFI (cfiCond74) V0 load(1, XDATA, add(CFA_XSP16, literal(-8)))
        CFI (cfiCond74) V1 load(1, XDATA, add(CFA_XSP16, literal(-7)))
        CFI (cfiCond74) R7 load(1, XDATA, add(CFA_XSP16, literal(-6)))
        CFI (cfiCond74) ?RET_LOW load(1, XDATA, add(CFA_XSP16, literal(-5)))
        CFI (cfiCond74) ?RET_HIGH load(1, XDATA, add(CFA_XSP16, literal(-4)))
        CFI (cfiCond74) ?BRET_EXT load(1, XDATA, add(CFA_XSP16, literal(-3)))
        CFI (cfiCond74) DPL0 load(1, XDATA, add(CFA_XSP16, literal(-2)))
        CFI (cfiCond74) DPH0 load(1, XDATA, add(CFA_XSP16, literal(-1)))
        CFI (cfiCond74) CFA_SP SP+0
        CFI (cfiCond74) CFA_XSP16 add(XSP16, 10)
        CFI Block cfiCond75 Using cfiCommon0
        CFI (cfiCond75) NoFunction
        CFI (cfiCond75) Conditional ??CrossCallReturnLabel_115, ??CrossCallReturnLabel_104, ??CrossCallReturnLabel_15
        CFI (cfiCond75) R6 load(1, XDATA, add(CFA_XSP16, literal(-10)))
        CFI (cfiCond75) VB load(1, XDATA, add(CFA_XSP16, literal(-9)))
        CFI (cfiCond75) V0 load(1, XDATA, add(CFA_XSP16, literal(-8)))
        CFI (cfiCond75) V1 load(1, XDATA, add(CFA_XSP16, literal(-7)))
        CFI (cfiCond75) R7 load(1, XDATA, add(CFA_XSP16, literal(-6)))
        CFI (cfiCond75) ?RET_LOW load(1, XDATA, add(CFA_XSP16, literal(-5)))
        CFI (cfiCond75) ?RET_HIGH load(1, XDATA, add(CFA_XSP16, literal(-4)))
        CFI (cfiCond75) ?BRET_EXT load(1, XDATA, add(CFA_XSP16, literal(-3)))
        CFI (cfiCond75) DPL0 load(1, XDATA, add(CFA_XSP16, literal(-2)))
        CFI (cfiCond75) DPH0 load(1, XDATA, add(CFA_XSP16, literal(-1)))
        CFI (cfiCond75) CFA_SP SP+0
        CFI (cfiCond75) CFA_XSP16 add(XSP16, 10)
        CFI Block cfiCond76 Using cfiCommon0
        CFI (cfiCond76) NoFunction
        CFI (cfiCond76) Conditional ??CrossCallReturnLabel_115, ??CrossCallReturnLabel_105, ??CrossCallReturnLabel_12
        CFI (cfiCond76) R6 load(1, XDATA, add(CFA_XSP16, literal(-10)))
        CFI (cfiCond76) VB load(1, XDATA, add(CFA_XSP16, literal(-9)))
        CFI (cfiCond76) V0 load(1, XDATA, add(CFA_XSP16, literal(-8)))
        CFI (cfiCond76) V1 load(1, XDATA, add(CFA_XSP16, literal(-7)))
        CFI (cfiCond76) R7 load(1, XDATA, add(CFA_XSP16, literal(-6)))
        CFI (cfiCond76) ?RET_LOW load(1, XDATA, add(CFA_XSP16, literal(-5)))
        CFI (cfiCond76) ?RET_HIGH load(1, XDATA, add(CFA_XSP16, literal(-4)))
        CFI (cfiCond76) ?BRET_EXT load(1, XDATA, add(CFA_XSP16, literal(-3)))
        CFI (cfiCond76) DPL0 load(1, XDATA, add(CFA_XSP16, literal(-2)))
        CFI (cfiCond76) DPH0 load(1, XDATA, add(CFA_XSP16, literal(-1)))
        CFI (cfiCond76) CFA_SP SP+0
        CFI (cfiCond76) CFA_XSP16 add(XSP16, 10)
        CFI Block cfiCond77 Using cfiCommon0
        CFI (cfiCond77) NoFunction
        CFI (cfiCond77) Conditional ??CrossCallReturnLabel_115, ??CrossCallReturnLabel_105, ??CrossCallReturnLabel_13
        CFI (cfiCond77) R6 load(1, XDATA, add(CFA_XSP16, literal(-10)))
        CFI (cfiCond77) VB load(1, XDATA, add(CFA_XSP16, literal(-9)))
        CFI (cfiCond77) V0 load(1, XDATA, add(CFA_XSP16, literal(-8)))
        CFI (cfiCond77) V1 load(1, XDATA, add(CFA_XSP16, literal(-7)))
        CFI (cfiCond77) R7 load(1, XDATA, add(CFA_XSP16, literal(-6)))
        CFI (cfiCond77) ?RET_LOW load(1, XDATA, add(CFA_XSP16, literal(-5)))
        CFI (cfiCond77) ?RET_HIGH load(1, XDATA, add(CFA_XSP16, literal(-4)))
        CFI (cfiCond77) ?BRET_EXT load(1, XDATA, add(CFA_XSP16, literal(-3)))
        CFI (cfiCond77) DPL0 load(1, XDATA, add(CFA_XSP16, literal(-2)))
        CFI (cfiCond77) DPH0 load(1, XDATA, add(CFA_XSP16, literal(-1)))
        CFI (cfiCond77) CFA_SP SP+0
        CFI (cfiCond77) CFA_XSP16 add(XSP16, 10)
        CFI Block cfiPicker78 Using cfiCommon1
        CFI (cfiPicker78) NoFunction
        CFI (cfiPicker78) Picker
        MOV     DPL,R0
        MOV     DPH,R1
        MOVX    @DPTR,A
        INC     DPTR
        INC     R0
        MOV     R1,DPH
        MOV     DPL,R6
        MOV     DPH,R7
        INC     DPTR
        RET
        CFI EndBlock cfiCond71
        CFI EndBlock cfiCond72
        CFI EndBlock cfiCond73
        CFI EndBlock cfiCond74
        CFI EndBlock cfiCond75
        CFI EndBlock cfiCond76
        CFI EndBlock cfiCond77
        CFI EndBlock cfiPicker78

        RSEG BANKED_CODE:CODE:NOROOT(0)
?Subroutine20:
        CFI Block cfiCond79 Using cfiCommon0
        CFI NoFunction
        CFI Conditional ??CrossCallReturnLabel_14
        CFI R6 load(1, XDATA, add(CFA_XSP16, literal(-10)))
        CFI VB load(1, XDATA, add(CFA_XSP16, literal(-9)))
        CFI V0 load(1, XDATA, add(CFA_XSP16, literal(-8)))
        CFI V1 load(1, XDATA, add(CFA_XSP16, literal(-7)))
        CFI R7 load(1, XDATA, add(CFA_XSP16, literal(-6)))
        CFI ?RET_LOW load(1, XDATA, add(CFA_XSP16, literal(-5)))
        CFI ?RET_HIGH load(1, XDATA, add(CFA_XSP16, literal(-4)))
        CFI ?BRET_EXT load(1, XDATA, add(CFA_XSP16, literal(-3)))
        CFI DPL0 load(1, XDATA, add(CFA_XSP16, literal(-2)))
        CFI DPH0 load(1, XDATA, add(CFA_XSP16, literal(-1)))
        CFI CFA_SP SP+0
        CFI CFA_XSP16 add(XSP16, 10)
        CFI Block cfiCond80 Using cfiCommon0
        CFI (cfiCond80) NoFunction
        CFI (cfiCond80) Conditional ??CrossCallReturnLabel_15
        CFI (cfiCond80) R6 load(1, XDATA, add(CFA_XSP16, literal(-10)))
        CFI (cfiCond80) VB load(1, XDATA, add(CFA_XSP16, literal(-9)))
        CFI (cfiCond80) V0 load(1, XDATA, add(CFA_XSP16, literal(-8)))
        CFI (cfiCond80) V1 load(1, XDATA, add(CFA_XSP16, literal(-7)))
        CFI (cfiCond80) R7 load(1, XDATA, add(CFA_XSP16, literal(-6)))
        CFI (cfiCond80) ?RET_LOW load(1, XDATA, add(CFA_XSP16, literal(-5)))
        CFI (cfiCond80) ?RET_HIGH load(1, XDATA, add(CFA_XSP16, literal(-4)))
        CFI (cfiCond80) ?BRET_EXT load(1, XDATA, add(CFA_XSP16, literal(-3)))
        CFI (cfiCond80) DPL0 load(1, XDATA, add(CFA_XSP16, literal(-2)))
        CFI (cfiCond80) DPH0 load(1, XDATA, add(CFA_XSP16, literal(-1)))
        CFI (cfiCond80) CFA_SP SP+0
        CFI (cfiCond80) CFA_XSP16 add(XSP16, 10)
        CFI Block cfiPicker81 Using cfiCommon1
        CFI (cfiPicker81) NoFunction
        CFI (cfiPicker81) Picker
        LCALL   ?Subroutine71 & 0xFFFF
??CrossCallReturnLabel_104:
        RET
        CFI EndBlock cfiCond79
        CFI EndBlock cfiCond80
        CFI EndBlock cfiPicker81

        RSEG BANKED_CODE:CODE:NOROOT(0)
?Subroutine71:
        CFI Block cfiCond82 Using cfiCommon0
        CFI NoFunction
        CFI Conditional ??CrossCallReturnLabel_104, ??CrossCallReturnLabel_14
        CFI R6 load(1, XDATA, add(CFA_XSP16, literal(-10)))
        CFI VB load(1, XDATA, add(CFA_XSP16, literal(-9)))
        CFI V0 load(1, XDATA, add(CFA_XSP16, literal(-8)))
        CFI V1 load(1, XDATA, add(CFA_XSP16, literal(-7)))
        CFI R7 load(1, XDATA, add(CFA_XSP16, literal(-6)))
        CFI ?RET_LOW load(1, XDATA, add(CFA_XSP16, literal(-5)))
        CFI ?RET_HIGH load(1, XDATA, add(CFA_XSP16, literal(-4)))
        CFI ?BRET_EXT load(1, XDATA, add(CFA_XSP16, literal(-3)))
        CFI DPL0 load(1, XDATA, add(CFA_XSP16, literal(-2)))
        CFI DPH0 load(1, XDATA, add(CFA_XSP16, literal(-1)))
        CFI CFA_SP SP+0
        CFI CFA_XSP16 add(XSP16, 10)
        CFI Block cfiCond83 Using cfiCommon0
        CFI (cfiCond83) NoFunction
        CFI (cfiCond83) Conditional ??CrossCallReturnLabel_104, ??CrossCallReturnLabel_15
        CFI (cfiCond83) R6 load(1, XDATA, add(CFA_XSP16, literal(-10)))
        CFI (cfiCond83) VB load(1, XDATA, add(CFA_XSP16, literal(-9)))
        CFI (cfiCond83) V0 load(1, XDATA, add(CFA_XSP16, literal(-8)))
        CFI (cfiCond83) V1 load(1, XDATA, add(CFA_XSP16, literal(-7)))
        CFI (cfiCond83) R7 load(1, XDATA, add(CFA_XSP16, literal(-6)))
        CFI (cfiCond83) ?RET_LOW load(1, XDATA, add(CFA_XSP16, literal(-5)))
        CFI (cfiCond83) ?RET_HIGH load(1, XDATA, add(CFA_XSP16, literal(-4)))
        CFI (cfiCond83) ?BRET_EXT load(1, XDATA, add(CFA_XSP16, literal(-3)))
        CFI (cfiCond83) DPL0 load(1, XDATA, add(CFA_XSP16, literal(-2)))
        CFI (cfiCond83) DPH0 load(1, XDATA, add(CFA_XSP16, literal(-1)))
        CFI (cfiCond83) CFA_SP SP+0
        CFI (cfiCond83) CFA_XSP16 add(XSP16, 10)
        CFI Block cfiCond84 Using cfiCommon0
        CFI (cfiCond84) NoFunction
        CFI (cfiCond84) Conditional ??CrossCallReturnLabel_105, ??CrossCallReturnLabel_12
        CFI (cfiCond84) R6 load(1, XDATA, add(CFA_XSP16, literal(-10)))
        CFI (cfiCond84) VB load(1, XDATA, add(CFA_XSP16, literal(-9)))
        CFI (cfiCond84) V0 load(1, XDATA, add(CFA_XSP16, literal(-8)))
        CFI (cfiCond84) V1 load(1, XDATA, add(CFA_XSP16, literal(-7)))
        CFI (cfiCond84) R7 load(1, XDATA, add(CFA_XSP16, literal(-6)))
        CFI (cfiCond84) ?RET_LOW load(1, XDATA, add(CFA_XSP16, literal(-5)))
        CFI (cfiCond84) ?RET_HIGH load(1, XDATA, add(CFA_XSP16, literal(-4)))
        CFI (cfiCond84) ?BRET_EXT load(1, XDATA, add(CFA_XSP16, literal(-3)))
        CFI (cfiCond84) DPL0 load(1, XDATA, add(CFA_XSP16, literal(-2)))
        CFI (cfiCond84) DPH0 load(1, XDATA, add(CFA_XSP16, literal(-1)))
        CFI (cfiCond84) CFA_SP SP+0
        CFI (cfiCond84) CFA_XSP16 add(XSP16, 10)
        CFI Block cfiCond85 Using cfiCommon0
        CFI (cfiCond85) NoFunction
        CFI (cfiCond85) Conditional ??CrossCallReturnLabel_105, ??CrossCallReturnLabel_13
        CFI (cfiCond85) R6 load(1, XDATA, add(CFA_XSP16, literal(-10)))
        CFI (cfiCond85) VB load(1, XDATA, add(CFA_XSP16, literal(-9)))
        CFI (cfiCond85) V0 load(1, XDATA, add(CFA_XSP16, literal(-8)))
        CFI (cfiCond85) V1 load(1, XDATA, add(CFA_XSP16, literal(-7)))
        CFI (cfiCond85) R7 load(1, XDATA, add(CFA_XSP16, literal(-6)))
        CFI (cfiCond85) ?RET_LOW load(1, XDATA, add(CFA_XSP16, literal(-5)))
        CFI (cfiCond85) ?RET_HIGH load(1, XDATA, add(CFA_XSP16, literal(-4)))
        CFI (cfiCond85) ?BRET_EXT load(1, XDATA, add(CFA_XSP16, literal(-3)))
        CFI (cfiCond85) DPL0 load(1, XDATA, add(CFA_XSP16, literal(-2)))
        CFI (cfiCond85) DPH0 load(1, XDATA, add(CFA_XSP16, literal(-1)))
        CFI (cfiCond85) CFA_SP SP+0
        CFI (cfiCond85) CFA_XSP16 add(XSP16, 10)
        CFI Block cfiPicker86 Using cfiCommon1
        CFI (cfiPicker86) NoFunction
        CFI (cfiPicker86) Picker
        MOVX    A,@DPTR
        LCALL   ?Subroutine81 & 0xFFFF
??CrossCallReturnLabel_115:
        INC     DPTR
        INC     DPTR
        INC     DPTR
        RET
        CFI EndBlock cfiCond82
        CFI EndBlock cfiCond83
        CFI EndBlock cfiCond84
        CFI EndBlock cfiCond85
        CFI EndBlock cfiPicker86

        RSEG BANKED_CODE:CODE:NOROOT(0)
?Subroutine19:
        CFI Block cfiCond87 Using cfiCommon0
        CFI NoFunction
        CFI Conditional ??CrossCallReturnLabel_125
        CFI R6 load(1, XDATA, add(CFA_XSP16, literal(-10)))
        CFI VB load(1, XDATA, add(CFA_XSP16, literal(-9)))
        CFI V0 load(1, XDATA, add(CFA_XSP16, literal(-8)))
        CFI V1 load(1, XDATA, add(CFA_XSP16, literal(-7)))
        CFI R7 load(1, XDATA, add(CFA_XSP16, literal(-6)))
        CFI ?RET_LOW load(1, XDATA, add(CFA_XSP16, literal(-5)))
        CFI ?RET_HIGH load(1, XDATA, add(CFA_XSP16, literal(-4)))
        CFI ?BRET_EXT load(1, XDATA, add(CFA_XSP16, literal(-3)))
        CFI DPL0 load(1, XDATA, add(CFA_XSP16, literal(-2)))
        CFI DPH0 load(1, XDATA, add(CFA_XSP16, literal(-1)))
        CFI CFA_SP SP+0
        CFI CFA_XSP16 add(XSP16, 10)
        CFI Block cfiCond88 Using cfiCommon0
        CFI (cfiCond88) NoFunction
        CFI (cfiCond88) Conditional ??CrossCallReturnLabel_126
        CFI (cfiCond88) R6 load(1, XDATA, add(CFA_XSP16, literal(-10)))
        CFI (cfiCond88) VB load(1, XDATA, add(CFA_XSP16, literal(-9)))
        CFI (cfiCond88) V0 load(1, XDATA, add(CFA_XSP16, literal(-8)))
        CFI (cfiCond88) V1 load(1, XDATA, add(CFA_XSP16, literal(-7)))
        CFI (cfiCond88) R7 load(1, XDATA, add(CFA_XSP16, literal(-6)))
        CFI (cfiCond88) ?RET_LOW load(1, XDATA, add(CFA_XSP16, literal(-5)))
        CFI (cfiCond88) ?RET_HIGH load(1, XDATA, add(CFA_XSP16, literal(-4)))
        CFI (cfiCond88) ?BRET_EXT load(1, XDATA, add(CFA_XSP16, literal(-3)))
        CFI (cfiCond88) DPL0 load(1, XDATA, add(CFA_XSP16, literal(-2)))
        CFI (cfiCond88) DPH0 load(1, XDATA, add(CFA_XSP16, literal(-1)))
        CFI (cfiCond88) CFA_SP SP+0
        CFI (cfiCond88) CFA_XSP16 add(XSP16, 10)
        CFI Block cfiPicker89 Using cfiCommon1
        CFI (cfiPicker89) NoFunction
        CFI (cfiPicker89) Picker
        INC     DPTR
        CFI EndBlock cfiCond87
        CFI EndBlock cfiCond88
        CFI EndBlock cfiPicker89
        REQUIRE ??Subroutine90_0
        ; // Fall through to label ??Subroutine90_0

        RSEG BANKED_CODE:CODE:NOROOT(0)
??Subroutine90_0:
        CFI Block cfiCond90 Using cfiCommon0
        CFI NoFunction
        CFI Conditional ??CrossCallReturnLabel_127
        CFI R6 load(1, XDATA, add(CFA_XSP16, literal(-10)))
        CFI VB load(1, XDATA, add(CFA_XSP16, literal(-9)))
        CFI V0 load(1, XDATA, add(CFA_XSP16, literal(-8)))
        CFI V1 load(1, XDATA, add(CFA_XSP16, literal(-7)))
        CFI R7 load(1, XDATA, add(CFA_XSP16, literal(-6)))
        CFI ?RET_LOW load(1, XDATA, add(CFA_XSP16, literal(-5)))
        CFI ?RET_HIGH load(1, XDATA, add(CFA_XSP16, literal(-4)))
        CFI ?BRET_EXT load(1, XDATA, add(CFA_XSP16, literal(-3)))
        CFI DPL0 load(1, XDATA, add(CFA_XSP16, literal(-2)))
        CFI DPH0 load(1, XDATA, add(CFA_XSP16, literal(-1)))
        CFI CFA_SP SP+0
        CFI CFA_XSP16 add(XSP16, 10)
        CFI Block cfiCond91 Using cfiCommon0
        CFI (cfiCond91) NoFunction
        CFI (cfiCond91) Conditional ??CrossCallReturnLabel_125
        CFI (cfiCond91) R6 load(1, XDATA, add(CFA_XSP16, literal(-10)))
        CFI (cfiCond91) VB load(1, XDATA, add(CFA_XSP16, literal(-9)))
        CFI (cfiCond91) V0 load(1, XDATA, add(CFA_XSP16, literal(-8)))
        CFI (cfiCond91) V1 load(1, XDATA, add(CFA_XSP16, literal(-7)))
        CFI (cfiCond91) R7 load(1, XDATA, add(CFA_XSP16, literal(-6)))
        CFI (cfiCond91) ?RET_LOW load(1, XDATA, add(CFA_XSP16, literal(-5)))
        CFI (cfiCond91) ?RET_HIGH load(1, XDATA, add(CFA_XSP16, literal(-4)))
        CFI (cfiCond91) ?BRET_EXT load(1, XDATA, add(CFA_XSP16, literal(-3)))
        CFI (cfiCond91) DPL0 load(1, XDATA, add(CFA_XSP16, literal(-2)))
        CFI (cfiCond91) DPH0 load(1, XDATA, add(CFA_XSP16, literal(-1)))
        CFI (cfiCond91) CFA_SP SP+0
        CFI (cfiCond91) CFA_XSP16 add(XSP16, 10)
        CFI Block cfiCond92 Using cfiCommon0
        CFI (cfiCond92) NoFunction
        CFI (cfiCond92) Conditional ??CrossCallReturnLabel_126
        CFI (cfiCond92) R6 load(1, XDATA, add(CFA_XSP16, literal(-10)))
        CFI (cfiCond92) VB load(1, XDATA, add(CFA_XSP16, literal(-9)))
        CFI (cfiCond92) V0 load(1, XDATA, add(CFA_XSP16, literal(-8)))
        CFI (cfiCond92) V1 load(1, XDATA, add(CFA_XSP16, literal(-7)))
        CFI (cfiCond92) R7 load(1, XDATA, add(CFA_XSP16, literal(-6)))
        CFI (cfiCond92) ?RET_LOW load(1, XDATA, add(CFA_XSP16, literal(-5)))
        CFI (cfiCond92) ?RET_HIGH load(1, XDATA, add(CFA_XSP16, literal(-4)))
        CFI (cfiCond92) ?BRET_EXT load(1, XDATA, add(CFA_XSP16, literal(-3)))
        CFI (cfiCond92) DPL0 load(1, XDATA, add(CFA_XSP16, literal(-2)))
        CFI (cfiCond92) DPH0 load(1, XDATA, add(CFA_XSP16, literal(-1)))
        CFI (cfiCond92) CFA_SP SP+0
        CFI (cfiCond92) CFA_XSP16 add(XSP16, 10)
        CFI Block cfiPicker93 Using cfiCommon1
        CFI (cfiPicker93) NoFunction
        CFI (cfiPicker93) Picker
        LCALL   ??Subroutine104_0 & 0xFFFF
??CrossCallReturnLabel_192:
        MOV     A,R6
        RET
        CFI EndBlock cfiCond90
        CFI EndBlock cfiCond91
        CFI EndBlock cfiCond92
        CFI EndBlock cfiPicker93

        RSEG BANKED_CODE:CODE:NOROOT(0)
?Subroutine18:
        CFI Block cfiCond94 Using cfiCommon0
        CFI NoFunction
        CFI Conditional ??CrossCallReturnLabel_12
        CFI R6 load(1, XDATA, add(CFA_XSP16, literal(-10)))
        CFI VB load(1, XDATA, add(CFA_XSP16, literal(-9)))
        CFI V0 load(1, XDATA, add(CFA_XSP16, literal(-8)))
        CFI V1 load(1, XDATA, add(CFA_XSP16, literal(-7)))
        CFI R7 load(1, XDATA, add(CFA_XSP16, literal(-6)))
        CFI ?RET_LOW load(1, XDATA, add(CFA_XSP16, literal(-5)))
        CFI ?RET_HIGH load(1, XDATA, add(CFA_XSP16, literal(-4)))
        CFI ?BRET_EXT load(1, XDATA, add(CFA_XSP16, literal(-3)))
        CFI DPL0 load(1, XDATA, add(CFA_XSP16, literal(-2)))
        CFI DPH0 load(1, XDATA, add(CFA_XSP16, literal(-1)))
        CFI CFA_SP SP+0
        CFI CFA_XSP16 add(XSP16, 10)
        CFI Block cfiCond95 Using cfiCommon0
        CFI (cfiCond95) NoFunction
        CFI (cfiCond95) Conditional ??CrossCallReturnLabel_13
        CFI (cfiCond95) R6 load(1, XDATA, add(CFA_XSP16, literal(-10)))
        CFI (cfiCond95) VB load(1, XDATA, add(CFA_XSP16, literal(-9)))
        CFI (cfiCond95) V0 load(1, XDATA, add(CFA_XSP16, literal(-8)))
        CFI (cfiCond95) V1 load(1, XDATA, add(CFA_XSP16, literal(-7)))
        CFI (cfiCond95) R7 load(1, XDATA, add(CFA_XSP16, literal(-6)))
        CFI (cfiCond95) ?RET_LOW load(1, XDATA, add(CFA_XSP16, literal(-5)))
        CFI (cfiCond95) ?RET_HIGH load(1, XDATA, add(CFA_XSP16, literal(-4)))
        CFI (cfiCond95) ?BRET_EXT load(1, XDATA, add(CFA_XSP16, literal(-3)))
        CFI (cfiCond95) DPL0 load(1, XDATA, add(CFA_XSP16, literal(-2)))
        CFI (cfiCond95) DPH0 load(1, XDATA, add(CFA_XSP16, literal(-1)))
        CFI (cfiCond95) CFA_SP SP+0
        CFI (cfiCond95) CFA_XSP16 add(XSP16, 10)
        CFI Block cfiPicker96 Using cfiCommon1
        CFI (cfiPicker96) NoFunction
        CFI (cfiPicker96) Picker
        LCALL   ?Subroutine71 & 0xFFFF
??CrossCallReturnLabel_105:
        INC     DPTR
        INC     DPTR
        RET
        CFI EndBlock cfiCond94
        CFI EndBlock cfiCond95
        CFI EndBlock cfiPicker96
//  776 
//  777 /*********************************************************************
//  778  * @fn          ZDP_PowerDescMsg
//  779  *
//  780  * @brief       Builds and sends a Power Descriptor message, unicast to the
//  781  *              specified device.
//  782  *
//  783  * @param       inMsg - incoming message (request)
//  784  * @param       nwkAddr - 16 bit network address for device
//  785  * @param       pPowerDesc - pointer to the node descriptor
//  786  *
//  787  * @return      afStatus_t
//  788  */

        RSEG BANKED_CODE:CODE:NOROOT(0)
//  789 afStatus_t ZDP_PowerDescMsg( zdoIncomingMsg_t *inMsg,
ZDP_PowerDescMsg:
        CFI Block cfiBlock97 Using cfiCommon0
        CFI Function ZDP_PowerDescMsg
        CODE
//  790                      uint16 nwkAddr, NodePowerDescriptorFormat_t *pPowerDesc )
//  791 {
        FUNCALL ZDP_PowerDescMsg, fillAndSend
        LOCFRAME ISTACK, 0, STACK
        LOCFRAME PSTACK, 0, STACK
        LOCFRAME XSTACK, 12, STACK
        LOCFRAME IOVERLAY, 0, STATIC
        LOCFRAME DOVERLAY, 0, STATIC
        ARGFRAME ISTACK, 0, STACK
        ARGFRAME PSTACK, 0, STACK
        ARGFRAME XSTACK, 12, STACK
        ARGFRAME IOVERLAY, 0, STATIC
        ARGFRAME DOVERLAY, 0, STATIC
        MOV     A,#-0xa
        LCALL   ?BANKED_ENTER_XDATA
        CFI DPH0 load(1, XDATA, add(CFA_XSP16, literal(-1)))
        CFI DPL0 load(1, XDATA, add(CFA_XSP16, literal(-2)))
        CFI ?BRET_EXT load(1, XDATA, add(CFA_XSP16, literal(-3)))
        CFI ?RET_HIGH load(1, XDATA, add(CFA_XSP16, literal(-4)))
        CFI ?RET_LOW load(1, XDATA, add(CFA_XSP16, literal(-5)))
        CFI R7 load(1, XDATA, add(CFA_XSP16, literal(-6)))
        CFI V1 load(1, XDATA, add(CFA_XSP16, literal(-7)))
        CFI V0 load(1, XDATA, add(CFA_XSP16, literal(-8)))
        CFI VB load(1, XDATA, add(CFA_XSP16, literal(-9)))
        CFI R6 load(1, XDATA, add(CFA_XSP16, literal(-10)))
        CFI CFA_SP SP+0
        CFI CFA_XSP16 add(XSP16, 10)
        ; Saved register size: 10
        ; Auto size: 0
        MOV     A,R2
        MOV     R6,A
        MOV     A,R3
        MOV     R7,A
        MOV     A,#0xa
        LCALL   ?XSTACK_DISP0_8
        LCALL   ??Subroutine114_0 & 0xFFFF
//  792   uint8 *pBuf = ZDP_TmpBuf;
??CrossCallReturnLabel_264:
        LCALL   ?Subroutine39 & 0xFFFF
//  793   byte len = 1 + 2 + 2;  // Status + nwkAddr + Node Power descriptor.
//  794 
//  795   *pBuf++ = ZDP_SUCCESS;
??CrossCallReturnLabel_132:
        MOV     DPL,R2
        MOV     DPH,R3
        LCALL   ?Subroutine55 & 0xFFFF
//  796 
//  797   *pBuf++ = LO_UINT16( nwkAddr );
//  798   *pBuf++ = HI_UINT16( nwkAddr );
??CrossCallReturnLabel_81:
        LCALL   ??Subroutine110_0 & 0xFFFF
//  799 
//  800   *pBuf++ = (byte)((pPowerDesc->AvailablePowerSources << 4)
//  801                     | (pPowerDesc->PowerMode & 0x0F));
??CrossCallReturnLabel_243:
        LCALL   ?Subroutine25 & 0xFFFF
//  802   *pBuf++ = (byte)((pPowerDesc->CurrentPowerSourceLevel << 4)
//  803                     | (pPowerDesc->CurrentPowerSource & 0x0F));
??CrossCallReturnLabel_24:
        LCALL   ??Subroutine99_0 & 0xFFFF
??CrossCallReturnLabel_164:
        ANL     A,#0xf
        MOV     R1,A
        MOV     A,#0xc
        MOV     R0,#?V0 + 0
        LCALL   ?US_SHR
        MOV     A,?V0 + 0
        SWAP    A
        ORL     A,R1
        MOV     DPL,R2
        MOV     DPH,R3
        MOVX    @DPTR,A
//  804 
//  805   return fillAndSend( &(inMsg->TransSeq), &(inMsg->srcAddr), Power_Desc_rsp, len );
        ; Setup parameters for call to function fillAndSend
        MOV     ?V0 + 0,#0x3
        MOV     ?V0 + 1,#-0x80
        MOV     R0,#?V0 + 0
        LCALL   ?PUSH_XSTACK_I_TWO
        CFI CFA_XSP16 add(XSP16, 12)
        MOV     R1,#0x5
        MOV     A,R6
        ADD     A,#0x2
        MOV     R4,A
        MOV     A,R7
        ADDC    A,#0x0
        MOV     R5,A
        MOV     A,R6
        ADD     A,#0xf
        MOV     R2,A
        MOV     A,R7
        LJMP    ?Subroutine9 & 0xFFFF
        CFI EndBlock cfiBlock97
//  806 }

        RSEG BANKED_CODE:CODE:NOROOT(0)
?Subroutine55:
        CFI Block cfiCond98 Using cfiCommon0
        CFI NoFunction
        CFI Conditional ??CrossCallReturnLabel_80
        CFI R6 load(1, XDATA, add(CFA_XSP16, literal(-10)))
        CFI VB load(1, XDATA, add(CFA_XSP16, literal(-9)))
        CFI V0 load(1, XDATA, add(CFA_XSP16, literal(-8)))
        CFI V1 load(1, XDATA, add(CFA_XSP16, literal(-7)))
        CFI R7 load(1, XDATA, add(CFA_XSP16, literal(-6)))
        CFI ?RET_LOW load(1, XDATA, add(CFA_XSP16, literal(-5)))
        CFI ?RET_HIGH load(1, XDATA, add(CFA_XSP16, literal(-4)))
        CFI ?BRET_EXT load(1, XDATA, add(CFA_XSP16, literal(-3)))
        CFI DPL0 load(1, XDATA, add(CFA_XSP16, literal(-2)))
        CFI DPH0 load(1, XDATA, add(CFA_XSP16, literal(-1)))
        CFI CFA_SP SP+0
        CFI CFA_XSP16 add(XSP16, 10)
        CFI Block cfiCond99 Using cfiCommon0
        CFI (cfiCond99) NoFunction
        CFI (cfiCond99) Conditional ??CrossCallReturnLabel_81
        CFI (cfiCond99) R6 load(1, XDATA, add(CFA_XSP16, literal(-10)))
        CFI (cfiCond99) VB load(1, XDATA, add(CFA_XSP16, literal(-9)))
        CFI (cfiCond99) V0 load(1, XDATA, add(CFA_XSP16, literal(-8)))
        CFI (cfiCond99) V1 load(1, XDATA, add(CFA_XSP16, literal(-7)))
        CFI (cfiCond99) R7 load(1, XDATA, add(CFA_XSP16, literal(-6)))
        CFI (cfiCond99) ?RET_LOW load(1, XDATA, add(CFA_XSP16, literal(-5)))
        CFI (cfiCond99) ?RET_HIGH load(1, XDATA, add(CFA_XSP16, literal(-4)))
        CFI (cfiCond99) ?BRET_EXT load(1, XDATA, add(CFA_XSP16, literal(-3)))
        CFI (cfiCond99) DPL0 load(1, XDATA, add(CFA_XSP16, literal(-2)))
        CFI (cfiCond99) DPH0 load(1, XDATA, add(CFA_XSP16, literal(-1)))
        CFI (cfiCond99) CFA_SP SP+0
        CFI (cfiCond99) CFA_XSP16 add(XSP16, 10)
        CFI Block cfiCond100 Using cfiCommon0
        CFI (cfiCond100) NoFunction
        CFI (cfiCond100) Conditional ??CrossCallReturnLabel_82
        CFI (cfiCond100) R6 load(1, XDATA, add(CFA_XSP16, literal(-18)))
        CFI (cfiCond100) VB load(1, XDATA, add(CFA_XSP16, literal(-17)))
        CFI (cfiCond100) V0 load(1, XDATA, add(CFA_XSP16, literal(-16)))
        CFI (cfiCond100) V1 load(1, XDATA, add(CFA_XSP16, literal(-15)))
        CFI (cfiCond100) V2 load(1, XDATA, add(CFA_XSP16, literal(-14)))
        CFI (cfiCond100) V3 load(1, XDATA, add(CFA_XSP16, literal(-13)))
        CFI (cfiCond100) V4 load(1, XDATA, add(CFA_XSP16, literal(-12)))
        CFI (cfiCond100) V5 load(1, XDATA, add(CFA_XSP16, literal(-11)))
        CFI (cfiCond100) V6 load(1, XDATA, add(CFA_XSP16, literal(-10)))
        CFI (cfiCond100) V7 load(1, XDATA, add(CFA_XSP16, literal(-9)))
        CFI (cfiCond100) V8 load(1, XDATA, add(CFA_XSP16, literal(-8)))
        CFI (cfiCond100) V9 load(1, XDATA, add(CFA_XSP16, literal(-7)))
        CFI (cfiCond100) R7 load(1, XDATA, add(CFA_XSP16, literal(-6)))
        CFI (cfiCond100) ?RET_LOW load(1, XDATA, add(CFA_XSP16, literal(-5)))
        CFI (cfiCond100) ?RET_HIGH load(1, XDATA, add(CFA_XSP16, literal(-4)))
        CFI (cfiCond100) ?BRET_EXT load(1, XDATA, add(CFA_XSP16, literal(-3)))
        CFI (cfiCond100) DPL0 load(1, XDATA, add(CFA_XSP16, literal(-2)))
        CFI (cfiCond100) DPH0 load(1, XDATA, add(CFA_XSP16, literal(-1)))
        CFI (cfiCond100) CFA_SP SP+0
        CFI (cfiCond100) CFA_XSP16 add(XSP16, 19)
        CFI Block cfiPicker101 Using cfiCommon1
        CFI (cfiPicker101) NoFunction
        CFI (cfiPicker101) Picker
        CLR     A
        MOVX    @DPTR,A
        INC     DPTR
        MOV     A,R4
        MOVX    @DPTR,A
        INC     DPTR
        MOV     A,R5
        RET
        CFI EndBlock cfiCond98
        CFI EndBlock cfiCond99
        CFI EndBlock cfiCond100
        CFI EndBlock cfiPicker101

        RSEG BANKED_CODE:CODE:NOROOT(0)
?Subroutine39:
        CFI Block cfiCond102 Using cfiCommon0
        CFI NoFunction
        CFI Conditional ??CrossCallReturnLabel_131
        CFI R6 load(1, XDATA, add(CFA_XSP16, literal(-15)))
        CFI VB load(1, XDATA, add(CFA_XSP16, literal(-14)))
        CFI V0 load(1, XDATA, add(CFA_XSP16, literal(-13)))
        CFI V1 load(1, XDATA, add(CFA_XSP16, literal(-12)))
        CFI V2 load(1, XDATA, add(CFA_XSP16, literal(-11)))
        CFI V3 load(1, XDATA, add(CFA_XSP16, literal(-10)))
        CFI V4 load(1, XDATA, add(CFA_XSP16, literal(-9)))
        CFI V5 load(1, XDATA, add(CFA_XSP16, literal(-8)))
        CFI V6 load(1, XDATA, add(CFA_XSP16, literal(-7)))
        CFI R7 load(1, XDATA, add(CFA_XSP16, literal(-6)))
        CFI ?RET_LOW load(1, XDATA, add(CFA_XSP16, literal(-5)))
        CFI ?RET_HIGH load(1, XDATA, add(CFA_XSP16, literal(-4)))
        CFI ?BRET_EXT load(1, XDATA, add(CFA_XSP16, literal(-3)))
        CFI DPL0 load(1, XDATA, add(CFA_XSP16, literal(-2)))
        CFI DPH0 load(1, XDATA, add(CFA_XSP16, literal(-1)))
        CFI CFA_SP SP+0
        CFI CFA_XSP16 add(XSP16, 15)
        CFI Block cfiCond103 Using cfiCommon0
        CFI (cfiCond103) NoFunction
        CFI (cfiCond103) Conditional ??CrossCallReturnLabel_132
        CFI (cfiCond103) R6 load(1, XDATA, add(CFA_XSP16, literal(-10)))
        CFI (cfiCond103) VB load(1, XDATA, add(CFA_XSP16, literal(-9)))
        CFI (cfiCond103) V0 load(1, XDATA, add(CFA_XSP16, literal(-8)))
        CFI (cfiCond103) V1 load(1, XDATA, add(CFA_XSP16, literal(-7)))
        CFI (cfiCond103) R7 load(1, XDATA, add(CFA_XSP16, literal(-6)))
        CFI (cfiCond103) ?RET_LOW load(1, XDATA, add(CFA_XSP16, literal(-5)))
        CFI (cfiCond103) ?RET_HIGH load(1, XDATA, add(CFA_XSP16, literal(-4)))
        CFI (cfiCond103) ?BRET_EXT load(1, XDATA, add(CFA_XSP16, literal(-3)))
        CFI (cfiCond103) DPL0 load(1, XDATA, add(CFA_XSP16, literal(-2)))
        CFI (cfiCond103) DPH0 load(1, XDATA, add(CFA_XSP16, literal(-1)))
        CFI (cfiCond103) CFA_SP SP+0
        CFI (cfiCond103) CFA_XSP16 add(XSP16, 10)
        CFI Block cfiCond104 Using cfiCommon0
        CFI (cfiCond104) NoFunction
        CFI (cfiCond104) Conditional ??CrossCallReturnLabel_133
        CFI (cfiCond104) R6 load(1, XDATA, add(CFA_XSP16, literal(-22)))
        CFI (cfiCond104) VB load(1, XDATA, add(CFA_XSP16, literal(-21)))
        CFI (cfiCond104) V0 load(1, XDATA, add(CFA_XSP16, literal(-20)))
        CFI (cfiCond104) V1 load(1, XDATA, add(CFA_XSP16, literal(-19)))
        CFI (cfiCond104) V2 load(1, XDATA, add(CFA_XSP16, literal(-18)))
        CFI (cfiCond104) V3 load(1, XDATA, add(CFA_XSP16, literal(-17)))
        CFI (cfiCond104) V4 load(1, XDATA, add(CFA_XSP16, literal(-16)))
        CFI (cfiCond104) V5 load(1, XDATA, add(CFA_XSP16, literal(-15)))
        CFI (cfiCond104) V6 load(1, XDATA, add(CFA_XSP16, literal(-14)))
        CFI (cfiCond104) V7 load(1, XDATA, add(CFA_XSP16, literal(-13)))
        CFI (cfiCond104) V8 load(1, XDATA, add(CFA_XSP16, literal(-12)))
        CFI (cfiCond104) V9 load(1, XDATA, add(CFA_XSP16, literal(-11)))
        CFI (cfiCond104) V10 load(1, XDATA, add(CFA_XSP16, literal(-10)))
        CFI (cfiCond104) V11 load(1, XDATA, add(CFA_XSP16, literal(-9)))
        CFI (cfiCond104) V12 load(1, XDATA, add(CFA_XSP16, literal(-8)))
        CFI (cfiCond104) V13 load(1, XDATA, add(CFA_XSP16, literal(-7)))
        CFI (cfiCond104) R7 load(1, XDATA, add(CFA_XSP16, literal(-6)))
        CFI (cfiCond104) ?RET_LOW load(1, XDATA, add(CFA_XSP16, literal(-5)))
        CFI (cfiCond104) ?RET_HIGH load(1, XDATA, add(CFA_XSP16, literal(-4)))
        CFI (cfiCond104) ?BRET_EXT load(1, XDATA, add(CFA_XSP16, literal(-3)))
        CFI (cfiCond104) DPL0 load(1, XDATA, add(CFA_XSP16, literal(-2)))
        CFI (cfiCond104) DPH0 load(1, XDATA, add(CFA_XSP16, literal(-1)))
        CFI (cfiCond104) CFA_SP SP+0
        CFI (cfiCond104) CFA_XSP16 add(XSP16, 22)
        CFI Block cfiCond105 Using cfiCommon0
        CFI (cfiCond105) NoFunction
        CFI (cfiCond105) Conditional ??CrossCallReturnLabel_134
        CFI (cfiCond105) R6 load(1, XDATA, add(CFA_XSP16, literal(-12)))
        CFI (cfiCond105) VB load(1, XDATA, add(CFA_XSP16, literal(-11)))
        CFI (cfiCond105) V0 load(1, XDATA, add(CFA_XSP16, literal(-10)))
        CFI (cfiCond105) V1 load(1, XDATA, add(CFA_XSP16, literal(-9)))
        CFI (cfiCond105) V2 load(1, XDATA, add(CFA_XSP16, literal(-8)))
        CFI (cfiCond105) V3 load(1, XDATA, add(CFA_XSP16, literal(-7)))
        CFI (cfiCond105) R7 load(1, XDATA, add(CFA_XSP16, literal(-6)))
        CFI (cfiCond105) ?RET_LOW load(1, XDATA, add(CFA_XSP16, literal(-5)))
        CFI (cfiCond105) ?RET_HIGH load(1, XDATA, add(CFA_XSP16, literal(-4)))
        CFI (cfiCond105) ?BRET_EXT load(1, XDATA, add(CFA_XSP16, literal(-3)))
        CFI (cfiCond105) DPL0 load(1, XDATA, add(CFA_XSP16, literal(-2)))
        CFI (cfiCond105) DPH0 load(1, XDATA, add(CFA_XSP16, literal(-1)))
        CFI (cfiCond105) CFA_SP SP+0
        CFI (cfiCond105) CFA_XSP16 add(XSP16, 12)
        CFI Block cfiPicker106 Using cfiCommon1
        CFI (cfiPicker106) NoFunction
        CFI (cfiPicker106) Picker
        MOV     DPTR,#ZDP_TmpBuf
        CFI EndBlock cfiCond102
        CFI EndBlock cfiCond103
        CFI EndBlock cfiCond104
        CFI EndBlock cfiCond105
        CFI EndBlock cfiPicker106
        REQUIRE ??Subroutine91_0
        ; // Fall through to label ??Subroutine91_0

        RSEG BANKED_CODE:CODE:NOROOT(0)
??Subroutine91_0:
        CFI Block cfiCond107 Using cfiCommon0
        CFI NoFunction
        CFI Conditional ??CrossCallReturnLabel_128
        CFI R6 load(1, XDATA, add(CFA_XSP16, literal(-15)))
        CFI VB load(1, XDATA, add(CFA_XSP16, literal(-14)))
        CFI V0 load(1, XDATA, add(CFA_XSP16, literal(-13)))
        CFI V1 load(1, XDATA, add(CFA_XSP16, literal(-12)))
        CFI V2 load(1, XDATA, add(CFA_XSP16, literal(-11)))
        CFI V3 load(1, XDATA, add(CFA_XSP16, literal(-10)))
        CFI V4 load(1, XDATA, add(CFA_XSP16, literal(-9)))
        CFI V5 load(1, XDATA, add(CFA_XSP16, literal(-8)))
        CFI V6 load(1, XDATA, add(CFA_XSP16, literal(-7)))
        CFI R7 load(1, XDATA, add(CFA_XSP16, literal(-6)))
        CFI ?RET_LOW load(1, XDATA, add(CFA_XSP16, literal(-5)))
        CFI ?RET_HIGH load(1, XDATA, add(CFA_XSP16, literal(-4)))
        CFI ?BRET_EXT load(1, XDATA, add(CFA_XSP16, literal(-3)))
        CFI DPL0 load(1, XDATA, add(CFA_XSP16, literal(-2)))
        CFI DPH0 load(1, XDATA, add(CFA_XSP16, literal(-1)))
        CFI CFA_SP SP+0
        CFI CFA_XSP16 add(XSP16, 15)
        CFI Block cfiCond108 Using cfiCommon0
        CFI (cfiCond108) NoFunction
        CFI (cfiCond108) Conditional ??CrossCallReturnLabel_129
        CFI (cfiCond108) R6 load(1, XDATA, add(CFA_XSP16, literal(-14)))
        CFI (cfiCond108) VB load(1, XDATA, add(CFA_XSP16, literal(-13)))
        CFI (cfiCond108) V0 load(1, XDATA, add(CFA_XSP16, literal(-12)))
        CFI (cfiCond108) V1 load(1, XDATA, add(CFA_XSP16, literal(-11)))
        CFI (cfiCond108) V2 load(1, XDATA, add(CFA_XSP16, literal(-10)))
        CFI (cfiCond108) V3 load(1, XDATA, add(CFA_XSP16, literal(-9)))
        CFI (cfiCond108) V4 load(1, XDATA, add(CFA_XSP16, literal(-8)))
        CFI (cfiCond108) V5 load(1, XDATA, add(CFA_XSP16, literal(-7)))
        CFI (cfiCond108) R7 load(1, XDATA, add(CFA_XSP16, literal(-6)))
        CFI (cfiCond108) ?RET_LOW load(1, XDATA, add(CFA_XSP16, literal(-5)))
        CFI (cfiCond108) ?RET_HIGH load(1, XDATA, add(CFA_XSP16, literal(-4)))
        CFI (cfiCond108) ?BRET_EXT load(1, XDATA, add(CFA_XSP16, literal(-3)))
        CFI (cfiCond108) DPL0 load(1, XDATA, add(CFA_XSP16, literal(-2)))
        CFI (cfiCond108) DPH0 load(1, XDATA, add(CFA_XSP16, literal(-1)))
        CFI (cfiCond108) CFA_SP SP+0
        CFI (cfiCond108) CFA_XSP16 add(XSP16, 14)
        CFI Block cfiCond109 Using cfiCommon0
        CFI (cfiCond109) NoFunction
        CFI (cfiCond109) Conditional ??CrossCallReturnLabel_130
        CFI (cfiCond109) R6 load(1, XDATA, add(CFA_XSP16, literal(-9)))
        CFI (cfiCond109) VB load(1, XDATA, add(CFA_XSP16, literal(-8)))
        CFI (cfiCond109) V0 load(1, XDATA, add(CFA_XSP16, literal(-7)))
        CFI (cfiCond109) R7 load(1, XDATA, add(CFA_XSP16, literal(-6)))
        CFI (cfiCond109) ?RET_LOW load(1, XDATA, add(CFA_XSP16, literal(-5)))
        CFI (cfiCond109) ?RET_HIGH load(1, XDATA, add(CFA_XSP16, literal(-4)))
        CFI (cfiCond109) ?BRET_EXT load(1, XDATA, add(CFA_XSP16, literal(-3)))
        CFI (cfiCond109) DPL0 load(1, XDATA, add(CFA_XSP16, literal(-2)))
        CFI (cfiCond109) DPH0 load(1, XDATA, add(CFA_XSP16, literal(-1)))
        CFI (cfiCond109) CFA_SP SP+0
        CFI (cfiCond109) CFA_XSP16 add(XSP16, 9)
        CFI Block cfiCond110 Using cfiCommon0
        CFI (cfiCond110) NoFunction
        CFI (cfiCond110) Conditional ??CrossCallReturnLabel_131
        CFI (cfiCond110) R6 load(1, XDATA, add(CFA_XSP16, literal(-15)))
        CFI (cfiCond110) VB load(1, XDATA, add(CFA_XSP16, literal(-14)))
        CFI (cfiCond110) V0 load(1, XDATA, add(CFA_XSP16, literal(-13)))
        CFI (cfiCond110) V1 load(1, XDATA, add(CFA_XSP16, literal(-12)))
        CFI (cfiCond110) V2 load(1, XDATA, add(CFA_XSP16, literal(-11)))
        CFI (cfiCond110) V3 load(1, XDATA, add(CFA_XSP16, literal(-10)))
        CFI (cfiCond110) V4 load(1, XDATA, add(CFA_XSP16, literal(-9)))
        CFI (cfiCond110) V5 load(1, XDATA, add(CFA_XSP16, literal(-8)))
        CFI (cfiCond110) V6 load(1, XDATA, add(CFA_XSP16, literal(-7)))
        CFI (cfiCond110) R7 load(1, XDATA, add(CFA_XSP16, literal(-6)))
        CFI (cfiCond110) ?RET_LOW load(1, XDATA, add(CFA_XSP16, literal(-5)))
        CFI (cfiCond110) ?RET_HIGH load(1, XDATA, add(CFA_XSP16, literal(-4)))
        CFI (cfiCond110) ?BRET_EXT load(1, XDATA, add(CFA_XSP16, literal(-3)))
        CFI (cfiCond110) DPL0 load(1, XDATA, add(CFA_XSP16, literal(-2)))
        CFI (cfiCond110) DPH0 load(1, XDATA, add(CFA_XSP16, literal(-1)))
        CFI (cfiCond110) CFA_SP SP+0
        CFI (cfiCond110) CFA_XSP16 add(XSP16, 15)
        CFI Block cfiCond111 Using cfiCommon0
        CFI (cfiCond111) NoFunction
        CFI (cfiCond111) Conditional ??CrossCallReturnLabel_132
        CFI (cfiCond111) R6 load(1, XDATA, add(CFA_XSP16, literal(-10)))
        CFI (cfiCond111) VB load(1, XDATA, add(CFA_XSP16, literal(-9)))
        CFI (cfiCond111) V0 load(1, XDATA, add(CFA_XSP16, literal(-8)))
        CFI (cfiCond111) V1 load(1, XDATA, add(CFA_XSP16, literal(-7)))
        CFI (cfiCond111) R7 load(1, XDATA, add(CFA_XSP16, literal(-6)))
        CFI (cfiCond111) ?RET_LOW load(1, XDATA, add(CFA_XSP16, literal(-5)))
        CFI (cfiCond111) ?RET_HIGH load(1, XDATA, add(CFA_XSP16, literal(-4)))
        CFI (cfiCond111) ?BRET_EXT load(1, XDATA, add(CFA_XSP16, literal(-3)))
        CFI (cfiCond111) DPL0 load(1, XDATA, add(CFA_XSP16, literal(-2)))
        CFI (cfiCond111) DPH0 load(1, XDATA, add(CFA_XSP16, literal(-1)))
        CFI (cfiCond111) CFA_SP SP+0
        CFI (cfiCond111) CFA_XSP16 add(XSP16, 10)
        CFI Block cfiCond112 Using cfiCommon0
        CFI (cfiCond112) NoFunction
        CFI (cfiCond112) Conditional ??CrossCallReturnLabel_133
        CFI (cfiCond112) R6 load(1, XDATA, add(CFA_XSP16, literal(-22)))
        CFI (cfiCond112) VB load(1, XDATA, add(CFA_XSP16, literal(-21)))
        CFI (cfiCond112) V0 load(1, XDATA, add(CFA_XSP16, literal(-20)))
        CFI (cfiCond112) V1 load(1, XDATA, add(CFA_XSP16, literal(-19)))
        CFI (cfiCond112) V2 load(1, XDATA, add(CFA_XSP16, literal(-18)))
        CFI (cfiCond112) V3 load(1, XDATA, add(CFA_XSP16, literal(-17)))
        CFI (cfiCond112) V4 load(1, XDATA, add(CFA_XSP16, literal(-16)))
        CFI (cfiCond112) V5 load(1, XDATA, add(CFA_XSP16, literal(-15)))
        CFI (cfiCond112) V6 load(1, XDATA, add(CFA_XSP16, literal(-14)))
        CFI (cfiCond112) V7 load(1, XDATA, add(CFA_XSP16, literal(-13)))
        CFI (cfiCond112) V8 load(1, XDATA, add(CFA_XSP16, literal(-12)))
        CFI (cfiCond112) V9 load(1, XDATA, add(CFA_XSP16, literal(-11)))
        CFI (cfiCond112) V10 load(1, XDATA, add(CFA_XSP16, literal(-10)))
        CFI (cfiCond112) V11 load(1, XDATA, add(CFA_XSP16, literal(-9)))
        CFI (cfiCond112) V12 load(1, XDATA, add(CFA_XSP16, literal(-8)))
        CFI (cfiCond112) V13 load(1, XDATA, add(CFA_XSP16, literal(-7)))
        CFI (cfiCond112) R7 load(1, XDATA, add(CFA_XSP16, literal(-6)))
        CFI (cfiCond112) ?RET_LOW load(1, XDATA, add(CFA_XSP16, literal(-5)))
        CFI (cfiCond112) ?RET_HIGH load(1, XDATA, add(CFA_XSP16, literal(-4)))
        CFI (cfiCond112) ?BRET_EXT load(1, XDATA, add(CFA_XSP16, literal(-3)))
        CFI (cfiCond112) DPL0 load(1, XDATA, add(CFA_XSP16, literal(-2)))
        CFI (cfiCond112) DPH0 load(1, XDATA, add(CFA_XSP16, literal(-1)))
        CFI (cfiCond112) CFA_SP SP+0
        CFI (cfiCond112) CFA_XSP16 add(XSP16, 22)
        CFI Block cfiCond113 Using cfiCommon0
        CFI (cfiCond113) NoFunction
        CFI (cfiCond113) Conditional ??CrossCallReturnLabel_134
        CFI (cfiCond113) R6 load(1, XDATA, add(CFA_XSP16, literal(-12)))
        CFI (cfiCond113) VB load(1, XDATA, add(CFA_XSP16, literal(-11)))
        CFI (cfiCond113) V0 load(1, XDATA, add(CFA_XSP16, literal(-10)))
        CFI (cfiCond113) V1 load(1, XDATA, add(CFA_XSP16, literal(-9)))
        CFI (cfiCond113) V2 load(1, XDATA, add(CFA_XSP16, literal(-8)))
        CFI (cfiCond113) V3 load(1, XDATA, add(CFA_XSP16, literal(-7)))
        CFI (cfiCond113) R7 load(1, XDATA, add(CFA_XSP16, literal(-6)))
        CFI (cfiCond113) ?RET_LOW load(1, XDATA, add(CFA_XSP16, literal(-5)))
        CFI (cfiCond113) ?RET_HIGH load(1, XDATA, add(CFA_XSP16, literal(-4)))
        CFI (cfiCond113) ?BRET_EXT load(1, XDATA, add(CFA_XSP16, literal(-3)))
        CFI (cfiCond113) DPL0 load(1, XDATA, add(CFA_XSP16, literal(-2)))
        CFI (cfiCond113) DPH0 load(1, XDATA, add(CFA_XSP16, literal(-1)))
        CFI (cfiCond113) CFA_SP SP+0
        CFI (cfiCond113) CFA_XSP16 add(XSP16, 12)
        CFI Block cfiPicker114 Using cfiCommon1
        CFI (cfiPicker114) NoFunction
        CFI (cfiPicker114) Picker
        MOVX    A,@DPTR
        MOV     R2,A
        INC     DPTR
        MOVX    A,@DPTR
        MOV     R3,A
        RET
        CFI EndBlock cfiCond107
        CFI EndBlock cfiCond108
        CFI EndBlock cfiCond109
        CFI EndBlock cfiCond110
        CFI EndBlock cfiCond111
        CFI EndBlock cfiCond112
        CFI EndBlock cfiCond113
        CFI EndBlock cfiPicker114
//  807 
//  808 /*********************************************************************
//  809  * @fn          ZDP_SimpleDescMsg
//  810  *
//  811  * @brief       Builds and sends a Simple Descriptor message, unicast to the
//  812  *              specified device.
//  813  *
//  814  * @param       inMsg - incoming message (request)
//  815  * @param       Status - message status (ZDP_SUCCESS or other)
//  816  * @param       pSimpleDesc - pointer to the node descriptor
//  817  *
//  818  * @return      afStatus_t
//  819  */

        RSEG BANKED_CODE:CODE:NOROOT(0)
//  820 afStatus_t ZDP_SimpleDescMsg( zdoIncomingMsg_t *inMsg, byte Status,
ZDP_SimpleDescMsg:
        CFI Block cfiBlock115 Using cfiCommon0
        CFI Function ZDP_SimpleDescMsg
        CODE
//  821                               SimpleDescriptionFormat_t *pSimpleDesc )
//  822 {
        FUNCALL ZDP_SimpleDescMsg, fillAndSend
        LOCFRAME ISTACK, 0, STACK
        LOCFRAME PSTACK, 0, STACK
        LOCFRAME XSTACK, 20, STACK
        LOCFRAME IOVERLAY, 0, STATIC
        LOCFRAME DOVERLAY, 0, STATIC
        ARGFRAME ISTACK, 0, STACK
        ARGFRAME PSTACK, 0, STACK
        ARGFRAME XSTACK, 20, STACK
        ARGFRAME IOVERLAY, 0, STATIC
        ARGFRAME DOVERLAY, 0, STATIC
        MOV     A,#-0x12
        LCALL   ?BANKED_ENTER_XDATA
        CFI DPH0 load(1, XDATA, add(CFA_XSP16, literal(-1)))
        CFI DPL0 load(1, XDATA, add(CFA_XSP16, literal(-2)))
        CFI ?BRET_EXT load(1, XDATA, add(CFA_XSP16, literal(-3)))
        CFI ?RET_HIGH load(1, XDATA, add(CFA_XSP16, literal(-4)))
        CFI ?RET_LOW load(1, XDATA, add(CFA_XSP16, literal(-5)))
        CFI R7 load(1, XDATA, add(CFA_XSP16, literal(-6)))
        CFI V9 load(1, XDATA, add(CFA_XSP16, literal(-7)))
        CFI V8 load(1, XDATA, add(CFA_XSP16, literal(-8)))
        CFI V7 load(1, XDATA, add(CFA_XSP16, literal(-9)))
        CFI V6 load(1, XDATA, add(CFA_XSP16, literal(-10)))
        CFI V5 load(1, XDATA, add(CFA_XSP16, literal(-11)))
        CFI V4 load(1, XDATA, add(CFA_XSP16, literal(-12)))
        CFI V3 load(1, XDATA, add(CFA_XSP16, literal(-13)))
        CFI V2 load(1, XDATA, add(CFA_XSP16, literal(-14)))
        CFI V1 load(1, XDATA, add(CFA_XSP16, literal(-15)))
        CFI V0 load(1, XDATA, add(CFA_XSP16, literal(-16)))
        CFI VB load(1, XDATA, add(CFA_XSP16, literal(-17)))
        CFI R6 load(1, XDATA, add(CFA_XSP16, literal(-18)))
        CFI CFA_SP SP+0
        CFI CFA_XSP16 add(XSP16, 18)
        ; Saved register size: 18
        ; Auto size: 0
        MOV     ?V0 + 0,R2
        MOV     ?V0 + 1,R3
        LCALL   ?Subroutine40 & 0xFFFF
//  823   uint8 *pBuf = ZDP_TmpBuf;
//  824   uint8 i, len;
//  825 
//  826   if ( Status == ZDP_SUCCESS && pSimpleDesc )
??CrossCallReturnLabel_263:
        MOV     A,R6
        JNZ     ??ZDP_SimpleDescMsg_0
        MOV     A,R4
        ORL     A,R5
        JZ      ??ZDP_SimpleDescMsg_0
//  827   {
//  828     // Status + NWKAddrOfInterest + desc length + empty simple descriptor.
//  829     len = 1 + 2 + 1 + 8;
//  830     len += (pSimpleDesc->AppNumInClusters + pSimpleDesc->AppNumOutClusters) * sizeof ( uint16 );
        MOV     DPL,R4
        MOV     DPH,R5
        INC     DPTR
        INC     DPTR
        INC     DPTR
        INC     DPTR
        INC     DPTR
        INC     DPTR
        INC     DPTR
        INC     DPTR
        INC     DPTR
        PUSH    DPL
        CFI CFA_SP SP+-1
        PUSH    DPH
        CFI CFA_SP SP+-2
        MOV     DPL,R4
        MOV     DPH,R5
        INC     DPTR
        INC     DPTR
        INC     DPTR
        INC     DPTR
        INC     DPTR
        INC     DPTR
        MOVX    A,@DPTR
        POP     DPH
        CFI CFA_SP SP+-1
        POP     DPL
        CFI CFA_SP SP+0
        MOV     R2,A
        MOVX    A,@DPTR
        ADD     A,R2
        CLR     C
        RLC     A
        ADD     A,#0xc
        MOV     R2,A
//  831   }
//  832   else
//  833   {
//  834     len = 1 + 2 + 1; // Status + desc length
//  835   }
//  836   if ( len >= ZDP_BUF_SZ-1 )
        CLR     C
        SUBB    A,#0x4f
        JC      ??ZDP_SimpleDescMsg_1
//  837   {
//  838     return afStatus_MEM_FAIL;
        MOV     R1,#0x10
        LJMP    ??ZDP_SimpleDescMsg_2 & 0xFFFF
//  839   }
??ZDP_SimpleDescMsg_0:
        MOV     R2,#0x4
//  840 
//  841   *pBuf++ = Status;
??ZDP_SimpleDescMsg_1:
        MOV     A,R6
        MOV     DPL,R0
        MOV     DPH,R1
        LCALL   ?Subroutine49 & 0xFFFF
//  842 
//  843   *pBuf++ = LO_UINT16( ZDAppNwkAddr.addr.shortAddr );
??CrossCallReturnLabel_71:
        MOV     DPTR,#ZDAppNwkAddr
        LCALL   ??Subroutine102_0 & 0xFFFF
//  844   *pBuf++ = HI_UINT16( ZDAppNwkAddr.addr.shortAddr );
??CrossCallReturnLabel_184:
        MOV     DPTR,#ZDAppNwkAddr + 1
        LCALL   ?Subroutine43 & 0xFFFF
??CrossCallReturnLabel_55:
        INC     DPTR
//  845 
//  846   if ( len > 4 )
        MOV     A,R2
        CLR     C
        SUBB    A,#0x5
        JNC     $+5
        LJMP    ??ZDP_SimpleDescMsg_3 & 0xFFFF
//  847   {
//  848     *pBuf++ = len - 4;   // Simple descriptor length
        MOV     A,#-0x4
        ADD     A,R2
        MOVX    @DPTR,A
        INC     DPTR
        INC     R0
        INC     R0
        MOV     R1,DPH
//  849 
//  850     *pBuf++ = pSimpleDesc->EndPoint;
        MOV     DPL,R4
        MOV     DPH,R5
        LCALL   ??Subroutine102_0 & 0xFFFF
//  851     *pBuf++ = LO_UINT16( pSimpleDesc->AppProfId );
??CrossCallReturnLabel_185:
        MOV     DPL,R4
        MOV     DPH,R5
        INC     DPTR
        MOV     ?V0 + 2,DPL
        MOV     ?V0 + 3,DPH
        LCALL   ?Subroutine13 & 0xFFFF
//  852     *pBuf++ = HI_UINT16( pSimpleDesc->AppProfId );
//  853     *pBuf++ = LO_UINT16( pSimpleDesc->AppDeviceId );
??CrossCallReturnLabel_2:
        MOV     A,R4
        ADD     A,#0x3
        LCALL   ?Subroutine67 & 0xFFFF
??CrossCallReturnLabel_97:
        LCALL   ?Subroutine13 & 0xFFFF
//  854     *pBuf++ = HI_UINT16( pSimpleDesc->AppDeviceId );
//  855 
//  856     *pBuf++ = (byte)(pSimpleDesc->AppDevVer << 4);
??CrossCallReturnLabel_3:
        MOV     DPL,R4
        MOV     DPH,R5
        INC     DPTR
        INC     DPTR
        INC     DPTR
        INC     DPTR
        INC     DPTR
        MOVX    A,@DPTR
        SWAP    A
        ANL     A,#0xf0
        LCALL   ??Subroutine105_0 & 0xFFFF
//  857 
//  858     *pBuf++ = pSimpleDesc->AppNumInClusters;
??CrossCallReturnLabel_189:
        MOV     A,R4
        ADD     A,#0x6
        MOV     ?V0 + 2,A
        MOV     A,R5
        ADDC    A,#0x0
        MOV     ?V0 + 4,?V0 + 2
        MOV     ?V0 + 5,A
        MOV     DPL,?V0 + 4
        MOV     DPH,A
        LCALL   ??Subroutine102_0 & 0xFFFF
//  859     if ( pSimpleDesc->AppNumInClusters )
??CrossCallReturnLabel_186:
        MOV     DPL,?V0 + 4
        MOV     DPH,?V0 + 5
        MOVX    A,@DPTR
        JZ      ??ZDP_SimpleDescMsg_4
//  860     {
//  861       for (i=0; i<pSimpleDesc->AppNumInClusters; ++i)
        MOV     R3,#0x0
        MOV     A,R4
        ADD     A,#0x7
        MOV     ?V0 + 2,A
        MOV     A,R5
        ADDC    A,#0x0
        MOV     ?V0 + 6,?V0 + 2
        MOV     ?V0 + 7,A
//  862       {
//  863         *pBuf++ = LO_UINT16( pSimpleDesc->pAppInClusterList[i] );
??ZDP_SimpleDescMsg_5:
        MOV     A,R3
        CLR     C
        RLC     A
        MOV     ?V0 + 2,A
        CLR     A
        RLC     A
        MOV     ?V0 + 3,A
        LCALL   ?Subroutine31 & 0xFFFF
??CrossCallReturnLabel_34:
        LCALL   ?Subroutine35 & 0xFFFF
//  864         *pBuf++ = HI_UINT16( pSimpleDesc->pAppInClusterList[i] );
??CrossCallReturnLabel_40:
        LCALL   ?Subroutine31 & 0xFFFF
//  865       }
//  866     }
??CrossCallReturnLabel_35:
        LCALL   ?Subroutine33 & 0xFFFF
??CrossCallReturnLabel_38:
        MOV     DPL,?V0 + 4
        MOV     DPH,?V0 + 5
        MOVX    A,@DPTR
        MOV     R7,A
        MOV     A,R3
        CLR     C
        SUBB    A,R7
        JC      ??ZDP_SimpleDescMsg_5
//  867 
//  868     *pBuf++ = pSimpleDesc->AppNumOutClusters;
??ZDP_SimpleDescMsg_4:
        MOV     A,R4
        ADD     A,#0x9
        LCALL   ?Subroutine67 & 0xFFFF
??CrossCallReturnLabel_98:
        LCALL   ?Subroutine21 & 0xFFFF
//  869     if ( pSimpleDesc->AppNumOutClusters )
??CrossCallReturnLabel_16:
        MOVX    A,@DPTR
        JZ      ??ZDP_SimpleDescMsg_6
//  870     {
//  871       for (i=0; i<pSimpleDesc->AppNumOutClusters; ++i)
        MOV     R3,#0x0
        MOV     A,R4
        ADD     A,#0xa
        MOV     R4,A
        MOV     A,R5
        ADDC    A,#0x0
        MOV     R5,A
        MOV     ?V0 + 4,R4
        MOV     ?V0 + 5,R5
//  872       {
//  873         *pBuf++ = LO_UINT16( pSimpleDesc->pAppOutClusterList[i] );
??ZDP_SimpleDescMsg_7:
        MOV     A,R3
        CLR     C
        RLC     A
        MOV     R4,A
        CLR     A
        RLC     A
        MOV     R5,A
        LCALL   ?Subroutine41 & 0xFFFF
??CrossCallReturnLabel_49:
        LCALL   ?Subroutine35 & 0xFFFF
//  874         *pBuf++ = HI_UINT16( pSimpleDesc->pAppOutClusterList[i] );
??CrossCallReturnLabel_41:
        LCALL   ?Subroutine41 & 0xFFFF
//  875       }
//  876     }
//  877   }
??CrossCallReturnLabel_50:
        LCALL   ?Subroutine33 & 0xFFFF
??CrossCallReturnLabel_39:
        MOV     DPL,?V0 + 2
        MOV     DPH,?V0 + 3
        MOVX    A,@DPTR
        MOV     R4,A
        MOV     A,R3
        CLR     C
        SUBB    A,R4
        JNC     ??ZDP_SimpleDescMsg_6
        SJMP    ??ZDP_SimpleDescMsg_7
//  878 
//  879   else
//  880   {
//  881     *pBuf = 0; // Description Length = 0;
??ZDP_SimpleDescMsg_3:
        CLR     A
        MOVX    @DPTR,A
//  882   }
//  883 
//  884   return fillAndSend( &(inMsg->TransSeq), &(inMsg->srcAddr), Simple_Desc_rsp, len );
??ZDP_SimpleDescMsg_6:
        ; Setup parameters for call to function fillAndSend
        MOV     ?V0 + 2,#0x4
        MOV     ?V0 + 3,#-0x80
        MOV     R0,#?V0 + 2
        LCALL   ?PUSH_XSTACK_I_TWO
        CFI CFA_XSP16 add(XSP16, 20)
        MOV     A,R2
        MOV     R1,A
        LCALL   ?Subroutine64 & 0xFFFF
??CrossCallReturnLabel_94:
        LCALL   ??Subroutine107_0 & 0xFFFF
??CrossCallReturnLabel_211:
        LCALL   ?DEALLOC_XSTACK8
        CFI CFA_XSP16 add(XSP16, 18)
??ZDP_SimpleDescMsg_2:
        LJMP    ??Subroutine95_0 & 0xFFFF
        CFI EndBlock cfiBlock115
//  885 }

        RSEG BANKED_CODE:CODE:NOROOT(0)
?Subroutine67:
        CFI Block cfiCond116 Using cfiCommon0
        CFI NoFunction
        CFI Conditional ??CrossCallReturnLabel_97
        CFI R6 load(1, XDATA, add(CFA_XSP16, literal(-18)))
        CFI VB load(1, XDATA, add(CFA_XSP16, literal(-17)))
        CFI V0 load(1, XDATA, add(CFA_XSP16, literal(-16)))
        CFI V1 load(1, XDATA, add(CFA_XSP16, literal(-15)))
        CFI V2 load(1, XDATA, add(CFA_XSP16, literal(-14)))
        CFI V3 load(1, XDATA, add(CFA_XSP16, literal(-13)))
        CFI V4 load(1, XDATA, add(CFA_XSP16, literal(-12)))
        CFI V5 load(1, XDATA, add(CFA_XSP16, literal(-11)))
        CFI V6 load(1, XDATA, add(CFA_XSP16, literal(-10)))
        CFI V7 load(1, XDATA, add(CFA_XSP16, literal(-9)))
        CFI V8 load(1, XDATA, add(CFA_XSP16, literal(-8)))
        CFI V9 load(1, XDATA, add(CFA_XSP16, literal(-7)))
        CFI R7 load(1, XDATA, add(CFA_XSP16, literal(-6)))
        CFI ?RET_LOW load(1, XDATA, add(CFA_XSP16, literal(-5)))
        CFI ?RET_HIGH load(1, XDATA, add(CFA_XSP16, literal(-4)))
        CFI ?BRET_EXT load(1, XDATA, add(CFA_XSP16, literal(-3)))
        CFI DPL0 load(1, XDATA, add(CFA_XSP16, literal(-2)))
        CFI DPH0 load(1, XDATA, add(CFA_XSP16, literal(-1)))
        CFI CFA_SP SP+0
        CFI CFA_XSP16 add(XSP16, 18)
        CFI Block cfiCond117 Using cfiCommon0
        CFI (cfiCond117) NoFunction
        CFI (cfiCond117) Conditional ??CrossCallReturnLabel_98
        CFI (cfiCond117) R6 load(1, XDATA, add(CFA_XSP16, literal(-18)))
        CFI (cfiCond117) VB load(1, XDATA, add(CFA_XSP16, literal(-17)))
        CFI (cfiCond117) V0 load(1, XDATA, add(CFA_XSP16, literal(-16)))
        CFI (cfiCond117) V1 load(1, XDATA, add(CFA_XSP16, literal(-15)))
        CFI (cfiCond117) V2 load(1, XDATA, add(CFA_XSP16, literal(-14)))
        CFI (cfiCond117) V3 load(1, XDATA, add(CFA_XSP16, literal(-13)))
        CFI (cfiCond117) V4 load(1, XDATA, add(CFA_XSP16, literal(-12)))
        CFI (cfiCond117) V5 load(1, XDATA, add(CFA_XSP16, literal(-11)))
        CFI (cfiCond117) V6 load(1, XDATA, add(CFA_XSP16, literal(-10)))
        CFI (cfiCond117) V7 load(1, XDATA, add(CFA_XSP16, literal(-9)))
        CFI (cfiCond117) V8 load(1, XDATA, add(CFA_XSP16, literal(-8)))
        CFI (cfiCond117) V9 load(1, XDATA, add(CFA_XSP16, literal(-7)))
        CFI (cfiCond117) R7 load(1, XDATA, add(CFA_XSP16, literal(-6)))
        CFI (cfiCond117) ?RET_LOW load(1, XDATA, add(CFA_XSP16, literal(-5)))
        CFI (cfiCond117) ?RET_HIGH load(1, XDATA, add(CFA_XSP16, literal(-4)))
        CFI (cfiCond117) ?BRET_EXT load(1, XDATA, add(CFA_XSP16, literal(-3)))
        CFI (cfiCond117) DPL0 load(1, XDATA, add(CFA_XSP16, literal(-2)))
        CFI (cfiCond117) DPH0 load(1, XDATA, add(CFA_XSP16, literal(-1)))
        CFI (cfiCond117) CFA_SP SP+0
        CFI (cfiCond117) CFA_XSP16 add(XSP16, 18)
        CFI Block cfiPicker118 Using cfiCommon1
        CFI (cfiPicker118) NoFunction
        CFI (cfiPicker118) Picker
        MOV     ?V0 + 2,A
        MOV     A,R5
        ADDC    A,#0x0
        MOV     ?V0 + 3,A
        MOV     DPL,?V0 + 2
        MOV     DPH,A
        RET
        CFI EndBlock cfiCond116
        CFI EndBlock cfiCond117
        CFI EndBlock cfiPicker118

        RSEG BANKED_CODE:CODE:NOROOT(0)
?Subroutine64:
        CFI Block cfiCond119 Using cfiCommon0
        CFI NoFunction
        CFI Conditional ??CrossCallReturnLabel_93
        CFI R6 load(1, XDATA, add(CFA_XSP16, literal(-15)))
        CFI VB load(1, XDATA, add(CFA_XSP16, literal(-14)))
        CFI V0 load(1, XDATA, add(CFA_XSP16, literal(-13)))
        CFI V1 load(1, XDATA, add(CFA_XSP16, literal(-12)))
        CFI V2 load(1, XDATA, add(CFA_XSP16, literal(-11)))
        CFI V3 load(1, XDATA, add(CFA_XSP16, literal(-10)))
        CFI V4 load(1, XDATA, add(CFA_XSP16, literal(-9)))
        CFI V5 load(1, XDATA, add(CFA_XSP16, literal(-8)))
        CFI V6 load(1, XDATA, add(CFA_XSP16, literal(-7)))
        CFI R7 load(1, XDATA, add(CFA_XSP16, literal(-6)))
        CFI ?RET_LOW load(1, XDATA, add(CFA_XSP16, literal(-5)))
        CFI ?RET_HIGH load(1, XDATA, add(CFA_XSP16, literal(-4)))
        CFI ?BRET_EXT load(1, XDATA, add(CFA_XSP16, literal(-3)))
        CFI DPL0 load(1, XDATA, add(CFA_XSP16, literal(-2)))
        CFI DPH0 load(1, XDATA, add(CFA_XSP16, literal(-1)))
        CFI CFA_SP SP+0
        CFI CFA_XSP16 add(XSP16, 17)
        CFI Block cfiCond120 Using cfiCommon0
        CFI (cfiCond120) NoFunction
        CFI (cfiCond120) Conditional ??CrossCallReturnLabel_94
        CFI (cfiCond120) R6 load(1, XDATA, add(CFA_XSP16, literal(-18)))
        CFI (cfiCond120) VB load(1, XDATA, add(CFA_XSP16, literal(-17)))
        CFI (cfiCond120) V0 load(1, XDATA, add(CFA_XSP16, literal(-16)))
        CFI (cfiCond120) V1 load(1, XDATA, add(CFA_XSP16, literal(-15)))
        CFI (cfiCond120) V2 load(1, XDATA, add(CFA_XSP16, literal(-14)))
        CFI (cfiCond120) V3 load(1, XDATA, add(CFA_XSP16, literal(-13)))
        CFI (cfiCond120) V4 load(1, XDATA, add(CFA_XSP16, literal(-12)))
        CFI (cfiCond120) V5 load(1, XDATA, add(CFA_XSP16, literal(-11)))
        CFI (cfiCond120) V6 load(1, XDATA, add(CFA_XSP16, literal(-10)))
        CFI (cfiCond120) V7 load(1, XDATA, add(CFA_XSP16, literal(-9)))
        CFI (cfiCond120) V8 load(1, XDATA, add(CFA_XSP16, literal(-8)))
        CFI (cfiCond120) V9 load(1, XDATA, add(CFA_XSP16, literal(-7)))
        CFI (cfiCond120) R7 load(1, XDATA, add(CFA_XSP16, literal(-6)))
        CFI (cfiCond120) ?RET_LOW load(1, XDATA, add(CFA_XSP16, literal(-5)))
        CFI (cfiCond120) ?RET_HIGH load(1, XDATA, add(CFA_XSP16, literal(-4)))
        CFI (cfiCond120) ?BRET_EXT load(1, XDATA, add(CFA_XSP16, literal(-3)))
        CFI (cfiCond120) DPL0 load(1, XDATA, add(CFA_XSP16, literal(-2)))
        CFI (cfiCond120) DPH0 load(1, XDATA, add(CFA_XSP16, literal(-1)))
        CFI (cfiCond120) CFA_SP SP+0
        CFI (cfiCond120) CFA_XSP16 add(XSP16, 20)
        CFI Block cfiPicker121 Using cfiCommon1
        CFI (cfiPicker121) NoFunction
        CFI (cfiPicker121) Picker
        MOV     A,?V0 + 0
        ADD     A,#0x2
        MOV     R4,A
        MOV     A,?V0 + 1
        ADDC    A,#0x0
        MOV     R5,A
        MOV     A,?V0 + 0
        ADD     A,#0xf
        MOV     R2,A
        MOV     A,?V0 + 1
        ADDC    A,#0x0
        MOV     R3,A
        RET
        CFI EndBlock cfiCond119
        CFI EndBlock cfiCond120
        CFI EndBlock cfiPicker121

        RSEG BANKED_CODE:CODE:NOROOT(0)
?Subroutine49:
        CFI Block cfiCond122 Using cfiCommon0
        CFI NoFunction
        CFI Conditional ??CrossCallReturnLabel_68
        CFI R6 load(1, XDATA, add(CFA_XSP16, literal(-16)))
        CFI VB load(1, XDATA, add(CFA_XSP16, literal(-15)))
        CFI V0 load(1, XDATA, add(CFA_XSP16, literal(-14)))
        CFI V1 load(1, XDATA, add(CFA_XSP16, literal(-13)))
        CFI V2 load(1, XDATA, add(CFA_XSP16, literal(-12)))
        CFI V3 load(1, XDATA, add(CFA_XSP16, literal(-11)))
        CFI V4 load(1, XDATA, add(CFA_XSP16, literal(-10)))
        CFI V5 load(1, XDATA, add(CFA_XSP16, literal(-9)))
        CFI V6 load(1, XDATA, add(CFA_XSP16, literal(-8)))
        CFI V7 load(1, XDATA, add(CFA_XSP16, literal(-7)))
        CFI R7 load(1, XDATA, add(CFA_XSP16, literal(-6)))
        CFI ?RET_LOW load(1, XDATA, add(CFA_XSP16, literal(-5)))
        CFI ?RET_HIGH load(1, XDATA, add(CFA_XSP16, literal(-4)))
        CFI ?BRET_EXT load(1, XDATA, add(CFA_XSP16, literal(-3)))
        CFI DPL0 load(1, XDATA, add(CFA_XSP16, literal(-2)))
        CFI DPH0 load(1, XDATA, add(CFA_XSP16, literal(-1)))
        CFI CFA_SP SP+0
        CFI CFA_XSP16 add(XSP16, 16)
        CFI Block cfiCond123 Using cfiCommon0
        CFI (cfiCond123) NoFunction
        CFI (cfiCond123) Conditional ??CrossCallReturnLabel_69
        CFI (cfiCond123) R6 load(1, XDATA, add(CFA_XSP16, literal(-16)))
        CFI (cfiCond123) VB load(1, XDATA, add(CFA_XSP16, literal(-15)))
        CFI (cfiCond123) V0 load(1, XDATA, add(CFA_XSP16, literal(-14)))
        CFI (cfiCond123) V1 load(1, XDATA, add(CFA_XSP16, literal(-13)))
        CFI (cfiCond123) V2 load(1, XDATA, add(CFA_XSP16, literal(-12)))
        CFI (cfiCond123) V3 load(1, XDATA, add(CFA_XSP16, literal(-11)))
        CFI (cfiCond123) V4 load(1, XDATA, add(CFA_XSP16, literal(-10)))
        CFI (cfiCond123) V5 load(1, XDATA, add(CFA_XSP16, literal(-9)))
        CFI (cfiCond123) V6 load(1, XDATA, add(CFA_XSP16, literal(-8)))
        CFI (cfiCond123) V7 load(1, XDATA, add(CFA_XSP16, literal(-7)))
        CFI (cfiCond123) R7 load(1, XDATA, add(CFA_XSP16, literal(-6)))
        CFI (cfiCond123) ?RET_LOW load(1, XDATA, add(CFA_XSP16, literal(-5)))
        CFI (cfiCond123) ?RET_HIGH load(1, XDATA, add(CFA_XSP16, literal(-4)))
        CFI (cfiCond123) ?BRET_EXT load(1, XDATA, add(CFA_XSP16, literal(-3)))
        CFI (cfiCond123) DPL0 load(1, XDATA, add(CFA_XSP16, literal(-2)))
        CFI (cfiCond123) DPH0 load(1, XDATA, add(CFA_XSP16, literal(-1)))
        CFI (cfiCond123) CFA_SP SP+0
        CFI (cfiCond123) CFA_XSP16 add(XSP16, 16)
        CFI Block cfiCond124 Using cfiCommon0
        CFI (cfiCond124) NoFunction
        CFI (cfiCond124) Conditional ??CrossCallReturnLabel_70
        CFI (cfiCond124) R6 load(1, XDATA, add(CFA_XSP16, literal(-10)))
        CFI (cfiCond124) VB load(1, XDATA, add(CFA_XSP16, literal(-9)))
        CFI (cfiCond124) V0 load(1, XDATA, add(CFA_XSP16, literal(-8)))
        CFI (cfiCond124) V1 load(1, XDATA, add(CFA_XSP16, literal(-7)))
        CFI (cfiCond124) R7 load(1, XDATA, add(CFA_XSP16, literal(-6)))
        CFI (cfiCond124) ?RET_LOW load(1, XDATA, add(CFA_XSP16, literal(-5)))
        CFI (cfiCond124) ?RET_HIGH load(1, XDATA, add(CFA_XSP16, literal(-4)))
        CFI (cfiCond124) ?BRET_EXT load(1, XDATA, add(CFA_XSP16, literal(-3)))
        CFI (cfiCond124) DPL0 load(1, XDATA, add(CFA_XSP16, literal(-2)))
        CFI (cfiCond124) DPH0 load(1, XDATA, add(CFA_XSP16, literal(-1)))
        CFI (cfiCond124) CFA_SP SP+0
        CFI (cfiCond124) CFA_XSP16 add(XSP16, 10)
        CFI Block cfiCond125 Using cfiCommon0
        CFI (cfiCond125) NoFunction
        CFI (cfiCond125) Conditional ??CrossCallReturnLabel_71
        CFI (cfiCond125) R6 load(1, XDATA, add(CFA_XSP16, literal(-18)))
        CFI (cfiCond125) VB load(1, XDATA, add(CFA_XSP16, literal(-17)))
        CFI (cfiCond125) V0 load(1, XDATA, add(CFA_XSP16, literal(-16)))
        CFI (cfiCond125) V1 load(1, XDATA, add(CFA_XSP16, literal(-15)))
        CFI (cfiCond125) V2 load(1, XDATA, add(CFA_XSP16, literal(-14)))
        CFI (cfiCond125) V3 load(1, XDATA, add(CFA_XSP16, literal(-13)))
        CFI (cfiCond125) V4 load(1, XDATA, add(CFA_XSP16, literal(-12)))
        CFI (cfiCond125) V5 load(1, XDATA, add(CFA_XSP16, literal(-11)))
        CFI (cfiCond125) V6 load(1, XDATA, add(CFA_XSP16, literal(-10)))
        CFI (cfiCond125) V7 load(1, XDATA, add(CFA_XSP16, literal(-9)))
        CFI (cfiCond125) V8 load(1, XDATA, add(CFA_XSP16, literal(-8)))
        CFI (cfiCond125) V9 load(1, XDATA, add(CFA_XSP16, literal(-7)))
        CFI (cfiCond125) R7 load(1, XDATA, add(CFA_XSP16, literal(-6)))
        CFI (cfiCond125) ?RET_LOW load(1, XDATA, add(CFA_XSP16, literal(-5)))
        CFI (cfiCond125) ?RET_HIGH load(1, XDATA, add(CFA_XSP16, literal(-4)))
        CFI (cfiCond125) ?BRET_EXT load(1, XDATA, add(CFA_XSP16, literal(-3)))
        CFI (cfiCond125) DPL0 load(1, XDATA, add(CFA_XSP16, literal(-2)))
        CFI (cfiCond125) DPH0 load(1, XDATA, add(CFA_XSP16, literal(-1)))
        CFI (cfiCond125) CFA_SP SP+0
        CFI (cfiCond125) CFA_XSP16 add(XSP16, 18)
        CFI Block cfiCond126 Using cfiCommon0
        CFI (cfiCond126) NoFunction
        CFI (cfiCond126) Conditional ??CrossCallReturnLabel_72
        CFI (cfiCond126) R6 load(1, XDATA, add(CFA_XSP16, literal(-20)))
        CFI (cfiCond126) VB load(1, XDATA, add(CFA_XSP16, literal(-19)))
        CFI (cfiCond126) V0 load(1, XDATA, add(CFA_XSP16, literal(-18)))
        CFI (cfiCond126) V1 load(1, XDATA, add(CFA_XSP16, literal(-17)))
        CFI (cfiCond126) V2 load(1, XDATA, add(CFA_XSP16, literal(-16)))
        CFI (cfiCond126) V3 load(1, XDATA, add(CFA_XSP16, literal(-15)))
        CFI (cfiCond126) V4 load(1, XDATA, add(CFA_XSP16, literal(-14)))
        CFI (cfiCond126) V5 load(1, XDATA, add(CFA_XSP16, literal(-13)))
        CFI (cfiCond126) V6 load(1, XDATA, add(CFA_XSP16, literal(-12)))
        CFI (cfiCond126) V7 load(1, XDATA, add(CFA_XSP16, literal(-11)))
        CFI (cfiCond126) V8 load(1, XDATA, add(CFA_XSP16, literal(-10)))
        CFI (cfiCond126) V9 load(1, XDATA, add(CFA_XSP16, literal(-9)))
        CFI (cfiCond126) V10 load(1, XDATA, add(CFA_XSP16, literal(-8)))
        CFI (cfiCond126) V11 load(1, XDATA, add(CFA_XSP16, literal(-7)))
        CFI (cfiCond126) R7 load(1, XDATA, add(CFA_XSP16, literal(-6)))
        CFI (cfiCond126) ?RET_LOW load(1, XDATA, add(CFA_XSP16, literal(-5)))
        CFI (cfiCond126) ?RET_HIGH load(1, XDATA, add(CFA_XSP16, literal(-4)))
        CFI (cfiCond126) ?BRET_EXT load(1, XDATA, add(CFA_XSP16, literal(-3)))
        CFI (cfiCond126) DPL0 load(1, XDATA, add(CFA_XSP16, literal(-2)))
        CFI (cfiCond126) DPH0 load(1, XDATA, add(CFA_XSP16, literal(-1)))
        CFI (cfiCond126) CFA_SP SP+0
        CFI (cfiCond126) CFA_XSP16 add(XSP16, 21)
        CFI Block cfiPicker127 Using cfiCommon1
        CFI (cfiPicker127) NoFunction
        CFI (cfiPicker127) Picker
        LCALL   ??Subroutine92_0 & 0xFFFF
??CrossCallReturnLabel_135:
        RET
        CFI EndBlock cfiCond122
        CFI EndBlock cfiCond123
        CFI EndBlock cfiCond124
        CFI EndBlock cfiCond125
        CFI EndBlock cfiCond126
        CFI EndBlock cfiPicker127

        RSEG BANKED_CODE:CODE:NOROOT(0)
?Subroutine41:
        CFI Block cfiCond128 Using cfiCommon0
        CFI NoFunction
        CFI Conditional ??CrossCallReturnLabel_49
        CFI R6 load(1, XDATA, add(CFA_XSP16, literal(-18)))
        CFI VB load(1, XDATA, add(CFA_XSP16, literal(-17)))
        CFI V0 load(1, XDATA, add(CFA_XSP16, literal(-16)))
        CFI V1 load(1, XDATA, add(CFA_XSP16, literal(-15)))
        CFI V2 load(1, XDATA, add(CFA_XSP16, literal(-14)))
        CFI V3 load(1, XDATA, add(CFA_XSP16, literal(-13)))
        CFI V4 load(1, XDATA, add(CFA_XSP16, literal(-12)))
        CFI V5 load(1, XDATA, add(CFA_XSP16, literal(-11)))
        CFI V6 load(1, XDATA, add(CFA_XSP16, literal(-10)))
        CFI V7 load(1, XDATA, add(CFA_XSP16, literal(-9)))
        CFI V8 load(1, XDATA, add(CFA_XSP16, literal(-8)))
        CFI V9 load(1, XDATA, add(CFA_XSP16, literal(-7)))
        CFI R7 load(1, XDATA, add(CFA_XSP16, literal(-6)))
        CFI ?RET_LOW load(1, XDATA, add(CFA_XSP16, literal(-5)))
        CFI ?RET_HIGH load(1, XDATA, add(CFA_XSP16, literal(-4)))
        CFI ?BRET_EXT load(1, XDATA, add(CFA_XSP16, literal(-3)))
        CFI DPL0 load(1, XDATA, add(CFA_XSP16, literal(-2)))
        CFI DPH0 load(1, XDATA, add(CFA_XSP16, literal(-1)))
        CFI CFA_SP SP+0
        CFI CFA_XSP16 add(XSP16, 18)
        CFI Block cfiCond129 Using cfiCommon0
        CFI (cfiCond129) NoFunction
        CFI (cfiCond129) Conditional ??CrossCallReturnLabel_50
        CFI (cfiCond129) R6 load(1, XDATA, add(CFA_XSP16, literal(-18)))
        CFI (cfiCond129) VB load(1, XDATA, add(CFA_XSP16, literal(-17)))
        CFI (cfiCond129) V0 load(1, XDATA, add(CFA_XSP16, literal(-16)))
        CFI (cfiCond129) V1 load(1, XDATA, add(CFA_XSP16, literal(-15)))
        CFI (cfiCond129) V2 load(1, XDATA, add(CFA_XSP16, literal(-14)))
        CFI (cfiCond129) V3 load(1, XDATA, add(CFA_XSP16, literal(-13)))
        CFI (cfiCond129) V4 load(1, XDATA, add(CFA_XSP16, literal(-12)))
        CFI (cfiCond129) V5 load(1, XDATA, add(CFA_XSP16, literal(-11)))
        CFI (cfiCond129) V6 load(1, XDATA, add(CFA_XSP16, literal(-10)))
        CFI (cfiCond129) V7 load(1, XDATA, add(CFA_XSP16, literal(-9)))
        CFI (cfiCond129) V8 load(1, XDATA, add(CFA_XSP16, literal(-8)))
        CFI (cfiCond129) V9 load(1, XDATA, add(CFA_XSP16, literal(-7)))
        CFI (cfiCond129) R7 load(1, XDATA, add(CFA_XSP16, literal(-6)))
        CFI (cfiCond129) ?RET_LOW load(1, XDATA, add(CFA_XSP16, literal(-5)))
        CFI (cfiCond129) ?RET_HIGH load(1, XDATA, add(CFA_XSP16, literal(-4)))
        CFI (cfiCond129) ?BRET_EXT load(1, XDATA, add(CFA_XSP16, literal(-3)))
        CFI (cfiCond129) DPL0 load(1, XDATA, add(CFA_XSP16, literal(-2)))
        CFI (cfiCond129) DPH0 load(1, XDATA, add(CFA_XSP16, literal(-1)))
        CFI (cfiCond129) CFA_SP SP+0
        CFI (cfiCond129) CFA_XSP16 add(XSP16, 18)
        CFI Block cfiPicker130 Using cfiCommon1
        CFI (cfiPicker130) NoFunction
        CFI (cfiPicker130) Picker
        MOV     DPL,?V0 + 4
        MOV     DPH,?V0 + 5
        MOVX    A,@DPTR
        ADD     A,R4
        MOV     R7,A
        INC     DPTR
        MOVX    A,@DPTR
        ADDC    A,R5
        MOV     DPL,R7
        MOV     DPH,A
        RET
        CFI EndBlock cfiCond128
        CFI EndBlock cfiCond129
        CFI EndBlock cfiPicker130

        RSEG BANKED_CODE:CODE:NOROOT(0)
?Subroutine35:
        CFI Block cfiCond131 Using cfiCommon0
        CFI NoFunction
        CFI Conditional ??CrossCallReturnLabel_40
        CFI R6 load(1, XDATA, add(CFA_XSP16, literal(-18)))
        CFI VB load(1, XDATA, add(CFA_XSP16, literal(-17)))
        CFI V0 load(1, XDATA, add(CFA_XSP16, literal(-16)))
        CFI V1 load(1, XDATA, add(CFA_XSP16, literal(-15)))
        CFI V2 load(1, XDATA, add(CFA_XSP16, literal(-14)))
        CFI V3 load(1, XDATA, add(CFA_XSP16, literal(-13)))
        CFI V4 load(1, XDATA, add(CFA_XSP16, literal(-12)))
        CFI V5 load(1, XDATA, add(CFA_XSP16, literal(-11)))
        CFI V6 load(1, XDATA, add(CFA_XSP16, literal(-10)))
        CFI V7 load(1, XDATA, add(CFA_XSP16, literal(-9)))
        CFI V8 load(1, XDATA, add(CFA_XSP16, literal(-8)))
        CFI V9 load(1, XDATA, add(CFA_XSP16, literal(-7)))
        CFI R7 load(1, XDATA, add(CFA_XSP16, literal(-6)))
        CFI ?RET_LOW load(1, XDATA, add(CFA_XSP16, literal(-5)))
        CFI ?RET_HIGH load(1, XDATA, add(CFA_XSP16, literal(-4)))
        CFI ?BRET_EXT load(1, XDATA, add(CFA_XSP16, literal(-3)))
        CFI DPL0 load(1, XDATA, add(CFA_XSP16, literal(-2)))
        CFI DPH0 load(1, XDATA, add(CFA_XSP16, literal(-1)))
        CFI CFA_SP SP+0
        CFI CFA_XSP16 add(XSP16, 18)
        CFI Block cfiCond132 Using cfiCommon0
        CFI (cfiCond132) NoFunction
        CFI (cfiCond132) Conditional ??CrossCallReturnLabel_41
        CFI (cfiCond132) R6 load(1, XDATA, add(CFA_XSP16, literal(-18)))
        CFI (cfiCond132) VB load(1, XDATA, add(CFA_XSP16, literal(-17)))
        CFI (cfiCond132) V0 load(1, XDATA, add(CFA_XSP16, literal(-16)))
        CFI (cfiCond132) V1 load(1, XDATA, add(CFA_XSP16, literal(-15)))
        CFI (cfiCond132) V2 load(1, XDATA, add(CFA_XSP16, literal(-14)))
        CFI (cfiCond132) V3 load(1, XDATA, add(CFA_XSP16, literal(-13)))
        CFI (cfiCond132) V4 load(1, XDATA, add(CFA_XSP16, literal(-12)))
        CFI (cfiCond132) V5 load(1, XDATA, add(CFA_XSP16, literal(-11)))
        CFI (cfiCond132) V6 load(1, XDATA, add(CFA_XSP16, literal(-10)))
        CFI (cfiCond132) V7 load(1, XDATA, add(CFA_XSP16, literal(-9)))
        CFI (cfiCond132) V8 load(1, XDATA, add(CFA_XSP16, literal(-8)))
        CFI (cfiCond132) V9 load(1, XDATA, add(CFA_XSP16, literal(-7)))
        CFI (cfiCond132) R7 load(1, XDATA, add(CFA_XSP16, literal(-6)))
        CFI (cfiCond132) ?RET_LOW load(1, XDATA, add(CFA_XSP16, literal(-5)))
        CFI (cfiCond132) ?RET_HIGH load(1, XDATA, add(CFA_XSP16, literal(-4)))
        CFI (cfiCond132) ?BRET_EXT load(1, XDATA, add(CFA_XSP16, literal(-3)))
        CFI (cfiCond132) DPL0 load(1, XDATA, add(CFA_XSP16, literal(-2)))
        CFI (cfiCond132) DPH0 load(1, XDATA, add(CFA_XSP16, literal(-1)))
        CFI (cfiCond132) CFA_SP SP+0
        CFI (cfiCond132) CFA_XSP16 add(XSP16, 18)
        CFI Block cfiPicker133 Using cfiCommon1
        CFI (cfiPicker133) NoFunction
        CFI (cfiPicker133) Picker
        LCALL   ?Subroutine72 & 0xFFFF
??CrossCallReturnLabel_138:
        RET
        CFI EndBlock cfiCond131
        CFI EndBlock cfiCond132
        CFI EndBlock cfiPicker133

        RSEG BANKED_CODE:CODE:NOROOT(0)
?Subroutine72:
        CFI Block cfiCond134 Using cfiCommon0
        CFI NoFunction
        CFI Conditional ??CrossCallReturnLabel_136, ??CrossCallReturnLabel_0
        CFI R6 load(1, XDATA, add(CFA_XSP16, literal(-16)))
        CFI VB load(1, XDATA, add(CFA_XSP16, literal(-15)))
        CFI V0 load(1, XDATA, add(CFA_XSP16, literal(-14)))
        CFI V1 load(1, XDATA, add(CFA_XSP16, literal(-13)))
        CFI V2 load(1, XDATA, add(CFA_XSP16, literal(-12)))
        CFI V3 load(1, XDATA, add(CFA_XSP16, literal(-11)))
        CFI V4 load(1, XDATA, add(CFA_XSP16, literal(-10)))
        CFI V5 load(1, XDATA, add(CFA_XSP16, literal(-9)))
        CFI V6 load(1, XDATA, add(CFA_XSP16, literal(-8)))
        CFI V7 load(1, XDATA, add(CFA_XSP16, literal(-7)))
        CFI R7 load(1, XDATA, add(CFA_XSP16, literal(-6)))
        CFI ?RET_LOW load(1, XDATA, add(CFA_XSP16, literal(-5)))
        CFI ?RET_HIGH load(1, XDATA, add(CFA_XSP16, literal(-4)))
        CFI ?BRET_EXT load(1, XDATA, add(CFA_XSP16, literal(-3)))
        CFI DPL0 load(1, XDATA, add(CFA_XSP16, literal(-2)))
        CFI DPH0 load(1, XDATA, add(CFA_XSP16, literal(-1)))
        CFI CFA_SP SP+0
        CFI CFA_XSP16 add(XSP16, 16)
        CFI Block cfiCond135 Using cfiCommon0
        CFI (cfiCond135) NoFunction
        CFI (cfiCond135) Conditional ??CrossCallReturnLabel_136, ??CrossCallReturnLabel_1
        CFI (cfiCond135) R6 load(1, XDATA, add(CFA_XSP16, literal(-16)))
        CFI (cfiCond135) VB load(1, XDATA, add(CFA_XSP16, literal(-15)))
        CFI (cfiCond135) V0 load(1, XDATA, add(CFA_XSP16, literal(-14)))
        CFI (cfiCond135) V1 load(1, XDATA, add(CFA_XSP16, literal(-13)))
        CFI (cfiCond135) V2 load(1, XDATA, add(CFA_XSP16, literal(-12)))
        CFI (cfiCond135) V3 load(1, XDATA, add(CFA_XSP16, literal(-11)))
        CFI (cfiCond135) V4 load(1, XDATA, add(CFA_XSP16, literal(-10)))
        CFI (cfiCond135) V5 load(1, XDATA, add(CFA_XSP16, literal(-9)))
        CFI (cfiCond135) V6 load(1, XDATA, add(CFA_XSP16, literal(-8)))
        CFI (cfiCond135) V7 load(1, XDATA, add(CFA_XSP16, literal(-7)))
        CFI (cfiCond135) R7 load(1, XDATA, add(CFA_XSP16, literal(-6)))
        CFI (cfiCond135) ?RET_LOW load(1, XDATA, add(CFA_XSP16, literal(-5)))
        CFI (cfiCond135) ?RET_HIGH load(1, XDATA, add(CFA_XSP16, literal(-4)))
        CFI (cfiCond135) ?BRET_EXT load(1, XDATA, add(CFA_XSP16, literal(-3)))
        CFI (cfiCond135) DPL0 load(1, XDATA, add(CFA_XSP16, literal(-2)))
        CFI (cfiCond135) DPH0 load(1, XDATA, add(CFA_XSP16, literal(-1)))
        CFI (cfiCond135) CFA_SP SP+0
        CFI (cfiCond135) CFA_XSP16 add(XSP16, 16)
        CFI Block cfiCond136 Using cfiCommon0
        CFI (cfiCond136) NoFunction
        CFI (cfiCond136) Conditional ??CrossCallReturnLabel_138, ??CrossCallReturnLabel_40
        CFI (cfiCond136) R6 load(1, XDATA, add(CFA_XSP16, literal(-18)))
        CFI (cfiCond136) VB load(1, XDATA, add(CFA_XSP16, literal(-17)))
        CFI (cfiCond136) V0 load(1, XDATA, add(CFA_XSP16, literal(-16)))
        CFI (cfiCond136) V1 load(1, XDATA, add(CFA_XSP16, literal(-15)))
        CFI (cfiCond136) V2 load(1, XDATA, add(CFA_XSP16, literal(-14)))
        CFI (cfiCond136) V3 load(1, XDATA, add(CFA_XSP16, literal(-13)))
        CFI (cfiCond136) V4 load(1, XDATA, add(CFA_XSP16, literal(-12)))
        CFI (cfiCond136) V5 load(1, XDATA, add(CFA_XSP16, literal(-11)))
        CFI (cfiCond136) V6 load(1, XDATA, add(CFA_XSP16, literal(-10)))
        CFI (cfiCond136) V7 load(1, XDATA, add(CFA_XSP16, literal(-9)))
        CFI (cfiCond136) V8 load(1, XDATA, add(CFA_XSP16, literal(-8)))
        CFI (cfiCond136) V9 load(1, XDATA, add(CFA_XSP16, literal(-7)))
        CFI (cfiCond136) R7 load(1, XDATA, add(CFA_XSP16, literal(-6)))
        CFI (cfiCond136) ?RET_LOW load(1, XDATA, add(CFA_XSP16, literal(-5)))
        CFI (cfiCond136) ?RET_HIGH load(1, XDATA, add(CFA_XSP16, literal(-4)))
        CFI (cfiCond136) ?BRET_EXT load(1, XDATA, add(CFA_XSP16, literal(-3)))
        CFI (cfiCond136) DPL0 load(1, XDATA, add(CFA_XSP16, literal(-2)))
        CFI (cfiCond136) DPH0 load(1, XDATA, add(CFA_XSP16, literal(-1)))
        CFI (cfiCond136) CFA_SP SP+0
        CFI (cfiCond136) CFA_XSP16 add(XSP16, 18)
        CFI Block cfiCond137 Using cfiCommon0
        CFI (cfiCond137) NoFunction
        CFI (cfiCond137) Conditional ??CrossCallReturnLabel_138, ??CrossCallReturnLabel_41
        CFI (cfiCond137) R6 load(1, XDATA, add(CFA_XSP16, literal(-18)))
        CFI (cfiCond137) VB load(1, XDATA, add(CFA_XSP16, literal(-17)))
        CFI (cfiCond137) V0 load(1, XDATA, add(CFA_XSP16, literal(-16)))
        CFI (cfiCond137) V1 load(1, XDATA, add(CFA_XSP16, literal(-15)))
        CFI (cfiCond137) V2 load(1, XDATA, add(CFA_XSP16, literal(-14)))
        CFI (cfiCond137) V3 load(1, XDATA, add(CFA_XSP16, literal(-13)))
        CFI (cfiCond137) V4 load(1, XDATA, add(CFA_XSP16, literal(-12)))
        CFI (cfiCond137) V5 load(1, XDATA, add(CFA_XSP16, literal(-11)))
        CFI (cfiCond137) V6 load(1, XDATA, add(CFA_XSP16, literal(-10)))
        CFI (cfiCond137) V7 load(1, XDATA, add(CFA_XSP16, literal(-9)))
        CFI (cfiCond137) V8 load(1, XDATA, add(CFA_XSP16, literal(-8)))
        CFI (cfiCond137) V9 load(1, XDATA, add(CFA_XSP16, literal(-7)))
        CFI (cfiCond137) R7 load(1, XDATA, add(CFA_XSP16, literal(-6)))
        CFI (cfiCond137) ?RET_LOW load(1, XDATA, add(CFA_XSP16, literal(-5)))
        CFI (cfiCond137) ?RET_HIGH load(1, XDATA, add(CFA_XSP16, literal(-4)))
        CFI (cfiCond137) ?BRET_EXT load(1, XDATA, add(CFA_XSP16, literal(-3)))
        CFI (cfiCond137) DPL0 load(1, XDATA, add(CFA_XSP16, literal(-2)))
        CFI (cfiCond137) DPH0 load(1, XDATA, add(CFA_XSP16, literal(-1)))
        CFI (cfiCond137) CFA_SP SP+0
        CFI (cfiCond137) CFA_XSP16 add(XSP16, 18)
        CFI Block cfiCond138 Using cfiCommon0
        CFI (cfiCond138) NoFunction
        CFI (cfiCond138) Conditional ??CrossCallReturnLabel_137, ??CrossCallReturnLabel_16
        CFI (cfiCond138) R6 load(1, XDATA, add(CFA_XSP16, literal(-18)))
        CFI (cfiCond138) VB load(1, XDATA, add(CFA_XSP16, literal(-17)))
        CFI (cfiCond138) V0 load(1, XDATA, add(CFA_XSP16, literal(-16)))
        CFI (cfiCond138) V1 load(1, XDATA, add(CFA_XSP16, literal(-15)))
        CFI (cfiCond138) V2 load(1, XDATA, add(CFA_XSP16, literal(-14)))
        CFI (cfiCond138) V3 load(1, XDATA, add(CFA_XSP16, literal(-13)))
        CFI (cfiCond138) V4 load(1, XDATA, add(CFA_XSP16, literal(-12)))
        CFI (cfiCond138) V5 load(1, XDATA, add(CFA_XSP16, literal(-11)))
        CFI (cfiCond138) V6 load(1, XDATA, add(CFA_XSP16, literal(-10)))
        CFI (cfiCond138) V7 load(1, XDATA, add(CFA_XSP16, literal(-9)))
        CFI (cfiCond138) V8 load(1, XDATA, add(CFA_XSP16, literal(-8)))
        CFI (cfiCond138) V9 load(1, XDATA, add(CFA_XSP16, literal(-7)))
        CFI (cfiCond138) R7 load(1, XDATA, add(CFA_XSP16, literal(-6)))
        CFI (cfiCond138) ?RET_LOW load(1, XDATA, add(CFA_XSP16, literal(-5)))
        CFI (cfiCond138) ?RET_HIGH load(1, XDATA, add(CFA_XSP16, literal(-4)))
        CFI (cfiCond138) ?BRET_EXT load(1, XDATA, add(CFA_XSP16, literal(-3)))
        CFI (cfiCond138) DPL0 load(1, XDATA, add(CFA_XSP16, literal(-2)))
        CFI (cfiCond138) DPH0 load(1, XDATA, add(CFA_XSP16, literal(-1)))
        CFI (cfiCond138) CFA_SP SP+0
        CFI (cfiCond138) CFA_XSP16 add(XSP16, 18)
        CFI Block cfiCond139 Using cfiCommon0
        CFI (cfiCond139) NoFunction
        CFI (cfiCond139) Conditional ??CrossCallReturnLabel_137, ??CrossCallReturnLabel_17
        CFI (cfiCond139) R6 load(1, XDATA, add(CFA_XSP16, literal(-20)))
        CFI (cfiCond139) VB load(1, XDATA, add(CFA_XSP16, literal(-19)))
        CFI (cfiCond139) V0 load(1, XDATA, add(CFA_XSP16, literal(-18)))
        CFI (cfiCond139) V1 load(1, XDATA, add(CFA_XSP16, literal(-17)))
        CFI (cfiCond139) V2 load(1, XDATA, add(CFA_XSP16, literal(-16)))
        CFI (cfiCond139) V3 load(1, XDATA, add(CFA_XSP16, literal(-15)))
        CFI (cfiCond139) V4 load(1, XDATA, add(CFA_XSP16, literal(-14)))
        CFI (cfiCond139) V5 load(1, XDATA, add(CFA_XSP16, literal(-13)))
        CFI (cfiCond139) V6 load(1, XDATA, add(CFA_XSP16, literal(-12)))
        CFI (cfiCond139) V7 load(1, XDATA, add(CFA_XSP16, literal(-11)))
        CFI (cfiCond139) V8 load(1, XDATA, add(CFA_XSP16, literal(-10)))
        CFI (cfiCond139) V9 load(1, XDATA, add(CFA_XSP16, literal(-9)))
        CFI (cfiCond139) V10 load(1, XDATA, add(CFA_XSP16, literal(-8)))
        CFI (cfiCond139) V11 load(1, XDATA, add(CFA_XSP16, literal(-7)))
        CFI (cfiCond139) R7 load(1, XDATA, add(CFA_XSP16, literal(-6)))
        CFI (cfiCond139) ?RET_LOW load(1, XDATA, add(CFA_XSP16, literal(-5)))
        CFI (cfiCond139) ?RET_HIGH load(1, XDATA, add(CFA_XSP16, literal(-4)))
        CFI (cfiCond139) ?BRET_EXT load(1, XDATA, add(CFA_XSP16, literal(-3)))
        CFI (cfiCond139) DPL0 load(1, XDATA, add(CFA_XSP16, literal(-2)))
        CFI (cfiCond139) DPH0 load(1, XDATA, add(CFA_XSP16, literal(-1)))
        CFI (cfiCond139) CFA_SP SP+0
        CFI (cfiCond139) CFA_XSP16 add(XSP16, 21)
        CFI Block cfiPicker140 Using cfiCommon1
        CFI (cfiPicker140) NoFunction
        CFI (cfiPicker140) Picker
        MOVX    A,@DPTR
        MOV     DPL,R0
        MOV     DPH,R1
        CFI EndBlock cfiCond134
        CFI EndBlock cfiCond135
        CFI EndBlock cfiCond136
        CFI EndBlock cfiCond137
        CFI EndBlock cfiCond138
        CFI EndBlock cfiCond139
        CFI EndBlock cfiPicker140
        REQUIRE ??Subroutine92_0
        ; // Fall through to label ??Subroutine92_0

        RSEG BANKED_CODE:CODE:NOROOT(0)
??Subroutine92_0:
        CFI Block cfiCond141 Using cfiCommon0
        CFI NoFunction
        CFI Conditional ??CrossCallReturnLabel_135, ??CrossCallReturnLabel_68
        CFI R6 load(1, XDATA, add(CFA_XSP16, literal(-16)))
        CFI VB load(1, XDATA, add(CFA_XSP16, literal(-15)))
        CFI V0 load(1, XDATA, add(CFA_XSP16, literal(-14)))
        CFI V1 load(1, XDATA, add(CFA_XSP16, literal(-13)))
        CFI V2 load(1, XDATA, add(CFA_XSP16, literal(-12)))
        CFI V3 load(1, XDATA, add(CFA_XSP16, literal(-11)))
        CFI V4 load(1, XDATA, add(CFA_XSP16, literal(-10)))
        CFI V5 load(1, XDATA, add(CFA_XSP16, literal(-9)))
        CFI V6 load(1, XDATA, add(CFA_XSP16, literal(-8)))
        CFI V7 load(1, XDATA, add(CFA_XSP16, literal(-7)))
        CFI R7 load(1, XDATA, add(CFA_XSP16, literal(-6)))
        CFI ?RET_LOW load(1, XDATA, add(CFA_XSP16, literal(-5)))
        CFI ?RET_HIGH load(1, XDATA, add(CFA_XSP16, literal(-4)))
        CFI ?BRET_EXT load(1, XDATA, add(CFA_XSP16, literal(-3)))
        CFI DPL0 load(1, XDATA, add(CFA_XSP16, literal(-2)))
        CFI DPH0 load(1, XDATA, add(CFA_XSP16, literal(-1)))
        CFI CFA_SP SP+0
        CFI CFA_XSP16 add(XSP16, 16)
        CFI Block cfiCond142 Using cfiCommon0
        CFI (cfiCond142) NoFunction
        CFI (cfiCond142) Conditional ??CrossCallReturnLabel_135, ??CrossCallReturnLabel_69
        CFI (cfiCond142) R6 load(1, XDATA, add(CFA_XSP16, literal(-16)))
        CFI (cfiCond142) VB load(1, XDATA, add(CFA_XSP16, literal(-15)))
        CFI (cfiCond142) V0 load(1, XDATA, add(CFA_XSP16, literal(-14)))
        CFI (cfiCond142) V1 load(1, XDATA, add(CFA_XSP16, literal(-13)))
        CFI (cfiCond142) V2 load(1, XDATA, add(CFA_XSP16, literal(-12)))
        CFI (cfiCond142) V3 load(1, XDATA, add(CFA_XSP16, literal(-11)))
        CFI (cfiCond142) V4 load(1, XDATA, add(CFA_XSP16, literal(-10)))
        CFI (cfiCond142) V5 load(1, XDATA, add(CFA_XSP16, literal(-9)))
        CFI (cfiCond142) V6 load(1, XDATA, add(CFA_XSP16, literal(-8)))
        CFI (cfiCond142) V7 load(1, XDATA, add(CFA_XSP16, literal(-7)))
        CFI (cfiCond142) R7 load(1, XDATA, add(CFA_XSP16, literal(-6)))
        CFI (cfiCond142) ?RET_LOW load(1, XDATA, add(CFA_XSP16, literal(-5)))
        CFI (cfiCond142) ?RET_HIGH load(1, XDATA, add(CFA_XSP16, literal(-4)))
        CFI (cfiCond142) ?BRET_EXT load(1, XDATA, add(CFA_XSP16, literal(-3)))
        CFI (cfiCond142) DPL0 load(1, XDATA, add(CFA_XSP16, literal(-2)))
        CFI (cfiCond142) DPH0 load(1, XDATA, add(CFA_XSP16, literal(-1)))
        CFI (cfiCond142) CFA_SP SP+0
        CFI (cfiCond142) CFA_XSP16 add(XSP16, 16)
        CFI Block cfiCond143 Using cfiCommon0
        CFI (cfiCond143) NoFunction
        CFI (cfiCond143) Conditional ??CrossCallReturnLabel_135, ??CrossCallReturnLabel_70
        CFI (cfiCond143) R6 load(1, XDATA, add(CFA_XSP16, literal(-10)))
        CFI (cfiCond143) VB load(1, XDATA, add(CFA_XSP16, literal(-9)))
        CFI (cfiCond143) V0 load(1, XDATA, add(CFA_XSP16, literal(-8)))
        CFI (cfiCond143) V1 load(1, XDATA, add(CFA_XSP16, literal(-7)))
        CFI (cfiCond143) R7 load(1, XDATA, add(CFA_XSP16, literal(-6)))
        CFI (cfiCond143) ?RET_LOW load(1, XDATA, add(CFA_XSP16, literal(-5)))
        CFI (cfiCond143) ?RET_HIGH load(1, XDATA, add(CFA_XSP16, literal(-4)))
        CFI (cfiCond143) ?BRET_EXT load(1, XDATA, add(CFA_XSP16, literal(-3)))
        CFI (cfiCond143) DPL0 load(1, XDATA, add(CFA_XSP16, literal(-2)))
        CFI (cfiCond143) DPH0 load(1, XDATA, add(CFA_XSP16, literal(-1)))
        CFI (cfiCond143) CFA_SP SP+0
        CFI (cfiCond143) CFA_XSP16 add(XSP16, 10)
        CFI Block cfiCond144 Using cfiCommon0
        CFI (cfiCond144) NoFunction
        CFI (cfiCond144) Conditional ??CrossCallReturnLabel_135, ??CrossCallReturnLabel_71
        CFI (cfiCond144) R6 load(1, XDATA, add(CFA_XSP16, literal(-18)))
        CFI (cfiCond144) VB load(1, XDATA, add(CFA_XSP16, literal(-17)))
        CFI (cfiCond144) V0 load(1, XDATA, add(CFA_XSP16, literal(-16)))
        CFI (cfiCond144) V1 load(1, XDATA, add(CFA_XSP16, literal(-15)))
        CFI (cfiCond144) V2 load(1, XDATA, add(CFA_XSP16, literal(-14)))
        CFI (cfiCond144) V3 load(1, XDATA, add(CFA_XSP16, literal(-13)))
        CFI (cfiCond144) V4 load(1, XDATA, add(CFA_XSP16, literal(-12)))
        CFI (cfiCond144) V5 load(1, XDATA, add(CFA_XSP16, literal(-11)))
        CFI (cfiCond144) V6 load(1, XDATA, add(CFA_XSP16, literal(-10)))
        CFI (cfiCond144) V7 load(1, XDATA, add(CFA_XSP16, literal(-9)))
        CFI (cfiCond144) V8 load(1, XDATA, add(CFA_XSP16, literal(-8)))
        CFI (cfiCond144) V9 load(1, XDATA, add(CFA_XSP16, literal(-7)))
        CFI (cfiCond144) R7 load(1, XDATA, add(CFA_XSP16, literal(-6)))
        CFI (cfiCond144) ?RET_LOW load(1, XDATA, add(CFA_XSP16, literal(-5)))
        CFI (cfiCond144) ?RET_HIGH load(1, XDATA, add(CFA_XSP16, literal(-4)))
        CFI (cfiCond144) ?BRET_EXT load(1, XDATA, add(CFA_XSP16, literal(-3)))
        CFI (cfiCond144) DPL0 load(1, XDATA, add(CFA_XSP16, literal(-2)))
        CFI (cfiCond144) DPH0 load(1, XDATA, add(CFA_XSP16, literal(-1)))
        CFI (cfiCond144) CFA_SP SP+0
        CFI (cfiCond144) CFA_XSP16 add(XSP16, 18)
        CFI Block cfiCond145 Using cfiCommon0
        CFI (cfiCond145) NoFunction
        CFI (cfiCond145) Conditional ??CrossCallReturnLabel_135, ??CrossCallReturnLabel_72
        CFI (cfiCond145) R6 load(1, XDATA, add(CFA_XSP16, literal(-20)))
        CFI (cfiCond145) VB load(1, XDATA, add(CFA_XSP16, literal(-19)))
        CFI (cfiCond145) V0 load(1, XDATA, add(CFA_XSP16, literal(-18)))
        CFI (cfiCond145) V1 load(1, XDATA, add(CFA_XSP16, literal(-17)))
        CFI (cfiCond145) V2 load(1, XDATA, add(CFA_XSP16, literal(-16)))
        CFI (cfiCond145) V3 load(1, XDATA, add(CFA_XSP16, literal(-15)))
        CFI (cfiCond145) V4 load(1, XDATA, add(CFA_XSP16, literal(-14)))
        CFI (cfiCond145) V5 load(1, XDATA, add(CFA_XSP16, literal(-13)))
        CFI (cfiCond145) V6 load(1, XDATA, add(CFA_XSP16, literal(-12)))
        CFI (cfiCond145) V7 load(1, XDATA, add(CFA_XSP16, literal(-11)))
        CFI (cfiCond145) V8 load(1, XDATA, add(CFA_XSP16, literal(-10)))
        CFI (cfiCond145) V9 load(1, XDATA, add(CFA_XSP16, literal(-9)))
        CFI (cfiCond145) V10 load(1, XDATA, add(CFA_XSP16, literal(-8)))
        CFI (cfiCond145) V11 load(1, XDATA, add(CFA_XSP16, literal(-7)))
        CFI (cfiCond145) R7 load(1, XDATA, add(CFA_XSP16, literal(-6)))
        CFI (cfiCond145) ?RET_LOW load(1, XDATA, add(CFA_XSP16, literal(-5)))
        CFI (cfiCond145) ?RET_HIGH load(1, XDATA, add(CFA_XSP16, literal(-4)))
        CFI (cfiCond145) ?BRET_EXT load(1, XDATA, add(CFA_XSP16, literal(-3)))
        CFI (cfiCond145) DPL0 load(1, XDATA, add(CFA_XSP16, literal(-2)))
        CFI (cfiCond145) DPH0 load(1, XDATA, add(CFA_XSP16, literal(-1)))
        CFI (cfiCond145) CFA_SP SP+0
        CFI (cfiCond145) CFA_XSP16 add(XSP16, 21)
        CFI Block cfiCond146 Using cfiCommon0
        CFI (cfiCond146) NoFunction
        CFI (cfiCond146) Conditional ??CrossCallReturnLabel_136, ??CrossCallReturnLabel_0
        CFI (cfiCond146) R6 load(1, XDATA, add(CFA_XSP16, literal(-16)))
        CFI (cfiCond146) VB load(1, XDATA, add(CFA_XSP16, literal(-15)))
        CFI (cfiCond146) V0 load(1, XDATA, add(CFA_XSP16, literal(-14)))
        CFI (cfiCond146) V1 load(1, XDATA, add(CFA_XSP16, literal(-13)))
        CFI (cfiCond146) V2 load(1, XDATA, add(CFA_XSP16, literal(-12)))
        CFI (cfiCond146) V3 load(1, XDATA, add(CFA_XSP16, literal(-11)))
        CFI (cfiCond146) V4 load(1, XDATA, add(CFA_XSP16, literal(-10)))
        CFI (cfiCond146) V5 load(1, XDATA, add(CFA_XSP16, literal(-9)))
        CFI (cfiCond146) V6 load(1, XDATA, add(CFA_XSP16, literal(-8)))
        CFI (cfiCond146) V7 load(1, XDATA, add(CFA_XSP16, literal(-7)))
        CFI (cfiCond146) R7 load(1, XDATA, add(CFA_XSP16, literal(-6)))
        CFI (cfiCond146) ?RET_LOW load(1, XDATA, add(CFA_XSP16, literal(-5)))
        CFI (cfiCond146) ?RET_HIGH load(1, XDATA, add(CFA_XSP16, literal(-4)))
        CFI (cfiCond146) ?BRET_EXT load(1, XDATA, add(CFA_XSP16, literal(-3)))
        CFI (cfiCond146) DPL0 load(1, XDATA, add(CFA_XSP16, literal(-2)))
        CFI (cfiCond146) DPH0 load(1, XDATA, add(CFA_XSP16, literal(-1)))
        CFI (cfiCond146) CFA_SP SP+0
        CFI (cfiCond146) CFA_XSP16 add(XSP16, 16)
        CFI Block cfiCond147 Using cfiCommon0
        CFI (cfiCond147) NoFunction
        CFI (cfiCond147) Conditional ??CrossCallReturnLabel_136, ??CrossCallReturnLabel_1
        CFI (cfiCond147) R6 load(1, XDATA, add(CFA_XSP16, literal(-16)))
        CFI (cfiCond147) VB load(1, XDATA, add(CFA_XSP16, literal(-15)))
        CFI (cfiCond147) V0 load(1, XDATA, add(CFA_XSP16, literal(-14)))
        CFI (cfiCond147) V1 load(1, XDATA, add(CFA_XSP16, literal(-13)))
        CFI (cfiCond147) V2 load(1, XDATA, add(CFA_XSP16, literal(-12)))
        CFI (cfiCond147) V3 load(1, XDATA, add(CFA_XSP16, literal(-11)))
        CFI (cfiCond147) V4 load(1, XDATA, add(CFA_XSP16, literal(-10)))
        CFI (cfiCond147) V5 load(1, XDATA, add(CFA_XSP16, literal(-9)))
        CFI (cfiCond147) V6 load(1, XDATA, add(CFA_XSP16, literal(-8)))
        CFI (cfiCond147) V7 load(1, XDATA, add(CFA_XSP16, literal(-7)))
        CFI (cfiCond147) R7 load(1, XDATA, add(CFA_XSP16, literal(-6)))
        CFI (cfiCond147) ?RET_LOW load(1, XDATA, add(CFA_XSP16, literal(-5)))
        CFI (cfiCond147) ?RET_HIGH load(1, XDATA, add(CFA_XSP16, literal(-4)))
        CFI (cfiCond147) ?BRET_EXT load(1, XDATA, add(CFA_XSP16, literal(-3)))
        CFI (cfiCond147) DPL0 load(1, XDATA, add(CFA_XSP16, literal(-2)))
        CFI (cfiCond147) DPH0 load(1, XDATA, add(CFA_XSP16, literal(-1)))
        CFI (cfiCond147) CFA_SP SP+0
        CFI (cfiCond147) CFA_XSP16 add(XSP16, 16)
        CFI Block cfiCond148 Using cfiCommon0
        CFI (cfiCond148) NoFunction
        CFI (cfiCond148) Conditional ??CrossCallReturnLabel_138, ??CrossCallReturnLabel_40
        CFI (cfiCond148) R6 load(1, XDATA, add(CFA_XSP16, literal(-18)))
        CFI (cfiCond148) VB load(1, XDATA, add(CFA_XSP16, literal(-17)))
        CFI (cfiCond148) V0 load(1, XDATA, add(CFA_XSP16, literal(-16)))
        CFI (cfiCond148) V1 load(1, XDATA, add(CFA_XSP16, literal(-15)))
        CFI (cfiCond148) V2 load(1, XDATA, add(CFA_XSP16, literal(-14)))
        CFI (cfiCond148) V3 load(1, XDATA, add(CFA_XSP16, literal(-13)))
        CFI (cfiCond148) V4 load(1, XDATA, add(CFA_XSP16, literal(-12)))
        CFI (cfiCond148) V5 load(1, XDATA, add(CFA_XSP16, literal(-11)))
        CFI (cfiCond148) V6 load(1, XDATA, add(CFA_XSP16, literal(-10)))
        CFI (cfiCond148) V7 load(1, XDATA, add(CFA_XSP16, literal(-9)))
        CFI (cfiCond148) V8 load(1, XDATA, add(CFA_XSP16, literal(-8)))
        CFI (cfiCond148) V9 load(1, XDATA, add(CFA_XSP16, literal(-7)))
        CFI (cfiCond148) R7 load(1, XDATA, add(CFA_XSP16, literal(-6)))
        CFI (cfiCond148) ?RET_LOW load(1, XDATA, add(CFA_XSP16, literal(-5)))
        CFI (cfiCond148) ?RET_HIGH load(1, XDATA, add(CFA_XSP16, literal(-4)))
        CFI (cfiCond148) ?BRET_EXT load(1, XDATA, add(CFA_XSP16, literal(-3)))
        CFI (cfiCond148) DPL0 load(1, XDATA, add(CFA_XSP16, literal(-2)))
        CFI (cfiCond148) DPH0 load(1, XDATA, add(CFA_XSP16, literal(-1)))
        CFI (cfiCond148) CFA_SP SP+0
        CFI (cfiCond148) CFA_XSP16 add(XSP16, 18)
        CFI Block cfiCond149 Using cfiCommon0
        CFI (cfiCond149) NoFunction
        CFI (cfiCond149) Conditional ??CrossCallReturnLabel_138, ??CrossCallReturnLabel_41
        CFI (cfiCond149) R6 load(1, XDATA, add(CFA_XSP16, literal(-18)))
        CFI (cfiCond149) VB load(1, XDATA, add(CFA_XSP16, literal(-17)))
        CFI (cfiCond149) V0 load(1, XDATA, add(CFA_XSP16, literal(-16)))
        CFI (cfiCond149) V1 load(1, XDATA, add(CFA_XSP16, literal(-15)))
        CFI (cfiCond149) V2 load(1, XDATA, add(CFA_XSP16, literal(-14)))
        CFI (cfiCond149) V3 load(1, XDATA, add(CFA_XSP16, literal(-13)))
        CFI (cfiCond149) V4 load(1, XDATA, add(CFA_XSP16, literal(-12)))
        CFI (cfiCond149) V5 load(1, XDATA, add(CFA_XSP16, literal(-11)))
        CFI (cfiCond149) V6 load(1, XDATA, add(CFA_XSP16, literal(-10)))
        CFI (cfiCond149) V7 load(1, XDATA, add(CFA_XSP16, literal(-9)))
        CFI (cfiCond149) V8 load(1, XDATA, add(CFA_XSP16, literal(-8)))
        CFI (cfiCond149) V9 load(1, XDATA, add(CFA_XSP16, literal(-7)))
        CFI (cfiCond149) R7 load(1, XDATA, add(CFA_XSP16, literal(-6)))
        CFI (cfiCond149) ?RET_LOW load(1, XDATA, add(CFA_XSP16, literal(-5)))
        CFI (cfiCond149) ?RET_HIGH load(1, XDATA, add(CFA_XSP16, literal(-4)))
        CFI (cfiCond149) ?BRET_EXT load(1, XDATA, add(CFA_XSP16, literal(-3)))
        CFI (cfiCond149) DPL0 load(1, XDATA, add(CFA_XSP16, literal(-2)))
        CFI (cfiCond149) DPH0 load(1, XDATA, add(CFA_XSP16, literal(-1)))
        CFI (cfiCond149) CFA_SP SP+0
        CFI (cfiCond149) CFA_XSP16 add(XSP16, 18)
        CFI Block cfiCond150 Using cfiCommon0
        CFI (cfiCond150) NoFunction
        CFI (cfiCond150) Conditional ??CrossCallReturnLabel_137, ??CrossCallReturnLabel_16
        CFI (cfiCond150) R6 load(1, XDATA, add(CFA_XSP16, literal(-18)))
        CFI (cfiCond150) VB load(1, XDATA, add(CFA_XSP16, literal(-17)))
        CFI (cfiCond150) V0 load(1, XDATA, add(CFA_XSP16, literal(-16)))
        CFI (cfiCond150) V1 load(1, XDATA, add(CFA_XSP16, literal(-15)))
        CFI (cfiCond150) V2 load(1, XDATA, add(CFA_XSP16, literal(-14)))
        CFI (cfiCond150) V3 load(1, XDATA, add(CFA_XSP16, literal(-13)))
        CFI (cfiCond150) V4 load(1, XDATA, add(CFA_XSP16, literal(-12)))
        CFI (cfiCond150) V5 load(1, XDATA, add(CFA_XSP16, literal(-11)))
        CFI (cfiCond150) V6 load(1, XDATA, add(CFA_XSP16, literal(-10)))
        CFI (cfiCond150) V7 load(1, XDATA, add(CFA_XSP16, literal(-9)))
        CFI (cfiCond150) V8 load(1, XDATA, add(CFA_XSP16, literal(-8)))
        CFI (cfiCond150) V9 load(1, XDATA, add(CFA_XSP16, literal(-7)))
        CFI (cfiCond150) R7 load(1, XDATA, add(CFA_XSP16, literal(-6)))
        CFI (cfiCond150) ?RET_LOW load(1, XDATA, add(CFA_XSP16, literal(-5)))
        CFI (cfiCond150) ?RET_HIGH load(1, XDATA, add(CFA_XSP16, literal(-4)))
        CFI (cfiCond150) ?BRET_EXT load(1, XDATA, add(CFA_XSP16, literal(-3)))
        CFI (cfiCond150) DPL0 load(1, XDATA, add(CFA_XSP16, literal(-2)))
        CFI (cfiCond150) DPH0 load(1, XDATA, add(CFA_XSP16, literal(-1)))
        CFI (cfiCond150) CFA_SP SP+0
        CFI (cfiCond150) CFA_XSP16 add(XSP16, 18)
        CFI Block cfiCond151 Using cfiCommon0
        CFI (cfiCond151) NoFunction
        CFI (cfiCond151) Conditional ??CrossCallReturnLabel_137, ??CrossCallReturnLabel_17
        CFI (cfiCond151) R6 load(1, XDATA, add(CFA_XSP16, literal(-20)))
        CFI (cfiCond151) VB load(1, XDATA, add(CFA_XSP16, literal(-19)))
        CFI (cfiCond151) V0 load(1, XDATA, add(CFA_XSP16, literal(-18)))
        CFI (cfiCond151) V1 load(1, XDATA, add(CFA_XSP16, literal(-17)))
        CFI (cfiCond151) V2 load(1, XDATA, add(CFA_XSP16, literal(-16)))
        CFI (cfiCond151) V3 load(1, XDATA, add(CFA_XSP16, literal(-15)))
        CFI (cfiCond151) V4 load(1, XDATA, add(CFA_XSP16, literal(-14)))
        CFI (cfiCond151) V5 load(1, XDATA, add(CFA_XSP16, literal(-13)))
        CFI (cfiCond151) V6 load(1, XDATA, add(CFA_XSP16, literal(-12)))
        CFI (cfiCond151) V7 load(1, XDATA, add(CFA_XSP16, literal(-11)))
        CFI (cfiCond151) V8 load(1, XDATA, add(CFA_XSP16, literal(-10)))
        CFI (cfiCond151) V9 load(1, XDATA, add(CFA_XSP16, literal(-9)))
        CFI (cfiCond151) V10 load(1, XDATA, add(CFA_XSP16, literal(-8)))
        CFI (cfiCond151) V11 load(1, XDATA, add(CFA_XSP16, literal(-7)))
        CFI (cfiCond151) R7 load(1, XDATA, add(CFA_XSP16, literal(-6)))
        CFI (cfiCond151) ?RET_LOW load(1, XDATA, add(CFA_XSP16, literal(-5)))
        CFI (cfiCond151) ?RET_HIGH load(1, XDATA, add(CFA_XSP16, literal(-4)))
        CFI (cfiCond151) ?BRET_EXT load(1, XDATA, add(CFA_XSP16, literal(-3)))
        CFI (cfiCond151) DPL0 load(1, XDATA, add(CFA_XSP16, literal(-2)))
        CFI (cfiCond151) DPH0 load(1, XDATA, add(CFA_XSP16, literal(-1)))
        CFI (cfiCond151) CFA_SP SP+0
        CFI (cfiCond151) CFA_XSP16 add(XSP16, 21)
        CFI Block cfiPicker152 Using cfiCommon1
        CFI (cfiPicker152) NoFunction
        CFI (cfiPicker152) Picker
        MOVX    @DPTR,A
        INC     DPTR
        MOV     R0,DPL
        MOV     R1,DPH
        RET
        CFI EndBlock cfiCond141
        CFI EndBlock cfiCond142
        CFI EndBlock cfiCond143
        CFI EndBlock cfiCond144
        CFI EndBlock cfiCond145
        CFI EndBlock cfiCond146
        CFI EndBlock cfiCond147
        CFI EndBlock cfiCond148
        CFI EndBlock cfiCond149
        CFI EndBlock cfiCond150
        CFI EndBlock cfiCond151
        CFI EndBlock cfiPicker152

        RSEG BANKED_CODE:CODE:NOROOT(0)
?Subroutine33:
        CFI Block cfiCond153 Using cfiCommon0
        CFI NoFunction
        CFI Conditional ??CrossCallReturnLabel_38
        CFI R6 load(1, XDATA, add(CFA_XSP16, literal(-18)))
        CFI VB load(1, XDATA, add(CFA_XSP16, literal(-17)))
        CFI V0 load(1, XDATA, add(CFA_XSP16, literal(-16)))
        CFI V1 load(1, XDATA, add(CFA_XSP16, literal(-15)))
        CFI V2 load(1, XDATA, add(CFA_XSP16, literal(-14)))
        CFI V3 load(1, XDATA, add(CFA_XSP16, literal(-13)))
        CFI V4 load(1, XDATA, add(CFA_XSP16, literal(-12)))
        CFI V5 load(1, XDATA, add(CFA_XSP16, literal(-11)))
        CFI V6 load(1, XDATA, add(CFA_XSP16, literal(-10)))
        CFI V7 load(1, XDATA, add(CFA_XSP16, literal(-9)))
        CFI V8 load(1, XDATA, add(CFA_XSP16, literal(-8)))
        CFI V9 load(1, XDATA, add(CFA_XSP16, literal(-7)))
        CFI R7 load(1, XDATA, add(CFA_XSP16, literal(-6)))
        CFI ?RET_LOW load(1, XDATA, add(CFA_XSP16, literal(-5)))
        CFI ?RET_HIGH load(1, XDATA, add(CFA_XSP16, literal(-4)))
        CFI ?BRET_EXT load(1, XDATA, add(CFA_XSP16, literal(-3)))
        CFI DPL0 load(1, XDATA, add(CFA_XSP16, literal(-2)))
        CFI DPH0 load(1, XDATA, add(CFA_XSP16, literal(-1)))
        CFI CFA_SP SP+0
        CFI CFA_XSP16 add(XSP16, 18)
        CFI Block cfiCond154 Using cfiCommon0
        CFI (cfiCond154) NoFunction
        CFI (cfiCond154) Conditional ??CrossCallReturnLabel_39
        CFI (cfiCond154) R6 load(1, XDATA, add(CFA_XSP16, literal(-18)))
        CFI (cfiCond154) VB load(1, XDATA, add(CFA_XSP16, literal(-17)))
        CFI (cfiCond154) V0 load(1, XDATA, add(CFA_XSP16, literal(-16)))
        CFI (cfiCond154) V1 load(1, XDATA, add(CFA_XSP16, literal(-15)))
        CFI (cfiCond154) V2 load(1, XDATA, add(CFA_XSP16, literal(-14)))
        CFI (cfiCond154) V3 load(1, XDATA, add(CFA_XSP16, literal(-13)))
        CFI (cfiCond154) V4 load(1, XDATA, add(CFA_XSP16, literal(-12)))
        CFI (cfiCond154) V5 load(1, XDATA, add(CFA_XSP16, literal(-11)))
        CFI (cfiCond154) V6 load(1, XDATA, add(CFA_XSP16, literal(-10)))
        CFI (cfiCond154) V7 load(1, XDATA, add(CFA_XSP16, literal(-9)))
        CFI (cfiCond154) V8 load(1, XDATA, add(CFA_XSP16, literal(-8)))
        CFI (cfiCond154) V9 load(1, XDATA, add(CFA_XSP16, literal(-7)))
        CFI (cfiCond154) R7 load(1, XDATA, add(CFA_XSP16, literal(-6)))
        CFI (cfiCond154) ?RET_LOW load(1, XDATA, add(CFA_XSP16, literal(-5)))
        CFI (cfiCond154) ?RET_HIGH load(1, XDATA, add(CFA_XSP16, literal(-4)))
        CFI (cfiCond154) ?BRET_EXT load(1, XDATA, add(CFA_XSP16, literal(-3)))
        CFI (cfiCond154) DPL0 load(1, XDATA, add(CFA_XSP16, literal(-2)))
        CFI (cfiCond154) DPH0 load(1, XDATA, add(CFA_XSP16, literal(-1)))
        CFI (cfiCond154) CFA_SP SP+0
        CFI (cfiCond154) CFA_XSP16 add(XSP16, 18)
        CFI Block cfiPicker155 Using cfiCommon1
        CFI (cfiPicker155) NoFunction
        CFI (cfiPicker155) Picker
        LCALL   ??Subroutine103_0 & 0xFFFF
??CrossCallReturnLabel_195:
        INC     R3
        RET
        CFI EndBlock cfiCond153
        CFI EndBlock cfiCond154
        CFI EndBlock cfiPicker155

        RSEG BANKED_CODE:CODE:NOROOT(0)
?Subroutine31:
        CFI Block cfiCond156 Using cfiCommon0
        CFI NoFunction
        CFI Conditional ??CrossCallReturnLabel_34
        CFI R6 load(1, XDATA, add(CFA_XSP16, literal(-18)))
        CFI VB load(1, XDATA, add(CFA_XSP16, literal(-17)))
        CFI V0 load(1, XDATA, add(CFA_XSP16, literal(-16)))
        CFI V1 load(1, XDATA, add(CFA_XSP16, literal(-15)))
        CFI V2 load(1, XDATA, add(CFA_XSP16, literal(-14)))
        CFI V3 load(1, XDATA, add(CFA_XSP16, literal(-13)))
        CFI V4 load(1, XDATA, add(CFA_XSP16, literal(-12)))
        CFI V5 load(1, XDATA, add(CFA_XSP16, literal(-11)))
        CFI V6 load(1, XDATA, add(CFA_XSP16, literal(-10)))
        CFI V7 load(1, XDATA, add(CFA_XSP16, literal(-9)))
        CFI V8 load(1, XDATA, add(CFA_XSP16, literal(-8)))
        CFI V9 load(1, XDATA, add(CFA_XSP16, literal(-7)))
        CFI R7 load(1, XDATA, add(CFA_XSP16, literal(-6)))
        CFI ?RET_LOW load(1, XDATA, add(CFA_XSP16, literal(-5)))
        CFI ?RET_HIGH load(1, XDATA, add(CFA_XSP16, literal(-4)))
        CFI ?BRET_EXT load(1, XDATA, add(CFA_XSP16, literal(-3)))
        CFI DPL0 load(1, XDATA, add(CFA_XSP16, literal(-2)))
        CFI DPH0 load(1, XDATA, add(CFA_XSP16, literal(-1)))
        CFI CFA_SP SP+0
        CFI CFA_XSP16 add(XSP16, 18)
        CFI Block cfiCond157 Using cfiCommon0
        CFI (cfiCond157) NoFunction
        CFI (cfiCond157) Conditional ??CrossCallReturnLabel_35
        CFI (cfiCond157) R6 load(1, XDATA, add(CFA_XSP16, literal(-18)))
        CFI (cfiCond157) VB load(1, XDATA, add(CFA_XSP16, literal(-17)))
        CFI (cfiCond157) V0 load(1, XDATA, add(CFA_XSP16, literal(-16)))
        CFI (cfiCond157) V1 load(1, XDATA, add(CFA_XSP16, literal(-15)))
        CFI (cfiCond157) V2 load(1, XDATA, add(CFA_XSP16, literal(-14)))
        CFI (cfiCond157) V3 load(1, XDATA, add(CFA_XSP16, literal(-13)))
        CFI (cfiCond157) V4 load(1, XDATA, add(CFA_XSP16, literal(-12)))
        CFI (cfiCond157) V5 load(1, XDATA, add(CFA_XSP16, literal(-11)))
        CFI (cfiCond157) V6 load(1, XDATA, add(CFA_XSP16, literal(-10)))
        CFI (cfiCond157) V7 load(1, XDATA, add(CFA_XSP16, literal(-9)))
        CFI (cfiCond157) V8 load(1, XDATA, add(CFA_XSP16, literal(-8)))
        CFI (cfiCond157) V9 load(1, XDATA, add(CFA_XSP16, literal(-7)))
        CFI (cfiCond157) R7 load(1, XDATA, add(CFA_XSP16, literal(-6)))
        CFI (cfiCond157) ?RET_LOW load(1, XDATA, add(CFA_XSP16, literal(-5)))
        CFI (cfiCond157) ?RET_HIGH load(1, XDATA, add(CFA_XSP16, literal(-4)))
        CFI (cfiCond157) ?BRET_EXT load(1, XDATA, add(CFA_XSP16, literal(-3)))
        CFI (cfiCond157) DPL0 load(1, XDATA, add(CFA_XSP16, literal(-2)))
        CFI (cfiCond157) DPH0 load(1, XDATA, add(CFA_XSP16, literal(-1)))
        CFI (cfiCond157) CFA_SP SP+0
        CFI (cfiCond157) CFA_XSP16 add(XSP16, 18)
        CFI Block cfiPicker158 Using cfiCommon1
        CFI (cfiPicker158) NoFunction
        CFI (cfiPicker158) Picker
        MOV     DPL,?V0 + 6
        MOV     DPH,?V0 + 7
        MOVX    A,@DPTR
        ADD     A,?V0 + 2
        MOV     R7,A
        INC     DPTR
        MOVX    A,@DPTR
        ADDC    A,?V0 + 3
        MOV     DPL,R7
        MOV     DPH,A
        RET
        CFI EndBlock cfiCond156
        CFI EndBlock cfiCond157
        CFI EndBlock cfiPicker158

        RSEG BANKED_CODE:CODE:NOROOT(0)
?Subroutine13:
        CFI Block cfiCond159 Using cfiCommon0
        CFI NoFunction
        CFI Conditional ??CrossCallReturnLabel_2
        CFI R6 load(1, XDATA, add(CFA_XSP16, literal(-18)))
        CFI VB load(1, XDATA, add(CFA_XSP16, literal(-17)))
        CFI V0 load(1, XDATA, add(CFA_XSP16, literal(-16)))
        CFI V1 load(1, XDATA, add(CFA_XSP16, literal(-15)))
        CFI V2 load(1, XDATA, add(CFA_XSP16, literal(-14)))
        CFI V3 load(1, XDATA, add(CFA_XSP16, literal(-13)))
        CFI V4 load(1, XDATA, add(CFA_XSP16, literal(-12)))
        CFI V5 load(1, XDATA, add(CFA_XSP16, literal(-11)))
        CFI V6 load(1, XDATA, add(CFA_XSP16, literal(-10)))
        CFI V7 load(1, XDATA, add(CFA_XSP16, literal(-9)))
        CFI V8 load(1, XDATA, add(CFA_XSP16, literal(-8)))
        CFI V9 load(1, XDATA, add(CFA_XSP16, literal(-7)))
        CFI R7 load(1, XDATA, add(CFA_XSP16, literal(-6)))
        CFI ?RET_LOW load(1, XDATA, add(CFA_XSP16, literal(-5)))
        CFI ?RET_HIGH load(1, XDATA, add(CFA_XSP16, literal(-4)))
        CFI ?BRET_EXT load(1, XDATA, add(CFA_XSP16, literal(-3)))
        CFI DPL0 load(1, XDATA, add(CFA_XSP16, literal(-2)))
        CFI DPH0 load(1, XDATA, add(CFA_XSP16, literal(-1)))
        CFI CFA_SP SP+0
        CFI CFA_XSP16 add(XSP16, 18)
        CFI Block cfiCond160 Using cfiCommon0
        CFI (cfiCond160) NoFunction
        CFI (cfiCond160) Conditional ??CrossCallReturnLabel_3
        CFI (cfiCond160) R6 load(1, XDATA, add(CFA_XSP16, literal(-18)))
        CFI (cfiCond160) VB load(1, XDATA, add(CFA_XSP16, literal(-17)))
        CFI (cfiCond160) V0 load(1, XDATA, add(CFA_XSP16, literal(-16)))
        CFI (cfiCond160) V1 load(1, XDATA, add(CFA_XSP16, literal(-15)))
        CFI (cfiCond160) V2 load(1, XDATA, add(CFA_XSP16, literal(-14)))
        CFI (cfiCond160) V3 load(1, XDATA, add(CFA_XSP16, literal(-13)))
        CFI (cfiCond160) V4 load(1, XDATA, add(CFA_XSP16, literal(-12)))
        CFI (cfiCond160) V5 load(1, XDATA, add(CFA_XSP16, literal(-11)))
        CFI (cfiCond160) V6 load(1, XDATA, add(CFA_XSP16, literal(-10)))
        CFI (cfiCond160) V7 load(1, XDATA, add(CFA_XSP16, literal(-9)))
        CFI (cfiCond160) V8 load(1, XDATA, add(CFA_XSP16, literal(-8)))
        CFI (cfiCond160) V9 load(1, XDATA, add(CFA_XSP16, literal(-7)))
        CFI (cfiCond160) R7 load(1, XDATA, add(CFA_XSP16, literal(-6)))
        CFI (cfiCond160) ?RET_LOW load(1, XDATA, add(CFA_XSP16, literal(-5)))
        CFI (cfiCond160) ?RET_HIGH load(1, XDATA, add(CFA_XSP16, literal(-4)))
        CFI (cfiCond160) ?BRET_EXT load(1, XDATA, add(CFA_XSP16, literal(-3)))
        CFI (cfiCond160) DPL0 load(1, XDATA, add(CFA_XSP16, literal(-2)))
        CFI (cfiCond160) DPH0 load(1, XDATA, add(CFA_XSP16, literal(-1)))
        CFI (cfiCond160) CFA_SP SP+0
        CFI (cfiCond160) CFA_XSP16 add(XSP16, 18)
        CFI Block cfiPicker161 Using cfiCommon1
        CFI (cfiPicker161) NoFunction
        CFI (cfiPicker161) Picker
        LCALL   ??Subroutine104_0 & 0xFFFF
??CrossCallReturnLabel_190:
        MOV     DPL,?V0 + 2
        MOV     DPH,?V0 + 3
        LCALL   ??Subroutine103_0 & 0xFFFF
??CrossCallReturnLabel_194:
        RET
        CFI EndBlock cfiCond159
        CFI EndBlock cfiCond160
        CFI EndBlock cfiPicker161
//  886 
//  887 /*********************************************************************
//  888  * @fn          ZDP_EPRsp
//  889  *
//  890  * @brief       This builds and send an endpoint list. Used in
//  891  *              Active_EP_rsp and Match_Desc_Rsp
//  892  *              message.  This function sends unicast message to the
//  893  *              requesting device.
//  894  *
//  895  * @param       MsgType - either Active_EP_rsp or Match_Desc_Rsp
//  896  * @param       dstAddr - destination address
//  897  * @param       Status - message status (ZDP_SUCCESS or other)
//  898  * @param       nwkAddr - Device's short address that this response describes
//  899  * @param       Count - number of endpoint/interfaces in list
//  900  * @param       pEPIntfList - Array of Endpoint/Interfaces
//  901  * @param       SecurityEnable - Security Options
//  902  *
//  903  * @return      afStatus_t
//  904  */

        RSEG BANKED_CODE:CODE:NOROOT(0)
//  905 afStatus_t ZDP_EPRsp( uint16 MsgType, byte TransSeq, zAddrType_t *dstAddr,
ZDP_EPRsp:
        CFI Block cfiBlock162 Using cfiCommon0
        CFI Function ZDP_EPRsp
        CODE
//  906                         byte Status, uint16 nwkAddr, byte Count,
//  907                         uint8 *pEPList,
//  908                         byte SecurityEnable )
//  909 {
        FUNCALL ZDP_EPRsp, osal_memcpy
        LOCFRAME ISTACK, 0, STACK
        LOCFRAME PSTACK, 0, STACK
        LOCFRAME XSTACK, 22, STACK
        LOCFRAME IOVERLAY, 0, STATIC
        LOCFRAME DOVERLAY, 0, STATIC
        ARGFRAME ISTACK, 0, STACK
        ARGFRAME PSTACK, 0, STACK
        ARGFRAME XSTACK, 22, STACK
        ARGFRAME IOVERLAY, 0, STATIC
        ARGFRAME DOVERLAY, 0, STATIC
        FUNCALL ZDP_EPRsp, fillAndSend
        LOCFRAME ISTACK, 0, STACK
        LOCFRAME PSTACK, 0, STACK
        LOCFRAME XSTACK, 21, STACK
        LOCFRAME IOVERLAY, 0, STATIC
        LOCFRAME DOVERLAY, 0, STATIC
        ARGFRAME ISTACK, 0, STACK
        ARGFRAME PSTACK, 0, STACK
        ARGFRAME XSTACK, 21, STACK
        ARGFRAME IOVERLAY, 0, STATIC
        ARGFRAME DOVERLAY, 0, STATIC
        MOV     A,#-0x12
        LCALL   ?BANKED_ENTER_XDATA
        CFI DPH0 load(1, XDATA, add(CFA_XSP16, literal(-1)))
        CFI DPL0 load(1, XDATA, add(CFA_XSP16, literal(-2)))
        CFI ?BRET_EXT load(1, XDATA, add(CFA_XSP16, literal(-3)))
        CFI ?RET_HIGH load(1, XDATA, add(CFA_XSP16, literal(-4)))
        CFI ?RET_LOW load(1, XDATA, add(CFA_XSP16, literal(-5)))
        CFI R7 load(1, XDATA, add(CFA_XSP16, literal(-6)))
        CFI V9 load(1, XDATA, add(CFA_XSP16, literal(-7)))
        CFI V8 load(1, XDATA, add(CFA_XSP16, literal(-8)))
        CFI V7 load(1, XDATA, add(CFA_XSP16, literal(-9)))
        CFI V6 load(1, XDATA, add(CFA_XSP16, literal(-10)))
        CFI V5 load(1, XDATA, add(CFA_XSP16, literal(-11)))
        CFI V4 load(1, XDATA, add(CFA_XSP16, literal(-12)))
        CFI V3 load(1, XDATA, add(CFA_XSP16, literal(-13)))
        CFI V2 load(1, XDATA, add(CFA_XSP16, literal(-14)))
        CFI V1 load(1, XDATA, add(CFA_XSP16, literal(-15)))
        CFI V0 load(1, XDATA, add(CFA_XSP16, literal(-16)))
        CFI VB load(1, XDATA, add(CFA_XSP16, literal(-17)))
        CFI R6 load(1, XDATA, add(CFA_XSP16, literal(-18)))
        CFI CFA_SP SP+0
        CFI CFA_XSP16 add(XSP16, 18)
        ; Saved register size: 18
        ; Auto size: 1
        MOV     A,#-0x1
        LCALL   ?ALLOC_XSTACK8
        CFI CFA_XSP16 add(XSP16, 19)
        MOV     A,R1
        MOV     DPL,?XSP + 0
        MOV     DPH,?XSP + 1
        MOVX    @DPTR,A
        MOV     A,R2
        MOV     R6,A
        MOV     A,R3
        MOV     R7,A
        MOV     ?V0 + 2,R4
        MOV     ?V0 + 3,R5
        MOV     A,#0x13
        LCALL   ?XSTACK_DISP0_8
        MOVX    A,@DPTR
        MOV     R4,A
        MOV     A,#0x14
        LCALL   ?XSTACK_DISP0_8
        LCALL   ??Subroutine114_0 & 0xFFFF
??CrossCallReturnLabel_265:
        MOV     A,#0x16
        LCALL   ?XSTACK_DISP0_8
        MOVX    A,@DPTR
        MOV     ?V0 + 8,A
        MOV     A,#0x17
        LCALL   ?XSTACK_DISP0_8
        LCALL   ?Subroutine32 & 0xFFFF
//  910   uint8 *pBuf = ZDP_TmpBuf;
??CrossCallReturnLabel_37:
        MOV     R2,A
        INC     DPTR
        MOVX    A,@DPTR
        MOV     R3,A
//  911   byte len = 1 + 2 + 1;  // Status + nwkAddr + endpoint/interface count.
        MOV     ?V0 + 0,#0x4
//  912   byte txOptions;
//  913 
//  914   (void)SecurityEnable;  // Intentionally unreferenced parameter
//  915 
//  916   if ( MsgType == Match_Desc_rsp )
        MOV     A,#0x6
        XRL     A,R6
        JNZ     ??ZDP_EPRsp_0
        MOV     A,#-0x80
        XRL     A,R7
??ZDP_EPRsp_0:
        JNZ     ??ZDP_EPRsp_1
//  917     txOptions = AF_MSG_ACK_REQUEST;
        MOV     ?V0 + 1,#0x10
        SJMP    ??ZDP_EPRsp_2
//  918   else
//  919     txOptions = 0;
??ZDP_EPRsp_1:
        MOV     ?V0 + 1,#0x0
//  920 
//  921     *pBuf++ = Status;
??ZDP_EPRsp_2:
        MOV     A,R4
        MOV     DPL,R2
        MOV     DPH,R3
        MOVX    @DPTR,A
        INC     DPTR
//  922   *pBuf++ = LO_UINT16( nwkAddr );
        MOV     A,R0
        MOVX    @DPTR,A
        INC     DPTR
//  923   *pBuf++ = HI_UINT16( nwkAddr );
        MOV     A,R1
        LCALL   ?Subroutine48 & 0xFFFF
//  924 
//  925   *pBuf++ = Count;   // Endpoint/Interface count
//  926 
//  927   if ( Count )
??CrossCallReturnLabel_240:
        JZ      ??ZDP_EPRsp_3
//  928   {
//  929     len += Count;
        MOV     A,#0x4
        ADD     A,?V0 + 8
        MOV     ?V0 + 0,A
//  930     osal_memcpy( pBuf, pEPList, Count );
        ; Setup parameters for call to function osal_memcpy
        MOV     ?V0 + 6,#0x0
        MOV     R0,#?V0 + 4
        LCALL   ?PUSH_XSTACK_I_THREE
        CFI CFA_XSP16 add(XSP16, 22)
        MOV     R4,?V0 + 8
        LCALL   ?Subroutine68 & 0xFFFF
//  931   }
??CrossCallReturnLabel_139:
        LCALL   ?DEALLOC_XSTACK8
        CFI CFA_XSP16 add(XSP16, 19)
//  932 
//  933   FillAndSendTxOptions( &TransSeq, dstAddr, MsgType, len, txOptions );
??ZDP_EPRsp_3:
        MOV     A,?V0 + 1
        MOV     DPTR,#ZDP_TxOptions
        MOVX    @DPTR,A
        ; Setup parameters for call to function fillAndSend
        MOV     ?V0 + 4,R6
        MOV     ?V0 + 5,R7
        MOV     R0,#?V0 + 4
        LCALL   ?PUSH_XSTACK_I_TWO
        CFI CFA_XSP16 add(XSP16, 21)
        MOV     R1,?V0 + 0
        MOV     R4,?V0 + 2
        MOV     R5,?V0 + 3
        MOV     A,#0x2
        LCALL   ?XSTACK_DISP0_8
        MOV     R2,DPL
        MOV     R3,DPH
        LCALL   ??Subroutine107_0 & 0xFFFF
??CrossCallReturnLabel_212:
        LCALL   ?DEALLOC_XSTACK8
        CFI CFA_XSP16 add(XSP16, 19)
        MOV     DPTR,#ZDP_TxOptions
        CLR     A
        MOVX    @DPTR,A
        INC     A
        LJMP    ?Subroutine3 & 0xFFFF
        CFI EndBlock cfiBlock162
//  934 }

        RSEG BANKED_CODE:CODE:NOROOT(0)
?Subroutine68:
        CFI Block cfiCond163 Using cfiCommon0
        CFI NoFunction
        CFI Conditional ??CrossCallReturnLabel_139
        CFI R6 load(1, XDATA, add(CFA_XSP16, literal(-18)))
        CFI VB load(1, XDATA, add(CFA_XSP16, literal(-17)))
        CFI V0 load(1, XDATA, add(CFA_XSP16, literal(-16)))
        CFI V1 load(1, XDATA, add(CFA_XSP16, literal(-15)))
        CFI V2 load(1, XDATA, add(CFA_XSP16, literal(-14)))
        CFI V3 load(1, XDATA, add(CFA_XSP16, literal(-13)))
        CFI V4 load(1, XDATA, add(CFA_XSP16, literal(-12)))
        CFI V5 load(1, XDATA, add(CFA_XSP16, literal(-11)))
        CFI V6 load(1, XDATA, add(CFA_XSP16, literal(-10)))
        CFI V7 load(1, XDATA, add(CFA_XSP16, literal(-9)))
        CFI V8 load(1, XDATA, add(CFA_XSP16, literal(-8)))
        CFI V9 load(1, XDATA, add(CFA_XSP16, literal(-7)))
        CFI R7 load(1, XDATA, add(CFA_XSP16, literal(-6)))
        CFI ?RET_LOW load(1, XDATA, add(CFA_XSP16, literal(-5)))
        CFI ?RET_HIGH load(1, XDATA, add(CFA_XSP16, literal(-4)))
        CFI ?BRET_EXT load(1, XDATA, add(CFA_XSP16, literal(-3)))
        CFI DPL0 load(1, XDATA, add(CFA_XSP16, literal(-2)))
        CFI DPH0 load(1, XDATA, add(CFA_XSP16, literal(-1)))
        CFI CFA_SP SP+0
        CFI CFA_XSP16 add(XSP16, 22)
        CFI Block cfiCond164 Using cfiCommon0
        CFI (cfiCond164) NoFunction
        CFI (cfiCond164) Conditional ??CrossCallReturnLabel_140
        CFI (cfiCond164) R6 load(1, XDATA, add(CFA_XSP16, literal(-24)))
        CFI (cfiCond164) VB load(1, XDATA, add(CFA_XSP16, literal(-23)))
        CFI (cfiCond164) V0 load(1, XDATA, add(CFA_XSP16, literal(-22)))
        CFI (cfiCond164) V1 load(1, XDATA, add(CFA_XSP16, literal(-21)))
        CFI (cfiCond164) V2 load(1, XDATA, add(CFA_XSP16, literal(-20)))
        CFI (cfiCond164) V3 load(1, XDATA, add(CFA_XSP16, literal(-19)))
        CFI (cfiCond164) V4 load(1, XDATA, add(CFA_XSP16, literal(-18)))
        CFI (cfiCond164) V5 load(1, XDATA, add(CFA_XSP16, literal(-17)))
        CFI (cfiCond164) V6 load(1, XDATA, add(CFA_XSP16, literal(-16)))
        CFI (cfiCond164) V7 load(1, XDATA, add(CFA_XSP16, literal(-15)))
        CFI (cfiCond164) V8 load(1, XDATA, add(CFA_XSP16, literal(-14)))
        CFI (cfiCond164) V9 load(1, XDATA, add(CFA_XSP16, literal(-13)))
        CFI (cfiCond164) V10 load(1, XDATA, add(CFA_XSP16, literal(-12)))
        CFI (cfiCond164) V11 load(1, XDATA, add(CFA_XSP16, literal(-11)))
        CFI (cfiCond164) V12 load(1, XDATA, add(CFA_XSP16, literal(-10)))
        CFI (cfiCond164) V13 load(1, XDATA, add(CFA_XSP16, literal(-9)))
        CFI (cfiCond164) V14 load(1, XDATA, add(CFA_XSP16, literal(-8)))
        CFI (cfiCond164) V15 load(1, XDATA, add(CFA_XSP16, literal(-7)))
        CFI (cfiCond164) R7 load(1, XDATA, add(CFA_XSP16, literal(-6)))
        CFI (cfiCond164) ?RET_LOW load(1, XDATA, add(CFA_XSP16, literal(-5)))
        CFI (cfiCond164) ?RET_HIGH load(1, XDATA, add(CFA_XSP16, literal(-4)))
        CFI (cfiCond164) ?BRET_EXT load(1, XDATA, add(CFA_XSP16, literal(-3)))
        CFI (cfiCond164) DPL0 load(1, XDATA, add(CFA_XSP16, literal(-2)))
        CFI (cfiCond164) DPH0 load(1, XDATA, add(CFA_XSP16, literal(-1)))
        CFI (cfiCond164) CFA_SP SP+0
        CFI (cfiCond164) CFA_XSP16 add(XSP16, 30)
        CFI Block cfiCond165 Using cfiCommon0
        CFI (cfiCond165) NoFunction
        CFI (cfiCond165) Conditional ??CrossCallReturnLabel_141
        CFI (cfiCond165) R6 load(1, XDATA, add(CFA_XSP16, literal(-24)))
        CFI (cfiCond165) VB load(1, XDATA, add(CFA_XSP16, literal(-23)))
        CFI (cfiCond165) V0 load(1, XDATA, add(CFA_XSP16, literal(-22)))
        CFI (cfiCond165) V1 load(1, XDATA, add(CFA_XSP16, literal(-21)))
        CFI (cfiCond165) V2 load(1, XDATA, add(CFA_XSP16, literal(-20)))
        CFI (cfiCond165) V3 load(1, XDATA, add(CFA_XSP16, literal(-19)))
        CFI (cfiCond165) V4 load(1, XDATA, add(CFA_XSP16, literal(-18)))
        CFI (cfiCond165) V5 load(1, XDATA, add(CFA_XSP16, literal(-17)))
        CFI (cfiCond165) V6 load(1, XDATA, add(CFA_XSP16, literal(-16)))
        CFI (cfiCond165) V7 load(1, XDATA, add(CFA_XSP16, literal(-15)))
        CFI (cfiCond165) V8 load(1, XDATA, add(CFA_XSP16, literal(-14)))
        CFI (cfiCond165) V9 load(1, XDATA, add(CFA_XSP16, literal(-13)))
        CFI (cfiCond165) V10 load(1, XDATA, add(CFA_XSP16, literal(-12)))
        CFI (cfiCond165) V11 load(1, XDATA, add(CFA_XSP16, literal(-11)))
        CFI (cfiCond165) V12 load(1, XDATA, add(CFA_XSP16, literal(-10)))
        CFI (cfiCond165) V13 load(1, XDATA, add(CFA_XSP16, literal(-9)))
        CFI (cfiCond165) V14 load(1, XDATA, add(CFA_XSP16, literal(-8)))
        CFI (cfiCond165) V15 load(1, XDATA, add(CFA_XSP16, literal(-7)))
        CFI (cfiCond165) R7 load(1, XDATA, add(CFA_XSP16, literal(-6)))
        CFI (cfiCond165) ?RET_LOW load(1, XDATA, add(CFA_XSP16, literal(-5)))
        CFI (cfiCond165) ?RET_HIGH load(1, XDATA, add(CFA_XSP16, literal(-4)))
        CFI (cfiCond165) ?BRET_EXT load(1, XDATA, add(CFA_XSP16, literal(-3)))
        CFI (cfiCond165) DPL0 load(1, XDATA, add(CFA_XSP16, literal(-2)))
        CFI (cfiCond165) DPH0 load(1, XDATA, add(CFA_XSP16, literal(-1)))
        CFI (cfiCond165) CFA_SP SP+0
        CFI (cfiCond165) CFA_XSP16 add(XSP16, 27)
        CFI Block cfiCond166 Using cfiCommon0
        CFI (cfiCond166) NoFunction
        CFI (cfiCond166) Conditional ??CrossCallReturnLabel_142
        CFI (cfiCond166) R6 load(1, XDATA, add(CFA_XSP16, literal(-24)))
        CFI (cfiCond166) VB load(1, XDATA, add(CFA_XSP16, literal(-23)))
        CFI (cfiCond166) V0 load(1, XDATA, add(CFA_XSP16, literal(-22)))
        CFI (cfiCond166) V1 load(1, XDATA, add(CFA_XSP16, literal(-21)))
        CFI (cfiCond166) V2 load(1, XDATA, add(CFA_XSP16, literal(-20)))
        CFI (cfiCond166) V3 load(1, XDATA, add(CFA_XSP16, literal(-19)))
        CFI (cfiCond166) V4 load(1, XDATA, add(CFA_XSP16, literal(-18)))
        CFI (cfiCond166) V5 load(1, XDATA, add(CFA_XSP16, literal(-17)))
        CFI (cfiCond166) V6 load(1, XDATA, add(CFA_XSP16, literal(-16)))
        CFI (cfiCond166) V7 load(1, XDATA, add(CFA_XSP16, literal(-15)))
        CFI (cfiCond166) V8 load(1, XDATA, add(CFA_XSP16, literal(-14)))
        CFI (cfiCond166) V9 load(1, XDATA, add(CFA_XSP16, literal(-13)))
        CFI (cfiCond166) V10 load(1, XDATA, add(CFA_XSP16, literal(-12)))
        CFI (cfiCond166) V11 load(1, XDATA, add(CFA_XSP16, literal(-11)))
        CFI (cfiCond166) V12 load(1, XDATA, add(CFA_XSP16, literal(-10)))
        CFI (cfiCond166) V13 load(1, XDATA, add(CFA_XSP16, literal(-9)))
        CFI (cfiCond166) V14 load(1, XDATA, add(CFA_XSP16, literal(-8)))
        CFI (cfiCond166) V15 load(1, XDATA, add(CFA_XSP16, literal(-7)))
        CFI (cfiCond166) R7 load(1, XDATA, add(CFA_XSP16, literal(-6)))
        CFI (cfiCond166) ?RET_LOW load(1, XDATA, add(CFA_XSP16, literal(-5)))
        CFI (cfiCond166) ?RET_HIGH load(1, XDATA, add(CFA_XSP16, literal(-4)))
        CFI (cfiCond166) ?BRET_EXT load(1, XDATA, add(CFA_XSP16, literal(-3)))
        CFI (cfiCond166) DPL0 load(1, XDATA, add(CFA_XSP16, literal(-2)))
        CFI (cfiCond166) DPH0 load(1, XDATA, add(CFA_XSP16, literal(-1)))
        CFI (cfiCond166) CFA_SP SP+0
        CFI (cfiCond166) CFA_XSP16 add(XSP16, 27)
        CFI Block cfiPicker167 Using cfiCommon1
        CFI (cfiPicker167) NoFunction
        CFI (cfiPicker167) Picker
        MOV     R5,#0x0
        CFI EndBlock cfiCond163
        CFI EndBlock cfiCond164
        CFI EndBlock cfiCond165
        CFI EndBlock cfiCond166
        CFI EndBlock cfiPicker167
        REQUIRE ??Subroutine93_0
        ; // Fall through to label ??Subroutine93_0

        RSEG BANKED_CODE:CODE:NOROOT(0)
??Subroutine93_0:
        CFI Block cfiCond168 Using cfiCommon0
        CFI NoFunction
        CFI Conditional ??CrossCallReturnLabel_143
        CFI R6 load(1, XDATA, add(CFA_XSP16, literal(-19)))
        CFI VB load(1, XDATA, add(CFA_XSP16, literal(-18)))
        CFI V0 load(1, XDATA, add(CFA_XSP16, literal(-17)))
        CFI V1 load(1, XDATA, add(CFA_XSP16, literal(-16)))
        CFI V2 load(1, XDATA, add(CFA_XSP16, literal(-15)))
        CFI V3 load(1, XDATA, add(CFA_XSP16, literal(-14)))
        CFI V4 load(1, XDATA, add(CFA_XSP16, literal(-13)))
        CFI V5 load(1, XDATA, add(CFA_XSP16, literal(-12)))
        CFI V6 load(1, XDATA, add(CFA_XSP16, literal(-11)))
        CFI V7 load(1, XDATA, add(CFA_XSP16, literal(-10)))
        CFI V8 load(1, XDATA, add(CFA_XSP16, literal(-9)))
        CFI V9 load(1, XDATA, add(CFA_XSP16, literal(-8)))
        CFI V10 load(1, XDATA, add(CFA_XSP16, literal(-7)))
        CFI R7 load(1, XDATA, add(CFA_XSP16, literal(-6)))
        CFI ?RET_LOW load(1, XDATA, add(CFA_XSP16, literal(-5)))
        CFI ?RET_HIGH load(1, XDATA, add(CFA_XSP16, literal(-4)))
        CFI ?BRET_EXT load(1, XDATA, add(CFA_XSP16, literal(-3)))
        CFI DPL0 load(1, XDATA, add(CFA_XSP16, literal(-2)))
        CFI DPH0 load(1, XDATA, add(CFA_XSP16, literal(-1)))
        CFI CFA_SP SP+-1
        CFI CFA_XSP16 add(XSP16, 22)
        CFI Block cfiCond169 Using cfiCommon0
        CFI (cfiCond169) NoFunction
        CFI (cfiCond169) Conditional ??CrossCallReturnLabel_144
        CFI (cfiCond169) R6 load(1, XDATA, add(CFA_XSP16, literal(-18)))
        CFI (cfiCond169) VB load(1, XDATA, add(CFA_XSP16, literal(-17)))
        CFI (cfiCond169) V0 load(1, XDATA, add(CFA_XSP16, literal(-16)))
        CFI (cfiCond169) V1 load(1, XDATA, add(CFA_XSP16, literal(-15)))
        CFI (cfiCond169) V2 load(1, XDATA, add(CFA_XSP16, literal(-14)))
        CFI (cfiCond169) V3 load(1, XDATA, add(CFA_XSP16, literal(-13)))
        CFI (cfiCond169) V4 load(1, XDATA, add(CFA_XSP16, literal(-12)))
        CFI (cfiCond169) V5 load(1, XDATA, add(CFA_XSP16, literal(-11)))
        CFI (cfiCond169) V6 load(1, XDATA, add(CFA_XSP16, literal(-10)))
        CFI (cfiCond169) V7 load(1, XDATA, add(CFA_XSP16, literal(-9)))
        CFI (cfiCond169) V8 load(1, XDATA, add(CFA_XSP16, literal(-8)))
        CFI (cfiCond169) V9 load(1, XDATA, add(CFA_XSP16, literal(-7)))
        CFI (cfiCond169) R7 load(1, XDATA, add(CFA_XSP16, literal(-6)))
        CFI (cfiCond169) ?RET_LOW load(1, XDATA, add(CFA_XSP16, literal(-5)))
        CFI (cfiCond169) ?RET_HIGH load(1, XDATA, add(CFA_XSP16, literal(-4)))
        CFI (cfiCond169) ?BRET_EXT load(1, XDATA, add(CFA_XSP16, literal(-3)))
        CFI (cfiCond169) DPL0 load(1, XDATA, add(CFA_XSP16, literal(-2)))
        CFI (cfiCond169) DPH0 load(1, XDATA, add(CFA_XSP16, literal(-1)))
        CFI (cfiCond169) CFA_SP SP+0
        CFI (cfiCond169) CFA_XSP16 add(XSP16, 22)
        CFI Block cfiCond170 Using cfiCommon0
        CFI (cfiCond170) NoFunction
        CFI (cfiCond170) Conditional ??CrossCallReturnLabel_139
        CFI (cfiCond170) R6 load(1, XDATA, add(CFA_XSP16, literal(-18)))
        CFI (cfiCond170) VB load(1, XDATA, add(CFA_XSP16, literal(-17)))
        CFI (cfiCond170) V0 load(1, XDATA, add(CFA_XSP16, literal(-16)))
        CFI (cfiCond170) V1 load(1, XDATA, add(CFA_XSP16, literal(-15)))
        CFI (cfiCond170) V2 load(1, XDATA, add(CFA_XSP16, literal(-14)))
        CFI (cfiCond170) V3 load(1, XDATA, add(CFA_XSP16, literal(-13)))
        CFI (cfiCond170) V4 load(1, XDATA, add(CFA_XSP16, literal(-12)))
        CFI (cfiCond170) V5 load(1, XDATA, add(CFA_XSP16, literal(-11)))
        CFI (cfiCond170) V6 load(1, XDATA, add(CFA_XSP16, literal(-10)))
        CFI (cfiCond170) V7 load(1, XDATA, add(CFA_XSP16, literal(-9)))
        CFI (cfiCond170) V8 load(1, XDATA, add(CFA_XSP16, literal(-8)))
        CFI (cfiCond170) V9 load(1, XDATA, add(CFA_XSP16, literal(-7)))
        CFI (cfiCond170) R7 load(1, XDATA, add(CFA_XSP16, literal(-6)))
        CFI (cfiCond170) ?RET_LOW load(1, XDATA, add(CFA_XSP16, literal(-5)))
        CFI (cfiCond170) ?RET_HIGH load(1, XDATA, add(CFA_XSP16, literal(-4)))
        CFI (cfiCond170) ?BRET_EXT load(1, XDATA, add(CFA_XSP16, literal(-3)))
        CFI (cfiCond170) DPL0 load(1, XDATA, add(CFA_XSP16, literal(-2)))
        CFI (cfiCond170) DPH0 load(1, XDATA, add(CFA_XSP16, literal(-1)))
        CFI (cfiCond170) CFA_SP SP+0
        CFI (cfiCond170) CFA_XSP16 add(XSP16, 22)
        CFI Block cfiCond171 Using cfiCommon0
        CFI (cfiCond171) NoFunction
        CFI (cfiCond171) Conditional ??CrossCallReturnLabel_140
        CFI (cfiCond171) R6 load(1, XDATA, add(CFA_XSP16, literal(-24)))
        CFI (cfiCond171) VB load(1, XDATA, add(CFA_XSP16, literal(-23)))
        CFI (cfiCond171) V0 load(1, XDATA, add(CFA_XSP16, literal(-22)))
        CFI (cfiCond171) V1 load(1, XDATA, add(CFA_XSP16, literal(-21)))
        CFI (cfiCond171) V2 load(1, XDATA, add(CFA_XSP16, literal(-20)))
        CFI (cfiCond171) V3 load(1, XDATA, add(CFA_XSP16, literal(-19)))
        CFI (cfiCond171) V4 load(1, XDATA, add(CFA_XSP16, literal(-18)))
        CFI (cfiCond171) V5 load(1, XDATA, add(CFA_XSP16, literal(-17)))
        CFI (cfiCond171) V6 load(1, XDATA, add(CFA_XSP16, literal(-16)))
        CFI (cfiCond171) V7 load(1, XDATA, add(CFA_XSP16, literal(-15)))
        CFI (cfiCond171) V8 load(1, XDATA, add(CFA_XSP16, literal(-14)))
        CFI (cfiCond171) V9 load(1, XDATA, add(CFA_XSP16, literal(-13)))
        CFI (cfiCond171) V10 load(1, XDATA, add(CFA_XSP16, literal(-12)))
        CFI (cfiCond171) V11 load(1, XDATA, add(CFA_XSP16, literal(-11)))
        CFI (cfiCond171) V12 load(1, XDATA, add(CFA_XSP16, literal(-10)))
        CFI (cfiCond171) V13 load(1, XDATA, add(CFA_XSP16, literal(-9)))
        CFI (cfiCond171) V14 load(1, XDATA, add(CFA_XSP16, literal(-8)))
        CFI (cfiCond171) V15 load(1, XDATA, add(CFA_XSP16, literal(-7)))
        CFI (cfiCond171) R7 load(1, XDATA, add(CFA_XSP16, literal(-6)))
        CFI (cfiCond171) ?RET_LOW load(1, XDATA, add(CFA_XSP16, literal(-5)))
        CFI (cfiCond171) ?RET_HIGH load(1, XDATA, add(CFA_XSP16, literal(-4)))
        CFI (cfiCond171) ?BRET_EXT load(1, XDATA, add(CFA_XSP16, literal(-3)))
        CFI (cfiCond171) DPL0 load(1, XDATA, add(CFA_XSP16, literal(-2)))
        CFI (cfiCond171) DPH0 load(1, XDATA, add(CFA_XSP16, literal(-1)))
        CFI (cfiCond171) CFA_SP SP+0
        CFI (cfiCond171) CFA_XSP16 add(XSP16, 30)
        CFI Block cfiCond172 Using cfiCommon0
        CFI (cfiCond172) NoFunction
        CFI (cfiCond172) Conditional ??CrossCallReturnLabel_141
        CFI (cfiCond172) R6 load(1, XDATA, add(CFA_XSP16, literal(-24)))
        CFI (cfiCond172) VB load(1, XDATA, add(CFA_XSP16, literal(-23)))
        CFI (cfiCond172) V0 load(1, XDATA, add(CFA_XSP16, literal(-22)))
        CFI (cfiCond172) V1 load(1, XDATA, add(CFA_XSP16, literal(-21)))
        CFI (cfiCond172) V2 load(1, XDATA, add(CFA_XSP16, literal(-20)))
        CFI (cfiCond172) V3 load(1, XDATA, add(CFA_XSP16, literal(-19)))
        CFI (cfiCond172) V4 load(1, XDATA, add(CFA_XSP16, literal(-18)))
        CFI (cfiCond172) V5 load(1, XDATA, add(CFA_XSP16, literal(-17)))
        CFI (cfiCond172) V6 load(1, XDATA, add(CFA_XSP16, literal(-16)))
        CFI (cfiCond172) V7 load(1, XDATA, add(CFA_XSP16, literal(-15)))
        CFI (cfiCond172) V8 load(1, XDATA, add(CFA_XSP16, literal(-14)))
        CFI (cfiCond172) V9 load(1, XDATA, add(CFA_XSP16, literal(-13)))
        CFI (cfiCond172) V10 load(1, XDATA, add(CFA_XSP16, literal(-12)))
        CFI (cfiCond172) V11 load(1, XDATA, add(CFA_XSP16, literal(-11)))
        CFI (cfiCond172) V12 load(1, XDATA, add(CFA_XSP16, literal(-10)))
        CFI (cfiCond172) V13 load(1, XDATA, add(CFA_XSP16, literal(-9)))
        CFI (cfiCond172) V14 load(1, XDATA, add(CFA_XSP16, literal(-8)))
        CFI (cfiCond172) V15 load(1, XDATA, add(CFA_XSP16, literal(-7)))
        CFI (cfiCond172) R7 load(1, XDATA, add(CFA_XSP16, literal(-6)))
        CFI (cfiCond172) ?RET_LOW load(1, XDATA, add(CFA_XSP16, literal(-5)))
        CFI (cfiCond172) ?RET_HIGH load(1, XDATA, add(CFA_XSP16, literal(-4)))
        CFI (cfiCond172) ?BRET_EXT load(1, XDATA, add(CFA_XSP16, literal(-3)))
        CFI (cfiCond172) DPL0 load(1, XDATA, add(CFA_XSP16, literal(-2)))
        CFI (cfiCond172) DPH0 load(1, XDATA, add(CFA_XSP16, literal(-1)))
        CFI (cfiCond172) CFA_SP SP+0
        CFI (cfiCond172) CFA_XSP16 add(XSP16, 27)
        CFI Block cfiCond173 Using cfiCommon0
        CFI (cfiCond173) NoFunction
        CFI (cfiCond173) Conditional ??CrossCallReturnLabel_142
        CFI (cfiCond173) R6 load(1, XDATA, add(CFA_XSP16, literal(-24)))
        CFI (cfiCond173) VB load(1, XDATA, add(CFA_XSP16, literal(-23)))
        CFI (cfiCond173) V0 load(1, XDATA, add(CFA_XSP16, literal(-22)))
        CFI (cfiCond173) V1 load(1, XDATA, add(CFA_XSP16, literal(-21)))
        CFI (cfiCond173) V2 load(1, XDATA, add(CFA_XSP16, literal(-20)))
        CFI (cfiCond173) V3 load(1, XDATA, add(CFA_XSP16, literal(-19)))
        CFI (cfiCond173) V4 load(1, XDATA, add(CFA_XSP16, literal(-18)))
        CFI (cfiCond173) V5 load(1, XDATA, add(CFA_XSP16, literal(-17)))
        CFI (cfiCond173) V6 load(1, XDATA, add(CFA_XSP16, literal(-16)))
        CFI (cfiCond173) V7 load(1, XDATA, add(CFA_XSP16, literal(-15)))
        CFI (cfiCond173) V8 load(1, XDATA, add(CFA_XSP16, literal(-14)))
        CFI (cfiCond173) V9 load(1, XDATA, add(CFA_XSP16, literal(-13)))
        CFI (cfiCond173) V10 load(1, XDATA, add(CFA_XSP16, literal(-12)))
        CFI (cfiCond173) V11 load(1, XDATA, add(CFA_XSP16, literal(-11)))
        CFI (cfiCond173) V12 load(1, XDATA, add(CFA_XSP16, literal(-10)))
        CFI (cfiCond173) V13 load(1, XDATA, add(CFA_XSP16, literal(-9)))
        CFI (cfiCond173) V14 load(1, XDATA, add(CFA_XSP16, literal(-8)))
        CFI (cfiCond173) V15 load(1, XDATA, add(CFA_XSP16, literal(-7)))
        CFI (cfiCond173) R7 load(1, XDATA, add(CFA_XSP16, literal(-6)))
        CFI (cfiCond173) ?RET_LOW load(1, XDATA, add(CFA_XSP16, literal(-5)))
        CFI (cfiCond173) ?RET_HIGH load(1, XDATA, add(CFA_XSP16, literal(-4)))
        CFI (cfiCond173) ?BRET_EXT load(1, XDATA, add(CFA_XSP16, literal(-3)))
        CFI (cfiCond173) DPL0 load(1, XDATA, add(CFA_XSP16, literal(-2)))
        CFI (cfiCond173) DPH0 load(1, XDATA, add(CFA_XSP16, literal(-1)))
        CFI (cfiCond173) CFA_SP SP+0
        CFI (cfiCond173) CFA_XSP16 add(XSP16, 27)
        CFI Block cfiPicker174 Using cfiCommon1
        CFI (cfiPicker174) NoFunction
        CFI (cfiPicker174) Picker
        LCALL   ??osal_memcpy?relay
        MOV     A,#0x3
        RET
        CFI EndBlock cfiCond168
        CFI EndBlock cfiCond169
        CFI EndBlock cfiCond170
        CFI EndBlock cfiCond171
        CFI EndBlock cfiCond172
        CFI EndBlock cfiCond173
        CFI EndBlock cfiPicker174

        RSEG BANKED_CODE:CODE:NOROOT(0)
?Subroutine32:
        CFI Block cfiCond175 Using cfiCommon0
        CFI NoFunction
        CFI Conditional ??CrossCallReturnLabel_36
        CFI R6 load(1, XDATA, add(CFA_XSP16, literal(-16)))
        CFI VB load(1, XDATA, add(CFA_XSP16, literal(-15)))
        CFI V0 load(1, XDATA, add(CFA_XSP16, literal(-14)))
        CFI V1 load(1, XDATA, add(CFA_XSP16, literal(-13)))
        CFI V2 load(1, XDATA, add(CFA_XSP16, literal(-12)))
        CFI V3 load(1, XDATA, add(CFA_XSP16, literal(-11)))
        CFI V4 load(1, XDATA, add(CFA_XSP16, literal(-10)))
        CFI V5 load(1, XDATA, add(CFA_XSP16, literal(-9)))
        CFI V6 load(1, XDATA, add(CFA_XSP16, literal(-8)))
        CFI V7 load(1, XDATA, add(CFA_XSP16, literal(-7)))
        CFI R7 load(1, XDATA, add(CFA_XSP16, literal(-6)))
        CFI ?RET_LOW load(1, XDATA, add(CFA_XSP16, literal(-5)))
        CFI ?RET_HIGH load(1, XDATA, add(CFA_XSP16, literal(-4)))
        CFI ?BRET_EXT load(1, XDATA, add(CFA_XSP16, literal(-3)))
        CFI DPL0 load(1, XDATA, add(CFA_XSP16, literal(-2)))
        CFI DPH0 load(1, XDATA, add(CFA_XSP16, literal(-1)))
        CFI CFA_SP SP+0
        CFI CFA_XSP16 add(XSP16, 16)
        CFI Block cfiCond176 Using cfiCommon0
        CFI (cfiCond176) NoFunction
        CFI (cfiCond176) Conditional ??CrossCallReturnLabel_37
        CFI (cfiCond176) R6 load(1, XDATA, add(CFA_XSP16, literal(-18)))
        CFI (cfiCond176) VB load(1, XDATA, add(CFA_XSP16, literal(-17)))
        CFI (cfiCond176) V0 load(1, XDATA, add(CFA_XSP16, literal(-16)))
        CFI (cfiCond176) V1 load(1, XDATA, add(CFA_XSP16, literal(-15)))
        CFI (cfiCond176) V2 load(1, XDATA, add(CFA_XSP16, literal(-14)))
        CFI (cfiCond176) V3 load(1, XDATA, add(CFA_XSP16, literal(-13)))
        CFI (cfiCond176) V4 load(1, XDATA, add(CFA_XSP16, literal(-12)))
        CFI (cfiCond176) V5 load(1, XDATA, add(CFA_XSP16, literal(-11)))
        CFI (cfiCond176) V6 load(1, XDATA, add(CFA_XSP16, literal(-10)))
        CFI (cfiCond176) V7 load(1, XDATA, add(CFA_XSP16, literal(-9)))
        CFI (cfiCond176) V8 load(1, XDATA, add(CFA_XSP16, literal(-8)))
        CFI (cfiCond176) V9 load(1, XDATA, add(CFA_XSP16, literal(-7)))
        CFI (cfiCond176) R7 load(1, XDATA, add(CFA_XSP16, literal(-6)))
        CFI (cfiCond176) ?RET_LOW load(1, XDATA, add(CFA_XSP16, literal(-5)))
        CFI (cfiCond176) ?RET_HIGH load(1, XDATA, add(CFA_XSP16, literal(-4)))
        CFI (cfiCond176) ?BRET_EXT load(1, XDATA, add(CFA_XSP16, literal(-3)))
        CFI (cfiCond176) DPL0 load(1, XDATA, add(CFA_XSP16, literal(-2)))
        CFI (cfiCond176) DPH0 load(1, XDATA, add(CFA_XSP16, literal(-1)))
        CFI (cfiCond176) CFA_SP SP+0
        CFI (cfiCond176) CFA_XSP16 add(XSP16, 19)
        CFI Block cfiPicker177 Using cfiCommon1
        CFI (cfiPicker177) NoFunction
        CFI (cfiPicker177) Picker
        LCALL   ?Subroutine77 & 0xFFFF
??CrossCallReturnLabel_113:
        MOV     DPTR,#ZDP_TmpBuf
        MOVX    A,@DPTR
        RET
        CFI EndBlock cfiCond175
        CFI EndBlock cfiCond176
        CFI EndBlock cfiPicker177

        RSEG BANKED_CODE:CODE:NOROOT(0)
?Subroutine77:
        CFI Block cfiCond178 Using cfiCommon0
        CFI NoFunction
        CFI Conditional ??CrossCallReturnLabel_111
        CFI R6 load(1, XDATA, add(CFA_XSP16, literal(-19)))
        CFI VB load(1, XDATA, add(CFA_XSP16, literal(-18)))
        CFI V0 load(1, XDATA, add(CFA_XSP16, literal(-17)))
        CFI V1 load(1, XDATA, add(CFA_XSP16, literal(-16)))
        CFI V2 load(1, XDATA, add(CFA_XSP16, literal(-15)))
        CFI V3 load(1, XDATA, add(CFA_XSP16, literal(-14)))
        CFI V4 load(1, XDATA, add(CFA_XSP16, literal(-13)))
        CFI V5 load(1, XDATA, add(CFA_XSP16, literal(-12)))
        CFI V6 load(1, XDATA, add(CFA_XSP16, literal(-11)))
        CFI V7 load(1, XDATA, add(CFA_XSP16, literal(-10)))
        CFI V8 load(1, XDATA, add(CFA_XSP16, literal(-9)))
        CFI V9 load(1, XDATA, add(CFA_XSP16, literal(-8)))
        CFI V10 load(1, XDATA, add(CFA_XSP16, literal(-7)))
        CFI R7 load(1, XDATA, add(CFA_XSP16, literal(-6)))
        CFI ?RET_LOW load(1, XDATA, add(CFA_XSP16, literal(-5)))
        CFI ?RET_HIGH load(1, XDATA, add(CFA_XSP16, literal(-4)))
        CFI ?BRET_EXT load(1, XDATA, add(CFA_XSP16, literal(-3)))
        CFI DPL0 load(1, XDATA, add(CFA_XSP16, literal(-2)))
        CFI DPH0 load(1, XDATA, add(CFA_XSP16, literal(-1)))
        CFI CFA_SP SP+0
        CFI CFA_XSP16 add(XSP16, 19)
        CFI Block cfiCond179 Using cfiCommon0
        CFI (cfiCond179) NoFunction
        CFI (cfiCond179) Conditional ??CrossCallReturnLabel_113, ??CrossCallReturnLabel_36
        CFI (cfiCond179) R6 load(1, XDATA, add(CFA_XSP16, literal(-16)))
        CFI (cfiCond179) VB load(1, XDATA, add(CFA_XSP16, literal(-15)))
        CFI (cfiCond179) V0 load(1, XDATA, add(CFA_XSP16, literal(-14)))
        CFI (cfiCond179) V1 load(1, XDATA, add(CFA_XSP16, literal(-13)))
        CFI (cfiCond179) V2 load(1, XDATA, add(CFA_XSP16, literal(-12)))
        CFI (cfiCond179) V3 load(1, XDATA, add(CFA_XSP16, literal(-11)))
        CFI (cfiCond179) V4 load(1, XDATA, add(CFA_XSP16, literal(-10)))
        CFI (cfiCond179) V5 load(1, XDATA, add(CFA_XSP16, literal(-9)))
        CFI (cfiCond179) V6 load(1, XDATA, add(CFA_XSP16, literal(-8)))
        CFI (cfiCond179) V7 load(1, XDATA, add(CFA_XSP16, literal(-7)))
        CFI (cfiCond179) R7 load(1, XDATA, add(CFA_XSP16, literal(-6)))
        CFI (cfiCond179) ?RET_LOW load(1, XDATA, add(CFA_XSP16, literal(-5)))
        CFI (cfiCond179) ?RET_HIGH load(1, XDATA, add(CFA_XSP16, literal(-4)))
        CFI (cfiCond179) ?BRET_EXT load(1, XDATA, add(CFA_XSP16, literal(-3)))
        CFI (cfiCond179) DPL0 load(1, XDATA, add(CFA_XSP16, literal(-2)))
        CFI (cfiCond179) DPH0 load(1, XDATA, add(CFA_XSP16, literal(-1)))
        CFI (cfiCond179) CFA_SP SP+0
        CFI (cfiCond179) CFA_XSP16 add(XSP16, 16)
        CFI Block cfiCond180 Using cfiCommon0
        CFI (cfiCond180) NoFunction
        CFI (cfiCond180) Conditional ??CrossCallReturnLabel_113, ??CrossCallReturnLabel_37
        CFI (cfiCond180) R6 load(1, XDATA, add(CFA_XSP16, literal(-18)))
        CFI (cfiCond180) VB load(1, XDATA, add(CFA_XSP16, literal(-17)))
        CFI (cfiCond180) V0 load(1, XDATA, add(CFA_XSP16, literal(-16)))
        CFI (cfiCond180) V1 load(1, XDATA, add(CFA_XSP16, literal(-15)))
        CFI (cfiCond180) V2 load(1, XDATA, add(CFA_XSP16, literal(-14)))
        CFI (cfiCond180) V3 load(1, XDATA, add(CFA_XSP16, literal(-13)))
        CFI (cfiCond180) V4 load(1, XDATA, add(CFA_XSP16, literal(-12)))
        CFI (cfiCond180) V5 load(1, XDATA, add(CFA_XSP16, literal(-11)))
        CFI (cfiCond180) V6 load(1, XDATA, add(CFA_XSP16, literal(-10)))
        CFI (cfiCond180) V7 load(1, XDATA, add(CFA_XSP16, literal(-9)))
        CFI (cfiCond180) V8 load(1, XDATA, add(CFA_XSP16, literal(-8)))
        CFI (cfiCond180) V9 load(1, XDATA, add(CFA_XSP16, literal(-7)))
        CFI (cfiCond180) R7 load(1, XDATA, add(CFA_XSP16, literal(-6)))
        CFI (cfiCond180) ?RET_LOW load(1, XDATA, add(CFA_XSP16, literal(-5)))
        CFI (cfiCond180) ?RET_HIGH load(1, XDATA, add(CFA_XSP16, literal(-4)))
        CFI (cfiCond180) ?BRET_EXT load(1, XDATA, add(CFA_XSP16, literal(-3)))
        CFI (cfiCond180) DPL0 load(1, XDATA, add(CFA_XSP16, literal(-2)))
        CFI (cfiCond180) DPH0 load(1, XDATA, add(CFA_XSP16, literal(-1)))
        CFI (cfiCond180) CFA_SP SP+0
        CFI (cfiCond180) CFA_XSP16 add(XSP16, 19)
        CFI Block cfiCond181 Using cfiCommon0
        CFI (cfiCond181) NoFunction
        CFI (cfiCond181) Conditional ??CrossCallReturnLabel_112
        CFI (cfiCond181) R6 load(1, XDATA, add(CFA_XSP16, literal(-22)))
        CFI (cfiCond181) VB load(1, XDATA, add(CFA_XSP16, literal(-21)))
        CFI (cfiCond181) V0 load(1, XDATA, add(CFA_XSP16, literal(-20)))
        CFI (cfiCond181) V1 load(1, XDATA, add(CFA_XSP16, literal(-19)))
        CFI (cfiCond181) V2 load(1, XDATA, add(CFA_XSP16, literal(-18)))
        CFI (cfiCond181) V3 load(1, XDATA, add(CFA_XSP16, literal(-17)))
        CFI (cfiCond181) V4 load(1, XDATA, add(CFA_XSP16, literal(-16)))
        CFI (cfiCond181) V5 load(1, XDATA, add(CFA_XSP16, literal(-15)))
        CFI (cfiCond181) V6 load(1, XDATA, add(CFA_XSP16, literal(-14)))
        CFI (cfiCond181) V7 load(1, XDATA, add(CFA_XSP16, literal(-13)))
        CFI (cfiCond181) V8 load(1, XDATA, add(CFA_XSP16, literal(-12)))
        CFI (cfiCond181) V9 load(1, XDATA, add(CFA_XSP16, literal(-11)))
        CFI (cfiCond181) V10 load(1, XDATA, add(CFA_XSP16, literal(-10)))
        CFI (cfiCond181) V11 load(1, XDATA, add(CFA_XSP16, literal(-9)))
        CFI (cfiCond181) V12 load(1, XDATA, add(CFA_XSP16, literal(-8)))
        CFI (cfiCond181) V13 load(1, XDATA, add(CFA_XSP16, literal(-7)))
        CFI (cfiCond181) R7 load(1, XDATA, add(CFA_XSP16, literal(-6)))
        CFI (cfiCond181) ?RET_LOW load(1, XDATA, add(CFA_XSP16, literal(-5)))
        CFI (cfiCond181) ?RET_HIGH load(1, XDATA, add(CFA_XSP16, literal(-4)))
        CFI (cfiCond181) ?BRET_EXT load(1, XDATA, add(CFA_XSP16, literal(-3)))
        CFI (cfiCond181) DPL0 load(1, XDATA, add(CFA_XSP16, literal(-2)))
        CFI (cfiCond181) DPH0 load(1, XDATA, add(CFA_XSP16, literal(-1)))
        CFI (cfiCond181) CFA_SP SP+0
        CFI (cfiCond181) CFA_XSP16 add(XSP16, 22)
        CFI Block cfiPicker182 Using cfiCommon1
        CFI (cfiPicker182) NoFunction
        CFI (cfiPicker182) Picker
        MOVX    A,@DPTR
        MOV     ?V0 + 4,A
        INC     DPTR
        MOVX    A,@DPTR
        MOV     ?V0 + 5,A
        RET
        CFI EndBlock cfiCond178
        CFI EndBlock cfiCond179
        CFI EndBlock cfiCond180
        CFI EndBlock cfiCond181
        CFI EndBlock cfiPicker182
//  935 
//  936 /*********************************************************************
//  937  * @fn          ZDP_UserDescRsp
//  938  *
//  939  * @brief       Build and send the User Decriptor Response.
//  940  *
//  941  *
//  942  * @param       dstAddr - destination address
//  943  * @param       nwkAddrOfInterest -
//  944  * @param       userDesc -
//  945  * @param       SecurityEnable - Security Options
//  946  *
//  947  * @return      ZStatus_t
//  948  */

        RSEG BANKED_CODE:CODE:NOROOT(0)
//  949 ZStatus_t ZDP_UserDescRsp( byte TransSeq, zAddrType_t *dstAddr,
ZDP_UserDescRsp:
        CFI Block cfiBlock183 Using cfiCommon0
        CFI Function ZDP_UserDescRsp
        CODE
//  950                 uint16 nwkAddrOfInterest, UserDescriptorFormat_t *userDesc,
//  951                 byte SecurityEnable )
//  952 {
        FUNCALL ZDP_UserDescRsp, osal_memcpy
        LOCFRAME ISTACK, 0, STACK
        LOCFRAME PSTACK, 0, STACK
        LOCFRAME XSTACK, 22, STACK
        LOCFRAME IOVERLAY, 0, STATIC
        LOCFRAME DOVERLAY, 0, STATIC
        ARGFRAME ISTACK, 0, STACK
        ARGFRAME PSTACK, 0, STACK
        ARGFRAME XSTACK, 22, STACK
        ARGFRAME IOVERLAY, 0, STATIC
        ARGFRAME DOVERLAY, 0, STATIC
        FUNCALL ZDP_UserDescRsp, fillAndSend
        LOCFRAME ISTACK, 0, STACK
        LOCFRAME PSTACK, 0, STACK
        LOCFRAME XSTACK, 21, STACK
        LOCFRAME IOVERLAY, 0, STATIC
        LOCFRAME DOVERLAY, 0, STATIC
        ARGFRAME ISTACK, 0, STACK
        ARGFRAME PSTACK, 0, STACK
        ARGFRAME XSTACK, 21, STACK
        ARGFRAME IOVERLAY, 0, STATIC
        ARGFRAME DOVERLAY, 0, STATIC
        MOV     A,#-0x12
        LCALL   ?BANKED_ENTER_XDATA
        CFI DPH0 load(1, XDATA, add(CFA_XSP16, literal(-1)))
        CFI DPL0 load(1, XDATA, add(CFA_XSP16, literal(-2)))
        CFI ?BRET_EXT load(1, XDATA, add(CFA_XSP16, literal(-3)))
        CFI ?RET_HIGH load(1, XDATA, add(CFA_XSP16, literal(-4)))
        CFI ?RET_LOW load(1, XDATA, add(CFA_XSP16, literal(-5)))
        CFI R7 load(1, XDATA, add(CFA_XSP16, literal(-6)))
        CFI V9 load(1, XDATA, add(CFA_XSP16, literal(-7)))
        CFI V8 load(1, XDATA, add(CFA_XSP16, literal(-8)))
        CFI V7 load(1, XDATA, add(CFA_XSP16, literal(-9)))
        CFI V6 load(1, XDATA, add(CFA_XSP16, literal(-10)))
        CFI V5 load(1, XDATA, add(CFA_XSP16, literal(-11)))
        CFI V4 load(1, XDATA, add(CFA_XSP16, literal(-12)))
        CFI V3 load(1, XDATA, add(CFA_XSP16, literal(-13)))
        CFI V2 load(1, XDATA, add(CFA_XSP16, literal(-14)))
        CFI V1 load(1, XDATA, add(CFA_XSP16, literal(-15)))
        CFI V0 load(1, XDATA, add(CFA_XSP16, literal(-16)))
        CFI VB load(1, XDATA, add(CFA_XSP16, literal(-17)))
        CFI R6 load(1, XDATA, add(CFA_XSP16, literal(-18)))
        CFI CFA_SP SP+0
        CFI CFA_XSP16 add(XSP16, 18)
        ; Saved register size: 18
        ; Auto size: 1
        MOV     A,#-0x1
        LCALL   ?ALLOC_XSTACK8
        CFI CFA_XSP16 add(XSP16, 19)
        MOV     A,R1
        MOV     DPL,?XSP + 0
        MOV     DPH,?XSP + 1
        MOVX    @DPTR,A
        MOV     A,R2
        MOV     R6,A
        MOV     A,R3
        MOV     R7,A
        MOV     A,#0x13
        LCALL   ?XSTACK_DISP0_8
        LCALL   ??Subroutine114_0 & 0xFFFF
??CrossCallReturnLabel_266:
        MOV     ?V0 + 8,R0
        MOV     ?V0 + 9,R1
//  953   uint8 *pBuf = ZDP_TmpBuf;
        LCALL   ?Subroutine10 & 0xFFFF
//  954   byte len = 1 + 2 + 1;  // Status + nwkAddr + descriptor length.
//  955 
//  956   (void)SecurityEnable;  // Intentionally unreferenced parameter
//  957 
//  958   len += userDesc->len;
??CrossCallReturnLabel_172:
        MOV     DPL,R0
        MOV     DPH,R1
        MOVX    A,@DPTR
        ADD     A,#0x4
        MOV     ?V0 + 2,A
//  959 
//  960   *pBuf++ = ZSUCCESS;
        MOV     DPL,?V0 + 0
        MOV     DPH,?V0 + 1
        LCALL   ?Subroutine55 & 0xFFFF
//  961 
//  962   *pBuf++ = LO_UINT16( nwkAddrOfInterest );
//  963   *pBuf++ = HI_UINT16( nwkAddrOfInterest );
??CrossCallReturnLabel_82:
        LCALL   ?Subroutine52 & 0xFFFF
//  964 
//  965   *pBuf++ = userDesc->len;
??CrossCallReturnLabel_75:
        MOVX    A,@DPTR
        MOV     DPL,?V0 + 0
        MOV     DPH,?V0 + 1
        LCALL   ?Subroutine52 & 0xFFFF
//  966   osal_memcpy( pBuf, userDesc->desc, userDesc->len );
??CrossCallReturnLabel_76:
        INC     DPTR
        MOV     R1,DPL
        MOV     R2,DPH
        MOV     ?V0 + 4,R1
        MOV     ?V0 + 5,R2
        MOV     ?V0 + 6,#0x0
        MOV     R0,#?V0 + 4
        LCALL   ?PUSH_XSTACK_I_THREE
        CFI CFA_XSP16 add(XSP16, 22)
        MOV     DPL,?V0 + 8
        MOV     DPH,?V0 + 9
        MOVX    A,@DPTR
        MOV     R4,A
        MOV     R5,#0x0
        MOV     R2,?V0 + 0
        MOV     R3,?V0 + 1
        LCALL   ??Subroutine93_0 & 0xFFFF
??CrossCallReturnLabel_144:
        LCALL   ?DEALLOC_XSTACK8
        CFI CFA_XSP16 add(XSP16, 19)
//  967 
//  968   return (ZStatus_t)fillAndSend( &TransSeq, dstAddr, User_Desc_rsp, len );
        ; Setup parameters for call to function fillAndSend
        MOV     ?V0 + 0,#0x11
        MOV     ?V0 + 1,#-0x80
        MOV     R0,#?V0 + 0
        LCALL   ?PUSH_XSTACK_I_TWO
        CFI CFA_XSP16 add(XSP16, 21)
        MOV     R1,?V0 + 2
        MOV     A,R6
        MOV     R4,A
        MOV     A,R7
        MOV     R5,A
        MOV     A,#0x2
        LCALL   ?XSTACK_DISP0_8
        MOV     R2,DPL
        MOV     R3,DPH
        LCALL   ??Subroutine107_0 & 0xFFFF
??CrossCallReturnLabel_213:
        LCALL   ?DEALLOC_XSTACK8
        CFI CFA_XSP16 add(XSP16, 19)
        MOV     A,#0x1
        LJMP    ?Subroutine3 & 0xFFFF
        CFI EndBlock cfiBlock183
//  969 }

        RSEG BANKED_CODE:CODE:NOROOT(0)
?Subroutine52:
        CFI Block cfiCond184 Using cfiCommon0
        CFI NoFunction
        CFI Conditional ??CrossCallReturnLabel_75
        CFI R6 load(1, XDATA, add(CFA_XSP16, literal(-18)))
        CFI VB load(1, XDATA, add(CFA_XSP16, literal(-17)))
        CFI V0 load(1, XDATA, add(CFA_XSP16, literal(-16)))
        CFI V1 load(1, XDATA, add(CFA_XSP16, literal(-15)))
        CFI V2 load(1, XDATA, add(CFA_XSP16, literal(-14)))
        CFI V3 load(1, XDATA, add(CFA_XSP16, literal(-13)))
        CFI V4 load(1, XDATA, add(CFA_XSP16, literal(-12)))
        CFI V5 load(1, XDATA, add(CFA_XSP16, literal(-11)))
        CFI V6 load(1, XDATA, add(CFA_XSP16, literal(-10)))
        CFI V7 load(1, XDATA, add(CFA_XSP16, literal(-9)))
        CFI V8 load(1, XDATA, add(CFA_XSP16, literal(-8)))
        CFI V9 load(1, XDATA, add(CFA_XSP16, literal(-7)))
        CFI R7 load(1, XDATA, add(CFA_XSP16, literal(-6)))
        CFI ?RET_LOW load(1, XDATA, add(CFA_XSP16, literal(-5)))
        CFI ?RET_HIGH load(1, XDATA, add(CFA_XSP16, literal(-4)))
        CFI ?BRET_EXT load(1, XDATA, add(CFA_XSP16, literal(-3)))
        CFI DPL0 load(1, XDATA, add(CFA_XSP16, literal(-2)))
        CFI DPH0 load(1, XDATA, add(CFA_XSP16, literal(-1)))
        CFI CFA_SP SP+0
        CFI CFA_XSP16 add(XSP16, 19)
        CFI Block cfiCond185 Using cfiCommon0
        CFI (cfiCond185) NoFunction
        CFI (cfiCond185) Conditional ??CrossCallReturnLabel_76
        CFI (cfiCond185) R6 load(1, XDATA, add(CFA_XSP16, literal(-18)))
        CFI (cfiCond185) VB load(1, XDATA, add(CFA_XSP16, literal(-17)))
        CFI (cfiCond185) V0 load(1, XDATA, add(CFA_XSP16, literal(-16)))
        CFI (cfiCond185) V1 load(1, XDATA, add(CFA_XSP16, literal(-15)))
        CFI (cfiCond185) V2 load(1, XDATA, add(CFA_XSP16, literal(-14)))
        CFI (cfiCond185) V3 load(1, XDATA, add(CFA_XSP16, literal(-13)))
        CFI (cfiCond185) V4 load(1, XDATA, add(CFA_XSP16, literal(-12)))
        CFI (cfiCond185) V5 load(1, XDATA, add(CFA_XSP16, literal(-11)))
        CFI (cfiCond185) V6 load(1, XDATA, add(CFA_XSP16, literal(-10)))
        CFI (cfiCond185) V7 load(1, XDATA, add(CFA_XSP16, literal(-9)))
        CFI (cfiCond185) V8 load(1, XDATA, add(CFA_XSP16, literal(-8)))
        CFI (cfiCond185) V9 load(1, XDATA, add(CFA_XSP16, literal(-7)))
        CFI (cfiCond185) R7 load(1, XDATA, add(CFA_XSP16, literal(-6)))
        CFI (cfiCond185) ?RET_LOW load(1, XDATA, add(CFA_XSP16, literal(-5)))
        CFI (cfiCond185) ?RET_HIGH load(1, XDATA, add(CFA_XSP16, literal(-4)))
        CFI (cfiCond185) ?BRET_EXT load(1, XDATA, add(CFA_XSP16, literal(-3)))
        CFI (cfiCond185) DPL0 load(1, XDATA, add(CFA_XSP16, literal(-2)))
        CFI (cfiCond185) DPH0 load(1, XDATA, add(CFA_XSP16, literal(-1)))
        CFI (cfiCond185) CFA_SP SP+0
        CFI (cfiCond185) CFA_XSP16 add(XSP16, 19)
        CFI Block cfiPicker186 Using cfiCommon1
        CFI (cfiPicker186) NoFunction
        CFI (cfiPicker186) Picker
        MOVX    @DPTR,A
        INC     DPTR
        MOV     ?V0 + 0,DPL
        MOV     ?V0 + 1,DPH
        ; Setup parameters for call to function osal_memcpy
        MOV     DPL,R0
        MOV     DPH,R1
        RET
        CFI EndBlock cfiCond184
        CFI EndBlock cfiCond185
        CFI EndBlock cfiPicker186
//  970 
//  971 /*********************************************************************
//  972  * @fn          ZDP_ServerDiscRsp
//  973  *
//  974  * @brief       Build and send the Server_Discovery_rsp response.
//  975  *
//  976  * @param       transID - Transaction sequence number of request.
//  977  * @param       dstAddr - Network Destination Address.
//  978  * @param       status - Status of response to request.
//  979  * @param       aoi - Network Address of Interest of request.
//  980  * @param       serverMask - Bit map of service(s) being sought.
//  981  * @param       SecurityEnable - Security Options
//  982  *
//  983  * @return      ZStatus_t
//  984  */

        RSEG BANKED_CODE:CODE:NOROOT(0)
//  985 ZStatus_t ZDP_ServerDiscRsp( byte transID, zAddrType_t *dstAddr, byte status,
ZDP_ServerDiscRsp:
        CFI Block cfiBlock187 Using cfiCommon0
        CFI Function ZDP_ServerDiscRsp
        CODE
//  986                            uint16 aoi, uint16 serverMask, byte SecurityEnable )
//  987 {
        FUNCALL ZDP_ServerDiscRsp, fillAndSend
        LOCFRAME ISTACK, 0, STACK
        LOCFRAME PSTACK, 0, STACK
        LOCFRAME XSTACK, 13, STACK
        LOCFRAME IOVERLAY, 0, STATIC
        LOCFRAME DOVERLAY, 0, STATIC
        ARGFRAME ISTACK, 0, STACK
        ARGFRAME PSTACK, 0, STACK
        ARGFRAME XSTACK, 13, STACK
        ARGFRAME IOVERLAY, 0, STATIC
        ARGFRAME DOVERLAY, 0, STATIC
        MOV     A,#-0xa
        LCALL   ?BANKED_ENTER_XDATA
        CFI DPH0 load(1, XDATA, add(CFA_XSP16, literal(-1)))
        CFI DPL0 load(1, XDATA, add(CFA_XSP16, literal(-2)))
        CFI ?BRET_EXT load(1, XDATA, add(CFA_XSP16, literal(-3)))
        CFI ?RET_HIGH load(1, XDATA, add(CFA_XSP16, literal(-4)))
        CFI ?RET_LOW load(1, XDATA, add(CFA_XSP16, literal(-5)))
        CFI R7 load(1, XDATA, add(CFA_XSP16, literal(-6)))
        CFI V1 load(1, XDATA, add(CFA_XSP16, literal(-7)))
        CFI V0 load(1, XDATA, add(CFA_XSP16, literal(-8)))
        CFI VB load(1, XDATA, add(CFA_XSP16, literal(-9)))
        CFI R6 load(1, XDATA, add(CFA_XSP16, literal(-10)))
        CFI CFA_SP SP+0
        CFI CFA_XSP16 add(XSP16, 10)
        ; Saved register size: 10
        ; Auto size: 1
        MOV     A,#-0x1
        LCALL   ?ALLOC_XSTACK8
        CFI CFA_XSP16 add(XSP16, 11)
        MOV     A,R1
        MOV     DPL,?XSP + 0
        MOV     DPH,?XSP + 1
        MOVX    @DPTR,A
        MOV     A,R4
        MOV     R6,A
        MOV     A,#0xd
        LCALL   ?XSTACK_DISP0_8
        LCALL   ??Subroutine114_0 & 0xFFFF
//  988   const byte len = 1  + 2;  // status + aoi + mask.
//  989   uint8 *pBuf = ZDP_TmpBuf;
??CrossCallReturnLabel_267:
        MOV     DPTR,#ZDP_TmpBuf
        LCALL   ?Subroutine44 & 0xFFFF
??CrossCallReturnLabel_56:
        MOV     DPL,R4
        MOV     DPH,R5
//  990   ZStatus_t stat;
//  991 
//  992   // Intentionally unreferenced parameters
//  993   (void)aoi;
//  994   (void)SecurityEnable;
//  995 
//  996   *pBuf++ = status;
        MOV     A,R6
        MOVX    @DPTR,A
        INC     DPTR
//  997 
//  998   *pBuf++ = LO_UINT16( serverMask );
        MOV     A,R0
        MOVX    @DPTR,A
        INC     DPTR
//  999   *pBuf++ = HI_UINT16( serverMask );
        MOV     A,R1
        MOVX    @DPTR,A
// 1000 
// 1001   ZDP_TxOptions = AF_MSG_ACK_REQUEST;
        MOV     DPTR,#ZDP_TxOptions
        MOV     A,#0x10
        MOVX    @DPTR,A
// 1002   stat = fillAndSend( &transID, dstAddr, Server_Discovery_rsp, len );
        ; Setup parameters for call to function fillAndSend
        MOV     ?V0 + 0,#0x15
        MOV     ?V0 + 1,#-0x80
        MOV     R0,#?V0 + 0
        LCALL   ?PUSH_XSTACK_I_TWO
        CFI CFA_XSP16 add(XSP16, 13)
        MOV     R1,#0x3
        MOV     A,R2
        MOV     R4,A
        MOV     A,R3
        MOV     R5,A
        MOV     A,#0x2
        LCALL   ?XSTACK_DISP0_8
        MOV     R2,DPL
        MOV     R3,DPH
        LCALL   ??Subroutine107_0 & 0xFFFF
??CrossCallReturnLabel_214:
        LCALL   ?DEALLOC_XSTACK8
        CFI CFA_XSP16 add(XSP16, 11)
// 1003   ZDP_TxOptions = AF_TX_OPTIONS_NONE;
        MOV     DPTR,#ZDP_TxOptions
        CLR     A
        MOVX    @DPTR,A
// 1004 
// 1005   return ( stat );
        INC     A
        LJMP    ??Subroutine88_0 & 0xFFFF
        CFI EndBlock cfiBlock187
// 1006 }
// 1007 
// 1008 /*********************************************************************
// 1009  * @fn          ZDP_GenericRsp
// 1010  *
// 1011  * @brief       Sends a response message with only the parameter status
// 1012  *              byte and the addr of interest for data.
// 1013  *              This function sends unicast message to the
// 1014  *              requesting device.
// 1015  *
// 1016  * @param       dstAddr - destination address
// 1017  * @param       status  - generic status for response
// 1018  * @param       aoi     - address of interest
// 1019  * @param       dstAddr - destination address
// 1020  * @param       rspId   - response cluster ID
// 1021  * @param       SecurityEnable - Security Options
// 1022  *
// 1023  * @return      afStatus_t
// 1024  */

        RSEG BANKED_CODE:CODE:NOROOT(0)
// 1025 afStatus_t ZDP_GenericRsp( byte TransSeq, zAddrType_t *dstAddr,
ZDP_GenericRsp:
        CFI Block cfiBlock188 Using cfiCommon0
        CFI Function ZDP_GenericRsp
        CODE
// 1026                      byte status, uint16 aoi, uint16 rspID, byte SecurityEnable )
// 1027 {
        FUNCALL ZDP_GenericRsp, fillAndSend
        LOCFRAME ISTACK, 0, STACK
        LOCFRAME PSTACK, 0, STACK
        LOCFRAME XSTACK, 13, STACK
        LOCFRAME IOVERLAY, 0, STATIC
        LOCFRAME DOVERLAY, 0, STATIC
        ARGFRAME ISTACK, 0, STACK
        ARGFRAME PSTACK, 0, STACK
        ARGFRAME XSTACK, 13, STACK
        ARGFRAME IOVERLAY, 0, STATIC
        ARGFRAME DOVERLAY, 0, STATIC
        MOV     A,#-0xa
        LCALL   ?BANKED_ENTER_XDATA
        CFI DPH0 load(1, XDATA, add(CFA_XSP16, literal(-1)))
        CFI DPL0 load(1, XDATA, add(CFA_XSP16, literal(-2)))
        CFI ?BRET_EXT load(1, XDATA, add(CFA_XSP16, literal(-3)))
        CFI ?RET_HIGH load(1, XDATA, add(CFA_XSP16, literal(-4)))
        CFI ?RET_LOW load(1, XDATA, add(CFA_XSP16, literal(-5)))
        CFI R7 load(1, XDATA, add(CFA_XSP16, literal(-6)))
        CFI V1 load(1, XDATA, add(CFA_XSP16, literal(-7)))
        CFI V0 load(1, XDATA, add(CFA_XSP16, literal(-8)))
        CFI VB load(1, XDATA, add(CFA_XSP16, literal(-9)))
        CFI R6 load(1, XDATA, add(CFA_XSP16, literal(-10)))
        CFI CFA_SP SP+0
        CFI CFA_XSP16 add(XSP16, 10)
        ; Saved register size: 10
        ; Auto size: 1
        MOV     A,#-0x1
        LCALL   ?ALLOC_XSTACK8
        CFI CFA_XSP16 add(XSP16, 11)
        MOV     A,R1
        MOV     DPL,?XSP + 0
        MOV     DPH,?XSP + 1
        MOVX    @DPTR,A
        MOV     A,R4
        MOV     R6,A
        MOV     A,#0xb
        LCALL   ?XSTACK_DISP0_8
        LCALL   ??Subroutine114_0 & 0xFFFF
??CrossCallReturnLabel_268:
        MOV     A,#0xd
        LCALL   ?XSTACK_DISP0_8
        LCALL   ??Subroutine99_0 & 0xFFFF
// 1028   uint8 len;
// 1029 
// 1030   (void)SecurityEnable;  // Intentionally unreferenced parameter
// 1031 
// 1032   ZDP_TmpBuf[0] = status;
??CrossCallReturnLabel_165:
        LCALL   ?Subroutine46 & 0xFFFF
??CrossCallReturnLabel_62:
        MOV     A,R6
        MOVX    @DPTR,A
// 1033   ZDP_TmpBuf[1] = LO_UINT16( aoi );
        LCALL   ?Subroutine46 & 0xFFFF
??CrossCallReturnLabel_63:
        INC     DPTR
        MOV     A,R0
        MOVX    @DPTR,A
// 1034   ZDP_TmpBuf[2] = HI_UINT16( aoi );
        LCALL   ?Subroutine27 & 0xFFFF
// 1035 
// 1036   // Length byte
// 1037   ZDP_TmpBuf[3] = 0;
??CrossCallReturnLabel_31:
        LCALL   ??Subroutine89_0 & 0xFFFF
??CrossCallReturnLabel_120:
        INC     DPTR
        INC     DPTR
        CLR     A
        MOVX    @DPTR,A
// 1038   len = 4;
// 1039 
// 1040   return fillAndSend( &TransSeq, dstAddr, rspID, len );
        ; Setup parameters for call to function fillAndSend
        MOV     R0,#?V0 + 0
        LCALL   ?PUSH_XSTACK_I_TWO
        CFI CFA_XSP16 add(XSP16, 13)
        MOV     R1,#0x4
        MOV     A,R2
        MOV     R4,A
        MOV     A,R3
        MOV     R5,A
        MOV     A,#0x2
        LCALL   ?XSTACK_DISP0_8
        MOV     R2,DPL
        MOV     R3,DPH
        LCALL   ??Subroutine107_0 & 0xFFFF
??CrossCallReturnLabel_215:
        LCALL   ?DEALLOC_XSTACK8
        CFI CFA_XSP16 add(XSP16, 11)
        MOV     A,#0x1
        LJMP    ??Subroutine88_0 & 0xFFFF
        CFI EndBlock cfiBlock188
// 1041 }

        RSEG BANKED_CODE:CODE:NOROOT(0)
?Subroutine46:
        CFI Block cfiCond189 Using cfiCommon0
        CFI NoFunction
        CFI Conditional ??CrossCallReturnLabel_62
        CFI R6 load(1, XDATA, add(CFA_XSP16, literal(-10)))
        CFI VB load(1, XDATA, add(CFA_XSP16, literal(-9)))
        CFI V0 load(1, XDATA, add(CFA_XSP16, literal(-8)))
        CFI V1 load(1, XDATA, add(CFA_XSP16, literal(-7)))
        CFI R7 load(1, XDATA, add(CFA_XSP16, literal(-6)))
        CFI ?RET_LOW load(1, XDATA, add(CFA_XSP16, literal(-5)))
        CFI ?RET_HIGH load(1, XDATA, add(CFA_XSP16, literal(-4)))
        CFI ?BRET_EXT load(1, XDATA, add(CFA_XSP16, literal(-3)))
        CFI DPL0 load(1, XDATA, add(CFA_XSP16, literal(-2)))
        CFI DPH0 load(1, XDATA, add(CFA_XSP16, literal(-1)))
        CFI CFA_SP SP+0
        CFI CFA_XSP16 add(XSP16, 11)
        CFI Block cfiCond190 Using cfiCommon0
        CFI (cfiCond190) NoFunction
        CFI (cfiCond190) Conditional ??CrossCallReturnLabel_63
        CFI (cfiCond190) R6 load(1, XDATA, add(CFA_XSP16, literal(-10)))
        CFI (cfiCond190) VB load(1, XDATA, add(CFA_XSP16, literal(-9)))
        CFI (cfiCond190) V0 load(1, XDATA, add(CFA_XSP16, literal(-8)))
        CFI (cfiCond190) V1 load(1, XDATA, add(CFA_XSP16, literal(-7)))
        CFI (cfiCond190) R7 load(1, XDATA, add(CFA_XSP16, literal(-6)))
        CFI (cfiCond190) ?RET_LOW load(1, XDATA, add(CFA_XSP16, literal(-5)))
        CFI (cfiCond190) ?RET_HIGH load(1, XDATA, add(CFA_XSP16, literal(-4)))
        CFI (cfiCond190) ?BRET_EXT load(1, XDATA, add(CFA_XSP16, literal(-3)))
        CFI (cfiCond190) DPL0 load(1, XDATA, add(CFA_XSP16, literal(-2)))
        CFI (cfiCond190) DPH0 load(1, XDATA, add(CFA_XSP16, literal(-1)))
        CFI (cfiCond190) CFA_SP SP+0
        CFI (cfiCond190) CFA_XSP16 add(XSP16, 11)
        CFI Block cfiPicker191 Using cfiCommon1
        CFI (cfiPicker191) NoFunction
        CFI (cfiPicker191) Picker
        MOV     DPTR,#ZDP_TmpBuf
        MOVX    A,@DPTR
        MOV     R4,A
        INC     DPTR
        MOVX    A,@DPTR
        MOV     DPH,A
        MOV     DPL,R4
        RET
        CFI EndBlock cfiCond189
        CFI EndBlock cfiCond190
        CFI EndBlock cfiPicker191

        RSEG BANKED_CODE:CODE:NOROOT(0)
?Subroutine27:
        CFI Block cfiCond192 Using cfiCommon0
        CFI NoFunction
        CFI Conditional ??CrossCallReturnLabel_30
        CFI R6 load(1, XDATA, add(CFA_XSP16, literal(-10)))
        CFI VB load(1, XDATA, add(CFA_XSP16, literal(-9)))
        CFI V0 load(1, XDATA, add(CFA_XSP16, literal(-8)))
        CFI V1 load(1, XDATA, add(CFA_XSP16, literal(-7)))
        CFI R7 load(1, XDATA, add(CFA_XSP16, literal(-6)))
        CFI ?RET_LOW load(1, XDATA, add(CFA_XSP16, literal(-5)))
        CFI ?RET_HIGH load(1, XDATA, add(CFA_XSP16, literal(-4)))
        CFI ?BRET_EXT load(1, XDATA, add(CFA_XSP16, literal(-3)))
        CFI DPL0 load(1, XDATA, add(CFA_XSP16, literal(-2)))
        CFI DPH0 load(1, XDATA, add(CFA_XSP16, literal(-1)))
        CFI CFA_SP SP+0
        CFI CFA_XSP16 add(XSP16, 10)
        CFI Block cfiCond193 Using cfiCommon0
        CFI (cfiCond193) NoFunction
        CFI (cfiCond193) Conditional ??CrossCallReturnLabel_31
        CFI (cfiCond193) R6 load(1, XDATA, add(CFA_XSP16, literal(-10)))
        CFI (cfiCond193) VB load(1, XDATA, add(CFA_XSP16, literal(-9)))
        CFI (cfiCond193) V0 load(1, XDATA, add(CFA_XSP16, literal(-8)))
        CFI (cfiCond193) V1 load(1, XDATA, add(CFA_XSP16, literal(-7)))
        CFI (cfiCond193) R7 load(1, XDATA, add(CFA_XSP16, literal(-6)))
        CFI (cfiCond193) ?RET_LOW load(1, XDATA, add(CFA_XSP16, literal(-5)))
        CFI (cfiCond193) ?RET_HIGH load(1, XDATA, add(CFA_XSP16, literal(-4)))
        CFI (cfiCond193) ?BRET_EXT load(1, XDATA, add(CFA_XSP16, literal(-3)))
        CFI (cfiCond193) DPL0 load(1, XDATA, add(CFA_XSP16, literal(-2)))
        CFI (cfiCond193) DPH0 load(1, XDATA, add(CFA_XSP16, literal(-1)))
        CFI (cfiCond193) CFA_SP SP+0
        CFI (cfiCond193) CFA_XSP16 add(XSP16, 11)
        CFI Block cfiPicker194 Using cfiCommon1
        CFI (cfiPicker194) NoFunction
        CFI (cfiPicker194) Picker
        LCALL   ?Subroutine76 & 0xFFFF
??CrossCallReturnLabel_123:
        INC     DPTR
        MOV     A,R1
        MOVX    @DPTR,A
        RET
        CFI EndBlock cfiCond192
        CFI EndBlock cfiCond193
        CFI EndBlock cfiPicker194
// 1042 
// 1043 /*********************************************************************
// 1044  * Binding
// 1045  */
// 1046 /*********************************************************************
// 1047  * @fn          ZDP_EndDeviceBindReq
// 1048  *
// 1049  * @brief       This builds and sends a End_Device_Bind_req message.
// 1050  *              This function sends a unicast message.
// 1051  *
// 1052  * @param       dstAddr - destination address
// 1053  * @param       LocalCoordinator - short address of local coordinator
// 1054  * @param       epIntf - Endpoint/Interface of Simple Desc
// 1055  * @param       ProfileID - Profile ID
// 1056  *
// 1057  *   The Input cluster list is the opposite of what you would think.
// 1058  *   This is the output cluster list of this device
// 1059  * @param       NumInClusters - number of input clusters
// 1060  * @param       InClusterList - input cluster ID list
// 1061  *
// 1062  *   The Output cluster list is the opposite of what you would think.
// 1063  *   This is the input cluster list of this device
// 1064  * @param       NumOutClusters - number of output clusters
// 1065  * @param       OutClusterList - output cluster ID list
// 1066  *
// 1067  * @param       SecurityEnable - Security Options
// 1068  *
// 1069  * @return      afStatus_t
// 1070  */

        RSEG BANKED_CODE:CODE:NOROOT(0)
// 1071 afStatus_t ZDP_EndDeviceBindReq( zAddrType_t *dstAddr,
ZDP_EndDeviceBindReq:
        CFI Block cfiBlock195 Using cfiCommon0
        CFI Function ZDP_EndDeviceBindReq
        CODE
// 1072                                  uint16 LocalCoordinator,
// 1073                                  byte endPoint,
// 1074                                  uint16 ProfileID,
// 1075                                  byte NumInClusters, cId_t *InClusterList,
// 1076                                  byte NumOutClusters, cId_t *OutClusterList,
// 1077                                  byte SecurityEnable )
// 1078 {
        FUNCALL ZDP_EndDeviceBindReq, NLME_GetShortAddr
        LOCFRAME ISTACK, 0, STACK
        LOCFRAME PSTACK, 0, STACK
        LOCFRAME XSTACK, 24, STACK
        LOCFRAME IOVERLAY, 0, STATIC
        LOCFRAME DOVERLAY, 0, STATIC
        ARGFRAME ISTACK, 0, STACK
        ARGFRAME PSTACK, 0, STACK
        ARGFRAME XSTACK, 24, STACK
        ARGFRAME IOVERLAY, 0, STATIC
        ARGFRAME DOVERLAY, 0, STATIC
        FUNCALL ZDP_EndDeviceBindReq, NLME_GetExtAddr
        LOCFRAME ISTACK, 0, STACK
        LOCFRAME PSTACK, 0, STACK
        LOCFRAME XSTACK, 24, STACK
        LOCFRAME IOVERLAY, 0, STATIC
        LOCFRAME DOVERLAY, 0, STATIC
        ARGFRAME ISTACK, 0, STACK
        ARGFRAME PSTACK, 0, STACK
        ARGFRAME XSTACK, 24, STACK
        ARGFRAME IOVERLAY, 0, STATIC
        ARGFRAME DOVERLAY, 0, STATIC
        FUNCALL ZDP_EndDeviceBindReq, sAddrExtCpy
        LOCFRAME ISTACK, 0, STACK
        LOCFRAME PSTACK, 0, STACK
        LOCFRAME XSTACK, 24, STACK
        LOCFRAME IOVERLAY, 0, STATIC
        LOCFRAME DOVERLAY, 0, STATIC
        ARGFRAME ISTACK, 0, STACK
        ARGFRAME PSTACK, 0, STACK
        ARGFRAME XSTACK, 24, STACK
        ARGFRAME IOVERLAY, 0, STATIC
        ARGFRAME DOVERLAY, 0, STATIC
        FUNCALL ZDP_EndDeviceBindReq, fillAndSend
        LOCFRAME ISTACK, 0, STACK
        LOCFRAME PSTACK, 0, STACK
        LOCFRAME XSTACK, 26, STACK
        LOCFRAME IOVERLAY, 0, STATIC
        LOCFRAME DOVERLAY, 0, STATIC
        ARGFRAME ISTACK, 0, STACK
        ARGFRAME PSTACK, 0, STACK
        ARGFRAME XSTACK, 26, STACK
        ARGFRAME IOVERLAY, 0, STATIC
        ARGFRAME DOVERLAY, 0, STATIC
        MOV     A,#-0x18
        LCALL   ?BANKED_ENTER_XDATA
        CFI DPH0 load(1, XDATA, add(CFA_XSP16, literal(-1)))
        CFI DPL0 load(1, XDATA, add(CFA_XSP16, literal(-2)))
        CFI ?BRET_EXT load(1, XDATA, add(CFA_XSP16, literal(-3)))
        CFI ?RET_HIGH load(1, XDATA, add(CFA_XSP16, literal(-4)))
        CFI ?RET_LOW load(1, XDATA, add(CFA_XSP16, literal(-5)))
        CFI R7 load(1, XDATA, add(CFA_XSP16, literal(-6)))
        CFI V15 load(1, XDATA, add(CFA_XSP16, literal(-7)))
        CFI V14 load(1, XDATA, add(CFA_XSP16, literal(-8)))
        CFI V13 load(1, XDATA, add(CFA_XSP16, literal(-9)))
        CFI V12 load(1, XDATA, add(CFA_XSP16, literal(-10)))
        CFI V11 load(1, XDATA, add(CFA_XSP16, literal(-11)))
        CFI V10 load(1, XDATA, add(CFA_XSP16, literal(-12)))
        CFI V9 load(1, XDATA, add(CFA_XSP16, literal(-13)))
        CFI V8 load(1, XDATA, add(CFA_XSP16, literal(-14)))
        CFI V7 load(1, XDATA, add(CFA_XSP16, literal(-15)))
        CFI V6 load(1, XDATA, add(CFA_XSP16, literal(-16)))
        CFI V5 load(1, XDATA, add(CFA_XSP16, literal(-17)))
        CFI V4 load(1, XDATA, add(CFA_XSP16, literal(-18)))
        CFI V3 load(1, XDATA, add(CFA_XSP16, literal(-19)))
        CFI V2 load(1, XDATA, add(CFA_XSP16, literal(-20)))
        CFI V1 load(1, XDATA, add(CFA_XSP16, literal(-21)))
        CFI V0 load(1, XDATA, add(CFA_XSP16, literal(-22)))
        CFI VB load(1, XDATA, add(CFA_XSP16, literal(-23)))
        CFI R6 load(1, XDATA, add(CFA_XSP16, literal(-24)))
        CFI CFA_SP SP+0
        CFI CFA_XSP16 add(XSP16, 24)
        ; Saved register size: 24
        ; Auto size: 0
        MOV     ?V0 + 14,R2
        MOV     ?V0 + 15,R3
        MOV     ?V0 + 4,R4
        MOV     ?V0 + 5,R5
        MOV     ?V0 + 7,R1
        MOV     A,#0x18
        LCALL   ?XSTACK_DISP0_8
        LCALL   ??Subroutine99_0 & 0xFFFF
??CrossCallReturnLabel_166:
        MOV     A,#0x1a
        LCALL   ?XSTACK_DISP0_8
        MOVX    A,@DPTR
        MOV     ?V0 + 3,A
        MOV     A,#0x1b
        LCALL   ?XSTACK_DISP0_8
        MOVX    A,@DPTR
        MOV     ?V0 + 10,A
        INC     DPTR
        MOVX    A,@DPTR
        MOV     ?V0 + 11,A
        MOV     A,#0x1d
        LCALL   ?XSTACK_DISP0_8
        MOVX    A,@DPTR
        MOV     ?V0 + 2,A
        MOV     A,#0x1e
        LCALL   ?XSTACK_DISP0_8
        MOVX    A,@DPTR
        MOV     ?V0 + 12,A
        INC     DPTR
        MOVX    A,@DPTR
        MOV     ?V0 + 13,A
// 1079   uint8 *pBuf = ZDP_TmpBuf;
        MOV     DPTR,#ZDP_TmpBuf
        LCALL   ??Subroutine108_0 & 0xFFFF
// 1080   uint8 i, len;
// 1081   uint8 *ieeeAddr;
// 1082 
// 1083   (void)SecurityEnable;  // Intentionally unreferenced parameter
// 1084 
// 1085   // LocalCoordinator + SrcExtAddr + ep + ProfileID +  NumInClusters + NumOutClusters.
// 1086   len = 2 + Z_EXTADDR_LEN + 1 + 2 + 1 + 1;
// 1087   len += (NumInClusters + NumOutClusters) * sizeof ( uint16 );
??CrossCallReturnLabel_224:
        MOV     A,?V0 + 3
        ADD     A,?V0 + 2
        CLR     C
        RLC     A
        ADD     A,#0xf
        MOV     ?V0 + 6,A
// 1088 
// 1089   if ( len >= ZDP_BUF_SZ-1 )
        CLR     C
        SUBB    A,#0x4f
        JC      ??ZDP_EndDeviceBindReq_0
// 1090   {
// 1091     return afStatus_MEM_FAIL;
        MOV     R1,#0x10
        LJMP    ??ZDP_EndDeviceBindReq_1 & 0xFFFF
// 1092   }
// 1093 
// 1094   if ( LocalCoordinator != NLME_GetShortAddr() )
??ZDP_EndDeviceBindReq_0:
        ; Setup parameters for call to function NLME_GetShortAddr
        LCALL   ??NLME_GetShortAddr?relay
        MOV     A,R2
        XRL     A,?V0 + 4
        JNZ     ??ZDP_EndDeviceBindReq_2
        MOV     A,R3
        XRL     A,?V0 + 5
??ZDP_EndDeviceBindReq_2:
        JZ      ??ZDP_EndDeviceBindReq_3
// 1095   {
// 1096     return afStatus_INVALID_PARAMETER;
        MOV     R1,#0x2
        LJMP    ??ZDP_EndDeviceBindReq_1 & 0xFFFF
// 1097   }
// 1098 
// 1099   *pBuf++ = LO_UINT16( LocalCoordinator );
??ZDP_EndDeviceBindReq_3:
        MOV     DPL,R6
        MOV     DPH,R7
        MOV     A,?V0 + 4
        MOVX    @DPTR,A
        INC     DPTR
// 1100   *pBuf++ = HI_UINT16( LocalCoordinator );
        MOV     A,?V0 + 5
        LCALL   ??Subroutine98_0 & 0xFFFF
// 1101 
// 1102   ieeeAddr = NLME_GetExtAddr();
// 1103   pBuf = osal_cpyExtAddr( pBuf, ieeeAddr );
??CrossCallReturnLabel_159:
        ; Setup parameters for call to function sAddrExtCpy
        ; Setup parameters for call to function NLME_GetExtAddr
        LCALL   ??NLME_GetExtAddr?relay
        MOV     A,R2
        MOV     R4,A
        MOV     A,R3
        MOV     R5,A
        MOV     A,R6
        MOV     R2,A
        MOV     A,R7
        MOV     R3,A
        LCALL   ??sAddrExtCpy?relay
        MOV     ?V0 + 4,R2
        MOV     ?V0 + 5,R3
        MOV     R6,?V0 + 4
        MOV     R7,?V0 + 5
// 1104 
// 1105   *pBuf++ = endPoint;
        MOV     DPL,R6
        MOV     DPH,R7
        MOV     A,?V0 + 7
        LCALL   ?Subroutine47 & 0xFFFF
// 1106 
// 1107   *pBuf++ = LO_UINT16( ProfileID );   // Profile ID
// 1108   *pBuf++ = HI_UINT16( ProfileID );
// 1109 
// 1110   *pBuf++ = NumInClusters; // Input cluster list
??CrossCallReturnLabel_65:
        MOV     A,?V0 + 3
        LCALL   ??Subroutine98_0 & 0xFFFF
// 1111   for ( i = 0; i < NumInClusters; ++i )
??CrossCallReturnLabel_160:
        JZ      ??ZDP_EndDeviceBindReq_4
        MOV     ?V0 + 0,A
// 1112   {
// 1113     *pBuf++ = LO_UINT16(InClusterList[i]);
??ZDP_EndDeviceBindReq_5:
        MOV     DPL,?V0 + 10
        MOV     DPH,?V0 + 11
        LCALL   ?Subroutine14 & 0xFFFF
// 1114     *pBuf++ = HI_UINT16(InClusterList[i]);
??CrossCallReturnLabel_4:
        MOV     DPL,?V0 + 10
        MOV     DPH,?V0 + 11
        LCALL   ?Subroutine42 & 0xFFFF
// 1115   }
??CrossCallReturnLabel_51:
        MOV     A,?V0 + 10
        ADD     A,#0x2
        MOV     ?V0 + 10,A
        MOV     A,?V0 + 11
        ADDC    A,#0x0
        MOV     ?V0 + 11,A
        DEC     ?V0 + 0
        MOV     A,?V0 + 0
        JNZ     ??ZDP_EndDeviceBindReq_5
// 1116 
// 1117   *pBuf++ = NumOutClusters; // Output cluster list
??ZDP_EndDeviceBindReq_4:
        MOV     DPL,R6
        MOV     DPH,R7
        MOV     A,?V0 + 2
        LCALL   ??Subroutine98_0 & 0xFFFF
// 1118   for ( i = 0; i < NumOutClusters; ++i )
??CrossCallReturnLabel_161:
        JZ      ??ZDP_EndDeviceBindReq_6
        MOV     ?V0 + 1,A
// 1119   {
// 1120     *pBuf++ = LO_UINT16(OutClusterList[i]);
??ZDP_EndDeviceBindReq_7:
        MOV     DPL,?V0 + 12
        MOV     DPH,?V0 + 13
        LCALL   ?Subroutine14 & 0xFFFF
// 1121     *pBuf++ = HI_UINT16(OutClusterList[i]);
??CrossCallReturnLabel_5:
        MOV     DPL,?V0 + 12
        MOV     DPH,?V0 + 13
        LCALL   ?Subroutine42 & 0xFFFF
// 1122   }
??CrossCallReturnLabel_52:
        MOV     A,?V0 + 12
        ADD     A,#0x2
        MOV     ?V0 + 12,A
        MOV     A,?V0 + 13
        ADDC    A,#0x0
        MOV     ?V0 + 13,A
        DEC     ?V0 + 1
        MOV     A,?V0 + 1
        JNZ     ??ZDP_EndDeviceBindReq_7
// 1123 
// 1124   return fillAndSend( &ZDP_TransID, dstAddr, End_Device_Bind_req, len );
??ZDP_EndDeviceBindReq_6:
        ; Setup parameters for call to function fillAndSend
        MOV     ?V0 + 2,#0x20
        MOV     ?V0 + 3,#0x0
        MOV     R0,#?V0 + 2
        LCALL   ?PUSH_XSTACK_I_TWO
        CFI CFA_XSP16 add(XSP16, 26)
        MOV     R1,?V0 + 6
        MOV     R4,?V0 + 14
        MOV     R5,?V0 + 15
        LCALL   ??Subroutine106_0 & 0xFFFF
??CrossCallReturnLabel_203:
        LCALL   ?DEALLOC_XSTACK8
        CFI CFA_XSP16 add(XSP16, 24)
        CFI EndBlock cfiBlock195
??ZDP_EndDeviceBindReq_1:
        REQUIRE ?Subroutine4
        ; // Fall through to label ?Subroutine4
// 1125 }

        RSEG BANKED_CODE:CODE:NOROOT(0)
?Subroutine4:
        CFI Block cfiBlock196 Using cfiCommon0
        CFI NoFunction
        CFI CFA_SP SP+0
        CFI CFA_XSP16 add(XSP16, 24)
        CFI VB load(1, XDATA, add(CFA_XSP16, literal(-23)))
        CFI DPL0 load(1, XDATA, add(CFA_XSP16, literal(-2)))
        CFI DPH0 load(1, XDATA, add(CFA_XSP16, literal(-1)))
        CFI R6 load(1, XDATA, add(CFA_XSP16, literal(-24)))
        CFI R7 load(1, XDATA, add(CFA_XSP16, literal(-6)))
        CFI V0 load(1, XDATA, add(CFA_XSP16, literal(-22)))
        CFI V1 load(1, XDATA, add(CFA_XSP16, literal(-21)))
        CFI V2 load(1, XDATA, add(CFA_XSP16, literal(-20)))
        CFI V3 load(1, XDATA, add(CFA_XSP16, literal(-19)))
        CFI V4 load(1, XDATA, add(CFA_XSP16, literal(-18)))
        CFI V5 load(1, XDATA, add(CFA_XSP16, literal(-17)))
        CFI V6 load(1, XDATA, add(CFA_XSP16, literal(-16)))
        CFI V7 load(1, XDATA, add(CFA_XSP16, literal(-15)))
        CFI V8 load(1, XDATA, add(CFA_XSP16, literal(-14)))
        CFI V9 load(1, XDATA, add(CFA_XSP16, literal(-13)))
        CFI V10 load(1, XDATA, add(CFA_XSP16, literal(-12)))
        CFI V11 load(1, XDATA, add(CFA_XSP16, literal(-11)))
        CFI V12 load(1, XDATA, add(CFA_XSP16, literal(-10)))
        CFI V13 load(1, XDATA, add(CFA_XSP16, literal(-9)))
        CFI V14 load(1, XDATA, add(CFA_XSP16, literal(-8)))
        CFI V15 load(1, XDATA, add(CFA_XSP16, literal(-7)))
        CFI ?BRET_EXT load(1, XDATA, add(CFA_XSP16, literal(-3)))
        CFI ?RET_HIGH load(1, XDATA, add(CFA_XSP16, literal(-4)))
        CFI ?RET_LOW load(1, XDATA, add(CFA_XSP16, literal(-5)))
        MOV     R7,#0x10
        LJMP    ?BANKED_LEAVE_XDATA
        CFI EndBlock cfiBlock196

        RSEG BANKED_CODE:CODE:NOROOT(0)
?Subroutine42:
        CFI Block cfiCond197 Using cfiCommon0
        CFI NoFunction
        CFI Conditional ??CrossCallReturnLabel_51
        CFI R6 load(1, XDATA, add(CFA_XSP16, literal(-24)))
        CFI VB load(1, XDATA, add(CFA_XSP16, literal(-23)))
        CFI V0 load(1, XDATA, add(CFA_XSP16, literal(-22)))
        CFI V1 load(1, XDATA, add(CFA_XSP16, literal(-21)))
        CFI V2 load(1, XDATA, add(CFA_XSP16, literal(-20)))
        CFI V3 load(1, XDATA, add(CFA_XSP16, literal(-19)))
        CFI V4 load(1, XDATA, add(CFA_XSP16, literal(-18)))
        CFI V5 load(1, XDATA, add(CFA_XSP16, literal(-17)))
        CFI V6 load(1, XDATA, add(CFA_XSP16, literal(-16)))
        CFI V7 load(1, XDATA, add(CFA_XSP16, literal(-15)))
        CFI V8 load(1, XDATA, add(CFA_XSP16, literal(-14)))
        CFI V9 load(1, XDATA, add(CFA_XSP16, literal(-13)))
        CFI V10 load(1, XDATA, add(CFA_XSP16, literal(-12)))
        CFI V11 load(1, XDATA, add(CFA_XSP16, literal(-11)))
        CFI V12 load(1, XDATA, add(CFA_XSP16, literal(-10)))
        CFI V13 load(1, XDATA, add(CFA_XSP16, literal(-9)))
        CFI V14 load(1, XDATA, add(CFA_XSP16, literal(-8)))
        CFI V15 load(1, XDATA, add(CFA_XSP16, literal(-7)))
        CFI R7 load(1, XDATA, add(CFA_XSP16, literal(-6)))
        CFI ?RET_LOW load(1, XDATA, add(CFA_XSP16, literal(-5)))
        CFI ?RET_HIGH load(1, XDATA, add(CFA_XSP16, literal(-4)))
        CFI ?BRET_EXT load(1, XDATA, add(CFA_XSP16, literal(-3)))
        CFI DPL0 load(1, XDATA, add(CFA_XSP16, literal(-2)))
        CFI DPH0 load(1, XDATA, add(CFA_XSP16, literal(-1)))
        CFI CFA_SP SP+0
        CFI CFA_XSP16 add(XSP16, 24)
        CFI Block cfiCond198 Using cfiCommon0
        CFI (cfiCond198) NoFunction
        CFI (cfiCond198) Conditional ??CrossCallReturnLabel_52
        CFI (cfiCond198) R6 load(1, XDATA, add(CFA_XSP16, literal(-24)))
        CFI (cfiCond198) VB load(1, XDATA, add(CFA_XSP16, literal(-23)))
        CFI (cfiCond198) V0 load(1, XDATA, add(CFA_XSP16, literal(-22)))
        CFI (cfiCond198) V1 load(1, XDATA, add(CFA_XSP16, literal(-21)))
        CFI (cfiCond198) V2 load(1, XDATA, add(CFA_XSP16, literal(-20)))
        CFI (cfiCond198) V3 load(1, XDATA, add(CFA_XSP16, literal(-19)))
        CFI (cfiCond198) V4 load(1, XDATA, add(CFA_XSP16, literal(-18)))
        CFI (cfiCond198) V5 load(1, XDATA, add(CFA_XSP16, literal(-17)))
        CFI (cfiCond198) V6 load(1, XDATA, add(CFA_XSP16, literal(-16)))
        CFI (cfiCond198) V7 load(1, XDATA, add(CFA_XSP16, literal(-15)))
        CFI (cfiCond198) V8 load(1, XDATA, add(CFA_XSP16, literal(-14)))
        CFI (cfiCond198) V9 load(1, XDATA, add(CFA_XSP16, literal(-13)))
        CFI (cfiCond198) V10 load(1, XDATA, add(CFA_XSP16, literal(-12)))
        CFI (cfiCond198) V11 load(1, XDATA, add(CFA_XSP16, literal(-11)))
        CFI (cfiCond198) V12 load(1, XDATA, add(CFA_XSP16, literal(-10)))
        CFI (cfiCond198) V13 load(1, XDATA, add(CFA_XSP16, literal(-9)))
        CFI (cfiCond198) V14 load(1, XDATA, add(CFA_XSP16, literal(-8)))
        CFI (cfiCond198) V15 load(1, XDATA, add(CFA_XSP16, literal(-7)))
        CFI (cfiCond198) R7 load(1, XDATA, add(CFA_XSP16, literal(-6)))
        CFI (cfiCond198) ?RET_LOW load(1, XDATA, add(CFA_XSP16, literal(-5)))
        CFI (cfiCond198) ?RET_HIGH load(1, XDATA, add(CFA_XSP16, literal(-4)))
        CFI (cfiCond198) ?BRET_EXT load(1, XDATA, add(CFA_XSP16, literal(-3)))
        CFI (cfiCond198) DPL0 load(1, XDATA, add(CFA_XSP16, literal(-2)))
        CFI (cfiCond198) DPH0 load(1, XDATA, add(CFA_XSP16, literal(-1)))
        CFI (cfiCond198) CFA_SP SP+0
        CFI (cfiCond198) CFA_XSP16 add(XSP16, 24)
        CFI Block cfiPicker199 Using cfiCommon1
        CFI (cfiPicker199) NoFunction
        CFI (cfiPicker199) Picker
        INC     DPTR
        LCALL   ?Subroutine78 & 0xFFFF
??CrossCallReturnLabel_182:
        RET
        CFI EndBlock cfiCond197
        CFI EndBlock cfiCond198
        CFI EndBlock cfiPicker199

        RSEG BANKED_CODE:CODE:NOROOT(0)
?Subroutine78:
        CFI Block cfiCond200 Using cfiCommon0
        CFI NoFunction
        CFI Conditional ??CrossCallReturnLabel_182, ??CrossCallReturnLabel_51
        CFI R6 load(1, XDATA, add(CFA_XSP16, literal(-24)))
        CFI VB load(1, XDATA, add(CFA_XSP16, literal(-23)))
        CFI V0 load(1, XDATA, add(CFA_XSP16, literal(-22)))
        CFI V1 load(1, XDATA, add(CFA_XSP16, literal(-21)))
        CFI V2 load(1, XDATA, add(CFA_XSP16, literal(-20)))
        CFI V3 load(1, XDATA, add(CFA_XSP16, literal(-19)))
        CFI V4 load(1, XDATA, add(CFA_XSP16, literal(-18)))
        CFI V5 load(1, XDATA, add(CFA_XSP16, literal(-17)))
        CFI V6 load(1, XDATA, add(CFA_XSP16, literal(-16)))
        CFI V7 load(1, XDATA, add(CFA_XSP16, literal(-15)))
        CFI V8 load(1, XDATA, add(CFA_XSP16, literal(-14)))
        CFI V9 load(1, XDATA, add(CFA_XSP16, literal(-13)))
        CFI V10 load(1, XDATA, add(CFA_XSP16, literal(-12)))
        CFI V11 load(1, XDATA, add(CFA_XSP16, literal(-11)))
        CFI V12 load(1, XDATA, add(CFA_XSP16, literal(-10)))
        CFI V13 load(1, XDATA, add(CFA_XSP16, literal(-9)))
        CFI V14 load(1, XDATA, add(CFA_XSP16, literal(-8)))
        CFI V15 load(1, XDATA, add(CFA_XSP16, literal(-7)))
        CFI R7 load(1, XDATA, add(CFA_XSP16, literal(-6)))
        CFI ?RET_LOW load(1, XDATA, add(CFA_XSP16, literal(-5)))
        CFI ?RET_HIGH load(1, XDATA, add(CFA_XSP16, literal(-4)))
        CFI ?BRET_EXT load(1, XDATA, add(CFA_XSP16, literal(-3)))
        CFI DPL0 load(1, XDATA, add(CFA_XSP16, literal(-2)))
        CFI DPH0 load(1, XDATA, add(CFA_XSP16, literal(-1)))
        CFI CFA_SP SP+0
        CFI CFA_XSP16 add(XSP16, 24)
        CFI Block cfiCond201 Using cfiCommon0
        CFI (cfiCond201) NoFunction
        CFI (cfiCond201) Conditional ??CrossCallReturnLabel_182, ??CrossCallReturnLabel_52
        CFI (cfiCond201) R6 load(1, XDATA, add(CFA_XSP16, literal(-24)))
        CFI (cfiCond201) VB load(1, XDATA, add(CFA_XSP16, literal(-23)))
        CFI (cfiCond201) V0 load(1, XDATA, add(CFA_XSP16, literal(-22)))
        CFI (cfiCond201) V1 load(1, XDATA, add(CFA_XSP16, literal(-21)))
        CFI (cfiCond201) V2 load(1, XDATA, add(CFA_XSP16, literal(-20)))
        CFI (cfiCond201) V3 load(1, XDATA, add(CFA_XSP16, literal(-19)))
        CFI (cfiCond201) V4 load(1, XDATA, add(CFA_XSP16, literal(-18)))
        CFI (cfiCond201) V5 load(1, XDATA, add(CFA_XSP16, literal(-17)))
        CFI (cfiCond201) V6 load(1, XDATA, add(CFA_XSP16, literal(-16)))
        CFI (cfiCond201) V7 load(1, XDATA, add(CFA_XSP16, literal(-15)))
        CFI (cfiCond201) V8 load(1, XDATA, add(CFA_XSP16, literal(-14)))
        CFI (cfiCond201) V9 load(1, XDATA, add(CFA_XSP16, literal(-13)))
        CFI (cfiCond201) V10 load(1, XDATA, add(CFA_XSP16, literal(-12)))
        CFI (cfiCond201) V11 load(1, XDATA, add(CFA_XSP16, literal(-11)))
        CFI (cfiCond201) V12 load(1, XDATA, add(CFA_XSP16, literal(-10)))
        CFI (cfiCond201) V13 load(1, XDATA, add(CFA_XSP16, literal(-9)))
        CFI (cfiCond201) V14 load(1, XDATA, add(CFA_XSP16, literal(-8)))
        CFI (cfiCond201) V15 load(1, XDATA, add(CFA_XSP16, literal(-7)))
        CFI (cfiCond201) R7 load(1, XDATA, add(CFA_XSP16, literal(-6)))
        CFI (cfiCond201) ?RET_LOW load(1, XDATA, add(CFA_XSP16, literal(-5)))
        CFI (cfiCond201) ?RET_HIGH load(1, XDATA, add(CFA_XSP16, literal(-4)))
        CFI (cfiCond201) ?BRET_EXT load(1, XDATA, add(CFA_XSP16, literal(-3)))
        CFI (cfiCond201) DPL0 load(1, XDATA, add(CFA_XSP16, literal(-2)))
        CFI (cfiCond201) DPH0 load(1, XDATA, add(CFA_XSP16, literal(-1)))
        CFI (cfiCond201) CFA_SP SP+0
        CFI (cfiCond201) CFA_XSP16 add(XSP16, 24)
        CFI Block cfiCond202 Using cfiCommon0
        CFI (cfiCond202) NoFunction
        CFI (cfiCond202) Conditional ??CrossCallReturnLabel_183, ??CrossCallReturnLabel_178
        CFI (cfiCond202) R6 load(1, XDATA, add(CFA_XSP16, literal(-22)))
        CFI (cfiCond202) VB load(1, XDATA, add(CFA_XSP16, literal(-21)))
        CFI (cfiCond202) V0 load(1, XDATA, add(CFA_XSP16, literal(-20)))
        CFI (cfiCond202) V1 load(1, XDATA, add(CFA_XSP16, literal(-19)))
        CFI (cfiCond202) V2 load(1, XDATA, add(CFA_XSP16, literal(-18)))
        CFI (cfiCond202) V3 load(1, XDATA, add(CFA_XSP16, literal(-17)))
        CFI (cfiCond202) V4 load(1, XDATA, add(CFA_XSP16, literal(-16)))
        CFI (cfiCond202) V5 load(1, XDATA, add(CFA_XSP16, literal(-15)))
        CFI (cfiCond202) V6 load(1, XDATA, add(CFA_XSP16, literal(-14)))
        CFI (cfiCond202) V7 load(1, XDATA, add(CFA_XSP16, literal(-13)))
        CFI (cfiCond202) V8 load(1, XDATA, add(CFA_XSP16, literal(-12)))
        CFI (cfiCond202) V9 load(1, XDATA, add(CFA_XSP16, literal(-11)))
        CFI (cfiCond202) V10 load(1, XDATA, add(CFA_XSP16, literal(-10)))
        CFI (cfiCond202) V11 load(1, XDATA, add(CFA_XSP16, literal(-9)))
        CFI (cfiCond202) V12 load(1, XDATA, add(CFA_XSP16, literal(-8)))
        CFI (cfiCond202) V13 load(1, XDATA, add(CFA_XSP16, literal(-7)))
        CFI (cfiCond202) R7 load(1, XDATA, add(CFA_XSP16, literal(-6)))
        CFI (cfiCond202) ?RET_LOW load(1, XDATA, add(CFA_XSP16, literal(-5)))
        CFI (cfiCond202) ?RET_HIGH load(1, XDATA, add(CFA_XSP16, literal(-4)))
        CFI (cfiCond202) ?BRET_EXT load(1, XDATA, add(CFA_XSP16, literal(-3)))
        CFI (cfiCond202) DPL0 load(1, XDATA, add(CFA_XSP16, literal(-2)))
        CFI (cfiCond202) DPH0 load(1, XDATA, add(CFA_XSP16, literal(-1)))
        CFI (cfiCond202) CFA_SP SP+0
        CFI (cfiCond202) CFA_XSP16 add(XSP16, 23)
        CFI Block cfiCond203 Using cfiCommon0
        CFI (cfiCond203) NoFunction
        CFI (cfiCond203) Conditional ??CrossCallReturnLabel_183, ??CrossCallReturnLabel_179
        CFI (cfiCond203) R6 load(1, XDATA, add(CFA_XSP16, literal(-22)))
        CFI (cfiCond203) VB load(1, XDATA, add(CFA_XSP16, literal(-21)))
        CFI (cfiCond203) V0 load(1, XDATA, add(CFA_XSP16, literal(-20)))
        CFI (cfiCond203) V1 load(1, XDATA, add(CFA_XSP16, literal(-19)))
        CFI (cfiCond203) V2 load(1, XDATA, add(CFA_XSP16, literal(-18)))
        CFI (cfiCond203) V3 load(1, XDATA, add(CFA_XSP16, literal(-17)))
        CFI (cfiCond203) V4 load(1, XDATA, add(CFA_XSP16, literal(-16)))
        CFI (cfiCond203) V5 load(1, XDATA, add(CFA_XSP16, literal(-15)))
        CFI (cfiCond203) V6 load(1, XDATA, add(CFA_XSP16, literal(-14)))
        CFI (cfiCond203) V7 load(1, XDATA, add(CFA_XSP16, literal(-13)))
        CFI (cfiCond203) V8 load(1, XDATA, add(CFA_XSP16, literal(-12)))
        CFI (cfiCond203) V9 load(1, XDATA, add(CFA_XSP16, literal(-11)))
        CFI (cfiCond203) V10 load(1, XDATA, add(CFA_XSP16, literal(-10)))
        CFI (cfiCond203) V11 load(1, XDATA, add(CFA_XSP16, literal(-9)))
        CFI (cfiCond203) V12 load(1, XDATA, add(CFA_XSP16, literal(-8)))
        CFI (cfiCond203) V13 load(1, XDATA, add(CFA_XSP16, literal(-7)))
        CFI (cfiCond203) R7 load(1, XDATA, add(CFA_XSP16, literal(-6)))
        CFI (cfiCond203) ?RET_LOW load(1, XDATA, add(CFA_XSP16, literal(-5)))
        CFI (cfiCond203) ?RET_HIGH load(1, XDATA, add(CFA_XSP16, literal(-4)))
        CFI (cfiCond203) ?BRET_EXT load(1, XDATA, add(CFA_XSP16, literal(-3)))
        CFI (cfiCond203) DPL0 load(1, XDATA, add(CFA_XSP16, literal(-2)))
        CFI (cfiCond203) DPH0 load(1, XDATA, add(CFA_XSP16, literal(-1)))
        CFI (cfiCond203) CFA_SP SP+0
        CFI (cfiCond203) CFA_XSP16 add(XSP16, 23)
        CFI Block cfiCond204 Using cfiCommon0
        CFI (cfiCond204) NoFunction
        CFI (cfiCond204) Conditional ??CrossCallReturnLabel_183, ??CrossCallReturnLabel_180
        CFI (cfiCond204) R6 load(1, XDATA, add(CFA_XSP16, literal(-22)))
        CFI (cfiCond204) VB load(1, XDATA, add(CFA_XSP16, literal(-21)))
        CFI (cfiCond204) V0 load(1, XDATA, add(CFA_XSP16, literal(-20)))
        CFI (cfiCond204) V1 load(1, XDATA, add(CFA_XSP16, literal(-19)))
        CFI (cfiCond204) V2 load(1, XDATA, add(CFA_XSP16, literal(-18)))
        CFI (cfiCond204) V3 load(1, XDATA, add(CFA_XSP16, literal(-17)))
        CFI (cfiCond204) V4 load(1, XDATA, add(CFA_XSP16, literal(-16)))
        CFI (cfiCond204) V5 load(1, XDATA, add(CFA_XSP16, literal(-15)))
        CFI (cfiCond204) V6 load(1, XDATA, add(CFA_XSP16, literal(-14)))
        CFI (cfiCond204) V7 load(1, XDATA, add(CFA_XSP16, literal(-13)))
        CFI (cfiCond204) V8 load(1, XDATA, add(CFA_XSP16, literal(-12)))
        CFI (cfiCond204) V9 load(1, XDATA, add(CFA_XSP16, literal(-11)))
        CFI (cfiCond204) V10 load(1, XDATA, add(CFA_XSP16, literal(-10)))
        CFI (cfiCond204) V11 load(1, XDATA, add(CFA_XSP16, literal(-9)))
        CFI (cfiCond204) V12 load(1, XDATA, add(CFA_XSP16, literal(-8)))
        CFI (cfiCond204) V13 load(1, XDATA, add(CFA_XSP16, literal(-7)))
        CFI (cfiCond204) R7 load(1, XDATA, add(CFA_XSP16, literal(-6)))
        CFI (cfiCond204) ?RET_LOW load(1, XDATA, add(CFA_XSP16, literal(-5)))
        CFI (cfiCond204) ?RET_HIGH load(1, XDATA, add(CFA_XSP16, literal(-4)))
        CFI (cfiCond204) ?BRET_EXT load(1, XDATA, add(CFA_XSP16, literal(-3)))
        CFI (cfiCond204) DPL0 load(1, XDATA, add(CFA_XSP16, literal(-2)))
        CFI (cfiCond204) DPH0 load(1, XDATA, add(CFA_XSP16, literal(-1)))
        CFI (cfiCond204) CFA_SP SP+0
        CFI (cfiCond204) CFA_XSP16 add(XSP16, 23)
        CFI Block cfiCond205 Using cfiCommon0
        CFI (cfiCond205) NoFunction
        CFI (cfiCond205) Conditional ??CrossCallReturnLabel_183, ??CrossCallReturnLabel_181
        CFI (cfiCond205) R6 load(1, XDATA, add(CFA_XSP16, literal(-22)))
        CFI (cfiCond205) VB load(1, XDATA, add(CFA_XSP16, literal(-21)))
        CFI (cfiCond205) V0 load(1, XDATA, add(CFA_XSP16, literal(-20)))
        CFI (cfiCond205) V1 load(1, XDATA, add(CFA_XSP16, literal(-19)))
        CFI (cfiCond205) V2 load(1, XDATA, add(CFA_XSP16, literal(-18)))
        CFI (cfiCond205) V3 load(1, XDATA, add(CFA_XSP16, literal(-17)))
        CFI (cfiCond205) V4 load(1, XDATA, add(CFA_XSP16, literal(-16)))
        CFI (cfiCond205) V5 load(1, XDATA, add(CFA_XSP16, literal(-15)))
        CFI (cfiCond205) V6 load(1, XDATA, add(CFA_XSP16, literal(-14)))
        CFI (cfiCond205) V7 load(1, XDATA, add(CFA_XSP16, literal(-13)))
        CFI (cfiCond205) V8 load(1, XDATA, add(CFA_XSP16, literal(-12)))
        CFI (cfiCond205) V9 load(1, XDATA, add(CFA_XSP16, literal(-11)))
        CFI (cfiCond205) V10 load(1, XDATA, add(CFA_XSP16, literal(-10)))
        CFI (cfiCond205) V11 load(1, XDATA, add(CFA_XSP16, literal(-9)))
        CFI (cfiCond205) V12 load(1, XDATA, add(CFA_XSP16, literal(-8)))
        CFI (cfiCond205) V13 load(1, XDATA, add(CFA_XSP16, literal(-7)))
        CFI (cfiCond205) R7 load(1, XDATA, add(CFA_XSP16, literal(-6)))
        CFI (cfiCond205) ?RET_LOW load(1, XDATA, add(CFA_XSP16, literal(-5)))
        CFI (cfiCond205) ?RET_HIGH load(1, XDATA, add(CFA_XSP16, literal(-4)))
        CFI (cfiCond205) ?BRET_EXT load(1, XDATA, add(CFA_XSP16, literal(-3)))
        CFI (cfiCond205) DPL0 load(1, XDATA, add(CFA_XSP16, literal(-2)))
        CFI (cfiCond205) DPH0 load(1, XDATA, add(CFA_XSP16, literal(-1)))
        CFI (cfiCond205) CFA_SP SP+0
        CFI (cfiCond205) CFA_XSP16 add(XSP16, 23)
        CFI Block cfiPicker206 Using cfiCommon1
        CFI (cfiPicker206) NoFunction
        CFI (cfiPicker206) Picker
        MOVX    A,@DPTR
        MOV     DPL,R6
        MOV     DPH,R7
        MOVX    @DPTR,A
        INC     DPTR
        INC     R6
        MOV     R7,DPH
        RET
        CFI EndBlock cfiCond200
        CFI EndBlock cfiCond201
        CFI EndBlock cfiCond202
        CFI EndBlock cfiCond203
        CFI EndBlock cfiCond204
        CFI EndBlock cfiCond205
        CFI EndBlock cfiPicker206
// 1126 
// 1127 /*********************************************************************
// 1128  * @fn          ZDP_BindUnbindReq
// 1129  *
// 1130  * @brief       This builds and send a Bind_req or Unbind_req message
// 1131  *              Depending on the ClusterID. This function
// 1132  *              sends a unicast message to the local coordinator.
// 1133  *
// 1134  * @param       BindOrUnbind - either Bind_req or Unbind_req
// 1135  * @param       dstAddr - destination address of the message
// 1136  * @param       SourceAddr - source 64 bit address of the binding
// 1137  * @param       SrcEPIntf - Source endpoint/interface
// 1138  * @param       ClusterID - Binding cluster ID
// 1139  * @param       DestinationAddr - destination 64 bit addr of binding
// 1140  * @param       DstEPIntf - destination endpoint/interface
// 1141  * @param       SecurityEnable - Security Options
// 1142  *
// 1143  * @return      afStatus_t
// 1144  */

        RSEG BANKED_CODE:CODE:NOROOT(0)
// 1145 afStatus_t ZDP_BindUnbindReq( uint16 BindOrUnbind, zAddrType_t *dstAddr,
ZDP_BindUnbindReq:
        CFI Block cfiBlock207 Using cfiCommon0
        CFI Function ZDP_BindUnbindReq
        CODE
// 1146                               uint8 *SourceAddr, byte SrcEndPoint,
// 1147                               cId_t ClusterID,
// 1148                               zAddrType_t *destinationAddr, byte DstEndPoint,
// 1149                               byte SecurityEnable )
// 1150 {
        FUNCALL ZDP_BindUnbindReq, sAddrExtCpy
        LOCFRAME ISTACK, 0, STACK
        LOCFRAME PSTACK, 0, STACK
        LOCFRAME XSTACK, 22, STACK
        LOCFRAME IOVERLAY, 0, STATIC
        LOCFRAME DOVERLAY, 0, STATIC
        ARGFRAME ISTACK, 0, STACK
        ARGFRAME PSTACK, 0, STACK
        ARGFRAME XSTACK, 22, STACK
        ARGFRAME IOVERLAY, 0, STATIC
        ARGFRAME DOVERLAY, 0, STATIC
        FUNCALL ZDP_BindUnbindReq, sAddrExtCpy
        LOCFRAME ISTACK, 1, STACK
        LOCFRAME PSTACK, 0, STACK
        LOCFRAME XSTACK, 22, STACK
        LOCFRAME IOVERLAY, 0, STATIC
        LOCFRAME DOVERLAY, 0, STATIC
        ARGFRAME ISTACK, 1, STACK
        ARGFRAME PSTACK, 0, STACK
        ARGFRAME XSTACK, 22, STACK
        ARGFRAME IOVERLAY, 0, STATIC
        ARGFRAME DOVERLAY, 0, STATIC
        FUNCALL ZDP_BindUnbindReq, fillAndSend
        LOCFRAME ISTACK, 0, STACK
        LOCFRAME PSTACK, 0, STACK
        LOCFRAME XSTACK, 24, STACK
        LOCFRAME IOVERLAY, 0, STATIC
        LOCFRAME DOVERLAY, 0, STATIC
        ARGFRAME ISTACK, 0, STACK
        ARGFRAME PSTACK, 0, STACK
        ARGFRAME XSTACK, 24, STACK
        ARGFRAME IOVERLAY, 0, STATIC
        ARGFRAME DOVERLAY, 0, STATIC
        MOV     A,#-0x16
        LCALL   ?BANKED_ENTER_XDATA
        CFI DPH0 load(1, XDATA, add(CFA_XSP16, literal(-1)))
        CFI DPL0 load(1, XDATA, add(CFA_XSP16, literal(-2)))
        CFI ?BRET_EXT load(1, XDATA, add(CFA_XSP16, literal(-3)))
        CFI ?RET_HIGH load(1, XDATA, add(CFA_XSP16, literal(-4)))
        CFI ?RET_LOW load(1, XDATA, add(CFA_XSP16, literal(-5)))
        CFI R7 load(1, XDATA, add(CFA_XSP16, literal(-6)))
        CFI V13 load(1, XDATA, add(CFA_XSP16, literal(-7)))
        CFI V12 load(1, XDATA, add(CFA_XSP16, literal(-8)))
        CFI V11 load(1, XDATA, add(CFA_XSP16, literal(-9)))
        CFI V10 load(1, XDATA, add(CFA_XSP16, literal(-10)))
        CFI V9 load(1, XDATA, add(CFA_XSP16, literal(-11)))
        CFI V8 load(1, XDATA, add(CFA_XSP16, literal(-12)))
        CFI V7 load(1, XDATA, add(CFA_XSP16, literal(-13)))
        CFI V6 load(1, XDATA, add(CFA_XSP16, literal(-14)))
        CFI V5 load(1, XDATA, add(CFA_XSP16, literal(-15)))
        CFI V4 load(1, XDATA, add(CFA_XSP16, literal(-16)))
        CFI V3 load(1, XDATA, add(CFA_XSP16, literal(-17)))
        CFI V2 load(1, XDATA, add(CFA_XSP16, literal(-18)))
        CFI V1 load(1, XDATA, add(CFA_XSP16, literal(-19)))
        CFI V0 load(1, XDATA, add(CFA_XSP16, literal(-20)))
        CFI VB load(1, XDATA, add(CFA_XSP16, literal(-21)))
        CFI R6 load(1, XDATA, add(CFA_XSP16, literal(-22)))
        CFI CFA_SP SP+0
        CFI CFA_XSP16 add(XSP16, 22)
        ; Saved register size: 22
        ; Auto size: 0
        MOV     ?V0 + 0,R2
        MOV     ?V0 + 1,R3
        MOV     ?V0 + 12,R4
        MOV     ?V0 + 13,R5
        MOV     ?V0 + 8,R1
        MOV     A,#0x16
        LCALL   ?XSTACK_DISP0_8
        LCALL   ?Subroutine44 & 0xFFFF
??CrossCallReturnLabel_57:
        MOV     A,#0x18
        LCALL   ?XSTACK_DISP0_8
        LCALL   ??Subroutine108_0 & 0xFFFF
??CrossCallReturnLabel_225:
        MOV     A,#0x1a
        LCALL   ?XSTACK_DISP0_8
        LCALL   ?Subroutine77 & 0xFFFF
??CrossCallReturnLabel_112:
        MOV     A,#0x1c
        LCALL   ?XSTACK_DISP0_8
        MOVX    A,@DPTR
        MOV     ?V0 + 3,A
// 1151   uint8 *pBuf = ZDP_TmpBuf;
        LCALL   ?Subroutine39 & 0xFFFF
// 1152   byte len;
// 1153 
// 1154   (void)SecurityEnable;  // Intentionally unreferenced parameter
// 1155 
// 1156   // SourceAddr + SrcEPIntf + ClusterID +  addrMode.
// 1157   len = Z_EXTADDR_LEN + 1 + sizeof( cId_t ) + sizeof( uint8 );
??CrossCallReturnLabel_133:
        MOV     ?V0 + 2,#0xc
// 1158   if ( destinationAddr->addrMode == Addr64Bit )
        MOV     A,?V0 + 4
        ADD     A,#0x8
        MOV     ?V0 + 6,A
        MOV     A,?V0 + 5
        ADDC    A,#0x0
        MOV     ?V0 + 7,A
        MOV     DPL,?V0 + 6
        MOV     DPH,A
        MOVX    A,@DPTR
        MOV     R0,A
        MOV     A,#0x3
        XRL     A,R0
        JNZ     ??ZDP_BindUnbindReq_0
// 1159     len += Z_EXTADDR_LEN + 1;     // +1 for DstEPIntf
        MOV     ?V0 + 2,#0x15
        SJMP    ??ZDP_BindUnbindReq_1
// 1160   else if ( destinationAddr->addrMode == AddrGroup )
??ZDP_BindUnbindReq_0:
        MOV     A,#0x1
        XRL     A,R0
        JNZ     ??ZDP_BindUnbindReq_1
// 1161     len += sizeof ( uint16 );
        MOV     ?V0 + 2,#0xe
// 1162 
// 1163   pBuf = osal_cpyExtAddr( pBuf, SourceAddr );
??ZDP_BindUnbindReq_1:
        ; Setup parameters for call to function sAddrExtCpy
        LCALL   ?Subroutine69 & 0xFFFF
// 1164   *pBuf++ = SrcEndPoint;
??CrossCallReturnLabel_100:
        MOV     A,?V0 + 8
        MOVX    @DPTR,A
        INC     DPTR
// 1165 
// 1166   *pBuf++ = LO_UINT16( ClusterID );
        MOV     A,R6
        MOVX    @DPTR,A
        INC     DPTR
// 1167 
// 1168   *pBuf++ = HI_UINT16( ClusterID );
        MOV     A,R7
        LCALL   ??Subroutine110_0 & 0xFFFF
// 1169   *pBuf++ = destinationAddr->addrMode;
??CrossCallReturnLabel_244:
        MOV     DPL,?V0 + 6
        MOV     DPH,?V0 + 7
        LCALL   ?Subroutine37 & 0xFFFF
// 1170   if ( destinationAddr->addrMode == Addr64Bit )
??CrossCallReturnLabel_44:
        MOV     DPL,?V0 + 6
        MOV     DPH,?V0 + 7
        MOVX    A,@DPTR
        MOV     R0,A
        MOV     A,#0x3
        XRL     A,R0
        JNZ     ??ZDP_BindUnbindReq_2
// 1171   {
// 1172     pBuf = osal_cpyExtAddr( pBuf, destinationAddr->addr.extAddr );
// 1173     *pBuf = DstEndPoint;
        ; Setup parameters for call to function sAddrExtCpy
        MOV     R4,?V0 + 4
        MOV     R5,?V0 + 5
        LCALL   ?Subroutine69 & 0xFFFF
// 1174   }
??CrossCallReturnLabel_101:
        MOV     A,?V0 + 3
        SJMP    ??ZDP_BindUnbindReq_3
// 1175   else if ( destinationAddr->addrMode == AddrGroup )
??ZDP_BindUnbindReq_2:
        MOV     A,#0x1
        XRL     A,R0
        JNZ     ??ZDP_BindUnbindReq_4
// 1176   {
// 1177     *pBuf++ = LO_UINT16( destinationAddr->addr.shortAddr );
        MOV     DPL,?V0 + 4
        MOV     DPH,?V0 + 5
        LCALL   ?Subroutine37 & 0xFFFF
// 1178     *pBuf++ = HI_UINT16( destinationAddr->addr.shortAddr );
??CrossCallReturnLabel_45:
        MOV     DPL,?V0 + 4
        MOV     DPH,?V0 + 5
        INC     DPTR
        MOVX    A,@DPTR
        MOV     DPL,R2
        MOV     DPH,R3
??ZDP_BindUnbindReq_3:
        MOVX    @DPTR,A
// 1179   }
// 1180 
// 1181   FillAndSendTxOptions( &ZDP_TransID, dstAddr, BindOrUnbind, len, AF_MSG_ACK_REQUEST );
??ZDP_BindUnbindReq_4:
        MOV     DPTR,#ZDP_TxOptions
        MOV     A,#0x10
        MOVX    @DPTR,A
        ; Setup parameters for call to function fillAndSend
        MOV     R0,#?V0 + 0
        LCALL   ?PUSH_XSTACK_I_TWO
        CFI CFA_XSP16 add(XSP16, 24)
        MOV     R1,?V0 + 2
        MOV     R4,?V0 + 12
        MOV     R5,?V0 + 13
        LCALL   ??Subroutine106_0 & 0xFFFF
??CrossCallReturnLabel_204:
        LCALL   ?DEALLOC_XSTACK8
        CFI CFA_XSP16 add(XSP16, 22)
        MOV     DPTR,#ZDP_TxOptions
        CLR     A
        MOVX    @DPTR,A
        LJMP    ??Subroutine96_0 & 0xFFFF
        CFI EndBlock cfiBlock207
// 1182 }

        RSEG BANKED_CODE:CODE:NOROOT(0)
?Subroutine69:
        CFI Block cfiCond208 Using cfiCommon0
        CFI NoFunction
        CFI Conditional ??CrossCallReturnLabel_99
        CFI R6 load(1, XDATA, add(CFA_XSP16, literal(-14)))
        CFI VB load(1, XDATA, add(CFA_XSP16, literal(-13)))
        CFI V0 load(1, XDATA, add(CFA_XSP16, literal(-12)))
        CFI V1 load(1, XDATA, add(CFA_XSP16, literal(-11)))
        CFI V2 load(1, XDATA, add(CFA_XSP16, literal(-10)))
        CFI V3 load(1, XDATA, add(CFA_XSP16, literal(-9)))
        CFI V4 load(1, XDATA, add(CFA_XSP16, literal(-8)))
        CFI V5 load(1, XDATA, add(CFA_XSP16, literal(-7)))
        CFI R7 load(1, XDATA, add(CFA_XSP16, literal(-6)))
        CFI ?RET_LOW load(1, XDATA, add(CFA_XSP16, literal(-5)))
        CFI ?RET_HIGH load(1, XDATA, add(CFA_XSP16, literal(-4)))
        CFI ?BRET_EXT load(1, XDATA, add(CFA_XSP16, literal(-3)))
        CFI DPL0 load(1, XDATA, add(CFA_XSP16, literal(-2)))
        CFI DPH0 load(1, XDATA, add(CFA_XSP16, literal(-1)))
        CFI CFA_SP SP+0
        CFI CFA_XSP16 add(XSP16, 23)
        CFI Block cfiCond209 Using cfiCommon0
        CFI (cfiCond209) NoFunction
        CFI (cfiCond209) Conditional ??CrossCallReturnLabel_100
        CFI (cfiCond209) R6 load(1, XDATA, add(CFA_XSP16, literal(-22)))
        CFI (cfiCond209) VB load(1, XDATA, add(CFA_XSP16, literal(-21)))
        CFI (cfiCond209) V0 load(1, XDATA, add(CFA_XSP16, literal(-20)))
        CFI (cfiCond209) V1 load(1, XDATA, add(CFA_XSP16, literal(-19)))
        CFI (cfiCond209) V2 load(1, XDATA, add(CFA_XSP16, literal(-18)))
        CFI (cfiCond209) V3 load(1, XDATA, add(CFA_XSP16, literal(-17)))
        CFI (cfiCond209) V4 load(1, XDATA, add(CFA_XSP16, literal(-16)))
        CFI (cfiCond209) V5 load(1, XDATA, add(CFA_XSP16, literal(-15)))
        CFI (cfiCond209) V6 load(1, XDATA, add(CFA_XSP16, literal(-14)))
        CFI (cfiCond209) V7 load(1, XDATA, add(CFA_XSP16, literal(-13)))
        CFI (cfiCond209) V8 load(1, XDATA, add(CFA_XSP16, literal(-12)))
        CFI (cfiCond209) V9 load(1, XDATA, add(CFA_XSP16, literal(-11)))
        CFI (cfiCond209) V10 load(1, XDATA, add(CFA_XSP16, literal(-10)))
        CFI (cfiCond209) V11 load(1, XDATA, add(CFA_XSP16, literal(-9)))
        CFI (cfiCond209) V12 load(1, XDATA, add(CFA_XSP16, literal(-8)))
        CFI (cfiCond209) V13 load(1, XDATA, add(CFA_XSP16, literal(-7)))
        CFI (cfiCond209) R7 load(1, XDATA, add(CFA_XSP16, literal(-6)))
        CFI (cfiCond209) ?RET_LOW load(1, XDATA, add(CFA_XSP16, literal(-5)))
        CFI (cfiCond209) ?RET_HIGH load(1, XDATA, add(CFA_XSP16, literal(-4)))
        CFI (cfiCond209) ?BRET_EXT load(1, XDATA, add(CFA_XSP16, literal(-3)))
        CFI (cfiCond209) DPL0 load(1, XDATA, add(CFA_XSP16, literal(-2)))
        CFI (cfiCond209) DPH0 load(1, XDATA, add(CFA_XSP16, literal(-1)))
        CFI (cfiCond209) CFA_SP SP+0
        CFI (cfiCond209) CFA_XSP16 add(XSP16, 22)
        CFI Block cfiCond210 Using cfiCommon0
        CFI (cfiCond210) NoFunction
        CFI (cfiCond210) Conditional ??CrossCallReturnLabel_101
        CFI (cfiCond210) R6 load(1, XDATA, add(CFA_XSP16, literal(-22)))
        CFI (cfiCond210) VB load(1, XDATA, add(CFA_XSP16, literal(-21)))
        CFI (cfiCond210) V0 load(1, XDATA, add(CFA_XSP16, literal(-20)))
        CFI (cfiCond210) V1 load(1, XDATA, add(CFA_XSP16, literal(-19)))
        CFI (cfiCond210) V2 load(1, XDATA, add(CFA_XSP16, literal(-18)))
        CFI (cfiCond210) V3 load(1, XDATA, add(CFA_XSP16, literal(-17)))
        CFI (cfiCond210) V4 load(1, XDATA, add(CFA_XSP16, literal(-16)))
        CFI (cfiCond210) V5 load(1, XDATA, add(CFA_XSP16, literal(-15)))
        CFI (cfiCond210) V6 load(1, XDATA, add(CFA_XSP16, literal(-14)))
        CFI (cfiCond210) V7 load(1, XDATA, add(CFA_XSP16, literal(-13)))
        CFI (cfiCond210) V8 load(1, XDATA, add(CFA_XSP16, literal(-12)))
        CFI (cfiCond210) V9 load(1, XDATA, add(CFA_XSP16, literal(-11)))
        CFI (cfiCond210) V10 load(1, XDATA, add(CFA_XSP16, literal(-10)))
        CFI (cfiCond210) V11 load(1, XDATA, add(CFA_XSP16, literal(-9)))
        CFI (cfiCond210) V12 load(1, XDATA, add(CFA_XSP16, literal(-8)))
        CFI (cfiCond210) V13 load(1, XDATA, add(CFA_XSP16, literal(-7)))
        CFI (cfiCond210) R7 load(1, XDATA, add(CFA_XSP16, literal(-6)))
        CFI (cfiCond210) ?RET_LOW load(1, XDATA, add(CFA_XSP16, literal(-5)))
        CFI (cfiCond210) ?RET_HIGH load(1, XDATA, add(CFA_XSP16, literal(-4)))
        CFI (cfiCond210) ?BRET_EXT load(1, XDATA, add(CFA_XSP16, literal(-3)))
        CFI (cfiCond210) DPL0 load(1, XDATA, add(CFA_XSP16, literal(-2)))
        CFI (cfiCond210) DPH0 load(1, XDATA, add(CFA_XSP16, literal(-1)))
        CFI (cfiCond210) CFA_SP SP+0
        CFI (cfiCond210) CFA_XSP16 add(XSP16, 22)
        CFI Block cfiPicker211 Using cfiCommon1
        CFI (cfiPicker211) NoFunction
        CFI (cfiPicker211) Picker
        LCALL   ??sAddrExtCpy?relay
        MOV     DPL,R2
        MOV     DPH,R3
        RET
        CFI EndBlock cfiCond208
        CFI EndBlock cfiCond209
        CFI EndBlock cfiCond210
        CFI EndBlock cfiPicker211
// 1183 
// 1184 /*********************************************************************
// 1185  * Network Management
// 1186  */
// 1187 
// 1188 /*********************************************************************
// 1189  * @fn          ZDP_MgmtNwkDiscReq
// 1190  *
// 1191  * @brief       This builds and send a Mgmt_NWK_Disc_req message. This
// 1192  *              function sends a unicast message.
// 1193  *
// 1194  * @param       dstAddr - destination address of the message
// 1195  * @param       ScanChannels - 32 bit address bit map
// 1196  * @param       StartIndex - Starting index within the reporting network
// 1197  *                           list
// 1198  * @param       SecurityEnable - Security Options
// 1199  *
// 1200  * @return      afStatus_t
// 1201  */

        RSEG BANKED_CODE:CODE:NOROOT(0)
// 1202 afStatus_t ZDP_MgmtNwkDiscReq( zAddrType_t *dstAddr,
ZDP_MgmtNwkDiscReq:
        CFI Block cfiBlock212 Using cfiCommon0
        CFI Function ZDP_MgmtNwkDiscReq
        CODE
// 1203                                uint32 ScanChannels,
// 1204                                byte ScanDuration,
// 1205                                byte StartIndex,
// 1206                                byte SecurityEnable )
// 1207 {
        FUNCALL ZDP_MgmtNwkDiscReq, osal_buffer_uint32
        LOCFRAME ISTACK, 0, STACK
        LOCFRAME PSTACK, 0, STACK
        LOCFRAME XSTACK, 20, STACK
        LOCFRAME IOVERLAY, 0, STATIC
        LOCFRAME DOVERLAY, 0, STATIC
        ARGFRAME ISTACK, 0, STACK
        ARGFRAME PSTACK, 0, STACK
        ARGFRAME XSTACK, 20, STACK
        ARGFRAME IOVERLAY, 0, STATIC
        ARGFRAME DOVERLAY, 0, STATIC
        FUNCALL ZDP_MgmtNwkDiscReq, fillAndSend
        LOCFRAME ISTACK, 0, STACK
        LOCFRAME PSTACK, 0, STACK
        LOCFRAME XSTACK, 18, STACK
        LOCFRAME IOVERLAY, 0, STATIC
        LOCFRAME DOVERLAY, 0, STATIC
        ARGFRAME ISTACK, 0, STACK
        ARGFRAME PSTACK, 0, STACK
        ARGFRAME XSTACK, 18, STACK
        ARGFRAME IOVERLAY, 0, STATIC
        ARGFRAME DOVERLAY, 0, STATIC
        MOV     A,#-0x10
        LCALL   ?BANKED_ENTER_XDATA
        CFI DPH0 load(1, XDATA, add(CFA_XSP16, literal(-1)))
        CFI DPL0 load(1, XDATA, add(CFA_XSP16, literal(-2)))
        CFI ?BRET_EXT load(1, XDATA, add(CFA_XSP16, literal(-3)))
        CFI ?RET_HIGH load(1, XDATA, add(CFA_XSP16, literal(-4)))
        CFI ?RET_LOW load(1, XDATA, add(CFA_XSP16, literal(-5)))
        CFI R7 load(1, XDATA, add(CFA_XSP16, literal(-6)))
        CFI V7 load(1, XDATA, add(CFA_XSP16, literal(-7)))
        CFI V6 load(1, XDATA, add(CFA_XSP16, literal(-8)))
        CFI V5 load(1, XDATA, add(CFA_XSP16, literal(-9)))
        CFI V4 load(1, XDATA, add(CFA_XSP16, literal(-10)))
        CFI V3 load(1, XDATA, add(CFA_XSP16, literal(-11)))
        CFI V2 load(1, XDATA, add(CFA_XSP16, literal(-12)))
        CFI V1 load(1, XDATA, add(CFA_XSP16, literal(-13)))
        CFI V0 load(1, XDATA, add(CFA_XSP16, literal(-14)))
        CFI VB load(1, XDATA, add(CFA_XSP16, literal(-15)))
        CFI R6 load(1, XDATA, add(CFA_XSP16, literal(-16)))
        CFI CFA_SP SP+0
        CFI CFA_XSP16 add(XSP16, 16)
        ; Saved register size: 16
        ; Auto size: 0
        MOV     A,R2
        MOV     R6,A
        MOV     A,R3
        MOV     R7,A
        MOV     ?V0 + 0,R1
        MOV     ?V0 + 1,R4
        MOV     A,#0x10
        LCALL   ?XSTACK_DISP0_8
        MOV     R0,#?V0 + 4
        LCALL   ?L_MOV_X
// 1208   uint8 *pBuf = ZDP_TmpBuf;
// 1209   byte len = sizeof( uint32 )+1+1;  // ScanChannels + ScanDuration + StartIndex.
// 1210 
// 1211   (void)SecurityEnable;  // Intentionally unreferenced parameter
// 1212 
// 1213   pBuf = osal_buffer_uint32( pBuf, ScanChannels );
        ; Setup parameters for call to function osal_buffer_uint32
        MOV     R0,#?V0 + 4
        LCALL   ?PUSH_XSTACK_I_FOUR
        CFI CFA_XSP16 add(XSP16, 20)
        LCALL   ?Subroutine38 & 0xFFFF
??CrossCallReturnLabel_47:
        LCALL   ?DEALLOC_XSTACK8
        CFI CFA_XSP16 add(XSP16, 16)
        MOV     DPL,R2
        MOV     DPH,R3
// 1214 
// 1215   *pBuf++ = ScanDuration;
        MOV     A,?V0 + 0
        MOVX    @DPTR,A
        INC     DPTR
// 1216   *pBuf = StartIndex;
        MOV     A,?V0 + 1
        MOVX    @DPTR,A
// 1217 
// 1218   return fillAndSend( &ZDP_TransID, dstAddr, Mgmt_NWK_Disc_req, len );
        ; Setup parameters for call to function fillAndSend
        MOV     ?V0 + 2,#0x30
        MOV     ?V0 + 3,#0x0
        MOV     R0,#?V0 + 2
        LCALL   ?PUSH_XSTACK_I_TWO
        CFI CFA_XSP16 add(XSP16, 18)
        MOV     R1,#0x6
        MOV     A,R6
        MOV     R4,A
        MOV     A,R7
        MOV     R5,A
        LCALL   ??Subroutine106_0 & 0xFFFF
??CrossCallReturnLabel_205:
        LJMP    ?Subroutine0 & 0xFFFF
        CFI EndBlock cfiBlock212
// 1219 }
// 1220 
// 1221 /*********************************************************************
// 1222  * @fn          ZDP_MgmtDirectJoinReq
// 1223  *
// 1224  * @brief       This builds and send a Mgmt_Direct_Join_req message. This
// 1225  *              function sends a unicast message.
// 1226  *
// 1227  * @param       dstAddr - destination address of the message
// 1228  * @param       deviceAddr - 64 bit IEEE Address
// 1229  * @param       SecurityEnable - Security Options
// 1230  *
// 1231  * @return      afStatus_t
// 1232  */

        RSEG BANKED_CODE:CODE:NOROOT(0)
// 1233 afStatus_t ZDP_MgmtDirectJoinReq( zAddrType_t *dstAddr,
ZDP_MgmtDirectJoinReq:
        CFI Block cfiBlock213 Using cfiCommon0
        CFI Function ZDP_MgmtDirectJoinReq
        CODE
// 1234                                uint8 *deviceAddr,
// 1235                                byte capInfo,
// 1236                                byte SecurityEnable )
// 1237 {
        FUNCALL ZDP_MgmtDirectJoinReq, sAddrExtCpy
        LOCFRAME ISTACK, 0, STACK
        LOCFRAME PSTACK, 0, STACK
        LOCFRAME XSTACK, 12, STACK
        LOCFRAME IOVERLAY, 0, STATIC
        LOCFRAME DOVERLAY, 0, STATIC
        ARGFRAME ISTACK, 0, STACK
        ARGFRAME PSTACK, 0, STACK
        ARGFRAME XSTACK, 12, STACK
        ARGFRAME IOVERLAY, 0, STATIC
        ARGFRAME DOVERLAY, 0, STATIC
        FUNCALL ZDP_MgmtDirectJoinReq, fillAndSend
        LOCFRAME ISTACK, 0, STACK
        LOCFRAME PSTACK, 0, STACK
        LOCFRAME XSTACK, 14, STACK
        LOCFRAME IOVERLAY, 0, STATIC
        LOCFRAME DOVERLAY, 0, STATIC
        ARGFRAME ISTACK, 0, STACK
        ARGFRAME PSTACK, 0, STACK
        ARGFRAME XSTACK, 14, STACK
        ARGFRAME IOVERLAY, 0, STATIC
        ARGFRAME DOVERLAY, 0, STATIC
        MOV     A,#-0xc
        LCALL   ?BANKED_ENTER_XDATA
        CFI DPH0 load(1, XDATA, add(CFA_XSP16, literal(-1)))
        CFI DPL0 load(1, XDATA, add(CFA_XSP16, literal(-2)))
        CFI ?BRET_EXT load(1, XDATA, add(CFA_XSP16, literal(-3)))
        CFI ?RET_HIGH load(1, XDATA, add(CFA_XSP16, literal(-4)))
        CFI ?RET_LOW load(1, XDATA, add(CFA_XSP16, literal(-5)))
        CFI R7 load(1, XDATA, add(CFA_XSP16, literal(-6)))
        CFI V3 load(1, XDATA, add(CFA_XSP16, literal(-7)))
        CFI V2 load(1, XDATA, add(CFA_XSP16, literal(-8)))
        CFI V1 load(1, XDATA, add(CFA_XSP16, literal(-9)))
        CFI V0 load(1, XDATA, add(CFA_XSP16, literal(-10)))
        CFI VB load(1, XDATA, add(CFA_XSP16, literal(-11)))
        CFI R6 load(1, XDATA, add(CFA_XSP16, literal(-12)))
        CFI CFA_SP SP+0
        CFI CFA_XSP16 add(XSP16, 12)
        ; Saved register size: 12
        ; Auto size: 0
        MOV     A,R2
        MOV     R6,A
        MOV     A,R3
        MOV     R7,A
        MOV     ?V0 + 0,R1
// 1238   (void)SecurityEnable;  // Intentionally unreferenced parameter
// 1239 
// 1240   osal_cpyExtAddr( ZDP_TmpBuf, deviceAddr );
        ; Setup parameters for call to function sAddrExtCpy
        MOV     DPTR,#ZDP_TmpBuf
        MOVX    A,@DPTR
        MOV     R2,A
        INC     DPTR
        MOVX    A,@DPTR
        LCALL   ?Subroutine22 & 0xFFFF
// 1241   ZDP_TmpBuf[Z_EXTADDR_LEN] = capInfo;
??CrossCallReturnLabel_19:
        MOV     A,?V0 + 0
        MOVX    @DPTR,A
// 1242 
// 1243   return fillAndSend( &ZDP_TransID, dstAddr, Mgmt_Direct_Join_req, (Z_EXTADDR_LEN + 1) );
        ; Setup parameters for call to function fillAndSend
        MOV     ?V0 + 2,#0x35
        CFI EndBlock cfiBlock213
        REQUIRE ?Subroutine6
        ; // Fall through to label ?Subroutine6
// 1244 }

        RSEG BANKED_CODE:CODE:NOROOT(0)
?Subroutine6:
        CFI Block cfiBlock214 Using cfiCommon0
        CFI NoFunction
        CFI CFA_SP SP+0
        CFI CFA_XSP16 add(XSP16, 12)
        CFI VB load(1, XDATA, add(CFA_XSP16, literal(-11)))
        CFI DPL0 load(1, XDATA, add(CFA_XSP16, literal(-2)))
        CFI DPH0 load(1, XDATA, add(CFA_XSP16, literal(-1)))
        CFI R6 load(1, XDATA, add(CFA_XSP16, literal(-12)))
        CFI R7 load(1, XDATA, add(CFA_XSP16, literal(-6)))
        CFI V0 load(1, XDATA, add(CFA_XSP16, literal(-10)))
        CFI V1 load(1, XDATA, add(CFA_XSP16, literal(-9)))
        CFI V2 load(1, XDATA, add(CFA_XSP16, literal(-8)))
        CFI V3 load(1, XDATA, add(CFA_XSP16, literal(-7)))
        CFI ?BRET_EXT load(1, XDATA, add(CFA_XSP16, literal(-3)))
        CFI ?RET_HIGH load(1, XDATA, add(CFA_XSP16, literal(-4)))
        CFI ?RET_LOW load(1, XDATA, add(CFA_XSP16, literal(-5)))
        MOV     ?V0 + 3,#0x0
        MOV     R0,#?V0 + 2
        LCALL   ?PUSH_XSTACK_I_TWO
        CFI CFA_XSP16 add(XSP16, 14)
        MOV     R1,#0x9
        MOV     A,R6
        MOV     R4,A
        MOV     A,R7
        MOV     R5,A
        LCALL   ??Subroutine106_0 & 0xFFFF
??CrossCallReturnLabel_206:
        LCALL   ?DEALLOC_XSTACK8
        CFI CFA_XSP16 add(XSP16, 12)
        MOV     R7,#0x4
        LJMP    ?BANKED_LEAVE_XDATA
        CFI EndBlock cfiBlock214

        RSEG BANKED_CODE:CODE:NOROOT(0)
?Subroutine22:
        CFI Block cfiCond215 Using cfiCommon0
        CFI NoFunction
        CFI Conditional ??CrossCallReturnLabel_18
        CFI R6 load(1, XDATA, add(CFA_XSP16, literal(-10)))
        CFI VB load(1, XDATA, add(CFA_XSP16, literal(-9)))
        CFI V0 load(1, XDATA, add(CFA_XSP16, literal(-8)))
        CFI V1 load(1, XDATA, add(CFA_XSP16, literal(-7)))
        CFI R7 load(1, XDATA, add(CFA_XSP16, literal(-6)))
        CFI ?RET_LOW load(1, XDATA, add(CFA_XSP16, literal(-5)))
        CFI ?RET_HIGH load(1, XDATA, add(CFA_XSP16, literal(-4)))
        CFI ?BRET_EXT load(1, XDATA, add(CFA_XSP16, literal(-3)))
        CFI DPL0 load(1, XDATA, add(CFA_XSP16, literal(-2)))
        CFI DPH0 load(1, XDATA, add(CFA_XSP16, literal(-1)))
        CFI CFA_SP SP+0
        CFI CFA_XSP16 add(XSP16, 19)
        CFI Block cfiCond216 Using cfiCommon0
        CFI (cfiCond216) NoFunction
        CFI (cfiCond216) Conditional ??CrossCallReturnLabel_19
        CFI (cfiCond216) R6 load(1, XDATA, add(CFA_XSP16, literal(-12)))
        CFI (cfiCond216) VB load(1, XDATA, add(CFA_XSP16, literal(-11)))
        CFI (cfiCond216) V0 load(1, XDATA, add(CFA_XSP16, literal(-10)))
        CFI (cfiCond216) V1 load(1, XDATA, add(CFA_XSP16, literal(-9)))
        CFI (cfiCond216) V2 load(1, XDATA, add(CFA_XSP16, literal(-8)))
        CFI (cfiCond216) V3 load(1, XDATA, add(CFA_XSP16, literal(-7)))
        CFI (cfiCond216) R7 load(1, XDATA, add(CFA_XSP16, literal(-6)))
        CFI (cfiCond216) ?RET_LOW load(1, XDATA, add(CFA_XSP16, literal(-5)))
        CFI (cfiCond216) ?RET_HIGH load(1, XDATA, add(CFA_XSP16, literal(-4)))
        CFI (cfiCond216) ?BRET_EXT load(1, XDATA, add(CFA_XSP16, literal(-3)))
        CFI (cfiCond216) DPL0 load(1, XDATA, add(CFA_XSP16, literal(-2)))
        CFI (cfiCond216) DPH0 load(1, XDATA, add(CFA_XSP16, literal(-1)))
        CFI (cfiCond216) CFA_SP SP+0
        CFI (cfiCond216) CFA_XSP16 add(XSP16, 12)
        CFI Block cfiPicker217 Using cfiCommon1
        CFI (cfiPicker217) NoFunction
        CFI (cfiPicker217) Picker
        MOV     R3,A
        LCALL   ??sAddrExtCpy?relay
        LCALL   ?Subroutine76 & 0xFFFF
??CrossCallReturnLabel_122:
        INC     DPTR
        INC     DPTR
        INC     DPTR
        INC     DPTR
        INC     DPTR
        INC     DPTR
        INC     DPTR
        RET
        CFI EndBlock cfiCond215
        CFI EndBlock cfiCond216
        CFI EndBlock cfiPicker217
// 1245 
// 1246 /*********************************************************************
// 1247  * @fn          ZDP_MgmtPermitJoinReq
// 1248  *
// 1249  * @brief       This builds and send a Mgmt_Permit_Join_req message.
// 1250  *
// 1251  * @param       dstAddr - destination address of the message
// 1252  * @param       duration - Permit duration
// 1253  * @param       TcSignificance - Trust Center Significance
// 1254  *
// 1255  * @return      afStatus_t
// 1256  */

        RSEG BANKED_CODE:CODE:NOROOT(0)
// 1257 afStatus_t ZDP_MgmtPermitJoinReq( zAddrType_t *dstAddr, byte duration,
ZDP_MgmtPermitJoinReq:
        CFI Block cfiBlock218 Using cfiCommon0
        CFI Function ZDP_MgmtPermitJoinReq
        CODE
// 1258                                   byte TcSignificance, byte SecurityEnable )
// 1259 {
        FUNCALL ZDP_MgmtPermitJoinReq, fillAndSend
        LOCFRAME ISTACK, 0, STACK
        LOCFRAME PSTACK, 0, STACK
        LOCFRAME XSTACK, 12, STACK
        LOCFRAME IOVERLAY, 0, STATIC
        LOCFRAME DOVERLAY, 0, STATIC
        ARGFRAME ISTACK, 0, STACK
        ARGFRAME PSTACK, 0, STACK
        ARGFRAME XSTACK, 12, STACK
        ARGFRAME IOVERLAY, 0, STATIC
        ARGFRAME DOVERLAY, 0, STATIC
        MOV     A,#-0xa
        LCALL   ?BANKED_ENTER_XDATA
        CFI DPH0 load(1, XDATA, add(CFA_XSP16, literal(-1)))
        CFI DPL0 load(1, XDATA, add(CFA_XSP16, literal(-2)))
        CFI ?BRET_EXT load(1, XDATA, add(CFA_XSP16, literal(-3)))
        CFI ?RET_HIGH load(1, XDATA, add(CFA_XSP16, literal(-4)))
        CFI ?RET_LOW load(1, XDATA, add(CFA_XSP16, literal(-5)))
        CFI R7 load(1, XDATA, add(CFA_XSP16, literal(-6)))
        CFI V1 load(1, XDATA, add(CFA_XSP16, literal(-7)))
        CFI V0 load(1, XDATA, add(CFA_XSP16, literal(-8)))
        CFI VB load(1, XDATA, add(CFA_XSP16, literal(-9)))
        CFI R6 load(1, XDATA, add(CFA_XSP16, literal(-10)))
        CFI CFA_SP SP+0
        CFI CFA_XSP16 add(XSP16, 10)
        ; Saved register size: 10
        ; Auto size: 0
// 1260   (void)SecurityEnable;  // Intentionally unreferenced parameter
// 1261 
// 1262   // Build buffer
// 1263   ZDP_TmpBuf[ZDP_MGMT_PERMIT_JOIN_REQ_DURATION] = duration;
        LCALL   ?Subroutine29 & 0xFFFF
??CrossCallReturnLabel_147:
        MOV     A,R1
        LCALL   ?Subroutine28 & 0xFFFF
// 1264   ZDP_TmpBuf[ZDP_MGMT_PERMIT_JOIN_REQ_TC_SIG]   = TcSignificance;
??CrossCallReturnLabel_119:
        MOV     A,R4
        MOVX    @DPTR,A
// 1265 
// 1266   // Send the message
// 1267   return fillAndSend( &ZDP_TransID, dstAddr, Mgmt_Permit_Join_req,
// 1268                       ZDP_MGMT_PERMIT_JOIN_REQ_SIZE );
        ; Setup parameters for call to function fillAndSend
        MOV     ?V0 + 0,#0x36
        LJMP    ?Subroutine2 & 0xFFFF
        CFI EndBlock cfiBlock218
// 1269 }

        RSEG BANKED_CODE:CODE:NOROOT(0)
?Subroutine29:
        CFI Block cfiCond219 Using cfiCommon0
        CFI NoFunction
        CFI Conditional ??CrossCallReturnLabel_146
        CFI R6 load(1, XDATA, add(CFA_XSP16, literal(-10)))
        CFI VB load(1, XDATA, add(CFA_XSP16, literal(-9)))
        CFI V0 load(1, XDATA, add(CFA_XSP16, literal(-8)))
        CFI V1 load(1, XDATA, add(CFA_XSP16, literal(-7)))
        CFI R7 load(1, XDATA, add(CFA_XSP16, literal(-6)))
        CFI ?RET_LOW load(1, XDATA, add(CFA_XSP16, literal(-5)))
        CFI ?RET_HIGH load(1, XDATA, add(CFA_XSP16, literal(-4)))
        CFI ?BRET_EXT load(1, XDATA, add(CFA_XSP16, literal(-3)))
        CFI DPL0 load(1, XDATA, add(CFA_XSP16, literal(-2)))
        CFI DPH0 load(1, XDATA, add(CFA_XSP16, literal(-1)))
        CFI CFA_SP SP+0
        CFI CFA_XSP16 add(XSP16, 19)
        CFI Block cfiCond220 Using cfiCommon0
        CFI (cfiCond220) NoFunction
        CFI (cfiCond220) Conditional ??CrossCallReturnLabel_147
        CFI (cfiCond220) R6 load(1, XDATA, add(CFA_XSP16, literal(-10)))
        CFI (cfiCond220) VB load(1, XDATA, add(CFA_XSP16, literal(-9)))
        CFI (cfiCond220) V0 load(1, XDATA, add(CFA_XSP16, literal(-8)))
        CFI (cfiCond220) V1 load(1, XDATA, add(CFA_XSP16, literal(-7)))
        CFI (cfiCond220) R7 load(1, XDATA, add(CFA_XSP16, literal(-6)))
        CFI (cfiCond220) ?RET_LOW load(1, XDATA, add(CFA_XSP16, literal(-5)))
        CFI (cfiCond220) ?RET_HIGH load(1, XDATA, add(CFA_XSP16, literal(-4)))
        CFI (cfiCond220) ?BRET_EXT load(1, XDATA, add(CFA_XSP16, literal(-3)))
        CFI (cfiCond220) DPL0 load(1, XDATA, add(CFA_XSP16, literal(-2)))
        CFI (cfiCond220) DPH0 load(1, XDATA, add(CFA_XSP16, literal(-1)))
        CFI (cfiCond220) CFA_SP SP+0
        CFI (cfiCond220) CFA_XSP16 add(XSP16, 10)
        CFI Block cfiCond221 Using cfiCommon0
        CFI (cfiCond221) NoFunction
        CFI (cfiCond221) Conditional ??CrossCallReturnLabel_148
        CFI (cfiCond221) R6 load(1, XDATA, add(CFA_XSP16, literal(-22)))
        CFI (cfiCond221) VB load(1, XDATA, add(CFA_XSP16, literal(-21)))
        CFI (cfiCond221) V0 load(1, XDATA, add(CFA_XSP16, literal(-20)))
        CFI (cfiCond221) V1 load(1, XDATA, add(CFA_XSP16, literal(-19)))
        CFI (cfiCond221) V2 load(1, XDATA, add(CFA_XSP16, literal(-18)))
        CFI (cfiCond221) V3 load(1, XDATA, add(CFA_XSP16, literal(-17)))
        CFI (cfiCond221) V4 load(1, XDATA, add(CFA_XSP16, literal(-16)))
        CFI (cfiCond221) V5 load(1, XDATA, add(CFA_XSP16, literal(-15)))
        CFI (cfiCond221) V6 load(1, XDATA, add(CFA_XSP16, literal(-14)))
        CFI (cfiCond221) V7 load(1, XDATA, add(CFA_XSP16, literal(-13)))
        CFI (cfiCond221) V8 load(1, XDATA, add(CFA_XSP16, literal(-12)))
        CFI (cfiCond221) V9 load(1, XDATA, add(CFA_XSP16, literal(-11)))
        CFI (cfiCond221) V10 load(1, XDATA, add(CFA_XSP16, literal(-10)))
        CFI (cfiCond221) V11 load(1, XDATA, add(CFA_XSP16, literal(-9)))
        CFI (cfiCond221) V12 load(1, XDATA, add(CFA_XSP16, literal(-8)))
        CFI (cfiCond221) V13 load(1, XDATA, add(CFA_XSP16, literal(-7)))
        CFI (cfiCond221) R7 load(1, XDATA, add(CFA_XSP16, literal(-6)))
        CFI (cfiCond221) ?RET_LOW load(1, XDATA, add(CFA_XSP16, literal(-5)))
        CFI (cfiCond221) ?RET_HIGH load(1, XDATA, add(CFA_XSP16, literal(-4)))
        CFI (cfiCond221) ?BRET_EXT load(1, XDATA, add(CFA_XSP16, literal(-3)))
        CFI (cfiCond221) DPL0 load(1, XDATA, add(CFA_XSP16, literal(-2)))
        CFI (cfiCond221) DPH0 load(1, XDATA, add(CFA_XSP16, literal(-1)))
        CFI (cfiCond221) CFA_SP SP+0
        CFI (cfiCond221) CFA_XSP16 add(XSP16, 23)
        CFI Block cfiPicker222 Using cfiCommon1
        CFI (cfiPicker222) NoFunction
        CFI (cfiPicker222) Picker
        MOV     DPTR,#ZDP_TmpBuf
        CFI EndBlock cfiCond219
        CFI EndBlock cfiCond220
        CFI EndBlock cfiCond221
        CFI EndBlock cfiPicker222
        REQUIRE ??Subroutine94_0
        ; // Fall through to label ??Subroutine94_0

        RSEG BANKED_CODE:CODE:NOROOT(0)
??Subroutine94_0:
        CFI Block cfiCond223 Using cfiCommon0
        CFI NoFunction
        CFI Conditional ??CrossCallReturnLabel_145
        CFI R6 load(1, XDATA, add(CFA_XSP16, literal(-10)))
        CFI VB load(1, XDATA, add(CFA_XSP16, literal(-9)))
        CFI V0 load(1, XDATA, add(CFA_XSP16, literal(-8)))
        CFI V1 load(1, XDATA, add(CFA_XSP16, literal(-7)))
        CFI R7 load(1, XDATA, add(CFA_XSP16, literal(-6)))
        CFI ?RET_LOW load(1, XDATA, add(CFA_XSP16, literal(-5)))
        CFI ?RET_HIGH load(1, XDATA, add(CFA_XSP16, literal(-4)))
        CFI ?BRET_EXT load(1, XDATA, add(CFA_XSP16, literal(-3)))
        CFI DPL0 load(1, XDATA, add(CFA_XSP16, literal(-2)))
        CFI DPH0 load(1, XDATA, add(CFA_XSP16, literal(-1)))
        CFI CFA_SP SP+0
        CFI CFA_XSP16 add(XSP16, 31)
        CFI Block cfiCond224 Using cfiCommon0
        CFI (cfiCond224) NoFunction
        CFI (cfiCond224) Conditional ??CrossCallReturnLabel_146
        CFI (cfiCond224) R6 load(1, XDATA, add(CFA_XSP16, literal(-10)))
        CFI (cfiCond224) VB load(1, XDATA, add(CFA_XSP16, literal(-9)))
        CFI (cfiCond224) V0 load(1, XDATA, add(CFA_XSP16, literal(-8)))
        CFI (cfiCond224) V1 load(1, XDATA, add(CFA_XSP16, literal(-7)))
        CFI (cfiCond224) R7 load(1, XDATA, add(CFA_XSP16, literal(-6)))
        CFI (cfiCond224) ?RET_LOW load(1, XDATA, add(CFA_XSP16, literal(-5)))
        CFI (cfiCond224) ?RET_HIGH load(1, XDATA, add(CFA_XSP16, literal(-4)))
        CFI (cfiCond224) ?BRET_EXT load(1, XDATA, add(CFA_XSP16, literal(-3)))
        CFI (cfiCond224) DPL0 load(1, XDATA, add(CFA_XSP16, literal(-2)))
        CFI (cfiCond224) DPH0 load(1, XDATA, add(CFA_XSP16, literal(-1)))
        CFI (cfiCond224) CFA_SP SP+0
        CFI (cfiCond224) CFA_XSP16 add(XSP16, 19)
        CFI Block cfiCond225 Using cfiCommon0
        CFI (cfiCond225) NoFunction
        CFI (cfiCond225) Conditional ??CrossCallReturnLabel_147
        CFI (cfiCond225) R6 load(1, XDATA, add(CFA_XSP16, literal(-10)))
        CFI (cfiCond225) VB load(1, XDATA, add(CFA_XSP16, literal(-9)))
        CFI (cfiCond225) V0 load(1, XDATA, add(CFA_XSP16, literal(-8)))
        CFI (cfiCond225) V1 load(1, XDATA, add(CFA_XSP16, literal(-7)))
        CFI (cfiCond225) R7 load(1, XDATA, add(CFA_XSP16, literal(-6)))
        CFI (cfiCond225) ?RET_LOW load(1, XDATA, add(CFA_XSP16, literal(-5)))
        CFI (cfiCond225) ?RET_HIGH load(1, XDATA, add(CFA_XSP16, literal(-4)))
        CFI (cfiCond225) ?BRET_EXT load(1, XDATA, add(CFA_XSP16, literal(-3)))
        CFI (cfiCond225) DPL0 load(1, XDATA, add(CFA_XSP16, literal(-2)))
        CFI (cfiCond225) DPH0 load(1, XDATA, add(CFA_XSP16, literal(-1)))
        CFI (cfiCond225) CFA_SP SP+0
        CFI (cfiCond225) CFA_XSP16 add(XSP16, 10)
        CFI Block cfiCond226 Using cfiCommon0
        CFI (cfiCond226) NoFunction
        CFI (cfiCond226) Conditional ??CrossCallReturnLabel_148
        CFI (cfiCond226) R6 load(1, XDATA, add(CFA_XSP16, literal(-22)))
        CFI (cfiCond226) VB load(1, XDATA, add(CFA_XSP16, literal(-21)))
        CFI (cfiCond226) V0 load(1, XDATA, add(CFA_XSP16, literal(-20)))
        CFI (cfiCond226) V1 load(1, XDATA, add(CFA_XSP16, literal(-19)))
        CFI (cfiCond226) V2 load(1, XDATA, add(CFA_XSP16, literal(-18)))
        CFI (cfiCond226) V3 load(1, XDATA, add(CFA_XSP16, literal(-17)))
        CFI (cfiCond226) V4 load(1, XDATA, add(CFA_XSP16, literal(-16)))
        CFI (cfiCond226) V5 load(1, XDATA, add(CFA_XSP16, literal(-15)))
        CFI (cfiCond226) V6 load(1, XDATA, add(CFA_XSP16, literal(-14)))
        CFI (cfiCond226) V7 load(1, XDATA, add(CFA_XSP16, literal(-13)))
        CFI (cfiCond226) V8 load(1, XDATA, add(CFA_XSP16, literal(-12)))
        CFI (cfiCond226) V9 load(1, XDATA, add(CFA_XSP16, literal(-11)))
        CFI (cfiCond226) V10 load(1, XDATA, add(CFA_XSP16, literal(-10)))
        CFI (cfiCond226) V11 load(1, XDATA, add(CFA_XSP16, literal(-9)))
        CFI (cfiCond226) V12 load(1, XDATA, add(CFA_XSP16, literal(-8)))
        CFI (cfiCond226) V13 load(1, XDATA, add(CFA_XSP16, literal(-7)))
        CFI (cfiCond226) R7 load(1, XDATA, add(CFA_XSP16, literal(-6)))
        CFI (cfiCond226) ?RET_LOW load(1, XDATA, add(CFA_XSP16, literal(-5)))
        CFI (cfiCond226) ?RET_HIGH load(1, XDATA, add(CFA_XSP16, literal(-4)))
        CFI (cfiCond226) ?BRET_EXT load(1, XDATA, add(CFA_XSP16, literal(-3)))
        CFI (cfiCond226) DPL0 load(1, XDATA, add(CFA_XSP16, literal(-2)))
        CFI (cfiCond226) DPH0 load(1, XDATA, add(CFA_XSP16, literal(-1)))
        CFI (cfiCond226) CFA_SP SP+0
        CFI (cfiCond226) CFA_XSP16 add(XSP16, 23)
        CFI Block cfiPicker227 Using cfiCommon1
        CFI (cfiPicker227) NoFunction
        CFI (cfiPicker227) Picker
        LCALL   ?Subroutine79 & 0xFFFF
??CrossCallReturnLabel_150:
        RET
        CFI EndBlock cfiCond223
        CFI EndBlock cfiCond224
        CFI EndBlock cfiCond225
        CFI EndBlock cfiCond226
        CFI EndBlock cfiPicker227

        RSEG BANKED_CODE:CODE:NOROOT(0)
?Subroutine79:
        CFI Block cfiCond228 Using cfiCommon0
        CFI NoFunction
        CFI Conditional ??CrossCallReturnLabel_149, ??CrossCallReturnLabel_10
        CFI R6 load(1, XDATA, add(CFA_XSP16, literal(-10)))
        CFI VB load(1, XDATA, add(CFA_XSP16, literal(-9)))
        CFI V0 load(1, XDATA, add(CFA_XSP16, literal(-8)))
        CFI V1 load(1, XDATA, add(CFA_XSP16, literal(-7)))
        CFI R7 load(1, XDATA, add(CFA_XSP16, literal(-6)))
        CFI ?RET_LOW load(1, XDATA, add(CFA_XSP16, literal(-5)))
        CFI ?RET_HIGH load(1, XDATA, add(CFA_XSP16, literal(-4)))
        CFI ?BRET_EXT load(1, XDATA, add(CFA_XSP16, literal(-3)))
        CFI DPL0 load(1, XDATA, add(CFA_XSP16, literal(-2)))
        CFI DPH0 load(1, XDATA, add(CFA_XSP16, literal(-1)))
        CFI CFA_SP SP+0
        CFI CFA_XSP16 add(XSP16, 10)
        CFI Block cfiCond229 Using cfiCommon0
        CFI (cfiCond229) NoFunction
        CFI (cfiCond229) Conditional ??CrossCallReturnLabel_149, ??CrossCallReturnLabel_11
        CFI (cfiCond229) R6 load(1, XDATA, add(CFA_XSP16, literal(-10)))
        CFI (cfiCond229) VB load(1, XDATA, add(CFA_XSP16, literal(-9)))
        CFI (cfiCond229) V0 load(1, XDATA, add(CFA_XSP16, literal(-8)))
        CFI (cfiCond229) V1 load(1, XDATA, add(CFA_XSP16, literal(-7)))
        CFI (cfiCond229) R7 load(1, XDATA, add(CFA_XSP16, literal(-6)))
        CFI (cfiCond229) ?RET_LOW load(1, XDATA, add(CFA_XSP16, literal(-5)))
        CFI (cfiCond229) ?RET_HIGH load(1, XDATA, add(CFA_XSP16, literal(-4)))
        CFI (cfiCond229) ?BRET_EXT load(1, XDATA, add(CFA_XSP16, literal(-3)))
        CFI (cfiCond229) DPL0 load(1, XDATA, add(CFA_XSP16, literal(-2)))
        CFI (cfiCond229) DPH0 load(1, XDATA, add(CFA_XSP16, literal(-1)))
        CFI (cfiCond229) CFA_SP SP+0
        CFI (cfiCond229) CFA_XSP16 add(XSP16, 10)
        CFI Block cfiCond230 Using cfiCommon0
        CFI (cfiCond230) NoFunction
        CFI (cfiCond230) Conditional ??CrossCallReturnLabel_150, ??CrossCallReturnLabel_146
        CFI (cfiCond230) R6 load(1, XDATA, add(CFA_XSP16, literal(-10)))
        CFI (cfiCond230) VB load(1, XDATA, add(CFA_XSP16, literal(-9)))
        CFI (cfiCond230) V0 load(1, XDATA, add(CFA_XSP16, literal(-8)))
        CFI (cfiCond230) V1 load(1, XDATA, add(CFA_XSP16, literal(-7)))
        CFI (cfiCond230) R7 load(1, XDATA, add(CFA_XSP16, literal(-6)))
        CFI (cfiCond230) ?RET_LOW load(1, XDATA, add(CFA_XSP16, literal(-5)))
        CFI (cfiCond230) ?RET_HIGH load(1, XDATA, add(CFA_XSP16, literal(-4)))
        CFI (cfiCond230) ?BRET_EXT load(1, XDATA, add(CFA_XSP16, literal(-3)))
        CFI (cfiCond230) DPL0 load(1, XDATA, add(CFA_XSP16, literal(-2)))
        CFI (cfiCond230) DPH0 load(1, XDATA, add(CFA_XSP16, literal(-1)))
        CFI (cfiCond230) CFA_SP SP+0
        CFI (cfiCond230) CFA_XSP16 add(XSP16, 19)
        CFI Block cfiCond231 Using cfiCommon0
        CFI (cfiCond231) NoFunction
        CFI (cfiCond231) Conditional ??CrossCallReturnLabel_150, ??CrossCallReturnLabel_147
        CFI (cfiCond231) R6 load(1, XDATA, add(CFA_XSP16, literal(-10)))
        CFI (cfiCond231) VB load(1, XDATA, add(CFA_XSP16, literal(-9)))
        CFI (cfiCond231) V0 load(1, XDATA, add(CFA_XSP16, literal(-8)))
        CFI (cfiCond231) V1 load(1, XDATA, add(CFA_XSP16, literal(-7)))
        CFI (cfiCond231) R7 load(1, XDATA, add(CFA_XSP16, literal(-6)))
        CFI (cfiCond231) ?RET_LOW load(1, XDATA, add(CFA_XSP16, literal(-5)))
        CFI (cfiCond231) ?RET_HIGH load(1, XDATA, add(CFA_XSP16, literal(-4)))
        CFI (cfiCond231) ?BRET_EXT load(1, XDATA, add(CFA_XSP16, literal(-3)))
        CFI (cfiCond231) DPL0 load(1, XDATA, add(CFA_XSP16, literal(-2)))
        CFI (cfiCond231) DPH0 load(1, XDATA, add(CFA_XSP16, literal(-1)))
        CFI (cfiCond231) CFA_SP SP+0
        CFI (cfiCond231) CFA_XSP16 add(XSP16, 10)
        CFI Block cfiCond232 Using cfiCommon0
        CFI (cfiCond232) NoFunction
        CFI (cfiCond232) Conditional ??CrossCallReturnLabel_150, ??CrossCallReturnLabel_148
        CFI (cfiCond232) R6 load(1, XDATA, add(CFA_XSP16, literal(-22)))
        CFI (cfiCond232) VB load(1, XDATA, add(CFA_XSP16, literal(-21)))
        CFI (cfiCond232) V0 load(1, XDATA, add(CFA_XSP16, literal(-20)))
        CFI (cfiCond232) V1 load(1, XDATA, add(CFA_XSP16, literal(-19)))
        CFI (cfiCond232) V2 load(1, XDATA, add(CFA_XSP16, literal(-18)))
        CFI (cfiCond232) V3 load(1, XDATA, add(CFA_XSP16, literal(-17)))
        CFI (cfiCond232) V4 load(1, XDATA, add(CFA_XSP16, literal(-16)))
        CFI (cfiCond232) V5 load(1, XDATA, add(CFA_XSP16, literal(-15)))
        CFI (cfiCond232) V6 load(1, XDATA, add(CFA_XSP16, literal(-14)))
        CFI (cfiCond232) V7 load(1, XDATA, add(CFA_XSP16, literal(-13)))
        CFI (cfiCond232) V8 load(1, XDATA, add(CFA_XSP16, literal(-12)))
        CFI (cfiCond232) V9 load(1, XDATA, add(CFA_XSP16, literal(-11)))
        CFI (cfiCond232) V10 load(1, XDATA, add(CFA_XSP16, literal(-10)))
        CFI (cfiCond232) V11 load(1, XDATA, add(CFA_XSP16, literal(-9)))
        CFI (cfiCond232) V12 load(1, XDATA, add(CFA_XSP16, literal(-8)))
        CFI (cfiCond232) V13 load(1, XDATA, add(CFA_XSP16, literal(-7)))
        CFI (cfiCond232) R7 load(1, XDATA, add(CFA_XSP16, literal(-6)))
        CFI (cfiCond232) ?RET_LOW load(1, XDATA, add(CFA_XSP16, literal(-5)))
        CFI (cfiCond232) ?RET_HIGH load(1, XDATA, add(CFA_XSP16, literal(-4)))
        CFI (cfiCond232) ?BRET_EXT load(1, XDATA, add(CFA_XSP16, literal(-3)))
        CFI (cfiCond232) DPL0 load(1, XDATA, add(CFA_XSP16, literal(-2)))
        CFI (cfiCond232) DPH0 load(1, XDATA, add(CFA_XSP16, literal(-1)))
        CFI (cfiCond232) CFA_SP SP+0
        CFI (cfiCond232) CFA_XSP16 add(XSP16, 23)
        CFI Block cfiCond233 Using cfiCommon0
        CFI (cfiCond233) NoFunction
        CFI (cfiCond233) Conditional ??CrossCallReturnLabel_150, ??CrossCallReturnLabel_145
        CFI (cfiCond233) R6 load(1, XDATA, add(CFA_XSP16, literal(-10)))
        CFI (cfiCond233) VB load(1, XDATA, add(CFA_XSP16, literal(-9)))
        CFI (cfiCond233) V0 load(1, XDATA, add(CFA_XSP16, literal(-8)))
        CFI (cfiCond233) V1 load(1, XDATA, add(CFA_XSP16, literal(-7)))
        CFI (cfiCond233) R7 load(1, XDATA, add(CFA_XSP16, literal(-6)))
        CFI (cfiCond233) ?RET_LOW load(1, XDATA, add(CFA_XSP16, literal(-5)))
        CFI (cfiCond233) ?RET_HIGH load(1, XDATA, add(CFA_XSP16, literal(-4)))
        CFI (cfiCond233) ?BRET_EXT load(1, XDATA, add(CFA_XSP16, literal(-3)))
        CFI (cfiCond233) DPL0 load(1, XDATA, add(CFA_XSP16, literal(-2)))
        CFI (cfiCond233) DPH0 load(1, XDATA, add(CFA_XSP16, literal(-1)))
        CFI (cfiCond233) CFA_SP SP+0
        CFI (cfiCond233) CFA_XSP16 add(XSP16, 31)
        CFI Block cfiPicker234 Using cfiCommon1
        CFI (cfiPicker234) NoFunction
        CFI (cfiPicker234) Picker
        LCALL   ?Subroutine82 & 0xFFFF
??CrossCallReturnLabel_152:
        RET
        CFI EndBlock cfiCond228
        CFI EndBlock cfiCond229
        CFI EndBlock cfiCond230
        CFI EndBlock cfiCond231
        CFI EndBlock cfiCond232
        CFI EndBlock cfiCond233
        CFI EndBlock cfiPicker234

        RSEG BANKED_CODE:CODE:NOROOT(0)
?Subroutine82:
        CFI Block cfiCond235 Using cfiCommon0
        CFI NoFunction
        CFI Conditional ??CrossCallReturnLabel_151, ??CrossCallReturnLabel_121, ??CrossCallReturnLabel_10
        CFI R6 load(1, XDATA, add(CFA_XSP16, literal(-10)))
        CFI VB load(1, XDATA, add(CFA_XSP16, literal(-9)))
        CFI V0 load(1, XDATA, add(CFA_XSP16, literal(-8)))
        CFI V1 load(1, XDATA, add(CFA_XSP16, literal(-7)))
        CFI R7 load(1, XDATA, add(CFA_XSP16, literal(-6)))
        CFI ?RET_LOW load(1, XDATA, add(CFA_XSP16, literal(-5)))
        CFI ?RET_HIGH load(1, XDATA, add(CFA_XSP16, literal(-4)))
        CFI ?BRET_EXT load(1, XDATA, add(CFA_XSP16, literal(-3)))
        CFI DPL0 load(1, XDATA, add(CFA_XSP16, literal(-2)))
        CFI DPH0 load(1, XDATA, add(CFA_XSP16, literal(-1)))
        CFI CFA_SP SP+0
        CFI CFA_XSP16 add(XSP16, 10)
        CFI Block cfiCond236 Using cfiCommon0
        CFI (cfiCond236) NoFunction
        CFI (cfiCond236) Conditional ??CrossCallReturnLabel_151, ??CrossCallReturnLabel_121, ??CrossCallReturnLabel_11
        CFI (cfiCond236) R6 load(1, XDATA, add(CFA_XSP16, literal(-10)))
        CFI (cfiCond236) VB load(1, XDATA, add(CFA_XSP16, literal(-9)))
        CFI (cfiCond236) V0 load(1, XDATA, add(CFA_XSP16, literal(-8)))
        CFI (cfiCond236) V1 load(1, XDATA, add(CFA_XSP16, literal(-7)))
        CFI (cfiCond236) R7 load(1, XDATA, add(CFA_XSP16, literal(-6)))
        CFI (cfiCond236) ?RET_LOW load(1, XDATA, add(CFA_XSP16, literal(-5)))
        CFI (cfiCond236) ?RET_HIGH load(1, XDATA, add(CFA_XSP16, literal(-4)))
        CFI (cfiCond236) ?BRET_EXT load(1, XDATA, add(CFA_XSP16, literal(-3)))
        CFI (cfiCond236) DPL0 load(1, XDATA, add(CFA_XSP16, literal(-2)))
        CFI (cfiCond236) DPH0 load(1, XDATA, add(CFA_XSP16, literal(-1)))
        CFI (cfiCond236) CFA_SP SP+0
        CFI (cfiCond236) CFA_XSP16 add(XSP16, 10)
        CFI Block cfiCond237 Using cfiCommon0
        CFI (cfiCond237) NoFunction
        CFI (cfiCond237) Conditional ??CrossCallReturnLabel_151, ??CrossCallReturnLabel_124, ??CrossCallReturnLabel_118
        CFI (cfiCond237) R6 load(1, XDATA, add(CFA_XSP16, literal(-10)))
        CFI (cfiCond237) VB load(1, XDATA, add(CFA_XSP16, literal(-9)))
        CFI (cfiCond237) V0 load(1, XDATA, add(CFA_XSP16, literal(-8)))
        CFI (cfiCond237) V1 load(1, XDATA, add(CFA_XSP16, literal(-7)))
        CFI (cfiCond237) R7 load(1, XDATA, add(CFA_XSP16, literal(-6)))
        CFI (cfiCond237) ?RET_LOW load(1, XDATA, add(CFA_XSP16, literal(-5)))
        CFI (cfiCond237) ?RET_HIGH load(1, XDATA, add(CFA_XSP16, literal(-4)))
        CFI (cfiCond237) ?BRET_EXT load(1, XDATA, add(CFA_XSP16, literal(-3)))
        CFI (cfiCond237) DPL0 load(1, XDATA, add(CFA_XSP16, literal(-2)))
        CFI (cfiCond237) DPH0 load(1, XDATA, add(CFA_XSP16, literal(-1)))
        CFI (cfiCond237) CFA_SP SP+0
        CFI (cfiCond237) CFA_XSP16 add(XSP16, 19)
        CFI Block cfiCond238 Using cfiCommon0
        CFI (cfiCond238) NoFunction
        CFI (cfiCond238) Conditional ??CrossCallReturnLabel_151, ??CrossCallReturnLabel_124, ??CrossCallReturnLabel_119
        CFI (cfiCond238) R6 load(1, XDATA, add(CFA_XSP16, literal(-10)))
        CFI (cfiCond238) VB load(1, XDATA, add(CFA_XSP16, literal(-9)))
        CFI (cfiCond238) V0 load(1, XDATA, add(CFA_XSP16, literal(-8)))
        CFI (cfiCond238) V1 load(1, XDATA, add(CFA_XSP16, literal(-7)))
        CFI (cfiCond238) R7 load(1, XDATA, add(CFA_XSP16, literal(-6)))
        CFI (cfiCond238) ?RET_LOW load(1, XDATA, add(CFA_XSP16, literal(-5)))
        CFI (cfiCond238) ?RET_HIGH load(1, XDATA, add(CFA_XSP16, literal(-4)))
        CFI (cfiCond238) ?BRET_EXT load(1, XDATA, add(CFA_XSP16, literal(-3)))
        CFI (cfiCond238) DPL0 load(1, XDATA, add(CFA_XSP16, literal(-2)))
        CFI (cfiCond238) DPH0 load(1, XDATA, add(CFA_XSP16, literal(-1)))
        CFI (cfiCond238) CFA_SP SP+0
        CFI (cfiCond238) CFA_XSP16 add(XSP16, 10)
        CFI Block cfiCond239 Using cfiCommon0
        CFI (cfiCond239) NoFunction
        CFI (cfiCond239) Conditional ??CrossCallReturnLabel_151, ??CrossCallReturnLabel_124, ??CrossCallReturnLabel_120
        CFI (cfiCond239) R6 load(1, XDATA, add(CFA_XSP16, literal(-10)))
        CFI (cfiCond239) VB load(1, XDATA, add(CFA_XSP16, literal(-9)))
        CFI (cfiCond239) V0 load(1, XDATA, add(CFA_XSP16, literal(-8)))
        CFI (cfiCond239) V1 load(1, XDATA, add(CFA_XSP16, literal(-7)))
        CFI (cfiCond239) R7 load(1, XDATA, add(CFA_XSP16, literal(-6)))
        CFI (cfiCond239) ?RET_LOW load(1, XDATA, add(CFA_XSP16, literal(-5)))
        CFI (cfiCond239) ?RET_HIGH load(1, XDATA, add(CFA_XSP16, literal(-4)))
        CFI (cfiCond239) ?BRET_EXT load(1, XDATA, add(CFA_XSP16, literal(-3)))
        CFI (cfiCond239) DPL0 load(1, XDATA, add(CFA_XSP16, literal(-2)))
        CFI (cfiCond239) DPH0 load(1, XDATA, add(CFA_XSP16, literal(-1)))
        CFI (cfiCond239) CFA_SP SP+0
        CFI (cfiCond239) CFA_XSP16 add(XSP16, 11)
        CFI Block cfiCond240 Using cfiCommon0
        CFI (cfiCond240) NoFunction
        CFI (cfiCond240) Conditional ??CrossCallReturnLabel_151, ??CrossCallReturnLabel_123, ??CrossCallReturnLabel_30
        CFI (cfiCond240) R6 load(1, XDATA, add(CFA_XSP16, literal(-10)))
        CFI (cfiCond240) VB load(1, XDATA, add(CFA_XSP16, literal(-9)))
        CFI (cfiCond240) V0 load(1, XDATA, add(CFA_XSP16, literal(-8)))
        CFI (cfiCond240) V1 load(1, XDATA, add(CFA_XSP16, literal(-7)))
        CFI (cfiCond240) R7 load(1, XDATA, add(CFA_XSP16, literal(-6)))
        CFI (cfiCond240) ?RET_LOW load(1, XDATA, add(CFA_XSP16, literal(-5)))
        CFI (cfiCond240) ?RET_HIGH load(1, XDATA, add(CFA_XSP16, literal(-4)))
        CFI (cfiCond240) ?BRET_EXT load(1, XDATA, add(CFA_XSP16, literal(-3)))
        CFI (cfiCond240) DPL0 load(1, XDATA, add(CFA_XSP16, literal(-2)))
        CFI (cfiCond240) DPH0 load(1, XDATA, add(CFA_XSP16, literal(-1)))
        CFI (cfiCond240) CFA_SP SP+0
        CFI (cfiCond240) CFA_XSP16 add(XSP16, 10)
        CFI Block cfiCond241 Using cfiCommon0
        CFI (cfiCond241) NoFunction
        CFI (cfiCond241) Conditional ??CrossCallReturnLabel_151, ??CrossCallReturnLabel_123, ??CrossCallReturnLabel_31
        CFI (cfiCond241) R6 load(1, XDATA, add(CFA_XSP16, literal(-10)))
        CFI (cfiCond241) VB load(1, XDATA, add(CFA_XSP16, literal(-9)))
        CFI (cfiCond241) V0 load(1, XDATA, add(CFA_XSP16, literal(-8)))
        CFI (cfiCond241) V1 load(1, XDATA, add(CFA_XSP16, literal(-7)))
        CFI (cfiCond241) R7 load(1, XDATA, add(CFA_XSP16, literal(-6)))
        CFI (cfiCond241) ?RET_LOW load(1, XDATA, add(CFA_XSP16, literal(-5)))
        CFI (cfiCond241) ?RET_HIGH load(1, XDATA, add(CFA_XSP16, literal(-4)))
        CFI (cfiCond241) ?BRET_EXT load(1, XDATA, add(CFA_XSP16, literal(-3)))
        CFI (cfiCond241) DPL0 load(1, XDATA, add(CFA_XSP16, literal(-2)))
        CFI (cfiCond241) DPH0 load(1, XDATA, add(CFA_XSP16, literal(-1)))
        CFI (cfiCond241) CFA_SP SP+0
        CFI (cfiCond241) CFA_XSP16 add(XSP16, 11)
        CFI Block cfiCond242 Using cfiCommon0
        CFI (cfiCond242) NoFunction
        CFI (cfiCond242) Conditional ??CrossCallReturnLabel_151, ??CrossCallReturnLabel_122, ??CrossCallReturnLabel_18
        CFI (cfiCond242) R6 load(1, XDATA, add(CFA_XSP16, literal(-10)))
        CFI (cfiCond242) VB load(1, XDATA, add(CFA_XSP16, literal(-9)))
        CFI (cfiCond242) V0 load(1, XDATA, add(CFA_XSP16, literal(-8)))
        CFI (cfiCond242) V1 load(1, XDATA, add(CFA_XSP16, literal(-7)))
        CFI (cfiCond242) R7 load(1, XDATA, add(CFA_XSP16, literal(-6)))
        CFI (cfiCond242) ?RET_LOW load(1, XDATA, add(CFA_XSP16, literal(-5)))
        CFI (cfiCond242) ?RET_HIGH load(1, XDATA, add(CFA_XSP16, literal(-4)))
        CFI (cfiCond242) ?BRET_EXT load(1, XDATA, add(CFA_XSP16, literal(-3)))
        CFI (cfiCond242) DPL0 load(1, XDATA, add(CFA_XSP16, literal(-2)))
        CFI (cfiCond242) DPH0 load(1, XDATA, add(CFA_XSP16, literal(-1)))
        CFI (cfiCond242) CFA_SP SP+0
        CFI (cfiCond242) CFA_XSP16 add(XSP16, 19)
        CFI Block cfiCond243 Using cfiCommon0
        CFI (cfiCond243) NoFunction
        CFI (cfiCond243) Conditional ??CrossCallReturnLabel_151, ??CrossCallReturnLabel_122, ??CrossCallReturnLabel_19
        CFI (cfiCond243) R6 load(1, XDATA, add(CFA_XSP16, literal(-12)))
        CFI (cfiCond243) VB load(1, XDATA, add(CFA_XSP16, literal(-11)))
        CFI (cfiCond243) V0 load(1, XDATA, add(CFA_XSP16, literal(-10)))
        CFI (cfiCond243) V1 load(1, XDATA, add(CFA_XSP16, literal(-9)))
        CFI (cfiCond243) V2 load(1, XDATA, add(CFA_XSP16, literal(-8)))
        CFI (cfiCond243) V3 load(1, XDATA, add(CFA_XSP16, literal(-7)))
        CFI (cfiCond243) R7 load(1, XDATA, add(CFA_XSP16, literal(-6)))
        CFI (cfiCond243) ?RET_LOW load(1, XDATA, add(CFA_XSP16, literal(-5)))
        CFI (cfiCond243) ?RET_HIGH load(1, XDATA, add(CFA_XSP16, literal(-4)))
        CFI (cfiCond243) ?BRET_EXT load(1, XDATA, add(CFA_XSP16, literal(-3)))
        CFI (cfiCond243) DPL0 load(1, XDATA, add(CFA_XSP16, literal(-2)))
        CFI (cfiCond243) DPH0 load(1, XDATA, add(CFA_XSP16, literal(-1)))
        CFI (cfiCond243) CFA_SP SP+0
        CFI (cfiCond243) CFA_XSP16 add(XSP16, 12)
        CFI Block cfiCond244 Using cfiCommon0
        CFI (cfiCond244) NoFunction
        CFI (cfiCond244) Conditional ??CrossCallReturnLabel_152, ??CrossCallReturnLabel_149, ??CrossCallReturnLabel_10
        CFI (cfiCond244) R6 load(1, XDATA, add(CFA_XSP16, literal(-10)))
        CFI (cfiCond244) VB load(1, XDATA, add(CFA_XSP16, literal(-9)))
        CFI (cfiCond244) V0 load(1, XDATA, add(CFA_XSP16, literal(-8)))
        CFI (cfiCond244) V1 load(1, XDATA, add(CFA_XSP16, literal(-7)))
        CFI (cfiCond244) R7 load(1, XDATA, add(CFA_XSP16, literal(-6)))
        CFI (cfiCond244) ?RET_LOW load(1, XDATA, add(CFA_XSP16, literal(-5)))
        CFI (cfiCond244) ?RET_HIGH load(1, XDATA, add(CFA_XSP16, literal(-4)))
        CFI (cfiCond244) ?BRET_EXT load(1, XDATA, add(CFA_XSP16, literal(-3)))
        CFI (cfiCond244) DPL0 load(1, XDATA, add(CFA_XSP16, literal(-2)))
        CFI (cfiCond244) DPH0 load(1, XDATA, add(CFA_XSP16, literal(-1)))
        CFI (cfiCond244) CFA_SP SP+0
        CFI (cfiCond244) CFA_XSP16 add(XSP16, 10)
        CFI Block cfiCond245 Using cfiCommon0
        CFI (cfiCond245) NoFunction
        CFI (cfiCond245) Conditional ??CrossCallReturnLabel_152, ??CrossCallReturnLabel_149, ??CrossCallReturnLabel_11
        CFI (cfiCond245) R6 load(1, XDATA, add(CFA_XSP16, literal(-10)))
        CFI (cfiCond245) VB load(1, XDATA, add(CFA_XSP16, literal(-9)))
        CFI (cfiCond245) V0 load(1, XDATA, add(CFA_XSP16, literal(-8)))
        CFI (cfiCond245) V1 load(1, XDATA, add(CFA_XSP16, literal(-7)))
        CFI (cfiCond245) R7 load(1, XDATA, add(CFA_XSP16, literal(-6)))
        CFI (cfiCond245) ?RET_LOW load(1, XDATA, add(CFA_XSP16, literal(-5)))
        CFI (cfiCond245) ?RET_HIGH load(1, XDATA, add(CFA_XSP16, literal(-4)))
        CFI (cfiCond245) ?BRET_EXT load(1, XDATA, add(CFA_XSP16, literal(-3)))
        CFI (cfiCond245) DPL0 load(1, XDATA, add(CFA_XSP16, literal(-2)))
        CFI (cfiCond245) DPH0 load(1, XDATA, add(CFA_XSP16, literal(-1)))
        CFI (cfiCond245) CFA_SP SP+0
        CFI (cfiCond245) CFA_XSP16 add(XSP16, 10)
        CFI Block cfiCond246 Using cfiCommon0
        CFI (cfiCond246) NoFunction
        CFI (cfiCond246) Conditional ??CrossCallReturnLabel_152, ??CrossCallReturnLabel_150, ??CrossCallReturnLabel_146
        CFI (cfiCond246) R6 load(1, XDATA, add(CFA_XSP16, literal(-10)))
        CFI (cfiCond246) VB load(1, XDATA, add(CFA_XSP16, literal(-9)))
        CFI (cfiCond246) V0 load(1, XDATA, add(CFA_XSP16, literal(-8)))
        CFI (cfiCond246) V1 load(1, XDATA, add(CFA_XSP16, literal(-7)))
        CFI (cfiCond246) R7 load(1, XDATA, add(CFA_XSP16, literal(-6)))
        CFI (cfiCond246) ?RET_LOW load(1, XDATA, add(CFA_XSP16, literal(-5)))
        CFI (cfiCond246) ?RET_HIGH load(1, XDATA, add(CFA_XSP16, literal(-4)))
        CFI (cfiCond246) ?BRET_EXT load(1, XDATA, add(CFA_XSP16, literal(-3)))
        CFI (cfiCond246) DPL0 load(1, XDATA, add(CFA_XSP16, literal(-2)))
        CFI (cfiCond246) DPH0 load(1, XDATA, add(CFA_XSP16, literal(-1)))
        CFI (cfiCond246) CFA_SP SP+0
        CFI (cfiCond246) CFA_XSP16 add(XSP16, 19)
        CFI Block cfiCond247 Using cfiCommon0
        CFI (cfiCond247) NoFunction
        CFI (cfiCond247) Conditional ??CrossCallReturnLabel_152, ??CrossCallReturnLabel_150, ??CrossCallReturnLabel_147
        CFI (cfiCond247) R6 load(1, XDATA, add(CFA_XSP16, literal(-10)))
        CFI (cfiCond247) VB load(1, XDATA, add(CFA_XSP16, literal(-9)))
        CFI (cfiCond247) V0 load(1, XDATA, add(CFA_XSP16, literal(-8)))
        CFI (cfiCond247) V1 load(1, XDATA, add(CFA_XSP16, literal(-7)))
        CFI (cfiCond247) R7 load(1, XDATA, add(CFA_XSP16, literal(-6)))
        CFI (cfiCond247) ?RET_LOW load(1, XDATA, add(CFA_XSP16, literal(-5)))
        CFI (cfiCond247) ?RET_HIGH load(1, XDATA, add(CFA_XSP16, literal(-4)))
        CFI (cfiCond247) ?BRET_EXT load(1, XDATA, add(CFA_XSP16, literal(-3)))
        CFI (cfiCond247) DPL0 load(1, XDATA, add(CFA_XSP16, literal(-2)))
        CFI (cfiCond247) DPH0 load(1, XDATA, add(CFA_XSP16, literal(-1)))
        CFI (cfiCond247) CFA_SP SP+0
        CFI (cfiCond247) CFA_XSP16 add(XSP16, 10)
        CFI Block cfiCond248 Using cfiCommon0
        CFI (cfiCond248) NoFunction
        CFI (cfiCond248) Conditional ??CrossCallReturnLabel_152, ??CrossCallReturnLabel_150, ??CrossCallReturnLabel_148
        CFI (cfiCond248) R6 load(1, XDATA, add(CFA_XSP16, literal(-22)))
        CFI (cfiCond248) VB load(1, XDATA, add(CFA_XSP16, literal(-21)))
        CFI (cfiCond248) V0 load(1, XDATA, add(CFA_XSP16, literal(-20)))
        CFI (cfiCond248) V1 load(1, XDATA, add(CFA_XSP16, literal(-19)))
        CFI (cfiCond248) V2 load(1, XDATA, add(CFA_XSP16, literal(-18)))
        CFI (cfiCond248) V3 load(1, XDATA, add(CFA_XSP16, literal(-17)))
        CFI (cfiCond248) V4 load(1, XDATA, add(CFA_XSP16, literal(-16)))
        CFI (cfiCond248) V5 load(1, XDATA, add(CFA_XSP16, literal(-15)))
        CFI (cfiCond248) V6 load(1, XDATA, add(CFA_XSP16, literal(-14)))
        CFI (cfiCond248) V7 load(1, XDATA, add(CFA_XSP16, literal(-13)))
        CFI (cfiCond248) V8 load(1, XDATA, add(CFA_XSP16, literal(-12)))
        CFI (cfiCond248) V9 load(1, XDATA, add(CFA_XSP16, literal(-11)))
        CFI (cfiCond248) V10 load(1, XDATA, add(CFA_XSP16, literal(-10)))
        CFI (cfiCond248) V11 load(1, XDATA, add(CFA_XSP16, literal(-9)))
        CFI (cfiCond248) V12 load(1, XDATA, add(CFA_XSP16, literal(-8)))
        CFI (cfiCond248) V13 load(1, XDATA, add(CFA_XSP16, literal(-7)))
        CFI (cfiCond248) R7 load(1, XDATA, add(CFA_XSP16, literal(-6)))
        CFI (cfiCond248) ?RET_LOW load(1, XDATA, add(CFA_XSP16, literal(-5)))
        CFI (cfiCond248) ?RET_HIGH load(1, XDATA, add(CFA_XSP16, literal(-4)))
        CFI (cfiCond248) ?BRET_EXT load(1, XDATA, add(CFA_XSP16, literal(-3)))
        CFI (cfiCond248) DPL0 load(1, XDATA, add(CFA_XSP16, literal(-2)))
        CFI (cfiCond248) DPH0 load(1, XDATA, add(CFA_XSP16, literal(-1)))
        CFI (cfiCond248) CFA_SP SP+0
        CFI (cfiCond248) CFA_XSP16 add(XSP16, 23)
        CFI Block cfiCond249 Using cfiCommon0
        CFI (cfiCond249) NoFunction
        CFI (cfiCond249) Conditional ??CrossCallReturnLabel_152, ??CrossCallReturnLabel_150, ??CrossCallReturnLabel_145
        CFI (cfiCond249) R6 load(1, XDATA, add(CFA_XSP16, literal(-10)))
        CFI (cfiCond249) VB load(1, XDATA, add(CFA_XSP16, literal(-9)))
        CFI (cfiCond249) V0 load(1, XDATA, add(CFA_XSP16, literal(-8)))
        CFI (cfiCond249) V1 load(1, XDATA, add(CFA_XSP16, literal(-7)))
        CFI (cfiCond249) R7 load(1, XDATA, add(CFA_XSP16, literal(-6)))
        CFI (cfiCond249) ?RET_LOW load(1, XDATA, add(CFA_XSP16, literal(-5)))
        CFI (cfiCond249) ?RET_HIGH load(1, XDATA, add(CFA_XSP16, literal(-4)))
        CFI (cfiCond249) ?BRET_EXT load(1, XDATA, add(CFA_XSP16, literal(-3)))
        CFI (cfiCond249) DPL0 load(1, XDATA, add(CFA_XSP16, literal(-2)))
        CFI (cfiCond249) DPH0 load(1, XDATA, add(CFA_XSP16, literal(-1)))
        CFI (cfiCond249) CFA_SP SP+0
        CFI (cfiCond249) CFA_XSP16 add(XSP16, 31)
        CFI Block cfiPicker250 Using cfiCommon1
        CFI (cfiPicker250) NoFunction
        CFI (cfiPicker250) Picker
        MOVX    A,@DPTR
        MOV     R0,A
        INC     DPTR
        MOVX    A,@DPTR
        MOV     DPH,A
        MOV     DPL,R0
        RET
        CFI EndBlock cfiCond235
        CFI EndBlock cfiCond236
        CFI EndBlock cfiCond237
        CFI EndBlock cfiCond238
        CFI EndBlock cfiCond239
        CFI EndBlock cfiCond240
        CFI EndBlock cfiCond241
        CFI EndBlock cfiCond242
        CFI EndBlock cfiCond243
        CFI EndBlock cfiCond244
        CFI EndBlock cfiCond245
        CFI EndBlock cfiCond246
        CFI EndBlock cfiCond247
        CFI EndBlock cfiCond248
        CFI EndBlock cfiCond249
        CFI EndBlock cfiPicker250
// 1270 
// 1271 /*********************************************************************
// 1272  * @fn          ZDP_MgmtLeaveReq
// 1273  *
// 1274  * @brief       This builds and send a Mgmt_Leave_req message.
// 1275  *
// 1276  * @param       dstAddr - destination address of the message
// 1277  *              IEEEAddr - IEEE adddress of device that is removed
// 1278  *              RemoveChildren - set to 1 to remove the children of the
// 1279  *                                device as well. 0 otherwise.
// 1280  *              Rejoin - set to 1 if the removed device should rejoin
// 1281                          afterwards. 0 otherwise.
// 1282  *
// 1283  * @return      afStatus_t
// 1284  */

        RSEG BANKED_CODE:CODE:NOROOT(0)
// 1285 afStatus_t ZDP_MgmtLeaveReq( zAddrType_t *dstAddr, uint8 *IEEEAddr, uint8 RemoveChildren,
ZDP_MgmtLeaveReq:
        CFI Block cfiBlock251 Using cfiCommon0
        CFI Function ZDP_MgmtLeaveReq
        CODE
// 1286                  uint8 Rejoin, uint8 SecurityEnable )
// 1287 
// 1288 {
        FUNCALL ZDP_MgmtLeaveReq, sAddrExtCpy
        LOCFRAME ISTACK, 0, STACK
        LOCFRAME PSTACK, 0, STACK
        LOCFRAME XSTACK, 12, STACK
        LOCFRAME IOVERLAY, 0, STATIC
        LOCFRAME DOVERLAY, 0, STATIC
        ARGFRAME ISTACK, 0, STACK
        ARGFRAME PSTACK, 0, STACK
        ARGFRAME XSTACK, 12, STACK
        ARGFRAME IOVERLAY, 0, STATIC
        ARGFRAME DOVERLAY, 0, STATIC
        FUNCALL ZDP_MgmtLeaveReq, fillAndSend
        LOCFRAME ISTACK, 0, STACK
        LOCFRAME PSTACK, 0, STACK
        LOCFRAME XSTACK, 14, STACK
        LOCFRAME IOVERLAY, 0, STATIC
        LOCFRAME DOVERLAY, 0, STATIC
        ARGFRAME ISTACK, 0, STACK
        ARGFRAME PSTACK, 0, STACK
        ARGFRAME XSTACK, 14, STACK
        ARGFRAME IOVERLAY, 0, STATIC
        ARGFRAME DOVERLAY, 0, STATIC
        MOV     A,#-0xc
        LCALL   ?BANKED_ENTER_XDATA
        CFI DPH0 load(1, XDATA, add(CFA_XSP16, literal(-1)))
        CFI DPL0 load(1, XDATA, add(CFA_XSP16, literal(-2)))
        CFI ?BRET_EXT load(1, XDATA, add(CFA_XSP16, literal(-3)))
        CFI ?RET_HIGH load(1, XDATA, add(CFA_XSP16, literal(-4)))
        CFI ?RET_LOW load(1, XDATA, add(CFA_XSP16, literal(-5)))
        CFI R7 load(1, XDATA, add(CFA_XSP16, literal(-6)))
        CFI V3 load(1, XDATA, add(CFA_XSP16, literal(-7)))
        CFI V2 load(1, XDATA, add(CFA_XSP16, literal(-8)))
        CFI V1 load(1, XDATA, add(CFA_XSP16, literal(-9)))
        CFI V0 load(1, XDATA, add(CFA_XSP16, literal(-10)))
        CFI VB load(1, XDATA, add(CFA_XSP16, literal(-11)))
        CFI R6 load(1, XDATA, add(CFA_XSP16, literal(-12)))
        CFI CFA_SP SP+0
        CFI CFA_XSP16 add(XSP16, 12)
        ; Saved register size: 12
        ; Auto size: 0
        MOV     A,R2
        MOV     R6,A
        MOV     A,R3
        MOV     R7,A
        MOV     ?V0 + 0,R1
        MOV     A,#0xc
        LCALL   ?XSTACK_DISP0_8
        MOVX    A,@DPTR
        MOV     ?V0 + 1,A
// 1289   (void)SecurityEnable;  // Intentionally unreferenced parameter
// 1290 
// 1291   osal_cpyExtAddr( ZDP_TmpBuf, IEEEAddr );
        ; Setup parameters for call to function sAddrExtCpy
        LCALL   ?Subroutine39 & 0xFFFF
??CrossCallReturnLabel_134:
        LCALL   ??sAddrExtCpy?relay
// 1292   ZDP_TmpBuf[Z_EXTADDR_LEN] = 0;
        MOV     DPTR,#ZDP_TmpBuf
        MOVX    A,@DPTR
        ADD     A,#0x8
        MOV     R0,A
        INC     DPTR
        MOVX    A,@DPTR
        LCALL   ?Subroutine63 & 0xFFFF
??CrossCallReturnLabel_89:
        CLR     A
        MOVX    @DPTR,A
// 1293 
// 1294   if ( RemoveChildren == TRUE )
        INC     A
        XRL     A,?V0 + 0
        JNZ     ??ZDP_MgmtLeaveReq_0
// 1295   {
// 1296     ZDP_TmpBuf[Z_EXTADDR_LEN] |= ZDP_MGMT_LEAVE_REQ_RC;
        MOV     A,#0x40
        MOVX    @DPTR,A
// 1297   }
// 1298   if ( Rejoin == TRUE )
??ZDP_MgmtLeaveReq_0:
        MOV     A,#0x1
        XRL     A,?V0 + 1
        JNZ     ??ZDP_MgmtLeaveReq_1
// 1299   {
// 1300     ZDP_TmpBuf[Z_EXTADDR_LEN] |= ZDP_MGMT_LEAVE_REQ_REJOIN;
        MOVX    A,@DPTR
        SETB    0xE0 /* A   */.7
        MOVX    @DPTR,A
// 1301   }
// 1302 
// 1303   return fillAndSend( &ZDP_TransID, dstAddr, Mgmt_Leave_req, (Z_EXTADDR_LEN + 1) );
??ZDP_MgmtLeaveReq_1:
        ; Setup parameters for call to function fillAndSend
        MOV     ?V0 + 2,#0x34
        LJMP    ?Subroutine6 & 0xFFFF
        CFI EndBlock cfiBlock251
// 1304 }
// 1305 
// 1306 /*********************************************************************
// 1307  * @fn          ZDP_MgmtNwkUpdateReq
// 1308  *
// 1309  * @brief       This builds and send a Mgmt_NWK_Update_req message. This
// 1310  *              function sends a unicast or broadcast message.
// 1311  *
// 1312  * @param       dstAddr - destination address of the message
// 1313  * @param       ChannelMask - 32 bit address bit map
// 1314  * @param       ScanDuration - length of time to spend scanning each channel
// 1315  * @param       ScanCount - number of energy scans to be conducted
// 1316  * @param       NwkUpdateId - NWk Update Id value
// 1317  * @param       NwkManagerAddr - NWK address for device with Network Manager
// 1318  *                               bit set in its Node Descriptor
// 1319  *
// 1320  * @return      afStatus_t
// 1321  */

        RSEG BANKED_CODE:CODE:NOROOT(0)
// 1322 afStatus_t ZDP_MgmtNwkUpdateReq( zAddrType_t *dstAddr,
ZDP_MgmtNwkUpdateReq:
        CFI Block cfiBlock252 Using cfiCommon0
        CFI Function ZDP_MgmtNwkUpdateReq
        CODE
// 1323                                  uint32 ChannelMask,
// 1324                                  uint8 ScanDuration,
// 1325                                  uint8 ScanCount,
// 1326                                  uint8 NwkUpdateId,
// 1327                                  uint16 NwkManagerAddr )
// 1328 {
        FUNCALL ZDP_MgmtNwkUpdateReq, osal_buffer_uint32
        LOCFRAME ISTACK, 0, STACK
        LOCFRAME PSTACK, 0, STACK
        LOCFRAME XSTACK, 22, STACK
        LOCFRAME IOVERLAY, 0, STATIC
        LOCFRAME DOVERLAY, 0, STATIC
        ARGFRAME ISTACK, 0, STACK
        ARGFRAME PSTACK, 0, STACK
        ARGFRAME XSTACK, 22, STACK
        ARGFRAME IOVERLAY, 0, STATIC
        ARGFRAME DOVERLAY, 0, STATIC
        FUNCALL ZDP_MgmtNwkUpdateReq, fillAndSend
        LOCFRAME ISTACK, 0, STACK
        LOCFRAME PSTACK, 0, STACK
        LOCFRAME XSTACK, 20, STACK
        LOCFRAME IOVERLAY, 0, STATIC
        LOCFRAME DOVERLAY, 0, STATIC
        ARGFRAME ISTACK, 0, STACK
        ARGFRAME PSTACK, 0, STACK
        ARGFRAME XSTACK, 20, STACK
        ARGFRAME IOVERLAY, 0, STATIC
        ARGFRAME DOVERLAY, 0, STATIC
        MOV     A,#-0x12
        LCALL   ?BANKED_ENTER_XDATA
        CFI DPH0 load(1, XDATA, add(CFA_XSP16, literal(-1)))
        CFI DPL0 load(1, XDATA, add(CFA_XSP16, literal(-2)))
        CFI ?BRET_EXT load(1, XDATA, add(CFA_XSP16, literal(-3)))
        CFI ?RET_HIGH load(1, XDATA, add(CFA_XSP16, literal(-4)))
        CFI ?RET_LOW load(1, XDATA, add(CFA_XSP16, literal(-5)))
        CFI R7 load(1, XDATA, add(CFA_XSP16, literal(-6)))
        CFI V9 load(1, XDATA, add(CFA_XSP16, literal(-7)))
        CFI V8 load(1, XDATA, add(CFA_XSP16, literal(-8)))
        CFI V7 load(1, XDATA, add(CFA_XSP16, literal(-9)))
        CFI V6 load(1, XDATA, add(CFA_XSP16, literal(-10)))
        CFI V5 load(1, XDATA, add(CFA_XSP16, literal(-11)))
        CFI V4 load(1, XDATA, add(CFA_XSP16, literal(-12)))
        CFI V3 load(1, XDATA, add(CFA_XSP16, literal(-13)))
        CFI V2 load(1, XDATA, add(CFA_XSP16, literal(-14)))
        CFI V1 load(1, XDATA, add(CFA_XSP16, literal(-15)))
        CFI V0 load(1, XDATA, add(CFA_XSP16, literal(-16)))
        CFI VB load(1, XDATA, add(CFA_XSP16, literal(-17)))
        CFI R6 load(1, XDATA, add(CFA_XSP16, literal(-18)))
        CFI CFA_SP SP+0
        CFI CFA_XSP16 add(XSP16, 18)
        ; Saved register size: 18
        ; Auto size: 0
        MOV     ?V0 + 8,R2
        MOV     ?V0 + 9,R3
        MOV     ?V0 + 4,R1
        MOV     ?V0 + 6,R4
        MOV     ?V0 + 5,R5
        MOV     A,#0x12
        LCALL   ?XSTACK_DISP0_8
        MOV     R0,#?V0 + 0
        LCALL   ?L_MOV_X
        MOV     A,#0x16
        LCALL   ?XSTACK_DISP0_8
        LCALL   ??Subroutine108_0 & 0xFFFF
// 1329   uint8 *pBuf = ZDP_TmpBuf;
// 1330   byte len = sizeof( uint32 ) + 1;  // ChannelMask + ScanDuration
??CrossCallReturnLabel_226:
        MOV     ?V0 + 7,#0x5
// 1331 
// 1332   pBuf = osal_buffer_uint32( pBuf, ChannelMask );
        ; Setup parameters for call to function osal_buffer_uint32
        MOV     R0,#?V0 + 0
        LCALL   ?PUSH_XSTACK_I_FOUR
        CFI CFA_XSP16 add(XSP16, 22)
        LCALL   ?Subroutine38 & 0xFFFF
??CrossCallReturnLabel_48:
        LCALL   ?DEALLOC_XSTACK8
        CFI CFA_XSP16 add(XSP16, 18)
        MOV     DPL,R2
        MOV     DPH,R3
// 1333 
// 1334   *pBuf++ = ScanDuration;
        MOV     A,?V0 + 4
        MOVX    @DPTR,A
        INC     DPTR
// 1335 
// 1336   if ( ScanDuration <= 0x05 )
        CLR     C
        SUBB    A,#0x6
        JNC     ??ZDP_MgmtNwkUpdateReq_0
// 1337   {
// 1338     // Request is to scan over channelMask
// 1339     len += sizeof( uint8 );
        MOV     ?V0 + 7,#0x6
// 1340 
// 1341     *pBuf++ = ScanCount;
        MOV     A,?V0 + 6
        SJMP    ??ZDP_MgmtNwkUpdateReq_1
// 1342   }
// 1343   else if ( ( ScanDuration == 0xFE ) || ( ScanDuration == 0xFF ) )
??ZDP_MgmtNwkUpdateReq_0:
        MOV     A,#-0x2
        XRL     A,?V0 + 4
        JZ      ??ZDP_MgmtNwkUpdateReq_2
        MOV     A,#-0x1
        XRL     A,?V0 + 4
        JNZ     ??ZDP_MgmtNwkUpdateReq_3
// 1344   {
// 1345     // Request is to change Channel (0xFE) or apsChannelMask and NwkManagerAddr (0xFF)
// 1346     len += sizeof( uint8 );
??ZDP_MgmtNwkUpdateReq_2:
        MOV     ?V0 + 7,#0x6
// 1347 
// 1348     *pBuf++ = NwkUpdateId;
        MOV     A,?V0 + 5
        MOVX    @DPTR,A
        INC     DPTR
// 1349 
// 1350     if ( ScanDuration == 0xFF )
        MOV     A,#-0x1
        XRL     A,?V0 + 4
        JNZ     ??ZDP_MgmtNwkUpdateReq_3
// 1351     {
// 1352       len += sizeof( uint16 );
        MOV     ?V0 + 7,#0x8
// 1353 
// 1354       *pBuf++  = LO_UINT16( NwkManagerAddr );
        MOV     A,R6
        MOVX    @DPTR,A
        INC     DPTR
// 1355       *pBuf++  = HI_UINT16( NwkManagerAddr );
        MOV     A,R7
??ZDP_MgmtNwkUpdateReq_1:
        MOVX    @DPTR,A
// 1356     }
// 1357   }
// 1358 
// 1359   return fillAndSend( &ZDP_TransID, dstAddr, Mgmt_NWK_Update_req, len );
??ZDP_MgmtNwkUpdateReq_3:
        ; Setup parameters for call to function fillAndSend
        MOV     ?V0 + 0,#0x38
        MOV     ?V0 + 1,#0x0
        MOV     R0,#?V0 + 0
        LCALL   ?PUSH_XSTACK_I_TWO
        CFI CFA_XSP16 add(XSP16, 20)
        MOV     R1,?V0 + 7
        MOV     R4,?V0 + 8
        MOV     R5,?V0 + 9
        LCALL   ??Subroutine106_0 & 0xFFFF
        CFI EndBlock cfiBlock252
??CrossCallReturnLabel_207:
        REQUIRE ?Subroutine3
        ; // Fall through to label ?Subroutine3
// 1360 }

        RSEG BANKED_CODE:CODE:NOROOT(0)
?Subroutine3:
        CFI Block cfiBlock253 Using cfiCommon0
        CFI NoFunction
        CFI CFA_SP SP+0
        CFI CFA_XSP16 add(XSP16, 19)
        CFI VB load(1, XDATA, add(CFA_XSP16, literal(-17)))
        CFI DPL0 load(1, XDATA, add(CFA_XSP16, literal(-2)))
        CFI DPH0 load(1, XDATA, add(CFA_XSP16, literal(-1)))
        CFI R6 load(1, XDATA, add(CFA_XSP16, literal(-18)))
        CFI R7 load(1, XDATA, add(CFA_XSP16, literal(-6)))
        CFI V0 load(1, XDATA, add(CFA_XSP16, literal(-16)))
        CFI V1 load(1, XDATA, add(CFA_XSP16, literal(-15)))
        CFI V2 load(1, XDATA, add(CFA_XSP16, literal(-14)))
        CFI V3 load(1, XDATA, add(CFA_XSP16, literal(-13)))
        CFI V4 load(1, XDATA, add(CFA_XSP16, literal(-12)))
        CFI V5 load(1, XDATA, add(CFA_XSP16, literal(-11)))
        CFI V6 load(1, XDATA, add(CFA_XSP16, literal(-10)))
        CFI V7 load(1, XDATA, add(CFA_XSP16, literal(-9)))
        CFI V8 load(1, XDATA, add(CFA_XSP16, literal(-8)))
        CFI V9 load(1, XDATA, add(CFA_XSP16, literal(-7)))
        CFI ?BRET_EXT load(1, XDATA, add(CFA_XSP16, literal(-3)))
        CFI ?RET_HIGH load(1, XDATA, add(CFA_XSP16, literal(-4)))
        CFI ?RET_LOW load(1, XDATA, add(CFA_XSP16, literal(-5)))
        CFI Invalid
        LCALL   ?DEALLOC_XSTACK8
        CFI EndBlock cfiBlock253
        REQUIRE ??Subroutine95_0
        ; // Fall through to label ??Subroutine95_0

        RSEG BANKED_CODE:CODE:NOROOT(0)
??Subroutine95_0:
        CFI Block cfiBlock254 Using cfiCommon0
        CFI NoFunction
        CFI CFA_SP SP+0
        CFI CFA_XSP16 add(XSP16, 18)
        CFI VB load(1, XDATA, add(CFA_XSP16, literal(-17)))
        CFI DPL0 load(1, XDATA, add(CFA_XSP16, literal(-2)))
        CFI DPH0 load(1, XDATA, add(CFA_XSP16, literal(-1)))
        CFI R6 load(1, XDATA, add(CFA_XSP16, literal(-18)))
        CFI R7 load(1, XDATA, add(CFA_XSP16, literal(-6)))
        CFI V0 load(1, XDATA, add(CFA_XSP16, literal(-16)))
        CFI V1 load(1, XDATA, add(CFA_XSP16, literal(-15)))
        CFI V2 load(1, XDATA, add(CFA_XSP16, literal(-14)))
        CFI V3 load(1, XDATA, add(CFA_XSP16, literal(-13)))
        CFI V4 load(1, XDATA, add(CFA_XSP16, literal(-12)))
        CFI V5 load(1, XDATA, add(CFA_XSP16, literal(-11)))
        CFI V6 load(1, XDATA, add(CFA_XSP16, literal(-10)))
        CFI V7 load(1, XDATA, add(CFA_XSP16, literal(-9)))
        CFI V8 load(1, XDATA, add(CFA_XSP16, literal(-8)))
        CFI V9 load(1, XDATA, add(CFA_XSP16, literal(-7)))
        CFI ?BRET_EXT load(1, XDATA, add(CFA_XSP16, literal(-3)))
        CFI ?RET_HIGH load(1, XDATA, add(CFA_XSP16, literal(-4)))
        CFI ?RET_LOW load(1, XDATA, add(CFA_XSP16, literal(-5)))
        MOV     R7,#0xa
        LJMP    ?BANKED_LEAVE_XDATA
        CFI EndBlock cfiBlock254

        RSEG BANKED_CODE:CODE:NOROOT(0)
?Subroutine38:
        CFI Block cfiCond255 Using cfiCommon0
        CFI NoFunction
        CFI Conditional ??CrossCallReturnLabel_47
        CFI R6 load(1, XDATA, add(CFA_XSP16, literal(-16)))
        CFI VB load(1, XDATA, add(CFA_XSP16, literal(-15)))
        CFI V0 load(1, XDATA, add(CFA_XSP16, literal(-14)))
        CFI V1 load(1, XDATA, add(CFA_XSP16, literal(-13)))
        CFI V2 load(1, XDATA, add(CFA_XSP16, literal(-12)))
        CFI V3 load(1, XDATA, add(CFA_XSP16, literal(-11)))
        CFI V4 load(1, XDATA, add(CFA_XSP16, literal(-10)))
        CFI V5 load(1, XDATA, add(CFA_XSP16, literal(-9)))
        CFI V6 load(1, XDATA, add(CFA_XSP16, literal(-8)))
        CFI V7 load(1, XDATA, add(CFA_XSP16, literal(-7)))
        CFI R7 load(1, XDATA, add(CFA_XSP16, literal(-6)))
        CFI ?RET_LOW load(1, XDATA, add(CFA_XSP16, literal(-5)))
        CFI ?RET_HIGH load(1, XDATA, add(CFA_XSP16, literal(-4)))
        CFI ?BRET_EXT load(1, XDATA, add(CFA_XSP16, literal(-3)))
        CFI DPL0 load(1, XDATA, add(CFA_XSP16, literal(-2)))
        CFI DPH0 load(1, XDATA, add(CFA_XSP16, literal(-1)))
        CFI CFA_SP SP+0
        CFI CFA_XSP16 add(XSP16, 20)
        CFI Block cfiCond256 Using cfiCommon0
        CFI (cfiCond256) NoFunction
        CFI (cfiCond256) Conditional ??CrossCallReturnLabel_48
        CFI (cfiCond256) R6 load(1, XDATA, add(CFA_XSP16, literal(-18)))
        CFI (cfiCond256) VB load(1, XDATA, add(CFA_XSP16, literal(-17)))
        CFI (cfiCond256) V0 load(1, XDATA, add(CFA_XSP16, literal(-16)))
        CFI (cfiCond256) V1 load(1, XDATA, add(CFA_XSP16, literal(-15)))
        CFI (cfiCond256) V2 load(1, XDATA, add(CFA_XSP16, literal(-14)))
        CFI (cfiCond256) V3 load(1, XDATA, add(CFA_XSP16, literal(-13)))
        CFI (cfiCond256) V4 load(1, XDATA, add(CFA_XSP16, literal(-12)))
        CFI (cfiCond256) V5 load(1, XDATA, add(CFA_XSP16, literal(-11)))
        CFI (cfiCond256) V6 load(1, XDATA, add(CFA_XSP16, literal(-10)))
        CFI (cfiCond256) V7 load(1, XDATA, add(CFA_XSP16, literal(-9)))
        CFI (cfiCond256) V8 load(1, XDATA, add(CFA_XSP16, literal(-8)))
        CFI (cfiCond256) V9 load(1, XDATA, add(CFA_XSP16, literal(-7)))
        CFI (cfiCond256) R7 load(1, XDATA, add(CFA_XSP16, literal(-6)))
        CFI (cfiCond256) ?RET_LOW load(1, XDATA, add(CFA_XSP16, literal(-5)))
        CFI (cfiCond256) ?RET_HIGH load(1, XDATA, add(CFA_XSP16, literal(-4)))
        CFI (cfiCond256) ?BRET_EXT load(1, XDATA, add(CFA_XSP16, literal(-3)))
        CFI (cfiCond256) DPL0 load(1, XDATA, add(CFA_XSP16, literal(-2)))
        CFI (cfiCond256) DPH0 load(1, XDATA, add(CFA_XSP16, literal(-1)))
        CFI (cfiCond256) CFA_SP SP+0
        CFI (cfiCond256) CFA_XSP16 add(XSP16, 22)
        CFI Block cfiPicker257 Using cfiCommon1
        CFI (cfiPicker257) NoFunction
        CFI (cfiPicker257) Picker
        MOV     DPTR,#ZDP_TmpBuf
        MOVX    A,@DPTR
        MOV     R2,A
        INC     DPTR
        MOVX    A,@DPTR
        MOV     R3,A
        LCALL   ??osal_buffer_uint32?relay
        MOV     A,#0x4
        RET
        CFI EndBlock cfiCond255
        CFI EndBlock cfiCond256
        CFI EndBlock cfiPicker257
// 1361 
// 1362 
// 1363 /*********************************************************************
// 1364  * Network Management Responses
// 1365  */
// 1366 
// 1367 /*********************************************************************
// 1368  * @fn          ZDP_MgmtNwkDiscRsp
// 1369  *
// 1370  * @brief       This builds and send a Mgmt_NWK_Disc_rsp message. This
// 1371  *              function sends a unicast message.
// 1372  *
// 1373  * @param       dstAddr - destination address of the message
// 1374  * @param       Status - message status (ZDP_SUCCESS or other)
// 1375  * @param       NetworkCount - Total number of networks found
// 1376  * @param       StartIndex - Starting index within the reporting network
// 1377  *                           list
// 1378  * @param       NetworkListCount - number of network lists included
// 1379  *                                 in this message
// 1380  * @param       NetworkList - List of network descriptors
// 1381  * @param       SecurityEnable - Security Options
// 1382  *
// 1383  * @return      afStatus_t
// 1384  */

        RSEG BANKED_CODE:CODE:NOROOT(0)
// 1385 afStatus_t ZDP_MgmtNwkDiscRsp( byte TransSeq, zAddrType_t *dstAddr,
ZDP_MgmtNwkDiscRsp:
        CFI Block cfiBlock258 Using cfiCommon0
        CFI Function ZDP_MgmtNwkDiscRsp
        CODE
// 1386                             byte Status,
// 1387                             byte NetworkCount,
// 1388                             byte StartIndex,
// 1389                             byte NetworkListCount,
// 1390                             networkDesc_t *NetworkList,
// 1391                             byte SecurityEnable )
// 1392 {
        FUNCALL ZDP_MgmtNwkDiscRsp, osal_mem_alloc
        LOCFRAME ISTACK, 0, STACK
        LOCFRAME PSTACK, 0, STACK
        LOCFRAME XSTACK, 23, STACK
        LOCFRAME IOVERLAY, 0, STATIC
        LOCFRAME DOVERLAY, 0, STATIC
        ARGFRAME ISTACK, 0, STACK
        ARGFRAME PSTACK, 0, STACK
        ARGFRAME XSTACK, 23, STACK
        ARGFRAME IOVERLAY, 0, STATIC
        ARGFRAME DOVERLAY, 0, STATIC
        FUNCALL ZDP_MgmtNwkDiscRsp, sAddrExtCpy
        LOCFRAME ISTACK, 0, STACK
        LOCFRAME PSTACK, 0, STACK
        LOCFRAME XSTACK, 23, STACK
        LOCFRAME IOVERLAY, 0, STATIC
        LOCFRAME DOVERLAY, 0, STATIC
        ARGFRAME ISTACK, 0, STACK
        ARGFRAME PSTACK, 0, STACK
        ARGFRAME XSTACK, 23, STACK
        ARGFRAME IOVERLAY, 0, STATIC
        ARGFRAME DOVERLAY, 0, STATIC
        FUNCALL ZDP_MgmtNwkDiscRsp, fillAndSend
        LOCFRAME ISTACK, 0, STACK
        LOCFRAME PSTACK, 0, STACK
        LOCFRAME XSTACK, 25, STACK
        LOCFRAME IOVERLAY, 0, STATIC
        LOCFRAME DOVERLAY, 0, STATIC
        ARGFRAME ISTACK, 0, STACK
        ARGFRAME PSTACK, 0, STACK
        ARGFRAME XSTACK, 25, STACK
        ARGFRAME IOVERLAY, 0, STATIC
        ARGFRAME DOVERLAY, 0, STATIC
        FUNCALL ZDP_MgmtNwkDiscRsp, osal_mem_free
        LOCFRAME ISTACK, 0, STACK
        LOCFRAME PSTACK, 0, STACK
        LOCFRAME XSTACK, 23, STACK
        LOCFRAME IOVERLAY, 0, STATIC
        LOCFRAME DOVERLAY, 0, STATIC
        ARGFRAME ISTACK, 0, STACK
        ARGFRAME PSTACK, 0, STACK
        ARGFRAME XSTACK, 23, STACK
        ARGFRAME IOVERLAY, 0, STATIC
        ARGFRAME DOVERLAY, 0, STATIC
        MOV     A,#-0x16
        LCALL   ?BANKED_ENTER_XDATA
        CFI DPH0 load(1, XDATA, add(CFA_XSP16, literal(-1)))
        CFI DPL0 load(1, XDATA, add(CFA_XSP16, literal(-2)))
        CFI ?BRET_EXT load(1, XDATA, add(CFA_XSP16, literal(-3)))
        CFI ?RET_HIGH load(1, XDATA, add(CFA_XSP16, literal(-4)))
        CFI ?RET_LOW load(1, XDATA, add(CFA_XSP16, literal(-5)))
        CFI R7 load(1, XDATA, add(CFA_XSP16, literal(-6)))
        CFI V13 load(1, XDATA, add(CFA_XSP16, literal(-7)))
        CFI V12 load(1, XDATA, add(CFA_XSP16, literal(-8)))
        CFI V11 load(1, XDATA, add(CFA_XSP16, literal(-9)))
        CFI V10 load(1, XDATA, add(CFA_XSP16, literal(-10)))
        CFI V9 load(1, XDATA, add(CFA_XSP16, literal(-11)))
        CFI V8 load(1, XDATA, add(CFA_XSP16, literal(-12)))
        CFI V7 load(1, XDATA, add(CFA_XSP16, literal(-13)))
        CFI V6 load(1, XDATA, add(CFA_XSP16, literal(-14)))
        CFI V5 load(1, XDATA, add(CFA_XSP16, literal(-15)))
        CFI V4 load(1, XDATA, add(CFA_XSP16, literal(-16)))
        CFI V3 load(1, XDATA, add(CFA_XSP16, literal(-17)))
        CFI V2 load(1, XDATA, add(CFA_XSP16, literal(-18)))
        CFI V1 load(1, XDATA, add(CFA_XSP16, literal(-19)))
        CFI V0 load(1, XDATA, add(CFA_XSP16, literal(-20)))
        CFI VB load(1, XDATA, add(CFA_XSP16, literal(-21)))
        CFI R6 load(1, XDATA, add(CFA_XSP16, literal(-22)))
        CFI CFA_SP SP+0
        CFI CFA_XSP16 add(XSP16, 22)
        ; Saved register size: 22
        ; Auto size: 1
        MOV     A,#-0x1
        LCALL   ?ALLOC_XSTACK8
        CFI CFA_XSP16 add(XSP16, 23)
        MOV     A,R1
        MOV     DPL,?XSP + 0
        MOV     DPH,?XSP + 1
        MOVX    @DPTR,A
        MOV     ?V0 + 12,R2
        MOV     ?V0 + 13,R3
        MOV     ?V0 + 9,R4
        MOV     ?V0 + 8,R5
        MOV     A,#0x17
        LCALL   ?XSTACK_DISP0_8
        MOVX    A,@DPTR
        MOV     ?V0 + 2,A
        MOV     A,#0x18
        LCALL   ?XSTACK_DISP0_8
        MOVX    A,@DPTR
        MOV     ?V0 + 10,A
        MOV     A,#0x19
        LCALL   ?XSTACK_DISP0_8
        LCALL   ??Subroutine99_0 & 0xFFFF
// 1393   uint8 *buf;
// 1394   uint8 *pBuf;
// 1395   byte len = 1+1+1+1;  // Status + NetworkCount + StartIndex + NetworkCountList.
// 1396   byte idx;
// 1397 
// 1398   (void)SecurityEnable;  // Intentionally unreferenced parameter
// 1399 
// 1400   len += (NetworkListCount * ( ZDP_NETWORK_EXTENDED_DISCRIPTOR_SIZE - 2 ));
??CrossCallReturnLabel_167:
        MOV     B,#0xc
        MOV     A,?V0 + 10
        MUL     AB
        ADD     A,#0x4
        LCALL   ?Subroutine61 & 0xFFFF
// 1401 
// 1402   buf = osal_mem_alloc( len+1 );
??CrossCallReturnLabel_153:
        MOV     ?V0 + 4,R2
        MOV     ?V0 + 5,R3
// 1403   if ( buf == NULL )
        MOV     A,R2
        ORL     A,?V0 + 5
        JNZ     ??ZDP_MgmtNwkDiscRsp_0
// 1404   {
// 1405     return afStatus_MEM_FAIL;
        MOV     R1,#0x10
        LJMP    ??CrossCallReturnLabel_175 & 0xFFFF
// 1406   }
// 1407 
// 1408   pBuf = buf+1;
??ZDP_MgmtNwkDiscRsp_0:
        MOV     DPL,R2
        MOV     DPH,R3
        INC     DPTR
        MOV     ?V0 + 6,DPL
        MOV     ?V0 + 7,DPH
// 1409 
// 1410   *pBuf++ = Status;
        MOV     A,?V0 + 9
        MOVX    @DPTR,A
        INC     DPTR
// 1411   *pBuf++ = NetworkCount;
        MOV     A,?V0 + 8
        MOVX    @DPTR,A
        INC     DPTR
// 1412   *pBuf++ = StartIndex;
        MOV     A,?V0 + 2
        LCALL   ?Subroutine50 & 0xFFFF
// 1413   *pBuf++ = NetworkListCount;
// 1414 
// 1415   for ( idx = 0; idx < NetworkListCount; idx++ )
??CrossCallReturnLabel_157:
        JNZ     $+5
        LJMP    ??ZDP_MgmtNwkDiscRsp_1 & 0xFFFF
        MOV     ?V0 + 2,A
// 1416   {
// 1417     osal_cpyExtAddr( pBuf, NetworkList->extendedPANID);
??ZDP_MgmtNwkDiscRsp_2:
        ; Setup parameters for call to function sAddrExtCpy
        MOV     A,?V0 + 0
        ADD     A,#0xb
        LCALL   ?Subroutine65 & 0xFFFF
// 1418     pBuf += Z_EXTADDR_LEN;
??CrossCallReturnLabel_95:
        MOV     A,R6
        ADD     A,#0x8
        MOV     R6,A
        MOV     A,R7
        ADDC    A,#0x0
        MOV     R7,A
// 1419 
// 1420     *pBuf++  = NetworkList->logicalChannel;                // LogicalChannel
        MOV     DPL,?V0 + 0
        MOV     DPH,?V0 + 1
        INC     DPTR
        INC     DPTR
        LCALL   ?Subroutine14 & 0xFFFF
// 1421     *pBuf    = NetworkList->stackProfile;                  // Stack profile
??CrossCallReturnLabel_6:
        MOV     DPL,?V0 + 0
        MOV     DPH,?V0 + 1
        INC     DPTR
        INC     DPTR
        INC     DPTR
        INC     DPTR
        INC     DPTR
        INC     DPTR
        MOVX    A,@DPTR
        MOV     DPL,R6
        MOV     DPH,R7
        LCALL   ?Subroutine56 & 0xFFFF
// 1422     *pBuf++ |= (byte)(NetworkList->version << 4);          // ZigBee Version
??CrossCallReturnLabel_83:
        MOV     DPL,?V0 + 0
        MOV     DPH,?V0 + 1
        INC     DPTR
        INC     DPTR
        INC     DPTR
        INC     DPTR
        INC     DPTR
        LCALL   ?Subroutine30 & 0xFFFF
// 1423     *pBuf    = BEACON_ORDER_NO_BEACONS;                    // Beacon Order
??CrossCallReturnLabel_32:
        MOV     DPL,R6
        MOV     DPH,R7
        MOV     A,#0xf
        MOVX    @DPTR,A
// 1424     *pBuf++ |= (uint8)(BEACON_ORDER_NO_BEACONS << 4);      // Superframe Order
        INC     R0
        MOV     A,R7
        MOV     R1,A
        INC     DPTR
        INC     R6
        MOV     R7,DPH
        MOV     DPL,R0
        MOV     DPH,R1
        MOV     A,#0xf
        ORL     A,#0xf0
        MOVX    @DPTR,A
// 1425 
// 1426     if ( NetworkList->chosenRouter != INVALID_NODE_ADDR )
        MOV     DPL,R6
        MOV     DPH,R7
        INC     DPTR
        MOV     R1,DPH
        MOV     DPL,?V0 + 0
        MOV     DPH,?V0 + 1
        INC     DPTR
        INC     DPTR
        INC     DPTR
        INC     DPTR
        INC     DPTR
        INC     DPTR
        INC     DPTR
        MOVX    A,@DPTR
        XRL     A,#0xfe
        JNZ     ??ZDP_MgmtNwkDiscRsp_3
        INC     DPTR
        MOVX    A,@DPTR
        CPL     A
??ZDP_MgmtNwkDiscRsp_3:
        MOV     DPL,R6
        MOV     DPH,R7
        JZ      ??ZDP_MgmtNwkDiscRsp_4
// 1427     {
// 1428       *pBuf++ = TRUE;                         // Permit Joining
        MOV     A,#0x1
        SJMP    ??ZDP_MgmtNwkDiscRsp_5
// 1429     }
// 1430     else
// 1431     {
// 1432       *pBuf++ = FALSE;
??ZDP_MgmtNwkDiscRsp_4:
        CLR     A
??ZDP_MgmtNwkDiscRsp_5:
        MOVX    @DPTR,A
        INC     R6
        MOV     A,R1
        MOV     R7,A
// 1433     }
// 1434 
// 1435     NetworkList = NetworkList->nextDesc;    // Move to next list entry
        MOV     A,?V0 + 0
        ADD     A,#0x14
        LCALL   ?Subroutine66 & 0xFFFF
// 1436   }
??CrossCallReturnLabel_253:
        LCALL   ??Subroutine99_0 & 0xFFFF
??CrossCallReturnLabel_168:
        DEC     ?V0 + 2
        MOV     A,?V0 + 2
        JZ      $+5
        LJMP    ??ZDP_MgmtNwkDiscRsp_2 & 0xFFFF
// 1437 
// 1438   FillAndSendBuffer( &TransSeq, dstAddr, Mgmt_NWK_Disc_rsp, len, buf );
??ZDP_MgmtNwkDiscRsp_1:
        MOV     DPTR,#ZDP_TmpBuf
        MOV     A,?V0 + 6
        MOVX    @DPTR,A
        INC     DPTR
        MOV     A,?V0 + 7
        MOVX    @DPTR,A
        ; Setup parameters for call to function fillAndSend
        MOV     ?V0 + 0,#0x30
        MOV     ?V0 + 1,#-0x80
        MOV     R0,#?V0 + 0
        LCALL   ?PUSH_XSTACK_I_TWO
        CFI CFA_XSP16 add(XSP16, 25)
        MOV     R1,?V0 + 3
        MOV     R4,?V0 + 12
        MOV     R5,?V0 + 13
        MOV     A,#0x2
        LCALL   ?XSTACK_DISP0_8
        MOV     R2,DPL
        MOV     R3,DPH
        LCALL   ??Subroutine107_0 & 0xFFFF
??CrossCallReturnLabel_216:
        LCALL   ?DEALLOC_XSTACK8
        CFI CFA_XSP16 add(XSP16, 23)
        MOV     A,R1
        MOV     R6,A
        ; Setup parameters for call to function osal_mem_free
        MOV     R2,?V0 + 4
        MOV     R3,?V0 + 5
        LCALL   ??Subroutine100_0 & 0xFFFF
        CFI EndBlock cfiBlock258
??CrossCallReturnLabel_175:
        REQUIRE ?Subroutine5
        ; // Fall through to label ?Subroutine5
// 1439 }

        RSEG BANKED_CODE:CODE:NOROOT(0)
?Subroutine5:
        CFI Block cfiBlock259 Using cfiCommon0
        CFI NoFunction
        CFI CFA_SP SP+0
        CFI CFA_XSP16 add(XSP16, 23)
        CFI VB load(1, XDATA, add(CFA_XSP16, literal(-21)))
        CFI DPL0 load(1, XDATA, add(CFA_XSP16, literal(-2)))
        CFI DPH0 load(1, XDATA, add(CFA_XSP16, literal(-1)))
        CFI R6 load(1, XDATA, add(CFA_XSP16, literal(-22)))
        CFI R7 load(1, XDATA, add(CFA_XSP16, literal(-6)))
        CFI V0 load(1, XDATA, add(CFA_XSP16, literal(-20)))
        CFI V1 load(1, XDATA, add(CFA_XSP16, literal(-19)))
        CFI V2 load(1, XDATA, add(CFA_XSP16, literal(-18)))
        CFI V3 load(1, XDATA, add(CFA_XSP16, literal(-17)))
        CFI V4 load(1, XDATA, add(CFA_XSP16, literal(-16)))
        CFI V5 load(1, XDATA, add(CFA_XSP16, literal(-15)))
        CFI V6 load(1, XDATA, add(CFA_XSP16, literal(-14)))
        CFI V7 load(1, XDATA, add(CFA_XSP16, literal(-13)))
        CFI V8 load(1, XDATA, add(CFA_XSP16, literal(-12)))
        CFI V9 load(1, XDATA, add(CFA_XSP16, literal(-11)))
        CFI V10 load(1, XDATA, add(CFA_XSP16, literal(-10)))
        CFI V11 load(1, XDATA, add(CFA_XSP16, literal(-9)))
        CFI V12 load(1, XDATA, add(CFA_XSP16, literal(-8)))
        CFI V13 load(1, XDATA, add(CFA_XSP16, literal(-7)))
        CFI ?BRET_EXT load(1, XDATA, add(CFA_XSP16, literal(-3)))
        CFI ?RET_HIGH load(1, XDATA, add(CFA_XSP16, literal(-4)))
        CFI ?RET_LOW load(1, XDATA, add(CFA_XSP16, literal(-5)))
        MOV     A,#0x1
        LCALL   ?DEALLOC_XSTACK8
        CFI EndBlock cfiBlock259
        REQUIRE ??Subroutine96_0
        ; // Fall through to label ??Subroutine96_0

        RSEG BANKED_CODE:CODE:NOROOT(0)
??Subroutine96_0:
        CFI Block cfiBlock260 Using cfiCommon0
        CFI NoFunction
        CFI CFA_SP SP+0
        CFI CFA_XSP16 add(XSP16, 22)
        CFI VB load(1, XDATA, add(CFA_XSP16, literal(-21)))
        CFI DPL0 load(1, XDATA, add(CFA_XSP16, literal(-2)))
        CFI DPH0 load(1, XDATA, add(CFA_XSP16, literal(-1)))
        CFI R6 load(1, XDATA, add(CFA_XSP16, literal(-22)))
        CFI R7 load(1, XDATA, add(CFA_XSP16, literal(-6)))
        CFI V0 load(1, XDATA, add(CFA_XSP16, literal(-20)))
        CFI V1 load(1, XDATA, add(CFA_XSP16, literal(-19)))
        CFI V2 load(1, XDATA, add(CFA_XSP16, literal(-18)))
        CFI V3 load(1, XDATA, add(CFA_XSP16, literal(-17)))
        CFI V4 load(1, XDATA, add(CFA_XSP16, literal(-16)))
        CFI V5 load(1, XDATA, add(CFA_XSP16, literal(-15)))
        CFI V6 load(1, XDATA, add(CFA_XSP16, literal(-14)))
        CFI V7 load(1, XDATA, add(CFA_XSP16, literal(-13)))
        CFI V8 load(1, XDATA, add(CFA_XSP16, literal(-12)))
        CFI V9 load(1, XDATA, add(CFA_XSP16, literal(-11)))
        CFI V10 load(1, XDATA, add(CFA_XSP16, literal(-10)))
        CFI V11 load(1, XDATA, add(CFA_XSP16, literal(-9)))
        CFI V12 load(1, XDATA, add(CFA_XSP16, literal(-8)))
        CFI V13 load(1, XDATA, add(CFA_XSP16, literal(-7)))
        CFI ?BRET_EXT load(1, XDATA, add(CFA_XSP16, literal(-3)))
        CFI ?RET_HIGH load(1, XDATA, add(CFA_XSP16, literal(-4)))
        CFI ?RET_LOW load(1, XDATA, add(CFA_XSP16, literal(-5)))
        MOV     R7,#0xe
        LJMP    ?BANKED_LEAVE_XDATA
        CFI EndBlock cfiBlock260

        RSEG BANKED_CODE:CODE:NOROOT(0)
?Subroutine61:
        CFI Block cfiCond261 Using cfiCommon0
        CFI NoFunction
        CFI Conditional ??CrossCallReturnLabel_153
        CFI R6 load(1, XDATA, add(CFA_XSP16, literal(-22)))
        CFI VB load(1, XDATA, add(CFA_XSP16, literal(-21)))
        CFI V0 load(1, XDATA, add(CFA_XSP16, literal(-20)))
        CFI V1 load(1, XDATA, add(CFA_XSP16, literal(-19)))
        CFI V2 load(1, XDATA, add(CFA_XSP16, literal(-18)))
        CFI V3 load(1, XDATA, add(CFA_XSP16, literal(-17)))
        CFI V4 load(1, XDATA, add(CFA_XSP16, literal(-16)))
        CFI V5 load(1, XDATA, add(CFA_XSP16, literal(-15)))
        CFI V6 load(1, XDATA, add(CFA_XSP16, literal(-14)))
        CFI V7 load(1, XDATA, add(CFA_XSP16, literal(-13)))
        CFI V8 load(1, XDATA, add(CFA_XSP16, literal(-12)))
        CFI V9 load(1, XDATA, add(CFA_XSP16, literal(-11)))
        CFI V10 load(1, XDATA, add(CFA_XSP16, literal(-10)))
        CFI V11 load(1, XDATA, add(CFA_XSP16, literal(-9)))
        CFI V12 load(1, XDATA, add(CFA_XSP16, literal(-8)))
        CFI V13 load(1, XDATA, add(CFA_XSP16, literal(-7)))
        CFI R7 load(1, XDATA, add(CFA_XSP16, literal(-6)))
        CFI ?RET_LOW load(1, XDATA, add(CFA_XSP16, literal(-5)))
        CFI ?RET_HIGH load(1, XDATA, add(CFA_XSP16, literal(-4)))
        CFI ?BRET_EXT load(1, XDATA, add(CFA_XSP16, literal(-3)))
        CFI DPL0 load(1, XDATA, add(CFA_XSP16, literal(-2)))
        CFI DPH0 load(1, XDATA, add(CFA_XSP16, literal(-1)))
        CFI CFA_SP SP+0
        CFI CFA_XSP16 add(XSP16, 23)
        CFI Block cfiCond262 Using cfiCommon0
        CFI (cfiCond262) NoFunction
        CFI (cfiCond262) Conditional ??CrossCallReturnLabel_154
        CFI (cfiCond262) R6 load(1, XDATA, add(CFA_XSP16, literal(-24)))
        CFI (cfiCond262) VB load(1, XDATA, add(CFA_XSP16, literal(-23)))
        CFI (cfiCond262) V0 load(1, XDATA, add(CFA_XSP16, literal(-22)))
        CFI (cfiCond262) V1 load(1, XDATA, add(CFA_XSP16, literal(-21)))
        CFI (cfiCond262) V2 load(1, XDATA, add(CFA_XSP16, literal(-20)))
        CFI (cfiCond262) V3 load(1, XDATA, add(CFA_XSP16, literal(-19)))
        CFI (cfiCond262) V4 load(1, XDATA, add(CFA_XSP16, literal(-18)))
        CFI (cfiCond262) V5 load(1, XDATA, add(CFA_XSP16, literal(-17)))
        CFI (cfiCond262) V6 load(1, XDATA, add(CFA_XSP16, literal(-16)))
        CFI (cfiCond262) V7 load(1, XDATA, add(CFA_XSP16, literal(-15)))
        CFI (cfiCond262) V8 load(1, XDATA, add(CFA_XSP16, literal(-14)))
        CFI (cfiCond262) V9 load(1, XDATA, add(CFA_XSP16, literal(-13)))
        CFI (cfiCond262) V10 load(1, XDATA, add(CFA_XSP16, literal(-12)))
        CFI (cfiCond262) V11 load(1, XDATA, add(CFA_XSP16, literal(-11)))
        CFI (cfiCond262) V12 load(1, XDATA, add(CFA_XSP16, literal(-10)))
        CFI (cfiCond262) V13 load(1, XDATA, add(CFA_XSP16, literal(-9)))
        CFI (cfiCond262) V14 load(1, XDATA, add(CFA_XSP16, literal(-8)))
        CFI (cfiCond262) V15 load(1, XDATA, add(CFA_XSP16, literal(-7)))
        CFI (cfiCond262) R7 load(1, XDATA, add(CFA_XSP16, literal(-6)))
        CFI (cfiCond262) ?RET_LOW load(1, XDATA, add(CFA_XSP16, literal(-5)))
        CFI (cfiCond262) ?RET_HIGH load(1, XDATA, add(CFA_XSP16, literal(-4)))
        CFI (cfiCond262) ?BRET_EXT load(1, XDATA, add(CFA_XSP16, literal(-3)))
        CFI (cfiCond262) DPL0 load(1, XDATA, add(CFA_XSP16, literal(-2)))
        CFI (cfiCond262) DPH0 load(1, XDATA, add(CFA_XSP16, literal(-1)))
        CFI (cfiCond262) CFA_SP SP+0
        CFI (cfiCond262) CFA_XSP16 add(XSP16, 27)
        CFI Block cfiPicker263 Using cfiCommon1
        CFI (cfiPicker263) NoFunction
        CFI (cfiPicker263) Picker
        MOV     ?V0 + 3,A
        CFI EndBlock cfiCond261
        CFI EndBlock cfiCond262
        CFI EndBlock cfiPicker263
        ; Setup parameters for call to function osal_mem_alloc
        ; Setup parameters for call to function osal_mem_alloc
        REQUIRE ??Subroutine97_0
        ; // Fall through to label ??Subroutine97_0

        RSEG BANKED_CODE:CODE:NOROOT(0)
??Subroutine97_0:
        CFI Block cfiCond264 Using cfiCommon0
        CFI NoFunction
        CFI Conditional ??CrossCallReturnLabel_155
        CFI R6 load(1, XDATA, add(CFA_XSP16, literal(-22)))
        CFI VB load(1, XDATA, add(CFA_XSP16, literal(-21)))
        CFI V0 load(1, XDATA, add(CFA_XSP16, literal(-20)))
        CFI V1 load(1, XDATA, add(CFA_XSP16, literal(-19)))
        CFI V2 load(1, XDATA, add(CFA_XSP16, literal(-18)))
        CFI V3 load(1, XDATA, add(CFA_XSP16, literal(-17)))
        CFI V4 load(1, XDATA, add(CFA_XSP16, literal(-16)))
        CFI V5 load(1, XDATA, add(CFA_XSP16, literal(-15)))
        CFI V6 load(1, XDATA, add(CFA_XSP16, literal(-14)))
        CFI V7 load(1, XDATA, add(CFA_XSP16, literal(-13)))
        CFI V8 load(1, XDATA, add(CFA_XSP16, literal(-12)))
        CFI V9 load(1, XDATA, add(CFA_XSP16, literal(-11)))
        CFI V10 load(1, XDATA, add(CFA_XSP16, literal(-10)))
        CFI V11 load(1, XDATA, add(CFA_XSP16, literal(-9)))
        CFI V12 load(1, XDATA, add(CFA_XSP16, literal(-8)))
        CFI V13 load(1, XDATA, add(CFA_XSP16, literal(-7)))
        CFI R7 load(1, XDATA, add(CFA_XSP16, literal(-6)))
        CFI ?RET_LOW load(1, XDATA, add(CFA_XSP16, literal(-5)))
        CFI ?RET_HIGH load(1, XDATA, add(CFA_XSP16, literal(-4)))
        CFI ?BRET_EXT load(1, XDATA, add(CFA_XSP16, literal(-3)))
        CFI DPL0 load(1, XDATA, add(CFA_XSP16, literal(-2)))
        CFI DPH0 load(1, XDATA, add(CFA_XSP16, literal(-1)))
        CFI CFA_SP SP+0
        CFI CFA_XSP16 add(XSP16, 23)
        CFI Block cfiCond265 Using cfiCommon0
        CFI (cfiCond265) NoFunction
        CFI (cfiCond265) Conditional ??CrossCallReturnLabel_156
        CFI (cfiCond265) R6 load(1, XDATA, add(CFA_XSP16, literal(-20)))
        CFI (cfiCond265) VB load(1, XDATA, add(CFA_XSP16, literal(-19)))
        CFI (cfiCond265) V0 load(1, XDATA, add(CFA_XSP16, literal(-18)))
        CFI (cfiCond265) V1 load(1, XDATA, add(CFA_XSP16, literal(-17)))
        CFI (cfiCond265) V2 load(1, XDATA, add(CFA_XSP16, literal(-16)))
        CFI (cfiCond265) V3 load(1, XDATA, add(CFA_XSP16, literal(-15)))
        CFI (cfiCond265) V4 load(1, XDATA, add(CFA_XSP16, literal(-14)))
        CFI (cfiCond265) V5 load(1, XDATA, add(CFA_XSP16, literal(-13)))
        CFI (cfiCond265) V6 load(1, XDATA, add(CFA_XSP16, literal(-12)))
        CFI (cfiCond265) V7 load(1, XDATA, add(CFA_XSP16, literal(-11)))
        CFI (cfiCond265) V8 load(1, XDATA, add(CFA_XSP16, literal(-10)))
        CFI (cfiCond265) V9 load(1, XDATA, add(CFA_XSP16, literal(-9)))
        CFI (cfiCond265) V10 load(1, XDATA, add(CFA_XSP16, literal(-8)))
        CFI (cfiCond265) V11 load(1, XDATA, add(CFA_XSP16, literal(-7)))
        CFI (cfiCond265) R7 load(1, XDATA, add(CFA_XSP16, literal(-6)))
        CFI (cfiCond265) ?RET_LOW load(1, XDATA, add(CFA_XSP16, literal(-5)))
        CFI (cfiCond265) ?RET_HIGH load(1, XDATA, add(CFA_XSP16, literal(-4)))
        CFI (cfiCond265) ?BRET_EXT load(1, XDATA, add(CFA_XSP16, literal(-3)))
        CFI (cfiCond265) DPL0 load(1, XDATA, add(CFA_XSP16, literal(-2)))
        CFI (cfiCond265) DPH0 load(1, XDATA, add(CFA_XSP16, literal(-1)))
        CFI (cfiCond265) CFA_SP SP+0
        CFI (cfiCond265) CFA_XSP16 add(XSP16, 21)
        CFI Block cfiCond266 Using cfiCommon0
        CFI (cfiCond266) NoFunction
        CFI (cfiCond266) Conditional ??CrossCallReturnLabel_153
        CFI (cfiCond266) R6 load(1, XDATA, add(CFA_XSP16, literal(-22)))
        CFI (cfiCond266) VB load(1, XDATA, add(CFA_XSP16, literal(-21)))
        CFI (cfiCond266) V0 load(1, XDATA, add(CFA_XSP16, literal(-20)))
        CFI (cfiCond266) V1 load(1, XDATA, add(CFA_XSP16, literal(-19)))
        CFI (cfiCond266) V2 load(1, XDATA, add(CFA_XSP16, literal(-18)))
        CFI (cfiCond266) V3 load(1, XDATA, add(CFA_XSP16, literal(-17)))
        CFI (cfiCond266) V4 load(1, XDATA, add(CFA_XSP16, literal(-16)))
        CFI (cfiCond266) V5 load(1, XDATA, add(CFA_XSP16, literal(-15)))
        CFI (cfiCond266) V6 load(1, XDATA, add(CFA_XSP16, literal(-14)))
        CFI (cfiCond266) V7 load(1, XDATA, add(CFA_XSP16, literal(-13)))
        CFI (cfiCond266) V8 load(1, XDATA, add(CFA_XSP16, literal(-12)))
        CFI (cfiCond266) V9 load(1, XDATA, add(CFA_XSP16, literal(-11)))
        CFI (cfiCond266) V10 load(1, XDATA, add(CFA_XSP16, literal(-10)))
        CFI (cfiCond266) V11 load(1, XDATA, add(CFA_XSP16, literal(-9)))
        CFI (cfiCond266) V12 load(1, XDATA, add(CFA_XSP16, literal(-8)))
        CFI (cfiCond266) V13 load(1, XDATA, add(CFA_XSP16, literal(-7)))
        CFI (cfiCond266) R7 load(1, XDATA, add(CFA_XSP16, literal(-6)))
        CFI (cfiCond266) ?RET_LOW load(1, XDATA, add(CFA_XSP16, literal(-5)))
        CFI (cfiCond266) ?RET_HIGH load(1, XDATA, add(CFA_XSP16, literal(-4)))
        CFI (cfiCond266) ?BRET_EXT load(1, XDATA, add(CFA_XSP16, literal(-3)))
        CFI (cfiCond266) DPL0 load(1, XDATA, add(CFA_XSP16, literal(-2)))
        CFI (cfiCond266) DPH0 load(1, XDATA, add(CFA_XSP16, literal(-1)))
        CFI (cfiCond266) CFA_SP SP+0
        CFI (cfiCond266) CFA_XSP16 add(XSP16, 23)
        CFI Block cfiCond267 Using cfiCommon0
        CFI (cfiCond267) NoFunction
        CFI (cfiCond267) Conditional ??CrossCallReturnLabel_154
        CFI (cfiCond267) R6 load(1, XDATA, add(CFA_XSP16, literal(-24)))
        CFI (cfiCond267) VB load(1, XDATA, add(CFA_XSP16, literal(-23)))
        CFI (cfiCond267) V0 load(1, XDATA, add(CFA_XSP16, literal(-22)))
        CFI (cfiCond267) V1 load(1, XDATA, add(CFA_XSP16, literal(-21)))
        CFI (cfiCond267) V2 load(1, XDATA, add(CFA_XSP16, literal(-20)))
        CFI (cfiCond267) V3 load(1, XDATA, add(CFA_XSP16, literal(-19)))
        CFI (cfiCond267) V4 load(1, XDATA, add(CFA_XSP16, literal(-18)))
        CFI (cfiCond267) V5 load(1, XDATA, add(CFA_XSP16, literal(-17)))
        CFI (cfiCond267) V6 load(1, XDATA, add(CFA_XSP16, literal(-16)))
        CFI (cfiCond267) V7 load(1, XDATA, add(CFA_XSP16, literal(-15)))
        CFI (cfiCond267) V8 load(1, XDATA, add(CFA_XSP16, literal(-14)))
        CFI (cfiCond267) V9 load(1, XDATA, add(CFA_XSP16, literal(-13)))
        CFI (cfiCond267) V10 load(1, XDATA, add(CFA_XSP16, literal(-12)))
        CFI (cfiCond267) V11 load(1, XDATA, add(CFA_XSP16, literal(-11)))
        CFI (cfiCond267) V12 load(1, XDATA, add(CFA_XSP16, literal(-10)))
        CFI (cfiCond267) V13 load(1, XDATA, add(CFA_XSP16, literal(-9)))
        CFI (cfiCond267) V14 load(1, XDATA, add(CFA_XSP16, literal(-8)))
        CFI (cfiCond267) V15 load(1, XDATA, add(CFA_XSP16, literal(-7)))
        CFI (cfiCond267) R7 load(1, XDATA, add(CFA_XSP16, literal(-6)))
        CFI (cfiCond267) ?RET_LOW load(1, XDATA, add(CFA_XSP16, literal(-5)))
        CFI (cfiCond267) ?RET_HIGH load(1, XDATA, add(CFA_XSP16, literal(-4)))
        CFI (cfiCond267) ?BRET_EXT load(1, XDATA, add(CFA_XSP16, literal(-3)))
        CFI (cfiCond267) DPL0 load(1, XDATA, add(CFA_XSP16, literal(-2)))
        CFI (cfiCond267) DPH0 load(1, XDATA, add(CFA_XSP16, literal(-1)))
        CFI (cfiCond267) CFA_SP SP+0
        CFI (cfiCond267) CFA_XSP16 add(XSP16, 27)
        CFI Block cfiPicker268 Using cfiCommon1
        CFI (cfiPicker268) NoFunction
        CFI (cfiPicker268) Picker
        ADD     A,#0x1
        MOV     R2,A
        CLR     A
        ADDC    A,#0x0
        MOV     R3,A
        LCALL   ??osal_mem_alloc?relay
        RET
        CFI EndBlock cfiCond264
        CFI EndBlock cfiCond265
        CFI EndBlock cfiCond266
        CFI EndBlock cfiCond267
        CFI EndBlock cfiPicker268

        RSEG BANKED_CODE:CODE:NOROOT(0)
?Subroutine50:
        CFI Block cfiCond269 Using cfiCommon0
        CFI NoFunction
        CFI Conditional ??CrossCallReturnLabel_157
        CFI R6 load(1, XDATA, add(CFA_XSP16, literal(-22)))
        CFI VB load(1, XDATA, add(CFA_XSP16, literal(-21)))
        CFI V0 load(1, XDATA, add(CFA_XSP16, literal(-20)))
        CFI V1 load(1, XDATA, add(CFA_XSP16, literal(-19)))
        CFI V2 load(1, XDATA, add(CFA_XSP16, literal(-18)))
        CFI V3 load(1, XDATA, add(CFA_XSP16, literal(-17)))
        CFI V4 load(1, XDATA, add(CFA_XSP16, literal(-16)))
        CFI V5 load(1, XDATA, add(CFA_XSP16, literal(-15)))
        CFI V6 load(1, XDATA, add(CFA_XSP16, literal(-14)))
        CFI V7 load(1, XDATA, add(CFA_XSP16, literal(-13)))
        CFI V8 load(1, XDATA, add(CFA_XSP16, literal(-12)))
        CFI V9 load(1, XDATA, add(CFA_XSP16, literal(-11)))
        CFI V10 load(1, XDATA, add(CFA_XSP16, literal(-10)))
        CFI V11 load(1, XDATA, add(CFA_XSP16, literal(-9)))
        CFI V12 load(1, XDATA, add(CFA_XSP16, literal(-8)))
        CFI V13 load(1, XDATA, add(CFA_XSP16, literal(-7)))
        CFI R7 load(1, XDATA, add(CFA_XSP16, literal(-6)))
        CFI ?RET_LOW load(1, XDATA, add(CFA_XSP16, literal(-5)))
        CFI ?RET_HIGH load(1, XDATA, add(CFA_XSP16, literal(-4)))
        CFI ?BRET_EXT load(1, XDATA, add(CFA_XSP16, literal(-3)))
        CFI DPL0 load(1, XDATA, add(CFA_XSP16, literal(-2)))
        CFI DPH0 load(1, XDATA, add(CFA_XSP16, literal(-1)))
        CFI CFA_SP SP+0
        CFI CFA_XSP16 add(XSP16, 23)
        CFI Block cfiCond270 Using cfiCommon0
        CFI (cfiCond270) NoFunction
        CFI (cfiCond270) Conditional ??CrossCallReturnLabel_158
        CFI (cfiCond270) R6 load(1, XDATA, add(CFA_XSP16, literal(-22)))
        CFI (cfiCond270) VB load(1, XDATA, add(CFA_XSP16, literal(-21)))
        CFI (cfiCond270) V0 load(1, XDATA, add(CFA_XSP16, literal(-20)))
        CFI (cfiCond270) V1 load(1, XDATA, add(CFA_XSP16, literal(-19)))
        CFI (cfiCond270) V2 load(1, XDATA, add(CFA_XSP16, literal(-18)))
        CFI (cfiCond270) V3 load(1, XDATA, add(CFA_XSP16, literal(-17)))
        CFI (cfiCond270) V4 load(1, XDATA, add(CFA_XSP16, literal(-16)))
        CFI (cfiCond270) V5 load(1, XDATA, add(CFA_XSP16, literal(-15)))
        CFI (cfiCond270) V6 load(1, XDATA, add(CFA_XSP16, literal(-14)))
        CFI (cfiCond270) V7 load(1, XDATA, add(CFA_XSP16, literal(-13)))
        CFI (cfiCond270) V8 load(1, XDATA, add(CFA_XSP16, literal(-12)))
        CFI (cfiCond270) V9 load(1, XDATA, add(CFA_XSP16, literal(-11)))
        CFI (cfiCond270) V10 load(1, XDATA, add(CFA_XSP16, literal(-10)))
        CFI (cfiCond270) V11 load(1, XDATA, add(CFA_XSP16, literal(-9)))
        CFI (cfiCond270) V12 load(1, XDATA, add(CFA_XSP16, literal(-8)))
        CFI (cfiCond270) V13 load(1, XDATA, add(CFA_XSP16, literal(-7)))
        CFI (cfiCond270) R7 load(1, XDATA, add(CFA_XSP16, literal(-6)))
        CFI (cfiCond270) ?RET_LOW load(1, XDATA, add(CFA_XSP16, literal(-5)))
        CFI (cfiCond270) ?RET_HIGH load(1, XDATA, add(CFA_XSP16, literal(-4)))
        CFI (cfiCond270) ?BRET_EXT load(1, XDATA, add(CFA_XSP16, literal(-3)))
        CFI (cfiCond270) DPL0 load(1, XDATA, add(CFA_XSP16, literal(-2)))
        CFI (cfiCond270) DPH0 load(1, XDATA, add(CFA_XSP16, literal(-1)))
        CFI (cfiCond270) CFA_SP SP+0
        CFI (cfiCond270) CFA_XSP16 add(XSP16, 23)
        CFI Block cfiPicker271 Using cfiCommon1
        CFI (cfiPicker271) NoFunction
        CFI (cfiPicker271) Picker
        MOVX    @DPTR,A
        INC     DPTR
        MOV     A,?V0 + 10
        CFI EndBlock cfiCond269
        CFI EndBlock cfiCond270
        CFI EndBlock cfiPicker271
        REQUIRE ??Subroutine98_0
        ; // Fall through to label ??Subroutine98_0

        RSEG BANKED_CODE:CODE:NOROOT(0)
??Subroutine98_0:
        CFI Block cfiCond272 Using cfiCommon0
        CFI NoFunction
        CFI Conditional ??CrossCallReturnLabel_159
        CFI R6 load(1, XDATA, add(CFA_XSP16, literal(-24)))
        CFI VB load(1, XDATA, add(CFA_XSP16, literal(-23)))
        CFI V0 load(1, XDATA, add(CFA_XSP16, literal(-22)))
        CFI V1 load(1, XDATA, add(CFA_XSP16, literal(-21)))
        CFI V2 load(1, XDATA, add(CFA_XSP16, literal(-20)))
        CFI V3 load(1, XDATA, add(CFA_XSP16, literal(-19)))
        CFI V4 load(1, XDATA, add(CFA_XSP16, literal(-18)))
        CFI V5 load(1, XDATA, add(CFA_XSP16, literal(-17)))
        CFI V6 load(1, XDATA, add(CFA_XSP16, literal(-16)))
        CFI V7 load(1, XDATA, add(CFA_XSP16, literal(-15)))
        CFI V8 load(1, XDATA, add(CFA_XSP16, literal(-14)))
        CFI V9 load(1, XDATA, add(CFA_XSP16, literal(-13)))
        CFI V10 load(1, XDATA, add(CFA_XSP16, literal(-12)))
        CFI V11 load(1, XDATA, add(CFA_XSP16, literal(-11)))
        CFI V12 load(1, XDATA, add(CFA_XSP16, literal(-10)))
        CFI V13 load(1, XDATA, add(CFA_XSP16, literal(-9)))
        CFI V14 load(1, XDATA, add(CFA_XSP16, literal(-8)))
        CFI V15 load(1, XDATA, add(CFA_XSP16, literal(-7)))
        CFI R7 load(1, XDATA, add(CFA_XSP16, literal(-6)))
        CFI ?RET_LOW load(1, XDATA, add(CFA_XSP16, literal(-5)))
        CFI ?RET_HIGH load(1, XDATA, add(CFA_XSP16, literal(-4)))
        CFI ?BRET_EXT load(1, XDATA, add(CFA_XSP16, literal(-3)))
        CFI DPL0 load(1, XDATA, add(CFA_XSP16, literal(-2)))
        CFI DPH0 load(1, XDATA, add(CFA_XSP16, literal(-1)))
        CFI CFA_SP SP+0
        CFI CFA_XSP16 add(XSP16, 24)
        CFI Block cfiCond273 Using cfiCommon0
        CFI (cfiCond273) NoFunction
        CFI (cfiCond273) Conditional ??CrossCallReturnLabel_160
        CFI (cfiCond273) R6 load(1, XDATA, add(CFA_XSP16, literal(-24)))
        CFI (cfiCond273) VB load(1, XDATA, add(CFA_XSP16, literal(-23)))
        CFI (cfiCond273) V0 load(1, XDATA, add(CFA_XSP16, literal(-22)))
        CFI (cfiCond273) V1 load(1, XDATA, add(CFA_XSP16, literal(-21)))
        CFI (cfiCond273) V2 load(1, XDATA, add(CFA_XSP16, literal(-20)))
        CFI (cfiCond273) V3 load(1, XDATA, add(CFA_XSP16, literal(-19)))
        CFI (cfiCond273) V4 load(1, XDATA, add(CFA_XSP16, literal(-18)))
        CFI (cfiCond273) V5 load(1, XDATA, add(CFA_XSP16, literal(-17)))
        CFI (cfiCond273) V6 load(1, XDATA, add(CFA_XSP16, literal(-16)))
        CFI (cfiCond273) V7 load(1, XDATA, add(CFA_XSP16, literal(-15)))
        CFI (cfiCond273) V8 load(1, XDATA, add(CFA_XSP16, literal(-14)))
        CFI (cfiCond273) V9 load(1, XDATA, add(CFA_XSP16, literal(-13)))
        CFI (cfiCond273) V10 load(1, XDATA, add(CFA_XSP16, literal(-12)))
        CFI (cfiCond273) V11 load(1, XDATA, add(CFA_XSP16, literal(-11)))
        CFI (cfiCond273) V12 load(1, XDATA, add(CFA_XSP16, literal(-10)))
        CFI (cfiCond273) V13 load(1, XDATA, add(CFA_XSP16, literal(-9)))
        CFI (cfiCond273) V14 load(1, XDATA, add(CFA_XSP16, literal(-8)))
        CFI (cfiCond273) V15 load(1, XDATA, add(CFA_XSP16, literal(-7)))
        CFI (cfiCond273) R7 load(1, XDATA, add(CFA_XSP16, literal(-6)))
        CFI (cfiCond273) ?RET_LOW load(1, XDATA, add(CFA_XSP16, literal(-5)))
        CFI (cfiCond273) ?RET_HIGH load(1, XDATA, add(CFA_XSP16, literal(-4)))
        CFI (cfiCond273) ?BRET_EXT load(1, XDATA, add(CFA_XSP16, literal(-3)))
        CFI (cfiCond273) DPL0 load(1, XDATA, add(CFA_XSP16, literal(-2)))
        CFI (cfiCond273) DPH0 load(1, XDATA, add(CFA_XSP16, literal(-1)))
        CFI (cfiCond273) CFA_SP SP+0
        CFI (cfiCond273) CFA_XSP16 add(XSP16, 24)
        CFI Block cfiCond274 Using cfiCommon0
        CFI (cfiCond274) NoFunction
        CFI (cfiCond274) Conditional ??CrossCallReturnLabel_161
        CFI (cfiCond274) R6 load(1, XDATA, add(CFA_XSP16, literal(-24)))
        CFI (cfiCond274) VB load(1, XDATA, add(CFA_XSP16, literal(-23)))
        CFI (cfiCond274) V0 load(1, XDATA, add(CFA_XSP16, literal(-22)))
        CFI (cfiCond274) V1 load(1, XDATA, add(CFA_XSP16, literal(-21)))
        CFI (cfiCond274) V2 load(1, XDATA, add(CFA_XSP16, literal(-20)))
        CFI (cfiCond274) V3 load(1, XDATA, add(CFA_XSP16, literal(-19)))
        CFI (cfiCond274) V4 load(1, XDATA, add(CFA_XSP16, literal(-18)))
        CFI (cfiCond274) V5 load(1, XDATA, add(CFA_XSP16, literal(-17)))
        CFI (cfiCond274) V6 load(1, XDATA, add(CFA_XSP16, literal(-16)))
        CFI (cfiCond274) V7 load(1, XDATA, add(CFA_XSP16, literal(-15)))
        CFI (cfiCond274) V8 load(1, XDATA, add(CFA_XSP16, literal(-14)))
        CFI (cfiCond274) V9 load(1, XDATA, add(CFA_XSP16, literal(-13)))
        CFI (cfiCond274) V10 load(1, XDATA, add(CFA_XSP16, literal(-12)))
        CFI (cfiCond274) V11 load(1, XDATA, add(CFA_XSP16, literal(-11)))
        CFI (cfiCond274) V12 load(1, XDATA, add(CFA_XSP16, literal(-10)))
        CFI (cfiCond274) V13 load(1, XDATA, add(CFA_XSP16, literal(-9)))
        CFI (cfiCond274) V14 load(1, XDATA, add(CFA_XSP16, literal(-8)))
        CFI (cfiCond274) V15 load(1, XDATA, add(CFA_XSP16, literal(-7)))
        CFI (cfiCond274) R7 load(1, XDATA, add(CFA_XSP16, literal(-6)))
        CFI (cfiCond274) ?RET_LOW load(1, XDATA, add(CFA_XSP16, literal(-5)))
        CFI (cfiCond274) ?RET_HIGH load(1, XDATA, add(CFA_XSP16, literal(-4)))
        CFI (cfiCond274) ?BRET_EXT load(1, XDATA, add(CFA_XSP16, literal(-3)))
        CFI (cfiCond274) DPL0 load(1, XDATA, add(CFA_XSP16, literal(-2)))
        CFI (cfiCond274) DPH0 load(1, XDATA, add(CFA_XSP16, literal(-1)))
        CFI (cfiCond274) CFA_SP SP+0
        CFI (cfiCond274) CFA_XSP16 add(XSP16, 24)
        CFI Block cfiCond275 Using cfiCommon0
        CFI (cfiCond275) NoFunction
        CFI (cfiCond275) Conditional ??CrossCallReturnLabel_157
        CFI (cfiCond275) R6 load(1, XDATA, add(CFA_XSP16, literal(-22)))
        CFI (cfiCond275) VB load(1, XDATA, add(CFA_XSP16, literal(-21)))
        CFI (cfiCond275) V0 load(1, XDATA, add(CFA_XSP16, literal(-20)))
        CFI (cfiCond275) V1 load(1, XDATA, add(CFA_XSP16, literal(-19)))
        CFI (cfiCond275) V2 load(1, XDATA, add(CFA_XSP16, literal(-18)))
        CFI (cfiCond275) V3 load(1, XDATA, add(CFA_XSP16, literal(-17)))
        CFI (cfiCond275) V4 load(1, XDATA, add(CFA_XSP16, literal(-16)))
        CFI (cfiCond275) V5 load(1, XDATA, add(CFA_XSP16, literal(-15)))
        CFI (cfiCond275) V6 load(1, XDATA, add(CFA_XSP16, literal(-14)))
        CFI (cfiCond275) V7 load(1, XDATA, add(CFA_XSP16, literal(-13)))
        CFI (cfiCond275) V8 load(1, XDATA, add(CFA_XSP16, literal(-12)))
        CFI (cfiCond275) V9 load(1, XDATA, add(CFA_XSP16, literal(-11)))
        CFI (cfiCond275) V10 load(1, XDATA, add(CFA_XSP16, literal(-10)))
        CFI (cfiCond275) V11 load(1, XDATA, add(CFA_XSP16, literal(-9)))
        CFI (cfiCond275) V12 load(1, XDATA, add(CFA_XSP16, literal(-8)))
        CFI (cfiCond275) V13 load(1, XDATA, add(CFA_XSP16, literal(-7)))
        CFI (cfiCond275) R7 load(1, XDATA, add(CFA_XSP16, literal(-6)))
        CFI (cfiCond275) ?RET_LOW load(1, XDATA, add(CFA_XSP16, literal(-5)))
        CFI (cfiCond275) ?RET_HIGH load(1, XDATA, add(CFA_XSP16, literal(-4)))
        CFI (cfiCond275) ?BRET_EXT load(1, XDATA, add(CFA_XSP16, literal(-3)))
        CFI (cfiCond275) DPL0 load(1, XDATA, add(CFA_XSP16, literal(-2)))
        CFI (cfiCond275) DPH0 load(1, XDATA, add(CFA_XSP16, literal(-1)))
        CFI (cfiCond275) CFA_SP SP+0
        CFI (cfiCond275) CFA_XSP16 add(XSP16, 23)
        CFI Block cfiCond276 Using cfiCommon0
        CFI (cfiCond276) NoFunction
        CFI (cfiCond276) Conditional ??CrossCallReturnLabel_158
        CFI (cfiCond276) R6 load(1, XDATA, add(CFA_XSP16, literal(-22)))
        CFI (cfiCond276) VB load(1, XDATA, add(CFA_XSP16, literal(-21)))
        CFI (cfiCond276) V0 load(1, XDATA, add(CFA_XSP16, literal(-20)))
        CFI (cfiCond276) V1 load(1, XDATA, add(CFA_XSP16, literal(-19)))
        CFI (cfiCond276) V2 load(1, XDATA, add(CFA_XSP16, literal(-18)))
        CFI (cfiCond276) V3 load(1, XDATA, add(CFA_XSP16, literal(-17)))
        CFI (cfiCond276) V4 load(1, XDATA, add(CFA_XSP16, literal(-16)))
        CFI (cfiCond276) V5 load(1, XDATA, add(CFA_XSP16, literal(-15)))
        CFI (cfiCond276) V6 load(1, XDATA, add(CFA_XSP16, literal(-14)))
        CFI (cfiCond276) V7 load(1, XDATA, add(CFA_XSP16, literal(-13)))
        CFI (cfiCond276) V8 load(1, XDATA, add(CFA_XSP16, literal(-12)))
        CFI (cfiCond276) V9 load(1, XDATA, add(CFA_XSP16, literal(-11)))
        CFI (cfiCond276) V10 load(1, XDATA, add(CFA_XSP16, literal(-10)))
        CFI (cfiCond276) V11 load(1, XDATA, add(CFA_XSP16, literal(-9)))
        CFI (cfiCond276) V12 load(1, XDATA, add(CFA_XSP16, literal(-8)))
        CFI (cfiCond276) V13 load(1, XDATA, add(CFA_XSP16, literal(-7)))
        CFI (cfiCond276) R7 load(1, XDATA, add(CFA_XSP16, literal(-6)))
        CFI (cfiCond276) ?RET_LOW load(1, XDATA, add(CFA_XSP16, literal(-5)))
        CFI (cfiCond276) ?RET_HIGH load(1, XDATA, add(CFA_XSP16, literal(-4)))
        CFI (cfiCond276) ?BRET_EXT load(1, XDATA, add(CFA_XSP16, literal(-3)))
        CFI (cfiCond276) DPL0 load(1, XDATA, add(CFA_XSP16, literal(-2)))
        CFI (cfiCond276) DPH0 load(1, XDATA, add(CFA_XSP16, literal(-1)))
        CFI (cfiCond276) CFA_SP SP+0
        CFI (cfiCond276) CFA_XSP16 add(XSP16, 23)
        CFI Block cfiPicker277 Using cfiCommon1
        CFI (cfiPicker277) NoFunction
        CFI (cfiPicker277) Picker
        MOVX    @DPTR,A
        INC     DPTR
        MOV     R6,DPL
        MOV     R7,DPH
        RET
        CFI EndBlock cfiCond272
        CFI EndBlock cfiCond273
        CFI EndBlock cfiCond274
        CFI EndBlock cfiCond275
        CFI EndBlock cfiCond276
        CFI EndBlock cfiPicker277

        RSEG BANKED_CODE:CODE:NOROOT(0)
?Subroutine14:
        CFI Block cfiCond278 Using cfiCommon0
        CFI NoFunction
        CFI Conditional ??CrossCallReturnLabel_4
        CFI R6 load(1, XDATA, add(CFA_XSP16, literal(-24)))
        CFI VB load(1, XDATA, add(CFA_XSP16, literal(-23)))
        CFI V0 load(1, XDATA, add(CFA_XSP16, literal(-22)))
        CFI V1 load(1, XDATA, add(CFA_XSP16, literal(-21)))
        CFI V2 load(1, XDATA, add(CFA_XSP16, literal(-20)))
        CFI V3 load(1, XDATA, add(CFA_XSP16, literal(-19)))
        CFI V4 load(1, XDATA, add(CFA_XSP16, literal(-18)))
        CFI V5 load(1, XDATA, add(CFA_XSP16, literal(-17)))
        CFI V6 load(1, XDATA, add(CFA_XSP16, literal(-16)))
        CFI V7 load(1, XDATA, add(CFA_XSP16, literal(-15)))
        CFI V8 load(1, XDATA, add(CFA_XSP16, literal(-14)))
        CFI V9 load(1, XDATA, add(CFA_XSP16, literal(-13)))
        CFI V10 load(1, XDATA, add(CFA_XSP16, literal(-12)))
        CFI V11 load(1, XDATA, add(CFA_XSP16, literal(-11)))
        CFI V12 load(1, XDATA, add(CFA_XSP16, literal(-10)))
        CFI V13 load(1, XDATA, add(CFA_XSP16, literal(-9)))
        CFI V14 load(1, XDATA, add(CFA_XSP16, literal(-8)))
        CFI V15 load(1, XDATA, add(CFA_XSP16, literal(-7)))
        CFI R7 load(1, XDATA, add(CFA_XSP16, literal(-6)))
        CFI ?RET_LOW load(1, XDATA, add(CFA_XSP16, literal(-5)))
        CFI ?RET_HIGH load(1, XDATA, add(CFA_XSP16, literal(-4)))
        CFI ?BRET_EXT load(1, XDATA, add(CFA_XSP16, literal(-3)))
        CFI DPL0 load(1, XDATA, add(CFA_XSP16, literal(-2)))
        CFI DPH0 load(1, XDATA, add(CFA_XSP16, literal(-1)))
        CFI CFA_SP SP+0
        CFI CFA_XSP16 add(XSP16, 24)
        CFI Block cfiCond279 Using cfiCommon0
        CFI (cfiCond279) NoFunction
        CFI (cfiCond279) Conditional ??CrossCallReturnLabel_5
        CFI (cfiCond279) R6 load(1, XDATA, add(CFA_XSP16, literal(-24)))
        CFI (cfiCond279) VB load(1, XDATA, add(CFA_XSP16, literal(-23)))
        CFI (cfiCond279) V0 load(1, XDATA, add(CFA_XSP16, literal(-22)))
        CFI (cfiCond279) V1 load(1, XDATA, add(CFA_XSP16, literal(-21)))
        CFI (cfiCond279) V2 load(1, XDATA, add(CFA_XSP16, literal(-20)))
        CFI (cfiCond279) V3 load(1, XDATA, add(CFA_XSP16, literal(-19)))
        CFI (cfiCond279) V4 load(1, XDATA, add(CFA_XSP16, literal(-18)))
        CFI (cfiCond279) V5 load(1, XDATA, add(CFA_XSP16, literal(-17)))
        CFI (cfiCond279) V6 load(1, XDATA, add(CFA_XSP16, literal(-16)))
        CFI (cfiCond279) V7 load(1, XDATA, add(CFA_XSP16, literal(-15)))
        CFI (cfiCond279) V8 load(1, XDATA, add(CFA_XSP16, literal(-14)))
        CFI (cfiCond279) V9 load(1, XDATA, add(CFA_XSP16, literal(-13)))
        CFI (cfiCond279) V10 load(1, XDATA, add(CFA_XSP16, literal(-12)))
        CFI (cfiCond279) V11 load(1, XDATA, add(CFA_XSP16, literal(-11)))
        CFI (cfiCond279) V12 load(1, XDATA, add(CFA_XSP16, literal(-10)))
        CFI (cfiCond279) V13 load(1, XDATA, add(CFA_XSP16, literal(-9)))
        CFI (cfiCond279) V14 load(1, XDATA, add(CFA_XSP16, literal(-8)))
        CFI (cfiCond279) V15 load(1, XDATA, add(CFA_XSP16, literal(-7)))
        CFI (cfiCond279) R7 load(1, XDATA, add(CFA_XSP16, literal(-6)))
        CFI (cfiCond279) ?RET_LOW load(1, XDATA, add(CFA_XSP16, literal(-5)))
        CFI (cfiCond279) ?RET_HIGH load(1, XDATA, add(CFA_XSP16, literal(-4)))
        CFI (cfiCond279) ?BRET_EXT load(1, XDATA, add(CFA_XSP16, literal(-3)))
        CFI (cfiCond279) DPL0 load(1, XDATA, add(CFA_XSP16, literal(-2)))
        CFI (cfiCond279) DPH0 load(1, XDATA, add(CFA_XSP16, literal(-1)))
        CFI (cfiCond279) CFA_SP SP+0
        CFI (cfiCond279) CFA_XSP16 add(XSP16, 24)
        CFI Block cfiCond280 Using cfiCommon0
        CFI (cfiCond280) NoFunction
        CFI (cfiCond280) Conditional ??CrossCallReturnLabel_6
        CFI (cfiCond280) R6 load(1, XDATA, add(CFA_XSP16, literal(-22)))
        CFI (cfiCond280) VB load(1, XDATA, add(CFA_XSP16, literal(-21)))
        CFI (cfiCond280) V0 load(1, XDATA, add(CFA_XSP16, literal(-20)))
        CFI (cfiCond280) V1 load(1, XDATA, add(CFA_XSP16, literal(-19)))
        CFI (cfiCond280) V2 load(1, XDATA, add(CFA_XSP16, literal(-18)))
        CFI (cfiCond280) V3 load(1, XDATA, add(CFA_XSP16, literal(-17)))
        CFI (cfiCond280) V4 load(1, XDATA, add(CFA_XSP16, literal(-16)))
        CFI (cfiCond280) V5 load(1, XDATA, add(CFA_XSP16, literal(-15)))
        CFI (cfiCond280) V6 load(1, XDATA, add(CFA_XSP16, literal(-14)))
        CFI (cfiCond280) V7 load(1, XDATA, add(CFA_XSP16, literal(-13)))
        CFI (cfiCond280) V8 load(1, XDATA, add(CFA_XSP16, literal(-12)))
        CFI (cfiCond280) V9 load(1, XDATA, add(CFA_XSP16, literal(-11)))
        CFI (cfiCond280) V10 load(1, XDATA, add(CFA_XSP16, literal(-10)))
        CFI (cfiCond280) V11 load(1, XDATA, add(CFA_XSP16, literal(-9)))
        CFI (cfiCond280) V12 load(1, XDATA, add(CFA_XSP16, literal(-8)))
        CFI (cfiCond280) V13 load(1, XDATA, add(CFA_XSP16, literal(-7)))
        CFI (cfiCond280) R7 load(1, XDATA, add(CFA_XSP16, literal(-6)))
        CFI (cfiCond280) ?RET_LOW load(1, XDATA, add(CFA_XSP16, literal(-5)))
        CFI (cfiCond280) ?RET_HIGH load(1, XDATA, add(CFA_XSP16, literal(-4)))
        CFI (cfiCond280) ?BRET_EXT load(1, XDATA, add(CFA_XSP16, literal(-3)))
        CFI (cfiCond280) DPL0 load(1, XDATA, add(CFA_XSP16, literal(-2)))
        CFI (cfiCond280) DPH0 load(1, XDATA, add(CFA_XSP16, literal(-1)))
        CFI (cfiCond280) CFA_SP SP+0
        CFI (cfiCond280) CFA_XSP16 add(XSP16, 23)
        CFI Block cfiCond281 Using cfiCommon0
        CFI (cfiCond281) NoFunction
        CFI (cfiCond281) Conditional ??CrossCallReturnLabel_7
        CFI (cfiCond281) R6 load(1, XDATA, add(CFA_XSP16, literal(-22)))
        CFI (cfiCond281) VB load(1, XDATA, add(CFA_XSP16, literal(-21)))
        CFI (cfiCond281) V0 load(1, XDATA, add(CFA_XSP16, literal(-20)))
        CFI (cfiCond281) V1 load(1, XDATA, add(CFA_XSP16, literal(-19)))
        CFI (cfiCond281) V2 load(1, XDATA, add(CFA_XSP16, literal(-18)))
        CFI (cfiCond281) V3 load(1, XDATA, add(CFA_XSP16, literal(-17)))
        CFI (cfiCond281) V4 load(1, XDATA, add(CFA_XSP16, literal(-16)))
        CFI (cfiCond281) V5 load(1, XDATA, add(CFA_XSP16, literal(-15)))
        CFI (cfiCond281) V6 load(1, XDATA, add(CFA_XSP16, literal(-14)))
        CFI (cfiCond281) V7 load(1, XDATA, add(CFA_XSP16, literal(-13)))
        CFI (cfiCond281) V8 load(1, XDATA, add(CFA_XSP16, literal(-12)))
        CFI (cfiCond281) V9 load(1, XDATA, add(CFA_XSP16, literal(-11)))
        CFI (cfiCond281) V10 load(1, XDATA, add(CFA_XSP16, literal(-10)))
        CFI (cfiCond281) V11 load(1, XDATA, add(CFA_XSP16, literal(-9)))
        CFI (cfiCond281) V12 load(1, XDATA, add(CFA_XSP16, literal(-8)))
        CFI (cfiCond281) V13 load(1, XDATA, add(CFA_XSP16, literal(-7)))
        CFI (cfiCond281) R7 load(1, XDATA, add(CFA_XSP16, literal(-6)))
        CFI (cfiCond281) ?RET_LOW load(1, XDATA, add(CFA_XSP16, literal(-5)))
        CFI (cfiCond281) ?RET_HIGH load(1, XDATA, add(CFA_XSP16, literal(-4)))
        CFI (cfiCond281) ?BRET_EXT load(1, XDATA, add(CFA_XSP16, literal(-3)))
        CFI (cfiCond281) DPL0 load(1, XDATA, add(CFA_XSP16, literal(-2)))
        CFI (cfiCond281) DPH0 load(1, XDATA, add(CFA_XSP16, literal(-1)))
        CFI (cfiCond281) CFA_SP SP+0
        CFI (cfiCond281) CFA_XSP16 add(XSP16, 23)
        CFI Block cfiPicker282 Using cfiCommon1
        CFI (cfiPicker282) NoFunction
        CFI (cfiPicker282) Picker
        MOVX    A,@DPTR
        MOV     DPL,R6
        MOV     DPH,R7
        MOVX    @DPTR,A
        INC     DPTR
        MOV     R6,DPL
        MOV     R7,DPH
        RET
        CFI EndBlock cfiCond278
        CFI EndBlock cfiCond279
        CFI EndBlock cfiCond280
        CFI EndBlock cfiCond281
        CFI EndBlock cfiPicker282

        RSEG BANKED_CODE:CODE:NOROOT(0)
?Subroutine10:
        CFI Block cfiCond283 Using cfiCommon0
        CFI NoFunction
        CFI Conditional ??CrossCallReturnLabel_171
        CFI R6 load(1, XDATA, add(CFA_XSP16, literal(-14)))
        CFI VB load(1, XDATA, add(CFA_XSP16, literal(-13)))
        CFI V0 load(1, XDATA, add(CFA_XSP16, literal(-12)))
        CFI V1 load(1, XDATA, add(CFA_XSP16, literal(-11)))
        CFI V2 load(1, XDATA, add(CFA_XSP16, literal(-10)))
        CFI V3 load(1, XDATA, add(CFA_XSP16, literal(-9)))
        CFI V4 load(1, XDATA, add(CFA_XSP16, literal(-8)))
        CFI V5 load(1, XDATA, add(CFA_XSP16, literal(-7)))
        CFI R7 load(1, XDATA, add(CFA_XSP16, literal(-6)))
        CFI ?RET_LOW load(1, XDATA, add(CFA_XSP16, literal(-5)))
        CFI ?RET_HIGH load(1, XDATA, add(CFA_XSP16, literal(-4)))
        CFI ?BRET_EXT load(1, XDATA, add(CFA_XSP16, literal(-3)))
        CFI DPL0 load(1, XDATA, add(CFA_XSP16, literal(-2)))
        CFI DPH0 load(1, XDATA, add(CFA_XSP16, literal(-1)))
        CFI CFA_SP SP+0
        CFI CFA_XSP16 add(XSP16, 23)
        CFI Block cfiCond284 Using cfiCommon0
        CFI (cfiCond284) NoFunction
        CFI (cfiCond284) Conditional ??CrossCallReturnLabel_172
        CFI (cfiCond284) R6 load(1, XDATA, add(CFA_XSP16, literal(-18)))
        CFI (cfiCond284) VB load(1, XDATA, add(CFA_XSP16, literal(-17)))
        CFI (cfiCond284) V0 load(1, XDATA, add(CFA_XSP16, literal(-16)))
        CFI (cfiCond284) V1 load(1, XDATA, add(CFA_XSP16, literal(-15)))
        CFI (cfiCond284) V2 load(1, XDATA, add(CFA_XSP16, literal(-14)))
        CFI (cfiCond284) V3 load(1, XDATA, add(CFA_XSP16, literal(-13)))
        CFI (cfiCond284) V4 load(1, XDATA, add(CFA_XSP16, literal(-12)))
        CFI (cfiCond284) V5 load(1, XDATA, add(CFA_XSP16, literal(-11)))
        CFI (cfiCond284) V6 load(1, XDATA, add(CFA_XSP16, literal(-10)))
        CFI (cfiCond284) V7 load(1, XDATA, add(CFA_XSP16, literal(-9)))
        CFI (cfiCond284) V8 load(1, XDATA, add(CFA_XSP16, literal(-8)))
        CFI (cfiCond284) V9 load(1, XDATA, add(CFA_XSP16, literal(-7)))
        CFI (cfiCond284) R7 load(1, XDATA, add(CFA_XSP16, literal(-6)))
        CFI (cfiCond284) ?RET_LOW load(1, XDATA, add(CFA_XSP16, literal(-5)))
        CFI (cfiCond284) ?RET_HIGH load(1, XDATA, add(CFA_XSP16, literal(-4)))
        CFI (cfiCond284) ?BRET_EXT load(1, XDATA, add(CFA_XSP16, literal(-3)))
        CFI (cfiCond284) DPL0 load(1, XDATA, add(CFA_XSP16, literal(-2)))
        CFI (cfiCond284) DPH0 load(1, XDATA, add(CFA_XSP16, literal(-1)))
        CFI (cfiCond284) CFA_SP SP+0
        CFI (cfiCond284) CFA_XSP16 add(XSP16, 19)
        CFI Block cfiPicker285 Using cfiCommon1
        CFI (cfiPicker285) NoFunction
        CFI (cfiPicker285) Picker
        MOV     DPTR,#ZDP_TmpBuf
        CFI EndBlock cfiCond283
        CFI EndBlock cfiCond284
        CFI EndBlock cfiPicker285
        REQUIRE ??Subroutine99_0
        ; // Fall through to label ??Subroutine99_0

        RSEG BANKED_CODE:CODE:NOROOT(0)
??Subroutine99_0:
        CFI Block cfiCond286 Using cfiCommon0
        CFI NoFunction
        CFI Conditional ??CrossCallReturnLabel_162
        CFI R6 load(1, XDATA, add(CFA_XSP16, literal(-16)))
        CFI VB load(1, XDATA, add(CFA_XSP16, literal(-15)))
        CFI V0 load(1, XDATA, add(CFA_XSP16, literal(-14)))
        CFI V1 load(1, XDATA, add(CFA_XSP16, literal(-13)))
        CFI V2 load(1, XDATA, add(CFA_XSP16, literal(-12)))
        CFI V3 load(1, XDATA, add(CFA_XSP16, literal(-11)))
        CFI V4 load(1, XDATA, add(CFA_XSP16, literal(-10)))
        CFI V5 load(1, XDATA, add(CFA_XSP16, literal(-9)))
        CFI V6 load(1, XDATA, add(CFA_XSP16, literal(-8)))
        CFI V7 load(1, XDATA, add(CFA_XSP16, literal(-7)))
        CFI R7 load(1, XDATA, add(CFA_XSP16, literal(-6)))
        CFI ?RET_LOW load(1, XDATA, add(CFA_XSP16, literal(-5)))
        CFI ?RET_HIGH load(1, XDATA, add(CFA_XSP16, literal(-4)))
        CFI ?BRET_EXT load(1, XDATA, add(CFA_XSP16, literal(-3)))
        CFI DPL0 load(1, XDATA, add(CFA_XSP16, literal(-2)))
        CFI DPH0 load(1, XDATA, add(CFA_XSP16, literal(-1)))
        CFI CFA_SP SP+0
        CFI CFA_XSP16 add(XSP16, 28)
        CFI Block cfiCond287 Using cfiCommon0
        CFI (cfiCond287) NoFunction
        CFI (cfiCond287) Conditional ??CrossCallReturnLabel_163
        CFI (cfiCond287) R6 load(1, XDATA, add(CFA_XSP16, literal(-16)))
        CFI (cfiCond287) VB load(1, XDATA, add(CFA_XSP16, literal(-15)))
        CFI (cfiCond287) V0 load(1, XDATA, add(CFA_XSP16, literal(-14)))
        CFI (cfiCond287) V1 load(1, XDATA, add(CFA_XSP16, literal(-13)))
        CFI (cfiCond287) V2 load(1, XDATA, add(CFA_XSP16, literal(-12)))
        CFI (cfiCond287) V3 load(1, XDATA, add(CFA_XSP16, literal(-11)))
        CFI (cfiCond287) V4 load(1, XDATA, add(CFA_XSP16, literal(-10)))
        CFI (cfiCond287) V5 load(1, XDATA, add(CFA_XSP16, literal(-9)))
        CFI (cfiCond287) V6 load(1, XDATA, add(CFA_XSP16, literal(-8)))
        CFI (cfiCond287) V7 load(1, XDATA, add(CFA_XSP16, literal(-7)))
        CFI (cfiCond287) R7 load(1, XDATA, add(CFA_XSP16, literal(-6)))
        CFI (cfiCond287) ?RET_LOW load(1, XDATA, add(CFA_XSP16, literal(-5)))
        CFI (cfiCond287) ?RET_HIGH load(1, XDATA, add(CFA_XSP16, literal(-4)))
        CFI (cfiCond287) ?BRET_EXT load(1, XDATA, add(CFA_XSP16, literal(-3)))
        CFI (cfiCond287) DPL0 load(1, XDATA, add(CFA_XSP16, literal(-2)))
        CFI (cfiCond287) DPH0 load(1, XDATA, add(CFA_XSP16, literal(-1)))
        CFI (cfiCond287) CFA_SP SP+0
        CFI (cfiCond287) CFA_XSP16 add(XSP16, 16)
        CFI Block cfiCond288 Using cfiCommon0
        CFI (cfiCond288) NoFunction
        CFI (cfiCond288) Conditional ??CrossCallReturnLabel_164
        CFI (cfiCond288) R6 load(1, XDATA, add(CFA_XSP16, literal(-10)))
        CFI (cfiCond288) VB load(1, XDATA, add(CFA_XSP16, literal(-9)))
        CFI (cfiCond288) V0 load(1, XDATA, add(CFA_XSP16, literal(-8)))
        CFI (cfiCond288) V1 load(1, XDATA, add(CFA_XSP16, literal(-7)))
        CFI (cfiCond288) R7 load(1, XDATA, add(CFA_XSP16, literal(-6)))
        CFI (cfiCond288) ?RET_LOW load(1, XDATA, add(CFA_XSP16, literal(-5)))
        CFI (cfiCond288) ?RET_HIGH load(1, XDATA, add(CFA_XSP16, literal(-4)))
        CFI (cfiCond288) ?BRET_EXT load(1, XDATA, add(CFA_XSP16, literal(-3)))
        CFI (cfiCond288) DPL0 load(1, XDATA, add(CFA_XSP16, literal(-2)))
        CFI (cfiCond288) DPH0 load(1, XDATA, add(CFA_XSP16, literal(-1)))
        CFI (cfiCond288) CFA_SP SP+0
        CFI (cfiCond288) CFA_XSP16 add(XSP16, 10)
        CFI Block cfiCond289 Using cfiCommon0
        CFI (cfiCond289) NoFunction
        CFI (cfiCond289) Conditional ??CrossCallReturnLabel_165
        CFI (cfiCond289) R6 load(1, XDATA, add(CFA_XSP16, literal(-10)))
        CFI (cfiCond289) VB load(1, XDATA, add(CFA_XSP16, literal(-9)))
        CFI (cfiCond289) V0 load(1, XDATA, add(CFA_XSP16, literal(-8)))
        CFI (cfiCond289) V1 load(1, XDATA, add(CFA_XSP16, literal(-7)))
        CFI (cfiCond289) R7 load(1, XDATA, add(CFA_XSP16, literal(-6)))
        CFI (cfiCond289) ?RET_LOW load(1, XDATA, add(CFA_XSP16, literal(-5)))
        CFI (cfiCond289) ?RET_HIGH load(1, XDATA, add(CFA_XSP16, literal(-4)))
        CFI (cfiCond289) ?BRET_EXT load(1, XDATA, add(CFA_XSP16, literal(-3)))
        CFI (cfiCond289) DPL0 load(1, XDATA, add(CFA_XSP16, literal(-2)))
        CFI (cfiCond289) DPH0 load(1, XDATA, add(CFA_XSP16, literal(-1)))
        CFI (cfiCond289) CFA_SP SP+0
        CFI (cfiCond289) CFA_XSP16 add(XSP16, 11)
        CFI Block cfiCond290 Using cfiCommon0
        CFI (cfiCond290) NoFunction
        CFI (cfiCond290) Conditional ??CrossCallReturnLabel_166
        CFI (cfiCond290) R6 load(1, XDATA, add(CFA_XSP16, literal(-24)))
        CFI (cfiCond290) VB load(1, XDATA, add(CFA_XSP16, literal(-23)))
        CFI (cfiCond290) V0 load(1, XDATA, add(CFA_XSP16, literal(-22)))
        CFI (cfiCond290) V1 load(1, XDATA, add(CFA_XSP16, literal(-21)))
        CFI (cfiCond290) V2 load(1, XDATA, add(CFA_XSP16, literal(-20)))
        CFI (cfiCond290) V3 load(1, XDATA, add(CFA_XSP16, literal(-19)))
        CFI (cfiCond290) V4 load(1, XDATA, add(CFA_XSP16, literal(-18)))
        CFI (cfiCond290) V5 load(1, XDATA, add(CFA_XSP16, literal(-17)))
        CFI (cfiCond290) V6 load(1, XDATA, add(CFA_XSP16, literal(-16)))
        CFI (cfiCond290) V7 load(1, XDATA, add(CFA_XSP16, literal(-15)))
        CFI (cfiCond290) V8 load(1, XDATA, add(CFA_XSP16, literal(-14)))
        CFI (cfiCond290) V9 load(1, XDATA, add(CFA_XSP16, literal(-13)))
        CFI (cfiCond290) V10 load(1, XDATA, add(CFA_XSP16, literal(-12)))
        CFI (cfiCond290) V11 load(1, XDATA, add(CFA_XSP16, literal(-11)))
        CFI (cfiCond290) V12 load(1, XDATA, add(CFA_XSP16, literal(-10)))
        CFI (cfiCond290) V13 load(1, XDATA, add(CFA_XSP16, literal(-9)))
        CFI (cfiCond290) V14 load(1, XDATA, add(CFA_XSP16, literal(-8)))
        CFI (cfiCond290) V15 load(1, XDATA, add(CFA_XSP16, literal(-7)))
        CFI (cfiCond290) R7 load(1, XDATA, add(CFA_XSP16, literal(-6)))
        CFI (cfiCond290) ?RET_LOW load(1, XDATA, add(CFA_XSP16, literal(-5)))
        CFI (cfiCond290) ?RET_HIGH load(1, XDATA, add(CFA_XSP16, literal(-4)))
        CFI (cfiCond290) ?BRET_EXT load(1, XDATA, add(CFA_XSP16, literal(-3)))
        CFI (cfiCond290) DPL0 load(1, XDATA, add(CFA_XSP16, literal(-2)))
        CFI (cfiCond290) DPH0 load(1, XDATA, add(CFA_XSP16, literal(-1)))
        CFI (cfiCond290) CFA_SP SP+0
        CFI (cfiCond290) CFA_XSP16 add(XSP16, 24)
        CFI Block cfiCond291 Using cfiCommon0
        CFI (cfiCond291) NoFunction
        CFI (cfiCond291) Conditional ??CrossCallReturnLabel_167
        CFI (cfiCond291) R6 load(1, XDATA, add(CFA_XSP16, literal(-22)))
        CFI (cfiCond291) VB load(1, XDATA, add(CFA_XSP16, literal(-21)))
        CFI (cfiCond291) V0 load(1, XDATA, add(CFA_XSP16, literal(-20)))
        CFI (cfiCond291) V1 load(1, XDATA, add(CFA_XSP16, literal(-19)))
        CFI (cfiCond291) V2 load(1, XDATA, add(CFA_XSP16, literal(-18)))
        CFI (cfiCond291) V3 load(1, XDATA, add(CFA_XSP16, literal(-17)))
        CFI (cfiCond291) V4 load(1, XDATA, add(CFA_XSP16, literal(-16)))
        CFI (cfiCond291) V5 load(1, XDATA, add(CFA_XSP16, literal(-15)))
        CFI (cfiCond291) V6 load(1, XDATA, add(CFA_XSP16, literal(-14)))
        CFI (cfiCond291) V7 load(1, XDATA, add(CFA_XSP16, literal(-13)))
        CFI (cfiCond291) V8 load(1, XDATA, add(CFA_XSP16, literal(-12)))
        CFI (cfiCond291) V9 load(1, XDATA, add(CFA_XSP16, literal(-11)))
        CFI (cfiCond291) V10 load(1, XDATA, add(CFA_XSP16, literal(-10)))
        CFI (cfiCond291) V11 load(1, XDATA, add(CFA_XSP16, literal(-9)))
        CFI (cfiCond291) V12 load(1, XDATA, add(CFA_XSP16, literal(-8)))
        CFI (cfiCond291) V13 load(1, XDATA, add(CFA_XSP16, literal(-7)))
        CFI (cfiCond291) R7 load(1, XDATA, add(CFA_XSP16, literal(-6)))
        CFI (cfiCond291) ?RET_LOW load(1, XDATA, add(CFA_XSP16, literal(-5)))
        CFI (cfiCond291) ?RET_HIGH load(1, XDATA, add(CFA_XSP16, literal(-4)))
        CFI (cfiCond291) ?BRET_EXT load(1, XDATA, add(CFA_XSP16, literal(-3)))
        CFI (cfiCond291) DPL0 load(1, XDATA, add(CFA_XSP16, literal(-2)))
        CFI (cfiCond291) DPH0 load(1, XDATA, add(CFA_XSP16, literal(-1)))
        CFI (cfiCond291) CFA_SP SP+0
        CFI (cfiCond291) CFA_XSP16 add(XSP16, 23)
        CFI Block cfiCond292 Using cfiCommon0
        CFI (cfiCond292) NoFunction
        CFI (cfiCond292) Conditional ??CrossCallReturnLabel_168
        CFI (cfiCond292) R6 load(1, XDATA, add(CFA_XSP16, literal(-22)))
        CFI (cfiCond292) VB load(1, XDATA, add(CFA_XSP16, literal(-21)))
        CFI (cfiCond292) V0 load(1, XDATA, add(CFA_XSP16, literal(-20)))
        CFI (cfiCond292) V1 load(1, XDATA, add(CFA_XSP16, literal(-19)))
        CFI (cfiCond292) V2 load(1, XDATA, add(CFA_XSP16, literal(-18)))
        CFI (cfiCond292) V3 load(1, XDATA, add(CFA_XSP16, literal(-17)))
        CFI (cfiCond292) V4 load(1, XDATA, add(CFA_XSP16, literal(-16)))
        CFI (cfiCond292) V5 load(1, XDATA, add(CFA_XSP16, literal(-15)))
        CFI (cfiCond292) V6 load(1, XDATA, add(CFA_XSP16, literal(-14)))
        CFI (cfiCond292) V7 load(1, XDATA, add(CFA_XSP16, literal(-13)))
        CFI (cfiCond292) V8 load(1, XDATA, add(CFA_XSP16, literal(-12)))
        CFI (cfiCond292) V9 load(1, XDATA, add(CFA_XSP16, literal(-11)))
        CFI (cfiCond292) V10 load(1, XDATA, add(CFA_XSP16, literal(-10)))
        CFI (cfiCond292) V11 load(1, XDATA, add(CFA_XSP16, literal(-9)))
        CFI (cfiCond292) V12 load(1, XDATA, add(CFA_XSP16, literal(-8)))
        CFI (cfiCond292) V13 load(1, XDATA, add(CFA_XSP16, literal(-7)))
        CFI (cfiCond292) R7 load(1, XDATA, add(CFA_XSP16, literal(-6)))
        CFI (cfiCond292) ?RET_LOW load(1, XDATA, add(CFA_XSP16, literal(-5)))
        CFI (cfiCond292) ?RET_HIGH load(1, XDATA, add(CFA_XSP16, literal(-4)))
        CFI (cfiCond292) ?BRET_EXT load(1, XDATA, add(CFA_XSP16, literal(-3)))
        CFI (cfiCond292) DPL0 load(1, XDATA, add(CFA_XSP16, literal(-2)))
        CFI (cfiCond292) DPH0 load(1, XDATA, add(CFA_XSP16, literal(-1)))
        CFI (cfiCond292) CFA_SP SP+0
        CFI (cfiCond292) CFA_XSP16 add(XSP16, 23)
        CFI Block cfiCond293 Using cfiCommon0
        CFI (cfiCond293) NoFunction
        CFI (cfiCond293) Conditional ??CrossCallReturnLabel_169
        CFI (cfiCond293) R6 load(1, XDATA, add(CFA_XSP16, literal(-22)))
        CFI (cfiCond293) VB load(1, XDATA, add(CFA_XSP16, literal(-21)))
        CFI (cfiCond293) V0 load(1, XDATA, add(CFA_XSP16, literal(-20)))
        CFI (cfiCond293) V1 load(1, XDATA, add(CFA_XSP16, literal(-19)))
        CFI (cfiCond293) V2 load(1, XDATA, add(CFA_XSP16, literal(-18)))
        CFI (cfiCond293) V3 load(1, XDATA, add(CFA_XSP16, literal(-17)))
        CFI (cfiCond293) V4 load(1, XDATA, add(CFA_XSP16, literal(-16)))
        CFI (cfiCond293) V5 load(1, XDATA, add(CFA_XSP16, literal(-15)))
        CFI (cfiCond293) V6 load(1, XDATA, add(CFA_XSP16, literal(-14)))
        CFI (cfiCond293) V7 load(1, XDATA, add(CFA_XSP16, literal(-13)))
        CFI (cfiCond293) V8 load(1, XDATA, add(CFA_XSP16, literal(-12)))
        CFI (cfiCond293) V9 load(1, XDATA, add(CFA_XSP16, literal(-11)))
        CFI (cfiCond293) V10 load(1, XDATA, add(CFA_XSP16, literal(-10)))
        CFI (cfiCond293) V11 load(1, XDATA, add(CFA_XSP16, literal(-9)))
        CFI (cfiCond293) V12 load(1, XDATA, add(CFA_XSP16, literal(-8)))
        CFI (cfiCond293) V13 load(1, XDATA, add(CFA_XSP16, literal(-7)))
        CFI (cfiCond293) R7 load(1, XDATA, add(CFA_XSP16, literal(-6)))
        CFI (cfiCond293) ?RET_LOW load(1, XDATA, add(CFA_XSP16, literal(-5)))
        CFI (cfiCond293) ?RET_HIGH load(1, XDATA, add(CFA_XSP16, literal(-4)))
        CFI (cfiCond293) ?BRET_EXT load(1, XDATA, add(CFA_XSP16, literal(-3)))
        CFI (cfiCond293) DPL0 load(1, XDATA, add(CFA_XSP16, literal(-2)))
        CFI (cfiCond293) DPH0 load(1, XDATA, add(CFA_XSP16, literal(-1)))
        CFI (cfiCond293) CFA_SP SP+0
        CFI (cfiCond293) CFA_XSP16 add(XSP16, 23)
        CFI Block cfiCond294 Using cfiCommon0
        CFI (cfiCond294) NoFunction
        CFI (cfiCond294) Conditional ??CrossCallReturnLabel_170
        CFI (cfiCond294) R6 load(1, XDATA, add(CFA_XSP16, literal(-24)))
        CFI (cfiCond294) VB load(1, XDATA, add(CFA_XSP16, literal(-23)))
        CFI (cfiCond294) V0 load(1, XDATA, add(CFA_XSP16, literal(-22)))
        CFI (cfiCond294) V1 load(1, XDATA, add(CFA_XSP16, literal(-21)))
        CFI (cfiCond294) V2 load(1, XDATA, add(CFA_XSP16, literal(-20)))
        CFI (cfiCond294) V3 load(1, XDATA, add(CFA_XSP16, literal(-19)))
        CFI (cfiCond294) V4 load(1, XDATA, add(CFA_XSP16, literal(-18)))
        CFI (cfiCond294) V5 load(1, XDATA, add(CFA_XSP16, literal(-17)))
        CFI (cfiCond294) V6 load(1, XDATA, add(CFA_XSP16, literal(-16)))
        CFI (cfiCond294) V7 load(1, XDATA, add(CFA_XSP16, literal(-15)))
        CFI (cfiCond294) V8 load(1, XDATA, add(CFA_XSP16, literal(-14)))
        CFI (cfiCond294) V9 load(1, XDATA, add(CFA_XSP16, literal(-13)))
        CFI (cfiCond294) V10 load(1, XDATA, add(CFA_XSP16, literal(-12)))
        CFI (cfiCond294) V11 load(1, XDATA, add(CFA_XSP16, literal(-11)))
        CFI (cfiCond294) V12 load(1, XDATA, add(CFA_XSP16, literal(-10)))
        CFI (cfiCond294) V13 load(1, XDATA, add(CFA_XSP16, literal(-9)))
        CFI (cfiCond294) V14 load(1, XDATA, add(CFA_XSP16, literal(-8)))
        CFI (cfiCond294) V15 load(1, XDATA, add(CFA_XSP16, literal(-7)))
        CFI (cfiCond294) R7 load(1, XDATA, add(CFA_XSP16, literal(-6)))
        CFI (cfiCond294) ?RET_LOW load(1, XDATA, add(CFA_XSP16, literal(-5)))
        CFI (cfiCond294) ?RET_HIGH load(1, XDATA, add(CFA_XSP16, literal(-4)))
        CFI (cfiCond294) ?BRET_EXT load(1, XDATA, add(CFA_XSP16, literal(-3)))
        CFI (cfiCond294) DPL0 load(1, XDATA, add(CFA_XSP16, literal(-2)))
        CFI (cfiCond294) DPH0 load(1, XDATA, add(CFA_XSP16, literal(-1)))
        CFI (cfiCond294) CFA_SP SP+0
        CFI (cfiCond294) CFA_XSP16 add(XSP16, 27)
        CFI Block cfiCond295 Using cfiCommon0
        CFI (cfiCond295) NoFunction
        CFI (cfiCond295) Conditional ??CrossCallReturnLabel_171
        CFI (cfiCond295) R6 load(1, XDATA, add(CFA_XSP16, literal(-14)))
        CFI (cfiCond295) VB load(1, XDATA, add(CFA_XSP16, literal(-13)))
        CFI (cfiCond295) V0 load(1, XDATA, add(CFA_XSP16, literal(-12)))
        CFI (cfiCond295) V1 load(1, XDATA, add(CFA_XSP16, literal(-11)))
        CFI (cfiCond295) V2 load(1, XDATA, add(CFA_XSP16, literal(-10)))
        CFI (cfiCond295) V3 load(1, XDATA, add(CFA_XSP16, literal(-9)))
        CFI (cfiCond295) V4 load(1, XDATA, add(CFA_XSP16, literal(-8)))
        CFI (cfiCond295) V5 load(1, XDATA, add(CFA_XSP16, literal(-7)))
        CFI (cfiCond295) R7 load(1, XDATA, add(CFA_XSP16, literal(-6)))
        CFI (cfiCond295) ?RET_LOW load(1, XDATA, add(CFA_XSP16, literal(-5)))
        CFI (cfiCond295) ?RET_HIGH load(1, XDATA, add(CFA_XSP16, literal(-4)))
        CFI (cfiCond295) ?BRET_EXT load(1, XDATA, add(CFA_XSP16, literal(-3)))
        CFI (cfiCond295) DPL0 load(1, XDATA, add(CFA_XSP16, literal(-2)))
        CFI (cfiCond295) DPH0 load(1, XDATA, add(CFA_XSP16, literal(-1)))
        CFI (cfiCond295) CFA_SP SP+0
        CFI (cfiCond295) CFA_XSP16 add(XSP16, 23)
        CFI Block cfiCond296 Using cfiCommon0
        CFI (cfiCond296) NoFunction
        CFI (cfiCond296) Conditional ??CrossCallReturnLabel_172
        CFI (cfiCond296) R6 load(1, XDATA, add(CFA_XSP16, literal(-18)))
        CFI (cfiCond296) VB load(1, XDATA, add(CFA_XSP16, literal(-17)))
        CFI (cfiCond296) V0 load(1, XDATA, add(CFA_XSP16, literal(-16)))
        CFI (cfiCond296) V1 load(1, XDATA, add(CFA_XSP16, literal(-15)))
        CFI (cfiCond296) V2 load(1, XDATA, add(CFA_XSP16, literal(-14)))
        CFI (cfiCond296) V3 load(1, XDATA, add(CFA_XSP16, literal(-13)))
        CFI (cfiCond296) V4 load(1, XDATA, add(CFA_XSP16, literal(-12)))
        CFI (cfiCond296) V5 load(1, XDATA, add(CFA_XSP16, literal(-11)))
        CFI (cfiCond296) V6 load(1, XDATA, add(CFA_XSP16, literal(-10)))
        CFI (cfiCond296) V7 load(1, XDATA, add(CFA_XSP16, literal(-9)))
        CFI (cfiCond296) V8 load(1, XDATA, add(CFA_XSP16, literal(-8)))
        CFI (cfiCond296) V9 load(1, XDATA, add(CFA_XSP16, literal(-7)))
        CFI (cfiCond296) R7 load(1, XDATA, add(CFA_XSP16, literal(-6)))
        CFI (cfiCond296) ?RET_LOW load(1, XDATA, add(CFA_XSP16, literal(-5)))
        CFI (cfiCond296) ?RET_HIGH load(1, XDATA, add(CFA_XSP16, literal(-4)))
        CFI (cfiCond296) ?BRET_EXT load(1, XDATA, add(CFA_XSP16, literal(-3)))
        CFI (cfiCond296) DPL0 load(1, XDATA, add(CFA_XSP16, literal(-2)))
        CFI (cfiCond296) DPH0 load(1, XDATA, add(CFA_XSP16, literal(-1)))
        CFI (cfiCond296) CFA_SP SP+0
        CFI (cfiCond296) CFA_XSP16 add(XSP16, 19)
        CFI Block cfiPicker297 Using cfiCommon1
        CFI (cfiPicker297) NoFunction
        CFI (cfiPicker297) Picker
        MOVX    A,@DPTR
        MOV     ?V0 + 0,A
        INC     DPTR
        MOVX    A,@DPTR
        MOV     ?V0 + 1,A
        RET
        CFI EndBlock cfiCond286
        CFI EndBlock cfiCond287
        CFI EndBlock cfiCond288
        CFI EndBlock cfiCond289
        CFI EndBlock cfiCond290
        CFI EndBlock cfiCond291
        CFI EndBlock cfiCond292
        CFI EndBlock cfiCond293
        CFI EndBlock cfiCond294
        CFI EndBlock cfiCond295
        CFI EndBlock cfiCond296
        CFI EndBlock cfiPicker297
// 1440 
// 1441 /*********************************************************************
// 1442  * @fn          ZDP_MgmtLqiRsp
// 1443  *
// 1444  * @brief       This builds and send a Mgmt_Lqi_rsp message. This
// 1445  *              function sends a unicast message.
// 1446  *
// 1447  * @param       dstAddr - destination address of the message
// 1448  * @param       Status - message status (ZDP_SUCCESS or other)
// 1449  * @param       NeighborLqiEntries - Total number of entries found
// 1450  * @param       StartIndex - Starting index within the reporting list
// 1451  * @param       NeighborLqiCount - number of lists included
// 1452  *                                 in this message
// 1453  * @param       NeighborLqiList - List of NeighborLqiItems.  This list
// 1454  *                is the list to be sent, not the entire list
// 1455  * @param       SecurityEnable - true if secure
// 1456  *
// 1457  * @return      ZStatus_t
// 1458  */

        RSEG BANKED_CODE:CODE:NOROOT(0)
// 1459 ZStatus_t ZDP_MgmtLqiRsp( byte TransSeq, zAddrType_t *dstAddr,
ZDP_MgmtLqiRsp:
        CFI Block cfiBlock298 Using cfiCommon0
        CFI Function ZDP_MgmtLqiRsp
        CODE
// 1460                           byte Status,
// 1461                           byte NeighborLqiEntries,
// 1462                           byte StartIndex,
// 1463                           byte NeighborLqiCount,
// 1464                           ZDP_MgmtLqiItem_t* NeighborList,
// 1465                           byte SecurityEnable )
// 1466 {
        FUNCALL ZDP_MgmtLqiRsp, fillAndSend
        LOCFRAME ISTACK, 0, STACK
        LOCFRAME PSTACK, 0, STACK
        LOCFRAME XSTACK, 25, STACK
        LOCFRAME IOVERLAY, 0, STATIC
        LOCFRAME DOVERLAY, 0, STATIC
        ARGFRAME ISTACK, 0, STACK
        ARGFRAME PSTACK, 0, STACK
        ARGFRAME XSTACK, 25, STACK
        ARGFRAME IOVERLAY, 0, STATIC
        ARGFRAME DOVERLAY, 0, STATIC
        FUNCALL ZDP_MgmtLqiRsp, osal_mem_alloc
        LOCFRAME ISTACK, 0, STACK
        LOCFRAME PSTACK, 0, STACK
        LOCFRAME XSTACK, 23, STACK
        LOCFRAME IOVERLAY, 0, STATIC
        LOCFRAME DOVERLAY, 0, STATIC
        ARGFRAME ISTACK, 0, STACK
        ARGFRAME PSTACK, 0, STACK
        ARGFRAME XSTACK, 23, STACK
        ARGFRAME IOVERLAY, 0, STATIC
        ARGFRAME DOVERLAY, 0, STATIC
        FUNCALL ZDP_MgmtLqiRsp, sAddrExtCpy
        LOCFRAME ISTACK, 0, STACK
        LOCFRAME PSTACK, 0, STACK
        LOCFRAME XSTACK, 23, STACK
        LOCFRAME IOVERLAY, 0, STATIC
        LOCFRAME DOVERLAY, 0, STATIC
        ARGFRAME ISTACK, 0, STACK
        ARGFRAME PSTACK, 0, STACK
        ARGFRAME XSTACK, 23, STACK
        ARGFRAME IOVERLAY, 0, STATIC
        ARGFRAME DOVERLAY, 0, STATIC
        FUNCALL ZDP_MgmtLqiRsp, sAddrExtCpy
        LOCFRAME ISTACK, 0, STACK
        LOCFRAME PSTACK, 0, STACK
        LOCFRAME XSTACK, 23, STACK
        LOCFRAME IOVERLAY, 0, STATIC
        LOCFRAME DOVERLAY, 0, STATIC
        ARGFRAME ISTACK, 0, STACK
        ARGFRAME PSTACK, 0, STACK
        ARGFRAME XSTACK, 23, STACK
        ARGFRAME IOVERLAY, 0, STATIC
        ARGFRAME DOVERLAY, 0, STATIC
        FUNCALL ZDP_MgmtLqiRsp, fillAndSend
        LOCFRAME ISTACK, 0, STACK
        LOCFRAME PSTACK, 0, STACK
        LOCFRAME XSTACK, 25, STACK
        LOCFRAME IOVERLAY, 0, STATIC
        LOCFRAME DOVERLAY, 0, STATIC
        ARGFRAME ISTACK, 0, STACK
        ARGFRAME PSTACK, 0, STACK
        ARGFRAME XSTACK, 25, STACK
        ARGFRAME IOVERLAY, 0, STATIC
        ARGFRAME DOVERLAY, 0, STATIC
        FUNCALL ZDP_MgmtLqiRsp, osal_mem_free
        LOCFRAME ISTACK, 0, STACK
        LOCFRAME PSTACK, 0, STACK
        LOCFRAME XSTACK, 23, STACK
        LOCFRAME IOVERLAY, 0, STATIC
        LOCFRAME DOVERLAY, 0, STATIC
        ARGFRAME ISTACK, 0, STACK
        ARGFRAME PSTACK, 0, STACK
        ARGFRAME XSTACK, 23, STACK
        ARGFRAME IOVERLAY, 0, STATIC
        ARGFRAME DOVERLAY, 0, STATIC
        MOV     A,#-0x16
        LCALL   ?BANKED_ENTER_XDATA
        CFI DPH0 load(1, XDATA, add(CFA_XSP16, literal(-1)))
        CFI DPL0 load(1, XDATA, add(CFA_XSP16, literal(-2)))
        CFI ?BRET_EXT load(1, XDATA, add(CFA_XSP16, literal(-3)))
        CFI ?RET_HIGH load(1, XDATA, add(CFA_XSP16, literal(-4)))
        CFI ?RET_LOW load(1, XDATA, add(CFA_XSP16, literal(-5)))
        CFI R7 load(1, XDATA, add(CFA_XSP16, literal(-6)))
        CFI V13 load(1, XDATA, add(CFA_XSP16, literal(-7)))
        CFI V12 load(1, XDATA, add(CFA_XSP16, literal(-8)))
        CFI V11 load(1, XDATA, add(CFA_XSP16, literal(-9)))
        CFI V10 load(1, XDATA, add(CFA_XSP16, literal(-10)))
        CFI V9 load(1, XDATA, add(CFA_XSP16, literal(-11)))
        CFI V8 load(1, XDATA, add(CFA_XSP16, literal(-12)))
        CFI V7 load(1, XDATA, add(CFA_XSP16, literal(-13)))
        CFI V6 load(1, XDATA, add(CFA_XSP16, literal(-14)))
        CFI V5 load(1, XDATA, add(CFA_XSP16, literal(-15)))
        CFI V4 load(1, XDATA, add(CFA_XSP16, literal(-16)))
        CFI V3 load(1, XDATA, add(CFA_XSP16, literal(-17)))
        CFI V2 load(1, XDATA, add(CFA_XSP16, literal(-18)))
        CFI V1 load(1, XDATA, add(CFA_XSP16, literal(-19)))
        CFI V0 load(1, XDATA, add(CFA_XSP16, literal(-20)))
        CFI VB load(1, XDATA, add(CFA_XSP16, literal(-21)))
        CFI R6 load(1, XDATA, add(CFA_XSP16, literal(-22)))
        CFI CFA_SP SP+0
        CFI CFA_XSP16 add(XSP16, 22)
        ; Saved register size: 22
        ; Auto size: 1
        MOV     A,#-0x1
        LCALL   ?ALLOC_XSTACK8
        CFI CFA_XSP16 add(XSP16, 23)
        MOV     A,R1
        MOV     DPL,?XSP + 0
        MOV     DPH,?XSP + 1
        MOVX    @DPTR,A
        MOV     ?V0 + 6,R2
        MOV     ?V0 + 7,R3
        MOV     ?V0 + 13,R5
        MOV     A,#0x17
        LCALL   ?XSTACK_DISP0_8
        MOVX    A,@DPTR
        MOV     ?V0 + 8,A
        MOV     A,#0x18
        LCALL   ?XSTACK_DISP0_8
        MOVX    A,@DPTR
        MOV     ?V0 + 10,A
        MOV     A,#0x19
        LCALL   ?XSTACK_DISP0_8
        LCALL   ??Subroutine99_0 & 0xFFFF
// 1467   ZDP_MgmtLqiItem_t* list = NeighborList;
// 1468   uint8 *buf, *pBuf;
// 1469   byte len, x;
// 1470 
// 1471   (void)SecurityEnable;  // Intentionally unreferenced parameter
// 1472 
// 1473   if ( ZSuccess != Status )
??CrossCallReturnLabel_169:
        MOV     A,R4
        JZ      ??ZDP_MgmtLqiRsp_0
// 1474   {
// 1475     ZDP_TmpBuf[0] = Status;
        LCALL   ?Subroutine29 & 0xFFFF
// 1476     return fillAndSend( &TransSeq, dstAddr, Mgmt_Lqi_rsp, 1 );
// 1477   }
??CrossCallReturnLabel_148:
        MOV     A,R4
        LCALL   ?Subroutine57 & 0xFFFF
??CrossCallReturnLabel_85:
        LCALL   ?PUSH_XSTACK_I_TWO
        CFI CFA_XSP16 add(XSP16, 25)
        MOV     R1,#0x1
        MOV     R4,?V0 + 6
        MOV     R5,?V0 + 7
        MOV     A,#0x2
        LCALL   ?XSTACK_DISP0_8
        MOV     R2,DPL
        MOV     R3,DPH
        LCALL   ??Subroutine107_0 & 0xFFFF
??CrossCallReturnLabel_217:
        LCALL   ?DEALLOC_XSTACK8
        CFI CFA_XSP16 add(XSP16, 23)
        LJMP    ??CrossCallReturnLabel_173 & 0xFFFF
// 1478 
// 1479   // (Status + NeighborLqiEntries + StartIndex + NeighborLqiCount) +
// 1480   //  neighbor LQI data.
// 1481   len = (1 + 1 + 1 + 1) + (NeighborLqiCount * ZDP_MGMTLQI_EXTENDED_SIZE);
??ZDP_MgmtLqiRsp_0:
        MOV     B,#0x16
        MOV     A,?V0 + 10
        MUL     AB
        ADD     A,#0x4
        MOV     ?V0 + 9,A
// 1482 
// 1483   buf = osal_mem_alloc( len+1 );
        ; Setup parameters for call to function osal_mem_alloc
        LCALL   ??Subroutine97_0 & 0xFFFF
??CrossCallReturnLabel_155:
        MOV     ?V0 + 2,R2
        MOV     ?V0 + 3,R3
// 1484   if ( buf == NULL )
        MOV     A,R2
        ORL     A,?V0 + 3
        JNZ     ??ZDP_MgmtLqiRsp_1
// 1485   {
// 1486     return afStatus_MEM_FAIL;
        MOV     R1,#0x10
        LJMP    ??CrossCallReturnLabel_173 & 0xFFFF
// 1487   }
// 1488 
// 1489   pBuf = buf+1;
??ZDP_MgmtLqiRsp_1:
        MOV     DPL,R2
        MOV     DPH,R3
        INC     DPTR
        MOV     ?V0 + 4,DPL
        MOV     ?V0 + 5,DPH
// 1490 
// 1491   *pBuf++ = Status;
        CLR     A
        MOVX    @DPTR,A
        INC     DPTR
// 1492   *pBuf++ = NeighborLqiEntries;
        MOV     A,?V0 + 13
        MOVX    @DPTR,A
        INC     DPTR
// 1493   *pBuf++ = StartIndex;
        MOV     A,?V0 + 8
        LCALL   ?Subroutine50 & 0xFFFF
// 1494   *pBuf++ = NeighborLqiCount;
// 1495 
// 1496   for ( x = 0; x < NeighborLqiCount; x++ )
??CrossCallReturnLabel_158:
        JNZ     $+5
        LJMP    ??ZDP_MgmtLqiRsp_2 & 0xFFFF
        MOV     ?V0 + 8,A
// 1497   {
// 1498     osal_cpyExtAddr( pBuf, list->extPanID);         // Extended PanID
??ZDP_MgmtLqiRsp_3:
        ; Setup parameters for call to function sAddrExtCpy
        MOV     A,?V0 + 0
        ADD     A,#0x2
        LCALL   ?Subroutine65 & 0xFFFF
// 1499     pBuf += Z_EXTADDR_LEN;
// 1500 
// 1501     // EXTADDR
// 1502     pBuf = osal_cpyExtAddr( pBuf, list->extAddr );
??CrossCallReturnLabel_96:
        ; Setup parameters for call to function sAddrExtCpy
        MOV     A,?V0 + 0
        ADD     A,#0xa
        MOV     R4,A
        MOV     A,?V0 + 1
        ADDC    A,#0x0
        MOV     R5,A
        MOV     A,R6
        ADD     A,#0x8
        MOV     R2,A
        MOV     A,R7
        ADDC    A,#0x0
        MOV     R3,A
        LCALL   ??sAddrExtCpy?relay
        MOV     ?V0 + 10,R2
        MOV     ?V0 + 11,R3
        MOV     R6,?V0 + 10
        MOV     R7,?V0 + 11
// 1503 
// 1504     // NWKADDR
// 1505     *pBuf++ = LO_UINT16( list->nwkAddr );
        MOV     A,?V0 + 0
        ADD     A,#0x12
        MOV     R0,A
        MOV     A,?V0 + 1
        LCALL   ?Subroutine63 & 0xFFFF
??CrossCallReturnLabel_90:
        LCALL   ?Subroutine14 & 0xFFFF
// 1506     *pBuf++ = HI_UINT16( list->nwkAddr );
??CrossCallReturnLabel_7:
        MOV     DPL,R0
        MOV     DPH,R1
        INC     DPTR
        LCALL   ??Subroutine101_0 & 0xFFFF
// 1507 
// 1508     // DEVICETYPE
// 1509     *pBuf = list->devType;
??CrossCallReturnLabel_181:
        ADD     A,#0x14
        LCALL   ?Subroutine62 & 0xFFFF
??CrossCallReturnLabel_260:
        MOV     DPL,R6
        MOV     DPH,R7
        MOVX    @DPTR,A
// 1510 
// 1511     // RXONIDLE
// 1512     *pBuf |= (uint8)(list->rxOnIdle << 2);
        MOV     A,?V0 + 0
        ADD     A,#0x15
        LCALL   ?Subroutine62 & 0xFFFF
??CrossCallReturnLabel_261:
        RLC     A
        RLC     A
        ANL     A,#0xfc
        MOV     R0,A
        MOV     DPL,R6
        MOV     DPH,R7
        MOVX    A,@DPTR
        ORL     A,R0
        LCALL   ?Subroutine56 & 0xFFFF
// 1513 
// 1514     // RELATIONSHIP
// 1515     *pBuf++ |= (uint8)(list->relation << 4);
??CrossCallReturnLabel_84:
        MOV     A,?V0 + 0
        ADD     A,#0x16
        LCALL   ?Subroutine66 & 0xFFFF
??CrossCallReturnLabel_254:
        LCALL   ?Subroutine30 & 0xFFFF
// 1516 
// 1517     // PERMITJOINING
// 1518     *pBuf++ = (uint8)(list->permit);
??CrossCallReturnLabel_33:
        MOV     A,?V0 + 0
        ADD     A,#0x17
        LCALL   ?Subroutine12 & 0xFFFF
// 1519 
// 1520     // DEPTH
// 1521     *pBuf++ = list->depth;
// 1522 
// 1523     // LQI
// 1524     *pBuf++ = list->lqi;
// 1525 
// 1526     list++; // next list entry
// 1527   }
??CrossCallReturnLabel_178:
        ADD     A,#0x18
        LCALL   ?Subroutine12 & 0xFFFF
??CrossCallReturnLabel_179:
        ADD     A,#0x19
        LCALL   ?Subroutine12 & 0xFFFF
??CrossCallReturnLabel_180:
        ADD     A,#0x1a
        MOV     ?V0 + 0,A
        MOV     A,?V0 + 1
        ADDC    A,#0x0
        MOV     ?V0 + 1,A
        DEC     ?V0 + 8
        MOV     A,?V0 + 8
        JZ      $+5
        LJMP    ??ZDP_MgmtLqiRsp_3 & 0xFFFF
// 1528 
// 1529   FillAndSendBuffer( &TransSeq, dstAddr, Mgmt_Lqi_rsp, len, buf );
??ZDP_MgmtLqiRsp_2:
        MOV     DPTR,#ZDP_TmpBuf
        MOV     A,?V0 + 4
        MOVX    @DPTR,A
        INC     DPTR
        MOV     A,?V0 + 5
        LCALL   ?Subroutine57 & 0xFFFF
??CrossCallReturnLabel_86:
        LCALL   ?PUSH_XSTACK_I_TWO
        CFI CFA_XSP16 add(XSP16, 25)
        MOV     R1,?V0 + 9
        MOV     R4,?V0 + 6
        MOV     R5,?V0 + 7
        MOV     A,#0x2
        LCALL   ?XSTACK_DISP0_8
        MOV     R2,DPL
        MOV     R3,DPH
        LCALL   ??Subroutine107_0 & 0xFFFF
??CrossCallReturnLabel_218:
        LCALL   ?DEALLOC_XSTACK8
        CFI CFA_XSP16 add(XSP16, 23)
        LCALL   ?Subroutine54 & 0xFFFF
??CrossCallReturnLabel_173:
        LJMP    ?Subroutine5 & 0xFFFF
        CFI EndBlock cfiBlock298
// 1530 }

        RSEG BANKED_CODE:CODE:NOROOT(0)
?Subroutine65:
        CFI Block cfiCond299 Using cfiCommon0
        CFI NoFunction
        CFI Conditional ??CrossCallReturnLabel_95
        CFI R6 load(1, XDATA, add(CFA_XSP16, literal(-22)))
        CFI VB load(1, XDATA, add(CFA_XSP16, literal(-21)))
        CFI V0 load(1, XDATA, add(CFA_XSP16, literal(-20)))
        CFI V1 load(1, XDATA, add(CFA_XSP16, literal(-19)))
        CFI V2 load(1, XDATA, add(CFA_XSP16, literal(-18)))
        CFI V3 load(1, XDATA, add(CFA_XSP16, literal(-17)))
        CFI V4 load(1, XDATA, add(CFA_XSP16, literal(-16)))
        CFI V5 load(1, XDATA, add(CFA_XSP16, literal(-15)))
        CFI V6 load(1, XDATA, add(CFA_XSP16, literal(-14)))
        CFI V7 load(1, XDATA, add(CFA_XSP16, literal(-13)))
        CFI V8 load(1, XDATA, add(CFA_XSP16, literal(-12)))
        CFI V9 load(1, XDATA, add(CFA_XSP16, literal(-11)))
        CFI V10 load(1, XDATA, add(CFA_XSP16, literal(-10)))
        CFI V11 load(1, XDATA, add(CFA_XSP16, literal(-9)))
        CFI V12 load(1, XDATA, add(CFA_XSP16, literal(-8)))
        CFI V13 load(1, XDATA, add(CFA_XSP16, literal(-7)))
        CFI R7 load(1, XDATA, add(CFA_XSP16, literal(-6)))
        CFI ?RET_LOW load(1, XDATA, add(CFA_XSP16, literal(-5)))
        CFI ?RET_HIGH load(1, XDATA, add(CFA_XSP16, literal(-4)))
        CFI ?BRET_EXT load(1, XDATA, add(CFA_XSP16, literal(-3)))
        CFI DPL0 load(1, XDATA, add(CFA_XSP16, literal(-2)))
        CFI DPH0 load(1, XDATA, add(CFA_XSP16, literal(-1)))
        CFI CFA_SP SP+0
        CFI CFA_XSP16 add(XSP16, 23)
        CFI Block cfiCond300 Using cfiCommon0
        CFI (cfiCond300) NoFunction
        CFI (cfiCond300) Conditional ??CrossCallReturnLabel_96
        CFI (cfiCond300) R6 load(1, XDATA, add(CFA_XSP16, literal(-22)))
        CFI (cfiCond300) VB load(1, XDATA, add(CFA_XSP16, literal(-21)))
        CFI (cfiCond300) V0 load(1, XDATA, add(CFA_XSP16, literal(-20)))
        CFI (cfiCond300) V1 load(1, XDATA, add(CFA_XSP16, literal(-19)))
        CFI (cfiCond300) V2 load(1, XDATA, add(CFA_XSP16, literal(-18)))
        CFI (cfiCond300) V3 load(1, XDATA, add(CFA_XSP16, literal(-17)))
        CFI (cfiCond300) V4 load(1, XDATA, add(CFA_XSP16, literal(-16)))
        CFI (cfiCond300) V5 load(1, XDATA, add(CFA_XSP16, literal(-15)))
        CFI (cfiCond300) V6 load(1, XDATA, add(CFA_XSP16, literal(-14)))
        CFI (cfiCond300) V7 load(1, XDATA, add(CFA_XSP16, literal(-13)))
        CFI (cfiCond300) V8 load(1, XDATA, add(CFA_XSP16, literal(-12)))
        CFI (cfiCond300) V9 load(1, XDATA, add(CFA_XSP16, literal(-11)))
        CFI (cfiCond300) V10 load(1, XDATA, add(CFA_XSP16, literal(-10)))
        CFI (cfiCond300) V11 load(1, XDATA, add(CFA_XSP16, literal(-9)))
        CFI (cfiCond300) V12 load(1, XDATA, add(CFA_XSP16, literal(-8)))
        CFI (cfiCond300) V13 load(1, XDATA, add(CFA_XSP16, literal(-7)))
        CFI (cfiCond300) R7 load(1, XDATA, add(CFA_XSP16, literal(-6)))
        CFI (cfiCond300) ?RET_LOW load(1, XDATA, add(CFA_XSP16, literal(-5)))
        CFI (cfiCond300) ?RET_HIGH load(1, XDATA, add(CFA_XSP16, literal(-4)))
        CFI (cfiCond300) ?BRET_EXT load(1, XDATA, add(CFA_XSP16, literal(-3)))
        CFI (cfiCond300) DPL0 load(1, XDATA, add(CFA_XSP16, literal(-2)))
        CFI (cfiCond300) DPH0 load(1, XDATA, add(CFA_XSP16, literal(-1)))
        CFI (cfiCond300) CFA_SP SP+0
        CFI (cfiCond300) CFA_XSP16 add(XSP16, 23)
        CFI Block cfiPicker301 Using cfiCommon1
        CFI (cfiPicker301) NoFunction
        CFI (cfiPicker301) Picker
        MOV     R4,A
        MOV     A,?V0 + 1
        ADDC    A,#0x0
        MOV     R5,A
        MOV     A,R6
        MOV     R2,A
        MOV     A,R7
        MOV     R3,A
        LCALL   ??sAddrExtCpy?relay
        RET
        CFI EndBlock cfiCond299
        CFI EndBlock cfiCond300
        CFI EndBlock cfiPicker301

        RSEG BANKED_CODE:CODE:NOROOT(0)
?Subroutine57:
        CFI Block cfiCond302 Using cfiCommon0
        CFI NoFunction
        CFI Conditional ??CrossCallReturnLabel_85
        CFI R6 load(1, XDATA, add(CFA_XSP16, literal(-22)))
        CFI VB load(1, XDATA, add(CFA_XSP16, literal(-21)))
        CFI V0 load(1, XDATA, add(CFA_XSP16, literal(-20)))
        CFI V1 load(1, XDATA, add(CFA_XSP16, literal(-19)))
        CFI V2 load(1, XDATA, add(CFA_XSP16, literal(-18)))
        CFI V3 load(1, XDATA, add(CFA_XSP16, literal(-17)))
        CFI V4 load(1, XDATA, add(CFA_XSP16, literal(-16)))
        CFI V5 load(1, XDATA, add(CFA_XSP16, literal(-15)))
        CFI V6 load(1, XDATA, add(CFA_XSP16, literal(-14)))
        CFI V7 load(1, XDATA, add(CFA_XSP16, literal(-13)))
        CFI V8 load(1, XDATA, add(CFA_XSP16, literal(-12)))
        CFI V9 load(1, XDATA, add(CFA_XSP16, literal(-11)))
        CFI V10 load(1, XDATA, add(CFA_XSP16, literal(-10)))
        CFI V11 load(1, XDATA, add(CFA_XSP16, literal(-9)))
        CFI V12 load(1, XDATA, add(CFA_XSP16, literal(-8)))
        CFI V13 load(1, XDATA, add(CFA_XSP16, literal(-7)))
        CFI R7 load(1, XDATA, add(CFA_XSP16, literal(-6)))
        CFI ?RET_LOW load(1, XDATA, add(CFA_XSP16, literal(-5)))
        CFI ?RET_HIGH load(1, XDATA, add(CFA_XSP16, literal(-4)))
        CFI ?BRET_EXT load(1, XDATA, add(CFA_XSP16, literal(-3)))
        CFI DPL0 load(1, XDATA, add(CFA_XSP16, literal(-2)))
        CFI DPH0 load(1, XDATA, add(CFA_XSP16, literal(-1)))
        CFI CFA_SP SP+0
        CFI CFA_XSP16 add(XSP16, 23)
        CFI Block cfiCond303 Using cfiCommon0
        CFI (cfiCond303) NoFunction
        CFI (cfiCond303) Conditional ??CrossCallReturnLabel_86
        CFI (cfiCond303) R6 load(1, XDATA, add(CFA_XSP16, literal(-22)))
        CFI (cfiCond303) VB load(1, XDATA, add(CFA_XSP16, literal(-21)))
        CFI (cfiCond303) V0 load(1, XDATA, add(CFA_XSP16, literal(-20)))
        CFI (cfiCond303) V1 load(1, XDATA, add(CFA_XSP16, literal(-19)))
        CFI (cfiCond303) V2 load(1, XDATA, add(CFA_XSP16, literal(-18)))
        CFI (cfiCond303) V3 load(1, XDATA, add(CFA_XSP16, literal(-17)))
        CFI (cfiCond303) V4 load(1, XDATA, add(CFA_XSP16, literal(-16)))
        CFI (cfiCond303) V5 load(1, XDATA, add(CFA_XSP16, literal(-15)))
        CFI (cfiCond303) V6 load(1, XDATA, add(CFA_XSP16, literal(-14)))
        CFI (cfiCond303) V7 load(1, XDATA, add(CFA_XSP16, literal(-13)))
        CFI (cfiCond303) V8 load(1, XDATA, add(CFA_XSP16, literal(-12)))
        CFI (cfiCond303) V9 load(1, XDATA, add(CFA_XSP16, literal(-11)))
        CFI (cfiCond303) V10 load(1, XDATA, add(CFA_XSP16, literal(-10)))
        CFI (cfiCond303) V11 load(1, XDATA, add(CFA_XSP16, literal(-9)))
        CFI (cfiCond303) V12 load(1, XDATA, add(CFA_XSP16, literal(-8)))
        CFI (cfiCond303) V13 load(1, XDATA, add(CFA_XSP16, literal(-7)))
        CFI (cfiCond303) R7 load(1, XDATA, add(CFA_XSP16, literal(-6)))
        CFI (cfiCond303) ?RET_LOW load(1, XDATA, add(CFA_XSP16, literal(-5)))
        CFI (cfiCond303) ?RET_HIGH load(1, XDATA, add(CFA_XSP16, literal(-4)))
        CFI (cfiCond303) ?BRET_EXT load(1, XDATA, add(CFA_XSP16, literal(-3)))
        CFI (cfiCond303) DPL0 load(1, XDATA, add(CFA_XSP16, literal(-2)))
        CFI (cfiCond303) DPH0 load(1, XDATA, add(CFA_XSP16, literal(-1)))
        CFI (cfiCond303) CFA_SP SP+0
        CFI (cfiCond303) CFA_XSP16 add(XSP16, 23)
        CFI Block cfiPicker304 Using cfiCommon1
        CFI (cfiPicker304) NoFunction
        CFI (cfiPicker304) Picker
        MOVX    @DPTR,A
        ; Setup parameters for call to function fillAndSend
        ; Setup parameters for call to function fillAndSend
        MOV     ?V0 + 0,#0x31
        MOV     ?V0 + 1,#-0x80
        MOV     R0,#?V0 + 0
        RET
        CFI EndBlock cfiCond302
        CFI EndBlock cfiCond303
        CFI EndBlock cfiPicker304

        RSEG BANKED_CODE:CODE:NOROOT(0)
?Subroutine56:
        CFI Block cfiCond305 Using cfiCommon0
        CFI NoFunction
        CFI Conditional ??CrossCallReturnLabel_83
        CFI R6 load(1, XDATA, add(CFA_XSP16, literal(-22)))
        CFI VB load(1, XDATA, add(CFA_XSP16, literal(-21)))
        CFI V0 load(1, XDATA, add(CFA_XSP16, literal(-20)))
        CFI V1 load(1, XDATA, add(CFA_XSP16, literal(-19)))
        CFI V2 load(1, XDATA, add(CFA_XSP16, literal(-18)))
        CFI V3 load(1, XDATA, add(CFA_XSP16, literal(-17)))
        CFI V4 load(1, XDATA, add(CFA_XSP16, literal(-16)))
        CFI V5 load(1, XDATA, add(CFA_XSP16, literal(-15)))
        CFI V6 load(1, XDATA, add(CFA_XSP16, literal(-14)))
        CFI V7 load(1, XDATA, add(CFA_XSP16, literal(-13)))
        CFI V8 load(1, XDATA, add(CFA_XSP16, literal(-12)))
        CFI V9 load(1, XDATA, add(CFA_XSP16, literal(-11)))
        CFI V10 load(1, XDATA, add(CFA_XSP16, literal(-10)))
        CFI V11 load(1, XDATA, add(CFA_XSP16, literal(-9)))
        CFI V12 load(1, XDATA, add(CFA_XSP16, literal(-8)))
        CFI V13 load(1, XDATA, add(CFA_XSP16, literal(-7)))
        CFI R7 load(1, XDATA, add(CFA_XSP16, literal(-6)))
        CFI ?RET_LOW load(1, XDATA, add(CFA_XSP16, literal(-5)))
        CFI ?RET_HIGH load(1, XDATA, add(CFA_XSP16, literal(-4)))
        CFI ?BRET_EXT load(1, XDATA, add(CFA_XSP16, literal(-3)))
        CFI DPL0 load(1, XDATA, add(CFA_XSP16, literal(-2)))
        CFI DPH0 load(1, XDATA, add(CFA_XSP16, literal(-1)))
        CFI CFA_SP SP+0
        CFI CFA_XSP16 add(XSP16, 23)
        CFI Block cfiCond306 Using cfiCommon0
        CFI (cfiCond306) NoFunction
        CFI (cfiCond306) Conditional ??CrossCallReturnLabel_84
        CFI (cfiCond306) R6 load(1, XDATA, add(CFA_XSP16, literal(-22)))
        CFI (cfiCond306) VB load(1, XDATA, add(CFA_XSP16, literal(-21)))
        CFI (cfiCond306) V0 load(1, XDATA, add(CFA_XSP16, literal(-20)))
        CFI (cfiCond306) V1 load(1, XDATA, add(CFA_XSP16, literal(-19)))
        CFI (cfiCond306) V2 load(1, XDATA, add(CFA_XSP16, literal(-18)))
        CFI (cfiCond306) V3 load(1, XDATA, add(CFA_XSP16, literal(-17)))
        CFI (cfiCond306) V4 load(1, XDATA, add(CFA_XSP16, literal(-16)))
        CFI (cfiCond306) V5 load(1, XDATA, add(CFA_XSP16, literal(-15)))
        CFI (cfiCond306) V6 load(1, XDATA, add(CFA_XSP16, literal(-14)))
        CFI (cfiCond306) V7 load(1, XDATA, add(CFA_XSP16, literal(-13)))
        CFI (cfiCond306) V8 load(1, XDATA, add(CFA_XSP16, literal(-12)))
        CFI (cfiCond306) V9 load(1, XDATA, add(CFA_XSP16, literal(-11)))
        CFI (cfiCond306) V10 load(1, XDATA, add(CFA_XSP16, literal(-10)))
        CFI (cfiCond306) V11 load(1, XDATA, add(CFA_XSP16, literal(-9)))
        CFI (cfiCond306) V12 load(1, XDATA, add(CFA_XSP16, literal(-8)))
        CFI (cfiCond306) V13 load(1, XDATA, add(CFA_XSP16, literal(-7)))
        CFI (cfiCond306) R7 load(1, XDATA, add(CFA_XSP16, literal(-6)))
        CFI (cfiCond306) ?RET_LOW load(1, XDATA, add(CFA_XSP16, literal(-5)))
        CFI (cfiCond306) ?RET_HIGH load(1, XDATA, add(CFA_XSP16, literal(-4)))
        CFI (cfiCond306) ?BRET_EXT load(1, XDATA, add(CFA_XSP16, literal(-3)))
        CFI (cfiCond306) DPL0 load(1, XDATA, add(CFA_XSP16, literal(-2)))
        CFI (cfiCond306) DPH0 load(1, XDATA, add(CFA_XSP16, literal(-1)))
        CFI (cfiCond306) CFA_SP SP+0
        CFI (cfiCond306) CFA_XSP16 add(XSP16, 23)
        CFI Block cfiPicker307 Using cfiCommon1
        CFI (cfiPicker307) NoFunction
        CFI (cfiPicker307) Picker
        MOVX    @DPTR,A
        MOV     A,R6
        MOV     R0,A
        MOV     A,R7
        MOV     R1,A
        INC     DPTR
        INC     R6
        MOV     R7,DPH
        RET
        CFI EndBlock cfiCond305
        CFI EndBlock cfiCond306
        CFI EndBlock cfiPicker307

        RSEG BANKED_CODE:CODE:NOROOT(0)
?Subroutine54:
        CFI Block cfiCond308 Using cfiCommon0
        CFI NoFunction
        CFI Conditional ??CrossCallReturnLabel_173
        CFI R6 load(1, XDATA, add(CFA_XSP16, literal(-22)))
        CFI VB load(1, XDATA, add(CFA_XSP16, literal(-21)))
        CFI V0 load(1, XDATA, add(CFA_XSP16, literal(-20)))
        CFI V1 load(1, XDATA, add(CFA_XSP16, literal(-19)))
        CFI V2 load(1, XDATA, add(CFA_XSP16, literal(-18)))
        CFI V3 load(1, XDATA, add(CFA_XSP16, literal(-17)))
        CFI V4 load(1, XDATA, add(CFA_XSP16, literal(-16)))
        CFI V5 load(1, XDATA, add(CFA_XSP16, literal(-15)))
        CFI V6 load(1, XDATA, add(CFA_XSP16, literal(-14)))
        CFI V7 load(1, XDATA, add(CFA_XSP16, literal(-13)))
        CFI V8 load(1, XDATA, add(CFA_XSP16, literal(-12)))
        CFI V9 load(1, XDATA, add(CFA_XSP16, literal(-11)))
        CFI V10 load(1, XDATA, add(CFA_XSP16, literal(-10)))
        CFI V11 load(1, XDATA, add(CFA_XSP16, literal(-9)))
        CFI V12 load(1, XDATA, add(CFA_XSP16, literal(-8)))
        CFI V13 load(1, XDATA, add(CFA_XSP16, literal(-7)))
        CFI R7 load(1, XDATA, add(CFA_XSP16, literal(-6)))
        CFI ?RET_LOW load(1, XDATA, add(CFA_XSP16, literal(-5)))
        CFI ?RET_HIGH load(1, XDATA, add(CFA_XSP16, literal(-4)))
        CFI ?BRET_EXT load(1, XDATA, add(CFA_XSP16, literal(-3)))
        CFI DPL0 load(1, XDATA, add(CFA_XSP16, literal(-2)))
        CFI DPH0 load(1, XDATA, add(CFA_XSP16, literal(-1)))
        CFI CFA_SP SP+0
        CFI CFA_XSP16 add(XSP16, 23)
        CFI Block cfiCond309 Using cfiCommon0
        CFI (cfiCond309) NoFunction
        CFI (cfiCond309) Conditional ??CrossCallReturnLabel_174
        CFI (cfiCond309) R6 load(1, XDATA, add(CFA_XSP16, literal(-20)))
        CFI (cfiCond309) VB load(1, XDATA, add(CFA_XSP16, literal(-19)))
        CFI (cfiCond309) V0 load(1, XDATA, add(CFA_XSP16, literal(-18)))
        CFI (cfiCond309) V1 load(1, XDATA, add(CFA_XSP16, literal(-17)))
        CFI (cfiCond309) V2 load(1, XDATA, add(CFA_XSP16, literal(-16)))
        CFI (cfiCond309) V3 load(1, XDATA, add(CFA_XSP16, literal(-15)))
        CFI (cfiCond309) V4 load(1, XDATA, add(CFA_XSP16, literal(-14)))
        CFI (cfiCond309) V5 load(1, XDATA, add(CFA_XSP16, literal(-13)))
        CFI (cfiCond309) V6 load(1, XDATA, add(CFA_XSP16, literal(-12)))
        CFI (cfiCond309) V7 load(1, XDATA, add(CFA_XSP16, literal(-11)))
        CFI (cfiCond309) V8 load(1, XDATA, add(CFA_XSP16, literal(-10)))
        CFI (cfiCond309) V9 load(1, XDATA, add(CFA_XSP16, literal(-9)))
        CFI (cfiCond309) V10 load(1, XDATA, add(CFA_XSP16, literal(-8)))
        CFI (cfiCond309) V11 load(1, XDATA, add(CFA_XSP16, literal(-7)))
        CFI (cfiCond309) R7 load(1, XDATA, add(CFA_XSP16, literal(-6)))
        CFI (cfiCond309) ?RET_LOW load(1, XDATA, add(CFA_XSP16, literal(-5)))
        CFI (cfiCond309) ?RET_HIGH load(1, XDATA, add(CFA_XSP16, literal(-4)))
        CFI (cfiCond309) ?BRET_EXT load(1, XDATA, add(CFA_XSP16, literal(-3)))
        CFI (cfiCond309) DPL0 load(1, XDATA, add(CFA_XSP16, literal(-2)))
        CFI (cfiCond309) DPH0 load(1, XDATA, add(CFA_XSP16, literal(-1)))
        CFI (cfiCond309) CFA_SP SP+0
        CFI (cfiCond309) CFA_XSP16 add(XSP16, 21)
        CFI Block cfiPicker310 Using cfiCommon1
        CFI (cfiPicker310) NoFunction
        CFI (cfiPicker310) Picker
        MOV     A,R1
        MOV     R6,A
        ; Setup parameters for call to function osal_mem_free
        ; Setup parameters for call to function osal_mem_free
        MOV     R2,?V0 + 2
        MOV     R3,?V0 + 3
        CFI EndBlock cfiCond308
        CFI EndBlock cfiCond309
        CFI EndBlock cfiPicker310
        REQUIRE ??Subroutine100_0
        ; // Fall through to label ??Subroutine100_0

        RSEG BANKED_CODE:CODE:NOROOT(0)
??Subroutine100_0:
        CFI Block cfiCond311 Using cfiCommon0
        CFI NoFunction
        CFI Conditional ??CrossCallReturnLabel_175
        CFI R6 load(1, XDATA, add(CFA_XSP16, literal(-22)))
        CFI VB load(1, XDATA, add(CFA_XSP16, literal(-21)))
        CFI V0 load(1, XDATA, add(CFA_XSP16, literal(-20)))
        CFI V1 load(1, XDATA, add(CFA_XSP16, literal(-19)))
        CFI V2 load(1, XDATA, add(CFA_XSP16, literal(-18)))
        CFI V3 load(1, XDATA, add(CFA_XSP16, literal(-17)))
        CFI V4 load(1, XDATA, add(CFA_XSP16, literal(-16)))
        CFI V5 load(1, XDATA, add(CFA_XSP16, literal(-15)))
        CFI V6 load(1, XDATA, add(CFA_XSP16, literal(-14)))
        CFI V7 load(1, XDATA, add(CFA_XSP16, literal(-13)))
        CFI V8 load(1, XDATA, add(CFA_XSP16, literal(-12)))
        CFI V9 load(1, XDATA, add(CFA_XSP16, literal(-11)))
        CFI V10 load(1, XDATA, add(CFA_XSP16, literal(-10)))
        CFI V11 load(1, XDATA, add(CFA_XSP16, literal(-9)))
        CFI V12 load(1, XDATA, add(CFA_XSP16, literal(-8)))
        CFI V13 load(1, XDATA, add(CFA_XSP16, literal(-7)))
        CFI R7 load(1, XDATA, add(CFA_XSP16, literal(-6)))
        CFI ?RET_LOW load(1, XDATA, add(CFA_XSP16, literal(-5)))
        CFI ?RET_HIGH load(1, XDATA, add(CFA_XSP16, literal(-4)))
        CFI ?BRET_EXT load(1, XDATA, add(CFA_XSP16, literal(-3)))
        CFI DPL0 load(1, XDATA, add(CFA_XSP16, literal(-2)))
        CFI DPH0 load(1, XDATA, add(CFA_XSP16, literal(-1)))
        CFI CFA_SP SP+0
        CFI CFA_XSP16 add(XSP16, 23)
        CFI Block cfiCond312 Using cfiCommon0
        CFI (cfiCond312) NoFunction
        CFI (cfiCond312) Conditional ??CrossCallReturnLabel_173
        CFI (cfiCond312) R6 load(1, XDATA, add(CFA_XSP16, literal(-22)))
        CFI (cfiCond312) VB load(1, XDATA, add(CFA_XSP16, literal(-21)))
        CFI (cfiCond312) V0 load(1, XDATA, add(CFA_XSP16, literal(-20)))
        CFI (cfiCond312) V1 load(1, XDATA, add(CFA_XSP16, literal(-19)))
        CFI (cfiCond312) V2 load(1, XDATA, add(CFA_XSP16, literal(-18)))
        CFI (cfiCond312) V3 load(1, XDATA, add(CFA_XSP16, literal(-17)))
        CFI (cfiCond312) V4 load(1, XDATA, add(CFA_XSP16, literal(-16)))
        CFI (cfiCond312) V5 load(1, XDATA, add(CFA_XSP16, literal(-15)))
        CFI (cfiCond312) V6 load(1, XDATA, add(CFA_XSP16, literal(-14)))
        CFI (cfiCond312) V7 load(1, XDATA, add(CFA_XSP16, literal(-13)))
        CFI (cfiCond312) V8 load(1, XDATA, add(CFA_XSP16, literal(-12)))
        CFI (cfiCond312) V9 load(1, XDATA, add(CFA_XSP16, literal(-11)))
        CFI (cfiCond312) V10 load(1, XDATA, add(CFA_XSP16, literal(-10)))
        CFI (cfiCond312) V11 load(1, XDATA, add(CFA_XSP16, literal(-9)))
        CFI (cfiCond312) V12 load(1, XDATA, add(CFA_XSP16, literal(-8)))
        CFI (cfiCond312) V13 load(1, XDATA, add(CFA_XSP16, literal(-7)))
        CFI (cfiCond312) R7 load(1, XDATA, add(CFA_XSP16, literal(-6)))
        CFI (cfiCond312) ?RET_LOW load(1, XDATA, add(CFA_XSP16, literal(-5)))
        CFI (cfiCond312) ?RET_HIGH load(1, XDATA, add(CFA_XSP16, literal(-4)))
        CFI (cfiCond312) ?BRET_EXT load(1, XDATA, add(CFA_XSP16, literal(-3)))
        CFI (cfiCond312) DPL0 load(1, XDATA, add(CFA_XSP16, literal(-2)))
        CFI (cfiCond312) DPH0 load(1, XDATA, add(CFA_XSP16, literal(-1)))
        CFI (cfiCond312) CFA_SP SP+0
        CFI (cfiCond312) CFA_XSP16 add(XSP16, 23)
        CFI Block cfiCond313 Using cfiCommon0
        CFI (cfiCond313) NoFunction
        CFI (cfiCond313) Conditional ??CrossCallReturnLabel_174
        CFI (cfiCond313) R6 load(1, XDATA, add(CFA_XSP16, literal(-20)))
        CFI (cfiCond313) VB load(1, XDATA, add(CFA_XSP16, literal(-19)))
        CFI (cfiCond313) V0 load(1, XDATA, add(CFA_XSP16, literal(-18)))
        CFI (cfiCond313) V1 load(1, XDATA, add(CFA_XSP16, literal(-17)))
        CFI (cfiCond313) V2 load(1, XDATA, add(CFA_XSP16, literal(-16)))
        CFI (cfiCond313) V3 load(1, XDATA, add(CFA_XSP16, literal(-15)))
        CFI (cfiCond313) V4 load(1, XDATA, add(CFA_XSP16, literal(-14)))
        CFI (cfiCond313) V5 load(1, XDATA, add(CFA_XSP16, literal(-13)))
        CFI (cfiCond313) V6 load(1, XDATA, add(CFA_XSP16, literal(-12)))
        CFI (cfiCond313) V7 load(1, XDATA, add(CFA_XSP16, literal(-11)))
        CFI (cfiCond313) V8 load(1, XDATA, add(CFA_XSP16, literal(-10)))
        CFI (cfiCond313) V9 load(1, XDATA, add(CFA_XSP16, literal(-9)))
        CFI (cfiCond313) V10 load(1, XDATA, add(CFA_XSP16, literal(-8)))
        CFI (cfiCond313) V11 load(1, XDATA, add(CFA_XSP16, literal(-7)))
        CFI (cfiCond313) R7 load(1, XDATA, add(CFA_XSP16, literal(-6)))
        CFI (cfiCond313) ?RET_LOW load(1, XDATA, add(CFA_XSP16, literal(-5)))
        CFI (cfiCond313) ?RET_HIGH load(1, XDATA, add(CFA_XSP16, literal(-4)))
        CFI (cfiCond313) ?BRET_EXT load(1, XDATA, add(CFA_XSP16, literal(-3)))
        CFI (cfiCond313) DPL0 load(1, XDATA, add(CFA_XSP16, literal(-2)))
        CFI (cfiCond313) DPH0 load(1, XDATA, add(CFA_XSP16, literal(-1)))
        CFI (cfiCond313) CFA_SP SP+0
        CFI (cfiCond313) CFA_XSP16 add(XSP16, 21)
        CFI Block cfiPicker314 Using cfiCommon1
        CFI (cfiPicker314) NoFunction
        CFI (cfiPicker314) Picker
        LCALL   ?Subroutine80 & 0xFFFF
??CrossCallReturnLabel_176:
        MOV     A,R6
        MOV     R1,A
        RET
        CFI EndBlock cfiCond311
        CFI EndBlock cfiCond312
        CFI EndBlock cfiCond313
        CFI EndBlock cfiPicker314

        RSEG BANKED_CODE:CODE:NOROOT(0)
?Subroutine30:
        CFI Block cfiCond315 Using cfiCommon0
        CFI NoFunction
        CFI Conditional ??CrossCallReturnLabel_32
        CFI R6 load(1, XDATA, add(CFA_XSP16, literal(-22)))
        CFI VB load(1, XDATA, add(CFA_XSP16, literal(-21)))
        CFI V0 load(1, XDATA, add(CFA_XSP16, literal(-20)))
        CFI V1 load(1, XDATA, add(CFA_XSP16, literal(-19)))
        CFI V2 load(1, XDATA, add(CFA_XSP16, literal(-18)))
        CFI V3 load(1, XDATA, add(CFA_XSP16, literal(-17)))
        CFI V4 load(1, XDATA, add(CFA_XSP16, literal(-16)))
        CFI V5 load(1, XDATA, add(CFA_XSP16, literal(-15)))
        CFI V6 load(1, XDATA, add(CFA_XSP16, literal(-14)))
        CFI V7 load(1, XDATA, add(CFA_XSP16, literal(-13)))
        CFI V8 load(1, XDATA, add(CFA_XSP16, literal(-12)))
        CFI V9 load(1, XDATA, add(CFA_XSP16, literal(-11)))
        CFI V10 load(1, XDATA, add(CFA_XSP16, literal(-10)))
        CFI V11 load(1, XDATA, add(CFA_XSP16, literal(-9)))
        CFI V12 load(1, XDATA, add(CFA_XSP16, literal(-8)))
        CFI V13 load(1, XDATA, add(CFA_XSP16, literal(-7)))
        CFI R7 load(1, XDATA, add(CFA_XSP16, literal(-6)))
        CFI ?RET_LOW load(1, XDATA, add(CFA_XSP16, literal(-5)))
        CFI ?RET_HIGH load(1, XDATA, add(CFA_XSP16, literal(-4)))
        CFI ?BRET_EXT load(1, XDATA, add(CFA_XSP16, literal(-3)))
        CFI DPL0 load(1, XDATA, add(CFA_XSP16, literal(-2)))
        CFI DPH0 load(1, XDATA, add(CFA_XSP16, literal(-1)))
        CFI CFA_SP SP+0
        CFI CFA_XSP16 add(XSP16, 23)
        CFI Block cfiCond316 Using cfiCommon0
        CFI (cfiCond316) NoFunction
        CFI (cfiCond316) Conditional ??CrossCallReturnLabel_33
        CFI (cfiCond316) R6 load(1, XDATA, add(CFA_XSP16, literal(-22)))
        CFI (cfiCond316) VB load(1, XDATA, add(CFA_XSP16, literal(-21)))
        CFI (cfiCond316) V0 load(1, XDATA, add(CFA_XSP16, literal(-20)))
        CFI (cfiCond316) V1 load(1, XDATA, add(CFA_XSP16, literal(-19)))
        CFI (cfiCond316) V2 load(1, XDATA, add(CFA_XSP16, literal(-18)))
        CFI (cfiCond316) V3 load(1, XDATA, add(CFA_XSP16, literal(-17)))
        CFI (cfiCond316) V4 load(1, XDATA, add(CFA_XSP16, literal(-16)))
        CFI (cfiCond316) V5 load(1, XDATA, add(CFA_XSP16, literal(-15)))
        CFI (cfiCond316) V6 load(1, XDATA, add(CFA_XSP16, literal(-14)))
        CFI (cfiCond316) V7 load(1, XDATA, add(CFA_XSP16, literal(-13)))
        CFI (cfiCond316) V8 load(1, XDATA, add(CFA_XSP16, literal(-12)))
        CFI (cfiCond316) V9 load(1, XDATA, add(CFA_XSP16, literal(-11)))
        CFI (cfiCond316) V10 load(1, XDATA, add(CFA_XSP16, literal(-10)))
        CFI (cfiCond316) V11 load(1, XDATA, add(CFA_XSP16, literal(-9)))
        CFI (cfiCond316) V12 load(1, XDATA, add(CFA_XSP16, literal(-8)))
        CFI (cfiCond316) V13 load(1, XDATA, add(CFA_XSP16, literal(-7)))
        CFI (cfiCond316) R7 load(1, XDATA, add(CFA_XSP16, literal(-6)))
        CFI (cfiCond316) ?RET_LOW load(1, XDATA, add(CFA_XSP16, literal(-5)))
        CFI (cfiCond316) ?RET_HIGH load(1, XDATA, add(CFA_XSP16, literal(-4)))
        CFI (cfiCond316) ?BRET_EXT load(1, XDATA, add(CFA_XSP16, literal(-3)))
        CFI (cfiCond316) DPL0 load(1, XDATA, add(CFA_XSP16, literal(-2)))
        CFI (cfiCond316) DPH0 load(1, XDATA, add(CFA_XSP16, literal(-1)))
        CFI (cfiCond316) CFA_SP SP+0
        CFI (cfiCond316) CFA_XSP16 add(XSP16, 23)
        CFI Block cfiPicker317 Using cfiCommon1
        CFI (cfiPicker317) NoFunction
        CFI (cfiPicker317) Picker
        MOVX    A,@DPTR
        SWAP    A
        ANL     A,#0xf0
        MOV     R2,A
        MOV     DPL,R0
        MOV     DPH,R1
        MOVX    A,@DPTR
        ORL     A,R2
        MOVX    @DPTR,A
        RET
        CFI EndBlock cfiCond315
        CFI EndBlock cfiCond316
        CFI EndBlock cfiPicker317

        RSEG BANKED_CODE:CODE:NOROOT(0)
?Subroutine12:
        CFI Block cfiCond318 Using cfiCommon0
        CFI NoFunction
        CFI Conditional ??CrossCallReturnLabel_178
        CFI R6 load(1, XDATA, add(CFA_XSP16, literal(-22)))
        CFI VB load(1, XDATA, add(CFA_XSP16, literal(-21)))
        CFI V0 load(1, XDATA, add(CFA_XSP16, literal(-20)))
        CFI V1 load(1, XDATA, add(CFA_XSP16, literal(-19)))
        CFI V2 load(1, XDATA, add(CFA_XSP16, literal(-18)))
        CFI V3 load(1, XDATA, add(CFA_XSP16, literal(-17)))
        CFI V4 load(1, XDATA, add(CFA_XSP16, literal(-16)))
        CFI V5 load(1, XDATA, add(CFA_XSP16, literal(-15)))
        CFI V6 load(1, XDATA, add(CFA_XSP16, literal(-14)))
        CFI V7 load(1, XDATA, add(CFA_XSP16, literal(-13)))
        CFI V8 load(1, XDATA, add(CFA_XSP16, literal(-12)))
        CFI V9 load(1, XDATA, add(CFA_XSP16, literal(-11)))
        CFI V10 load(1, XDATA, add(CFA_XSP16, literal(-10)))
        CFI V11 load(1, XDATA, add(CFA_XSP16, literal(-9)))
        CFI V12 load(1, XDATA, add(CFA_XSP16, literal(-8)))
        CFI V13 load(1, XDATA, add(CFA_XSP16, literal(-7)))
        CFI R7 load(1, XDATA, add(CFA_XSP16, literal(-6)))
        CFI ?RET_LOW load(1, XDATA, add(CFA_XSP16, literal(-5)))
        CFI ?RET_HIGH load(1, XDATA, add(CFA_XSP16, literal(-4)))
        CFI ?BRET_EXT load(1, XDATA, add(CFA_XSP16, literal(-3)))
        CFI DPL0 load(1, XDATA, add(CFA_XSP16, literal(-2)))
        CFI DPH0 load(1, XDATA, add(CFA_XSP16, literal(-1)))
        CFI CFA_SP SP+0
        CFI CFA_XSP16 add(XSP16, 23)
        CFI Block cfiCond319 Using cfiCommon0
        CFI (cfiCond319) NoFunction
        CFI (cfiCond319) Conditional ??CrossCallReturnLabel_179
        CFI (cfiCond319) R6 load(1, XDATA, add(CFA_XSP16, literal(-22)))
        CFI (cfiCond319) VB load(1, XDATA, add(CFA_XSP16, literal(-21)))
        CFI (cfiCond319) V0 load(1, XDATA, add(CFA_XSP16, literal(-20)))
        CFI (cfiCond319) V1 load(1, XDATA, add(CFA_XSP16, literal(-19)))
        CFI (cfiCond319) V2 load(1, XDATA, add(CFA_XSP16, literal(-18)))
        CFI (cfiCond319) V3 load(1, XDATA, add(CFA_XSP16, literal(-17)))
        CFI (cfiCond319) V4 load(1, XDATA, add(CFA_XSP16, literal(-16)))
        CFI (cfiCond319) V5 load(1, XDATA, add(CFA_XSP16, literal(-15)))
        CFI (cfiCond319) V6 load(1, XDATA, add(CFA_XSP16, literal(-14)))
        CFI (cfiCond319) V7 load(1, XDATA, add(CFA_XSP16, literal(-13)))
        CFI (cfiCond319) V8 load(1, XDATA, add(CFA_XSP16, literal(-12)))
        CFI (cfiCond319) V9 load(1, XDATA, add(CFA_XSP16, literal(-11)))
        CFI (cfiCond319) V10 load(1, XDATA, add(CFA_XSP16, literal(-10)))
        CFI (cfiCond319) V11 load(1, XDATA, add(CFA_XSP16, literal(-9)))
        CFI (cfiCond319) V12 load(1, XDATA, add(CFA_XSP16, literal(-8)))
        CFI (cfiCond319) V13 load(1, XDATA, add(CFA_XSP16, literal(-7)))
        CFI (cfiCond319) R7 load(1, XDATA, add(CFA_XSP16, literal(-6)))
        CFI (cfiCond319) ?RET_LOW load(1, XDATA, add(CFA_XSP16, literal(-5)))
        CFI (cfiCond319) ?RET_HIGH load(1, XDATA, add(CFA_XSP16, literal(-4)))
        CFI (cfiCond319) ?BRET_EXT load(1, XDATA, add(CFA_XSP16, literal(-3)))
        CFI (cfiCond319) DPL0 load(1, XDATA, add(CFA_XSP16, literal(-2)))
        CFI (cfiCond319) DPH0 load(1, XDATA, add(CFA_XSP16, literal(-1)))
        CFI (cfiCond319) CFA_SP SP+0
        CFI (cfiCond319) CFA_XSP16 add(XSP16, 23)
        CFI Block cfiCond320 Using cfiCommon0
        CFI (cfiCond320) NoFunction
        CFI (cfiCond320) Conditional ??CrossCallReturnLabel_180
        CFI (cfiCond320) R6 load(1, XDATA, add(CFA_XSP16, literal(-22)))
        CFI (cfiCond320) VB load(1, XDATA, add(CFA_XSP16, literal(-21)))
        CFI (cfiCond320) V0 load(1, XDATA, add(CFA_XSP16, literal(-20)))
        CFI (cfiCond320) V1 load(1, XDATA, add(CFA_XSP16, literal(-19)))
        CFI (cfiCond320) V2 load(1, XDATA, add(CFA_XSP16, literal(-18)))
        CFI (cfiCond320) V3 load(1, XDATA, add(CFA_XSP16, literal(-17)))
        CFI (cfiCond320) V4 load(1, XDATA, add(CFA_XSP16, literal(-16)))
        CFI (cfiCond320) V5 load(1, XDATA, add(CFA_XSP16, literal(-15)))
        CFI (cfiCond320) V6 load(1, XDATA, add(CFA_XSP16, literal(-14)))
        CFI (cfiCond320) V7 load(1, XDATA, add(CFA_XSP16, literal(-13)))
        CFI (cfiCond320) V8 load(1, XDATA, add(CFA_XSP16, literal(-12)))
        CFI (cfiCond320) V9 load(1, XDATA, add(CFA_XSP16, literal(-11)))
        CFI (cfiCond320) V10 load(1, XDATA, add(CFA_XSP16, literal(-10)))
        CFI (cfiCond320) V11 load(1, XDATA, add(CFA_XSP16, literal(-9)))
        CFI (cfiCond320) V12 load(1, XDATA, add(CFA_XSP16, literal(-8)))
        CFI (cfiCond320) V13 load(1, XDATA, add(CFA_XSP16, literal(-7)))
        CFI (cfiCond320) R7 load(1, XDATA, add(CFA_XSP16, literal(-6)))
        CFI (cfiCond320) ?RET_LOW load(1, XDATA, add(CFA_XSP16, literal(-5)))
        CFI (cfiCond320) ?RET_HIGH load(1, XDATA, add(CFA_XSP16, literal(-4)))
        CFI (cfiCond320) ?BRET_EXT load(1, XDATA, add(CFA_XSP16, literal(-3)))
        CFI (cfiCond320) DPL0 load(1, XDATA, add(CFA_XSP16, literal(-2)))
        CFI (cfiCond320) DPH0 load(1, XDATA, add(CFA_XSP16, literal(-1)))
        CFI (cfiCond320) CFA_SP SP+0
        CFI (cfiCond320) CFA_XSP16 add(XSP16, 23)
        CFI Block cfiPicker321 Using cfiCommon1
        CFI (cfiPicker321) NoFunction
        CFI (cfiPicker321) Picker
        MOV     DPL,A
        MOV     A,?V0 + 1
        ADDC    A,#0x0
        MOV     DPH,A
        CFI EndBlock cfiCond318
        CFI EndBlock cfiCond319
        CFI EndBlock cfiCond320
        CFI EndBlock cfiPicker321
        REQUIRE ??Subroutine101_0
        ; // Fall through to label ??Subroutine101_0

        RSEG BANKED_CODE:CODE:NOROOT(0)
??Subroutine101_0:
        CFI Block cfiCond322 Using cfiCommon0
        CFI NoFunction
        CFI Conditional ??CrossCallReturnLabel_181
        CFI R6 load(1, XDATA, add(CFA_XSP16, literal(-22)))
        CFI VB load(1, XDATA, add(CFA_XSP16, literal(-21)))
        CFI V0 load(1, XDATA, add(CFA_XSP16, literal(-20)))
        CFI V1 load(1, XDATA, add(CFA_XSP16, literal(-19)))
        CFI V2 load(1, XDATA, add(CFA_XSP16, literal(-18)))
        CFI V3 load(1, XDATA, add(CFA_XSP16, literal(-17)))
        CFI V4 load(1, XDATA, add(CFA_XSP16, literal(-16)))
        CFI V5 load(1, XDATA, add(CFA_XSP16, literal(-15)))
        CFI V6 load(1, XDATA, add(CFA_XSP16, literal(-14)))
        CFI V7 load(1, XDATA, add(CFA_XSP16, literal(-13)))
        CFI V8 load(1, XDATA, add(CFA_XSP16, literal(-12)))
        CFI V9 load(1, XDATA, add(CFA_XSP16, literal(-11)))
        CFI V10 load(1, XDATA, add(CFA_XSP16, literal(-10)))
        CFI V11 load(1, XDATA, add(CFA_XSP16, literal(-9)))
        CFI V12 load(1, XDATA, add(CFA_XSP16, literal(-8)))
        CFI V13 load(1, XDATA, add(CFA_XSP16, literal(-7)))
        CFI R7 load(1, XDATA, add(CFA_XSP16, literal(-6)))
        CFI ?RET_LOW load(1, XDATA, add(CFA_XSP16, literal(-5)))
        CFI ?RET_HIGH load(1, XDATA, add(CFA_XSP16, literal(-4)))
        CFI ?BRET_EXT load(1, XDATA, add(CFA_XSP16, literal(-3)))
        CFI DPL0 load(1, XDATA, add(CFA_XSP16, literal(-2)))
        CFI DPH0 load(1, XDATA, add(CFA_XSP16, literal(-1)))
        CFI CFA_SP SP+0
        CFI CFA_XSP16 add(XSP16, 23)
        CFI Block cfiCond323 Using cfiCommon0
        CFI (cfiCond323) NoFunction
        CFI (cfiCond323) Conditional ??CrossCallReturnLabel_178
        CFI (cfiCond323) R6 load(1, XDATA, add(CFA_XSP16, literal(-22)))
        CFI (cfiCond323) VB load(1, XDATA, add(CFA_XSP16, literal(-21)))
        CFI (cfiCond323) V0 load(1, XDATA, add(CFA_XSP16, literal(-20)))
        CFI (cfiCond323) V1 load(1, XDATA, add(CFA_XSP16, literal(-19)))
        CFI (cfiCond323) V2 load(1, XDATA, add(CFA_XSP16, literal(-18)))
        CFI (cfiCond323) V3 load(1, XDATA, add(CFA_XSP16, literal(-17)))
        CFI (cfiCond323) V4 load(1, XDATA, add(CFA_XSP16, literal(-16)))
        CFI (cfiCond323) V5 load(1, XDATA, add(CFA_XSP16, literal(-15)))
        CFI (cfiCond323) V6 load(1, XDATA, add(CFA_XSP16, literal(-14)))
        CFI (cfiCond323) V7 load(1, XDATA, add(CFA_XSP16, literal(-13)))
        CFI (cfiCond323) V8 load(1, XDATA, add(CFA_XSP16, literal(-12)))
        CFI (cfiCond323) V9 load(1, XDATA, add(CFA_XSP16, literal(-11)))
        CFI (cfiCond323) V10 load(1, XDATA, add(CFA_XSP16, literal(-10)))
        CFI (cfiCond323) V11 load(1, XDATA, add(CFA_XSP16, literal(-9)))
        CFI (cfiCond323) V12 load(1, XDATA, add(CFA_XSP16, literal(-8)))
        CFI (cfiCond323) V13 load(1, XDATA, add(CFA_XSP16, literal(-7)))
        CFI (cfiCond323) R7 load(1, XDATA, add(CFA_XSP16, literal(-6)))
        CFI (cfiCond323) ?RET_LOW load(1, XDATA, add(CFA_XSP16, literal(-5)))
        CFI (cfiCond323) ?RET_HIGH load(1, XDATA, add(CFA_XSP16, literal(-4)))
        CFI (cfiCond323) ?BRET_EXT load(1, XDATA, add(CFA_XSP16, literal(-3)))
        CFI (cfiCond323) DPL0 load(1, XDATA, add(CFA_XSP16, literal(-2)))
        CFI (cfiCond323) DPH0 load(1, XDATA, add(CFA_XSP16, literal(-1)))
        CFI (cfiCond323) CFA_SP SP+0
        CFI (cfiCond323) CFA_XSP16 add(XSP16, 23)
        CFI Block cfiCond324 Using cfiCommon0
        CFI (cfiCond324) NoFunction
        CFI (cfiCond324) Conditional ??CrossCallReturnLabel_179
        CFI (cfiCond324) R6 load(1, XDATA, add(CFA_XSP16, literal(-22)))
        CFI (cfiCond324) VB load(1, XDATA, add(CFA_XSP16, literal(-21)))
        CFI (cfiCond324) V0 load(1, XDATA, add(CFA_XSP16, literal(-20)))
        CFI (cfiCond324) V1 load(1, XDATA, add(CFA_XSP16, literal(-19)))
        CFI (cfiCond324) V2 load(1, XDATA, add(CFA_XSP16, literal(-18)))
        CFI (cfiCond324) V3 load(1, XDATA, add(CFA_XSP16, literal(-17)))
        CFI (cfiCond324) V4 load(1, XDATA, add(CFA_XSP16, literal(-16)))
        CFI (cfiCond324) V5 load(1, XDATA, add(CFA_XSP16, literal(-15)))
        CFI (cfiCond324) V6 load(1, XDATA, add(CFA_XSP16, literal(-14)))
        CFI (cfiCond324) V7 load(1, XDATA, add(CFA_XSP16, literal(-13)))
        CFI (cfiCond324) V8 load(1, XDATA, add(CFA_XSP16, literal(-12)))
        CFI (cfiCond324) V9 load(1, XDATA, add(CFA_XSP16, literal(-11)))
        CFI (cfiCond324) V10 load(1, XDATA, add(CFA_XSP16, literal(-10)))
        CFI (cfiCond324) V11 load(1, XDATA, add(CFA_XSP16, literal(-9)))
        CFI (cfiCond324) V12 load(1, XDATA, add(CFA_XSP16, literal(-8)))
        CFI (cfiCond324) V13 load(1, XDATA, add(CFA_XSP16, literal(-7)))
        CFI (cfiCond324) R7 load(1, XDATA, add(CFA_XSP16, literal(-6)))
        CFI (cfiCond324) ?RET_LOW load(1, XDATA, add(CFA_XSP16, literal(-5)))
        CFI (cfiCond324) ?RET_HIGH load(1, XDATA, add(CFA_XSP16, literal(-4)))
        CFI (cfiCond324) ?BRET_EXT load(1, XDATA, add(CFA_XSP16, literal(-3)))
        CFI (cfiCond324) DPL0 load(1, XDATA, add(CFA_XSP16, literal(-2)))
        CFI (cfiCond324) DPH0 load(1, XDATA, add(CFA_XSP16, literal(-1)))
        CFI (cfiCond324) CFA_SP SP+0
        CFI (cfiCond324) CFA_XSP16 add(XSP16, 23)
        CFI Block cfiCond325 Using cfiCommon0
        CFI (cfiCond325) NoFunction
        CFI (cfiCond325) Conditional ??CrossCallReturnLabel_180
        CFI (cfiCond325) R6 load(1, XDATA, add(CFA_XSP16, literal(-22)))
        CFI (cfiCond325) VB load(1, XDATA, add(CFA_XSP16, literal(-21)))
        CFI (cfiCond325) V0 load(1, XDATA, add(CFA_XSP16, literal(-20)))
        CFI (cfiCond325) V1 load(1, XDATA, add(CFA_XSP16, literal(-19)))
        CFI (cfiCond325) V2 load(1, XDATA, add(CFA_XSP16, literal(-18)))
        CFI (cfiCond325) V3 load(1, XDATA, add(CFA_XSP16, literal(-17)))
        CFI (cfiCond325) V4 load(1, XDATA, add(CFA_XSP16, literal(-16)))
        CFI (cfiCond325) V5 load(1, XDATA, add(CFA_XSP16, literal(-15)))
        CFI (cfiCond325) V6 load(1, XDATA, add(CFA_XSP16, literal(-14)))
        CFI (cfiCond325) V7 load(1, XDATA, add(CFA_XSP16, literal(-13)))
        CFI (cfiCond325) V8 load(1, XDATA, add(CFA_XSP16, literal(-12)))
        CFI (cfiCond325) V9 load(1, XDATA, add(CFA_XSP16, literal(-11)))
        CFI (cfiCond325) V10 load(1, XDATA, add(CFA_XSP16, literal(-10)))
        CFI (cfiCond325) V11 load(1, XDATA, add(CFA_XSP16, literal(-9)))
        CFI (cfiCond325) V12 load(1, XDATA, add(CFA_XSP16, literal(-8)))
        CFI (cfiCond325) V13 load(1, XDATA, add(CFA_XSP16, literal(-7)))
        CFI (cfiCond325) R7 load(1, XDATA, add(CFA_XSP16, literal(-6)))
        CFI (cfiCond325) ?RET_LOW load(1, XDATA, add(CFA_XSP16, literal(-5)))
        CFI (cfiCond325) ?RET_HIGH load(1, XDATA, add(CFA_XSP16, literal(-4)))
        CFI (cfiCond325) ?BRET_EXT load(1, XDATA, add(CFA_XSP16, literal(-3)))
        CFI (cfiCond325) DPL0 load(1, XDATA, add(CFA_XSP16, literal(-2)))
        CFI (cfiCond325) DPH0 load(1, XDATA, add(CFA_XSP16, literal(-1)))
        CFI (cfiCond325) CFA_SP SP+0
        CFI (cfiCond325) CFA_XSP16 add(XSP16, 23)
        CFI Block cfiPicker326 Using cfiCommon1
        CFI (cfiPicker326) NoFunction
        CFI (cfiPicker326) Picker
        LCALL   ?Subroutine78 & 0xFFFF
??CrossCallReturnLabel_183:
        MOV     A,?V0 + 0
        RET
        CFI EndBlock cfiCond322
        CFI EndBlock cfiCond323
        CFI EndBlock cfiCond324
        CFI EndBlock cfiCond325
        CFI EndBlock cfiPicker326
// 1531 
// 1532 /*********************************************************************
// 1533  * @fn          ZDP_MgmtRtgRsp
// 1534  *
// 1535  * @brief       This builds and send a Mgmt_Rtg_rsp message. This
// 1536  *              function sends a unicast message.
// 1537  *
// 1538  * @param       dstAddr - destination address of the message
// 1539  * @param       Status - message status (ZDP_SUCCESS or other)
// 1540  * @param       RoutingTableEntries - Total number of entries
// 1541  * @param       StartIndex - Starting index within the reporting list
// 1542  * @param       RoutingTableListCount - number of entries included
// 1543  *                                      in this message
// 1544  * @param       RoutingTableList - List of Routing Table entries
// 1545  * @param       SecurityEnable - true to enable security for this message
// 1546  *
// 1547  * @return      ZStatus_t
// 1548  */

        RSEG BANKED_CODE:CODE:NOROOT(0)
// 1549 ZStatus_t ZDP_MgmtRtgRsp( byte TransSeq, zAddrType_t *dstAddr,
ZDP_MgmtRtgRsp:
        CFI Block cfiBlock327 Using cfiCommon0
        CFI Function ZDP_MgmtRtgRsp
        CODE
// 1550                             byte Status,
// 1551                             byte RoutingTableEntries,
// 1552                             byte StartIndex,
// 1553                             byte RoutingListCount,
// 1554                             rtgItem_t *RoutingTableList,
// 1555                             byte SecurityEnable )
// 1556 {
        FUNCALL ZDP_MgmtRtgRsp, osal_mem_alloc
        LOCFRAME ISTACK, 0, STACK
        LOCFRAME PSTACK, 0, STACK
        LOCFRAME XSTACK, 21, STACK
        LOCFRAME IOVERLAY, 0, STATIC
        LOCFRAME DOVERLAY, 0, STATIC
        ARGFRAME ISTACK, 0, STACK
        ARGFRAME PSTACK, 0, STACK
        ARGFRAME XSTACK, 21, STACK
        ARGFRAME IOVERLAY, 0, STATIC
        ARGFRAME DOVERLAY, 0, STATIC
        FUNCALL ZDP_MgmtRtgRsp, fillAndSend
        LOCFRAME ISTACK, 0, STACK
        LOCFRAME PSTACK, 0, STACK
        LOCFRAME XSTACK, 23, STACK
        LOCFRAME IOVERLAY, 0, STATIC
        LOCFRAME DOVERLAY, 0, STATIC
        ARGFRAME ISTACK, 0, STACK
        ARGFRAME PSTACK, 0, STACK
        ARGFRAME XSTACK, 23, STACK
        ARGFRAME IOVERLAY, 0, STATIC
        ARGFRAME DOVERLAY, 0, STATIC
        FUNCALL ZDP_MgmtRtgRsp, osal_mem_free
        LOCFRAME ISTACK, 0, STACK
        LOCFRAME PSTACK, 0, STACK
        LOCFRAME XSTACK, 21, STACK
        LOCFRAME IOVERLAY, 0, STATIC
        LOCFRAME DOVERLAY, 0, STATIC
        ARGFRAME ISTACK, 0, STACK
        ARGFRAME PSTACK, 0, STACK
        ARGFRAME XSTACK, 21, STACK
        ARGFRAME IOVERLAY, 0, STATIC
        ARGFRAME DOVERLAY, 0, STATIC
        MOV     A,#-0x14
        LCALL   ?BANKED_ENTER_XDATA
        CFI DPH0 load(1, XDATA, add(CFA_XSP16, literal(-1)))
        CFI DPL0 load(1, XDATA, add(CFA_XSP16, literal(-2)))
        CFI ?BRET_EXT load(1, XDATA, add(CFA_XSP16, literal(-3)))
        CFI ?RET_HIGH load(1, XDATA, add(CFA_XSP16, literal(-4)))
        CFI ?RET_LOW load(1, XDATA, add(CFA_XSP16, literal(-5)))
        CFI R7 load(1, XDATA, add(CFA_XSP16, literal(-6)))
        CFI V11 load(1, XDATA, add(CFA_XSP16, literal(-7)))
        CFI V10 load(1, XDATA, add(CFA_XSP16, literal(-8)))
        CFI V9 load(1, XDATA, add(CFA_XSP16, literal(-9)))
        CFI V8 load(1, XDATA, add(CFA_XSP16, literal(-10)))
        CFI V7 load(1, XDATA, add(CFA_XSP16, literal(-11)))
        CFI V6 load(1, XDATA, add(CFA_XSP16, literal(-12)))
        CFI V5 load(1, XDATA, add(CFA_XSP16, literal(-13)))
        CFI V4 load(1, XDATA, add(CFA_XSP16, literal(-14)))
        CFI V3 load(1, XDATA, add(CFA_XSP16, literal(-15)))
        CFI V2 load(1, XDATA, add(CFA_XSP16, literal(-16)))
        CFI V1 load(1, XDATA, add(CFA_XSP16, literal(-17)))
        CFI V0 load(1, XDATA, add(CFA_XSP16, literal(-18)))
        CFI VB load(1, XDATA, add(CFA_XSP16, literal(-19)))
        CFI R6 load(1, XDATA, add(CFA_XSP16, literal(-20)))
        CFI CFA_SP SP+0
        CFI CFA_XSP16 add(XSP16, 20)
        ; Saved register size: 20
        ; Auto size: 1
        MOV     A,#-0x1
        LCALL   ?ALLOC_XSTACK8
        CFI CFA_XSP16 add(XSP16, 21)
        MOV     A,R1
        MOV     DPL,?XSP + 0
        MOV     DPH,?XSP + 1
        MOVX    @DPTR,A
        MOV     ?V0 + 6,R2
        MOV     ?V0 + 7,R3
        MOV     ?V0 + 5,R4
        MOV     ?V0 + 0,R5
        MOV     A,#0x15
        LCALL   ?XSTACK_DISP0_8
        MOVX    A,@DPTR
        MOV     ?V0 + 1,A
        MOV     A,#0x16
        LCALL   ?XSTACK_DISP0_8
        MOVX    A,@DPTR
        MOV     ?V0 + 8,A
        MOV     A,#0x17
        LCALL   ?XSTACK_DISP0_8
        MOVX    A,@DPTR
        MOV     ?V0 + 2,A
        INC     DPTR
        MOVX    A,@DPTR
        MOV     ?V0 + 3,A
// 1557   uint8 *buf;
// 1558   uint8 *pBuf;
// 1559   // Status + RoutingTableEntries + StartIndex + RoutingListCount.
// 1560   byte len = 1 + 1 + 1 + 1;
// 1561   byte x;
// 1562 
// 1563   (void)SecurityEnable;  // Intentionally unreferenced parameter
// 1564 
// 1565   // Add an array for Routing List data
// 1566   len += (RoutingListCount * ZDP_ROUTINGENTRY_SIZE);
        MOV     B,#0x5
        MOV     A,?V0 + 8
        MUL     AB
        ADD     A,#0x4
        MOV     ?V0 + 4,A
// 1567 
// 1568   buf = osal_mem_alloc( (short)(len+1) );
        ; Setup parameters for call to function osal_mem_alloc
        LCALL   ??Subroutine97_0 & 0xFFFF
??CrossCallReturnLabel_156:
        MOV     ?V0 + 10,R2
        MOV     ?V0 + 11,R3
        MOV     R6,?V0 + 10
        MOV     R7,?V0 + 11
// 1569   if ( buf == NULL )
        MOV     A,R6
        ORL     A,R7
        JNZ     ??ZDP_MgmtRtgRsp_0
// 1570   {
// 1571     return afStatus_MEM_FAIL;
        MOV     R1,#0x10
        SJMP    ??ZDP_MgmtRtgRsp_1
// 1572   }
// 1573 
// 1574   pBuf = buf+1;
??ZDP_MgmtRtgRsp_0:
        MOV     DPL,R6
        MOV     DPH,R7
        INC     DPTR
        MOV     R2,DPL
        MOV     R3,DPH
// 1575 
// 1576   *pBuf++ = Status;
        MOV     A,?V0 + 5
        LCALL   ?Subroutine47 & 0xFFFF
// 1577   *pBuf++ = RoutingTableEntries;
// 1578   *pBuf++ = StartIndex;
// 1579   *pBuf++ = RoutingListCount;
??CrossCallReturnLabel_66:
        MOV     A,?V0 + 8
        LCALL   ?Subroutine49 & 0xFFFF
// 1580 
// 1581   for ( x = 0; x < RoutingListCount; x++ )
??CrossCallReturnLabel_72:
        JZ      ??ZDP_MgmtRtgRsp_2
        MOV     ?V0 + 1,A
// 1582   {
// 1583     *pBuf++ = LO_UINT16( RoutingTableList->dstAddress );  // Destination Address
??ZDP_MgmtRtgRsp_3:
        MOV     DPL,?V0 + 2
        MOV     DPH,?V0 + 3
        LCALL   ?Subroutine21 & 0xFFFF
// 1584     *pBuf++ = HI_UINT16( RoutingTableList->dstAddress );
??CrossCallReturnLabel_17:
        LCALL   ?Subroutine34 & 0xFFFF
// 1585     *pBuf++ = RoutingTableList->status;
??CrossCallReturnLabel_187:
        MOV     DPL,?V0 + 2
        MOV     DPH,?V0 + 3
        INC     DPTR
        INC     DPTR
        INC     DPTR
        INC     DPTR
        LCALL   ?Subroutine34 & 0xFFFF
// 1586     *pBuf++ = LO_UINT16( RoutingTableList->nextHopAddress );  // Next hop
??CrossCallReturnLabel_188:
        MOV     A,?V0 + 2
        ADD     A,#0x2
        MOV     R4,A
        MOV     A,?V0 + 3
        LCALL   ?Subroutine16 & 0xFFFF
// 1587     *pBuf++ = HI_UINT16( RoutingTableList->nextHopAddress );
// 1588     RoutingTableList++;    // Move to next list entry
??CrossCallReturnLabel_9:
        MOV     A,?V0 + 2
        ADD     A,#0x7
        MOV     ?V0 + 2,A
        MOV     A,?V0 + 3
        ADDC    A,#0x0
        MOV     ?V0 + 3,A
// 1589   }
        DEC     ?V0 + 1
        MOV     A,?V0 + 1
        JNZ     ??ZDP_MgmtRtgRsp_3
// 1590 
// 1591   FillAndSendBuffer( &TransSeq, dstAddr, Mgmt_Rtg_rsp, len, buf );
??ZDP_MgmtRtgRsp_2:
        MOV     DPTR,#ZDP_TmpBuf
        MOV     A,R2
        LCALL   ??Subroutine109_0 & 0xFFFF
??CrossCallReturnLabel_237:
        ; Setup parameters for call to function fillAndSend
        MOV     ?V0 + 2,#0x32
        MOV     ?V0 + 3,#-0x80
        MOV     R0,#?V0 + 2
        LCALL   ?PUSH_XSTACK_I_TWO
        CFI CFA_XSP16 add(XSP16, 23)
        MOV     R1,?V0 + 4
        MOV     R4,?V0 + 6
        MOV     R5,?V0 + 7
        MOV     A,#0x2
        LCALL   ?XSTACK_DISP0_8
        MOV     R2,DPL
        MOV     R3,DPH
        LCALL   ??Subroutine107_0 & 0xFFFF
??CrossCallReturnLabel_219:
        LCALL   ?DEALLOC_XSTACK8
        CFI CFA_XSP16 add(XSP16, 21)
        MOV     A,R1
        MOV     ?V0 + 2,A
        ; Setup parameters for call to function osal_mem_free
        MOV     A,R6
        MOV     R2,A
        MOV     A,R7
        MOV     R3,A
        LCALL   ?Subroutine70 & 0xFFFF
??CrossCallReturnLabel_102:
        MOV     R1,?V0 + 2
        CFI EndBlock cfiBlock327
??ZDP_MgmtRtgRsp_1:
        REQUIRE ?Subroutine7
        ; // Fall through to label ?Subroutine7
// 1592 }

        RSEG BANKED_CODE:CODE:NOROOT(0)
?Subroutine7:
        CFI Block cfiBlock328 Using cfiCommon0
        CFI NoFunction
        CFI CFA_SP SP+0
        CFI CFA_XSP16 add(XSP16, 21)
        CFI VB load(1, XDATA, add(CFA_XSP16, literal(-19)))
        CFI DPL0 load(1, XDATA, add(CFA_XSP16, literal(-2)))
        CFI DPH0 load(1, XDATA, add(CFA_XSP16, literal(-1)))
        CFI R6 load(1, XDATA, add(CFA_XSP16, literal(-20)))
        CFI R7 load(1, XDATA, add(CFA_XSP16, literal(-6)))
        CFI V0 load(1, XDATA, add(CFA_XSP16, literal(-18)))
        CFI V1 load(1, XDATA, add(CFA_XSP16, literal(-17)))
        CFI V2 load(1, XDATA, add(CFA_XSP16, literal(-16)))
        CFI V3 load(1, XDATA, add(CFA_XSP16, literal(-15)))
        CFI V4 load(1, XDATA, add(CFA_XSP16, literal(-14)))
        CFI V5 load(1, XDATA, add(CFA_XSP16, literal(-13)))
        CFI V6 load(1, XDATA, add(CFA_XSP16, literal(-12)))
        CFI V7 load(1, XDATA, add(CFA_XSP16, literal(-11)))
        CFI V8 load(1, XDATA, add(CFA_XSP16, literal(-10)))
        CFI V9 load(1, XDATA, add(CFA_XSP16, literal(-9)))
        CFI V10 load(1, XDATA, add(CFA_XSP16, literal(-8)))
        CFI V11 load(1, XDATA, add(CFA_XSP16, literal(-7)))
        CFI ?BRET_EXT load(1, XDATA, add(CFA_XSP16, literal(-3)))
        CFI ?RET_HIGH load(1, XDATA, add(CFA_XSP16, literal(-4)))
        CFI ?RET_LOW load(1, XDATA, add(CFA_XSP16, literal(-5)))
        MOV     A,#0x1
        LCALL   ?DEALLOC_XSTACK8
        CFI CFA_XSP16 add(XSP16, 20)
        MOV     R7,#0xc
        LJMP    ?BANKED_LEAVE_XDATA
        CFI EndBlock cfiBlock328

        RSEG BANKED_CODE:CODE:NOROOT(0)
?Subroutine47:
        CFI Block cfiCond329 Using cfiCommon0
        CFI NoFunction
        CFI Conditional ??CrossCallReturnLabel_64
        CFI R6 load(1, XDATA, add(CFA_XSP16, literal(-16)))
        CFI VB load(1, XDATA, add(CFA_XSP16, literal(-15)))
        CFI V0 load(1, XDATA, add(CFA_XSP16, literal(-14)))
        CFI V1 load(1, XDATA, add(CFA_XSP16, literal(-13)))
        CFI V2 load(1, XDATA, add(CFA_XSP16, literal(-12)))
        CFI V3 load(1, XDATA, add(CFA_XSP16, literal(-11)))
        CFI V4 load(1, XDATA, add(CFA_XSP16, literal(-10)))
        CFI V5 load(1, XDATA, add(CFA_XSP16, literal(-9)))
        CFI V6 load(1, XDATA, add(CFA_XSP16, literal(-8)))
        CFI V7 load(1, XDATA, add(CFA_XSP16, literal(-7)))
        CFI R7 load(1, XDATA, add(CFA_XSP16, literal(-6)))
        CFI ?RET_LOW load(1, XDATA, add(CFA_XSP16, literal(-5)))
        CFI ?RET_HIGH load(1, XDATA, add(CFA_XSP16, literal(-4)))
        CFI ?BRET_EXT load(1, XDATA, add(CFA_XSP16, literal(-3)))
        CFI DPL0 load(1, XDATA, add(CFA_XSP16, literal(-2)))
        CFI DPH0 load(1, XDATA, add(CFA_XSP16, literal(-1)))
        CFI CFA_SP SP+0
        CFI CFA_XSP16 add(XSP16, 16)
        CFI Block cfiCond330 Using cfiCommon0
        CFI (cfiCond330) NoFunction
        CFI (cfiCond330) Conditional ??CrossCallReturnLabel_65
        CFI (cfiCond330) R6 load(1, XDATA, add(CFA_XSP16, literal(-24)))
        CFI (cfiCond330) VB load(1, XDATA, add(CFA_XSP16, literal(-23)))
        CFI (cfiCond330) V0 load(1, XDATA, add(CFA_XSP16, literal(-22)))
        CFI (cfiCond330) V1 load(1, XDATA, add(CFA_XSP16, literal(-21)))
        CFI (cfiCond330) V2 load(1, XDATA, add(CFA_XSP16, literal(-20)))
        CFI (cfiCond330) V3 load(1, XDATA, add(CFA_XSP16, literal(-19)))
        CFI (cfiCond330) V4 load(1, XDATA, add(CFA_XSP16, literal(-18)))
        CFI (cfiCond330) V5 load(1, XDATA, add(CFA_XSP16, literal(-17)))
        CFI (cfiCond330) V6 load(1, XDATA, add(CFA_XSP16, literal(-16)))
        CFI (cfiCond330) V7 load(1, XDATA, add(CFA_XSP16, literal(-15)))
        CFI (cfiCond330) V8 load(1, XDATA, add(CFA_XSP16, literal(-14)))
        CFI (cfiCond330) V9 load(1, XDATA, add(CFA_XSP16, literal(-13)))
        CFI (cfiCond330) V10 load(1, XDATA, add(CFA_XSP16, literal(-12)))
        CFI (cfiCond330) V11 load(1, XDATA, add(CFA_XSP16, literal(-11)))
        CFI (cfiCond330) V12 load(1, XDATA, add(CFA_XSP16, literal(-10)))
        CFI (cfiCond330) V13 load(1, XDATA, add(CFA_XSP16, literal(-9)))
        CFI (cfiCond330) V14 load(1, XDATA, add(CFA_XSP16, literal(-8)))
        CFI (cfiCond330) V15 load(1, XDATA, add(CFA_XSP16, literal(-7)))
        CFI (cfiCond330) R7 load(1, XDATA, add(CFA_XSP16, literal(-6)))
        CFI (cfiCond330) ?RET_LOW load(1, XDATA, add(CFA_XSP16, literal(-5)))
        CFI (cfiCond330) ?RET_HIGH load(1, XDATA, add(CFA_XSP16, literal(-4)))
        CFI (cfiCond330) ?BRET_EXT load(1, XDATA, add(CFA_XSP16, literal(-3)))
        CFI (cfiCond330) DPL0 load(1, XDATA, add(CFA_XSP16, literal(-2)))
        CFI (cfiCond330) DPH0 load(1, XDATA, add(CFA_XSP16, literal(-1)))
        CFI (cfiCond330) CFA_SP SP+0
        CFI (cfiCond330) CFA_XSP16 add(XSP16, 24)
        CFI Block cfiCond331 Using cfiCommon0
        CFI (cfiCond331) NoFunction
        CFI (cfiCond331) Conditional ??CrossCallReturnLabel_66
        CFI (cfiCond331) R6 load(1, XDATA, add(CFA_XSP16, literal(-20)))
        CFI (cfiCond331) VB load(1, XDATA, add(CFA_XSP16, literal(-19)))
        CFI (cfiCond331) V0 load(1, XDATA, add(CFA_XSP16, literal(-18)))
        CFI (cfiCond331) V1 load(1, XDATA, add(CFA_XSP16, literal(-17)))
        CFI (cfiCond331) V2 load(1, XDATA, add(CFA_XSP16, literal(-16)))
        CFI (cfiCond331) V3 load(1, XDATA, add(CFA_XSP16, literal(-15)))
        CFI (cfiCond331) V4 load(1, XDATA, add(CFA_XSP16, literal(-14)))
        CFI (cfiCond331) V5 load(1, XDATA, add(CFA_XSP16, literal(-13)))
        CFI (cfiCond331) V6 load(1, XDATA, add(CFA_XSP16, literal(-12)))
        CFI (cfiCond331) V7 load(1, XDATA, add(CFA_XSP16, literal(-11)))
        CFI (cfiCond331) V8 load(1, XDATA, add(CFA_XSP16, literal(-10)))
        CFI (cfiCond331) V9 load(1, XDATA, add(CFA_XSP16, literal(-9)))
        CFI (cfiCond331) V10 load(1, XDATA, add(CFA_XSP16, literal(-8)))
        CFI (cfiCond331) V11 load(1, XDATA, add(CFA_XSP16, literal(-7)))
        CFI (cfiCond331) R7 load(1, XDATA, add(CFA_XSP16, literal(-6)))
        CFI (cfiCond331) ?RET_LOW load(1, XDATA, add(CFA_XSP16, literal(-5)))
        CFI (cfiCond331) ?RET_HIGH load(1, XDATA, add(CFA_XSP16, literal(-4)))
        CFI (cfiCond331) ?BRET_EXT load(1, XDATA, add(CFA_XSP16, literal(-3)))
        CFI (cfiCond331) DPL0 load(1, XDATA, add(CFA_XSP16, literal(-2)))
        CFI (cfiCond331) DPH0 load(1, XDATA, add(CFA_XSP16, literal(-1)))
        CFI (cfiCond331) CFA_SP SP+0
        CFI (cfiCond331) CFA_XSP16 add(XSP16, 21)
        CFI Block cfiCond332 Using cfiCommon0
        CFI (cfiCond332) NoFunction
        CFI (cfiCond332) Conditional ??CrossCallReturnLabel_67
        CFI (cfiCond332) R6 load(1, XDATA, add(CFA_XSP16, literal(-24)))
        CFI (cfiCond332) VB load(1, XDATA, add(CFA_XSP16, literal(-23)))
        CFI (cfiCond332) V0 load(1, XDATA, add(CFA_XSP16, literal(-22)))
        CFI (cfiCond332) V1 load(1, XDATA, add(CFA_XSP16, literal(-21)))
        CFI (cfiCond332) V2 load(1, XDATA, add(CFA_XSP16, literal(-20)))
        CFI (cfiCond332) V3 load(1, XDATA, add(CFA_XSP16, literal(-19)))
        CFI (cfiCond332) V4 load(1, XDATA, add(CFA_XSP16, literal(-18)))
        CFI (cfiCond332) V5 load(1, XDATA, add(CFA_XSP16, literal(-17)))
        CFI (cfiCond332) V6 load(1, XDATA, add(CFA_XSP16, literal(-16)))
        CFI (cfiCond332) V7 load(1, XDATA, add(CFA_XSP16, literal(-15)))
        CFI (cfiCond332) V8 load(1, XDATA, add(CFA_XSP16, literal(-14)))
        CFI (cfiCond332) V9 load(1, XDATA, add(CFA_XSP16, literal(-13)))
        CFI (cfiCond332) V10 load(1, XDATA, add(CFA_XSP16, literal(-12)))
        CFI (cfiCond332) V11 load(1, XDATA, add(CFA_XSP16, literal(-11)))
        CFI (cfiCond332) V12 load(1, XDATA, add(CFA_XSP16, literal(-10)))
        CFI (cfiCond332) V13 load(1, XDATA, add(CFA_XSP16, literal(-9)))
        CFI (cfiCond332) V14 load(1, XDATA, add(CFA_XSP16, literal(-8)))
        CFI (cfiCond332) V15 load(1, XDATA, add(CFA_XSP16, literal(-7)))
        CFI (cfiCond332) R7 load(1, XDATA, add(CFA_XSP16, literal(-6)))
        CFI (cfiCond332) ?RET_LOW load(1, XDATA, add(CFA_XSP16, literal(-5)))
        CFI (cfiCond332) ?RET_HIGH load(1, XDATA, add(CFA_XSP16, literal(-4)))
        CFI (cfiCond332) ?BRET_EXT load(1, XDATA, add(CFA_XSP16, literal(-3)))
        CFI (cfiCond332) DPL0 load(1, XDATA, add(CFA_XSP16, literal(-2)))
        CFI (cfiCond332) DPH0 load(1, XDATA, add(CFA_XSP16, literal(-1)))
        CFI (cfiCond332) CFA_SP SP+0
        CFI (cfiCond332) CFA_XSP16 add(XSP16, 27)
        CFI Block cfiPicker333 Using cfiCommon1
        CFI (cfiPicker333) NoFunction
        CFI (cfiPicker333) Picker
        MOVX    @DPTR,A
        INC     DPTR
        MOV     A,?V0 + 0
        MOVX    @DPTR,A
        INC     DPTR
        MOV     A,?V0 + 1
        MOVX    @DPTR,A
        INC     DPTR
        RET
        CFI EndBlock cfiCond329
        CFI EndBlock cfiCond330
        CFI EndBlock cfiCond331
        CFI EndBlock cfiCond332
        CFI EndBlock cfiPicker333

        RSEG BANKED_CODE:CODE:NOROOT(0)
?Subroutine34:
        CFI Block cfiCond334 Using cfiCommon0
        CFI NoFunction
        CFI Conditional ??CrossCallReturnLabel_187
        CFI R6 load(1, XDATA, add(CFA_XSP16, literal(-20)))
        CFI VB load(1, XDATA, add(CFA_XSP16, literal(-19)))
        CFI V0 load(1, XDATA, add(CFA_XSP16, literal(-18)))
        CFI V1 load(1, XDATA, add(CFA_XSP16, literal(-17)))
        CFI V2 load(1, XDATA, add(CFA_XSP16, literal(-16)))
        CFI V3 load(1, XDATA, add(CFA_XSP16, literal(-15)))
        CFI V4 load(1, XDATA, add(CFA_XSP16, literal(-14)))
        CFI V5 load(1, XDATA, add(CFA_XSP16, literal(-13)))
        CFI V6 load(1, XDATA, add(CFA_XSP16, literal(-12)))
        CFI V7 load(1, XDATA, add(CFA_XSP16, literal(-11)))
        CFI V8 load(1, XDATA, add(CFA_XSP16, literal(-10)))
        CFI V9 load(1, XDATA, add(CFA_XSP16, literal(-9)))
        CFI V10 load(1, XDATA, add(CFA_XSP16, literal(-8)))
        CFI V11 load(1, XDATA, add(CFA_XSP16, literal(-7)))
        CFI R7 load(1, XDATA, add(CFA_XSP16, literal(-6)))
        CFI ?RET_LOW load(1, XDATA, add(CFA_XSP16, literal(-5)))
        CFI ?RET_HIGH load(1, XDATA, add(CFA_XSP16, literal(-4)))
        CFI ?BRET_EXT load(1, XDATA, add(CFA_XSP16, literal(-3)))
        CFI DPL0 load(1, XDATA, add(CFA_XSP16, literal(-2)))
        CFI DPH0 load(1, XDATA, add(CFA_XSP16, literal(-1)))
        CFI CFA_SP SP+0
        CFI CFA_XSP16 add(XSP16, 21)
        CFI Block cfiCond335 Using cfiCommon0
        CFI (cfiCond335) NoFunction
        CFI (cfiCond335) Conditional ??CrossCallReturnLabel_188
        CFI (cfiCond335) R6 load(1, XDATA, add(CFA_XSP16, literal(-20)))
        CFI (cfiCond335) VB load(1, XDATA, add(CFA_XSP16, literal(-19)))
        CFI (cfiCond335) V0 load(1, XDATA, add(CFA_XSP16, literal(-18)))
        CFI (cfiCond335) V1 load(1, XDATA, add(CFA_XSP16, literal(-17)))
        CFI (cfiCond335) V2 load(1, XDATA, add(CFA_XSP16, literal(-16)))
        CFI (cfiCond335) V3 load(1, XDATA, add(CFA_XSP16, literal(-15)))
        CFI (cfiCond335) V4 load(1, XDATA, add(CFA_XSP16, literal(-14)))
        CFI (cfiCond335) V5 load(1, XDATA, add(CFA_XSP16, literal(-13)))
        CFI (cfiCond335) V6 load(1, XDATA, add(CFA_XSP16, literal(-12)))
        CFI (cfiCond335) V7 load(1, XDATA, add(CFA_XSP16, literal(-11)))
        CFI (cfiCond335) V8 load(1, XDATA, add(CFA_XSP16, literal(-10)))
        CFI (cfiCond335) V9 load(1, XDATA, add(CFA_XSP16, literal(-9)))
        CFI (cfiCond335) V10 load(1, XDATA, add(CFA_XSP16, literal(-8)))
        CFI (cfiCond335) V11 load(1, XDATA, add(CFA_XSP16, literal(-7)))
        CFI (cfiCond335) R7 load(1, XDATA, add(CFA_XSP16, literal(-6)))
        CFI (cfiCond335) ?RET_LOW load(1, XDATA, add(CFA_XSP16, literal(-5)))
        CFI (cfiCond335) ?RET_HIGH load(1, XDATA, add(CFA_XSP16, literal(-4)))
        CFI (cfiCond335) ?BRET_EXT load(1, XDATA, add(CFA_XSP16, literal(-3)))
        CFI (cfiCond335) DPL0 load(1, XDATA, add(CFA_XSP16, literal(-2)))
        CFI (cfiCond335) DPH0 load(1, XDATA, add(CFA_XSP16, literal(-1)))
        CFI (cfiCond335) CFA_SP SP+0
        CFI (cfiCond335) CFA_XSP16 add(XSP16, 21)
        CFI Block cfiPicker336 Using cfiCommon1
        CFI (cfiPicker336) NoFunction
        CFI (cfiPicker336) Picker
        INC     DPTR
        CFI EndBlock cfiCond334
        CFI EndBlock cfiCond335
        CFI EndBlock cfiPicker336
        REQUIRE ??Subroutine102_0
        ; // Fall through to label ??Subroutine102_0

        RSEG BANKED_CODE:CODE:NOROOT(0)
??Subroutine102_0:
        CFI Block cfiCond337 Using cfiCommon0
        CFI NoFunction
        CFI Conditional ??CrossCallReturnLabel_184
        CFI R6 load(1, XDATA, add(CFA_XSP16, literal(-18)))
        CFI VB load(1, XDATA, add(CFA_XSP16, literal(-17)))
        CFI V0 load(1, XDATA, add(CFA_XSP16, literal(-16)))
        CFI V1 load(1, XDATA, add(CFA_XSP16, literal(-15)))
        CFI V2 load(1, XDATA, add(CFA_XSP16, literal(-14)))
        CFI V3 load(1, XDATA, add(CFA_XSP16, literal(-13)))
        CFI V4 load(1, XDATA, add(CFA_XSP16, literal(-12)))
        CFI V5 load(1, XDATA, add(CFA_XSP16, literal(-11)))
        CFI V6 load(1, XDATA, add(CFA_XSP16, literal(-10)))
        CFI V7 load(1, XDATA, add(CFA_XSP16, literal(-9)))
        CFI V8 load(1, XDATA, add(CFA_XSP16, literal(-8)))
        CFI V9 load(1, XDATA, add(CFA_XSP16, literal(-7)))
        CFI R7 load(1, XDATA, add(CFA_XSP16, literal(-6)))
        CFI ?RET_LOW load(1, XDATA, add(CFA_XSP16, literal(-5)))
        CFI ?RET_HIGH load(1, XDATA, add(CFA_XSP16, literal(-4)))
        CFI ?BRET_EXT load(1, XDATA, add(CFA_XSP16, literal(-3)))
        CFI DPL0 load(1, XDATA, add(CFA_XSP16, literal(-2)))
        CFI DPH0 load(1, XDATA, add(CFA_XSP16, literal(-1)))
        CFI CFA_SP SP+0
        CFI CFA_XSP16 add(XSP16, 18)
        CFI Block cfiCond338 Using cfiCommon0
        CFI (cfiCond338) NoFunction
        CFI (cfiCond338) Conditional ??CrossCallReturnLabel_185
        CFI (cfiCond338) R6 load(1, XDATA, add(CFA_XSP16, literal(-18)))
        CFI (cfiCond338) VB load(1, XDATA, add(CFA_XSP16, literal(-17)))
        CFI (cfiCond338) V0 load(1, XDATA, add(CFA_XSP16, literal(-16)))
        CFI (cfiCond338) V1 load(1, XDATA, add(CFA_XSP16, literal(-15)))
        CFI (cfiCond338) V2 load(1, XDATA, add(CFA_XSP16, literal(-14)))
        CFI (cfiCond338) V3 load(1, XDATA, add(CFA_XSP16, literal(-13)))
        CFI (cfiCond338) V4 load(1, XDATA, add(CFA_XSP16, literal(-12)))
        CFI (cfiCond338) V5 load(1, XDATA, add(CFA_XSP16, literal(-11)))
        CFI (cfiCond338) V6 load(1, XDATA, add(CFA_XSP16, literal(-10)))
        CFI (cfiCond338) V7 load(1, XDATA, add(CFA_XSP16, literal(-9)))
        CFI (cfiCond338) V8 load(1, XDATA, add(CFA_XSP16, literal(-8)))
        CFI (cfiCond338) V9 load(1, XDATA, add(CFA_XSP16, literal(-7)))
        CFI (cfiCond338) R7 load(1, XDATA, add(CFA_XSP16, literal(-6)))
        CFI (cfiCond338) ?RET_LOW load(1, XDATA, add(CFA_XSP16, literal(-5)))
        CFI (cfiCond338) ?RET_HIGH load(1, XDATA, add(CFA_XSP16, literal(-4)))
        CFI (cfiCond338) ?BRET_EXT load(1, XDATA, add(CFA_XSP16, literal(-3)))
        CFI (cfiCond338) DPL0 load(1, XDATA, add(CFA_XSP16, literal(-2)))
        CFI (cfiCond338) DPH0 load(1, XDATA, add(CFA_XSP16, literal(-1)))
        CFI (cfiCond338) CFA_SP SP+0
        CFI (cfiCond338) CFA_XSP16 add(XSP16, 18)
        CFI Block cfiCond339 Using cfiCommon0
        CFI (cfiCond339) NoFunction
        CFI (cfiCond339) Conditional ??CrossCallReturnLabel_186
        CFI (cfiCond339) R6 load(1, XDATA, add(CFA_XSP16, literal(-18)))
        CFI (cfiCond339) VB load(1, XDATA, add(CFA_XSP16, literal(-17)))
        CFI (cfiCond339) V0 load(1, XDATA, add(CFA_XSP16, literal(-16)))
        CFI (cfiCond339) V1 load(1, XDATA, add(CFA_XSP16, literal(-15)))
        CFI (cfiCond339) V2 load(1, XDATA, add(CFA_XSP16, literal(-14)))
        CFI (cfiCond339) V3 load(1, XDATA, add(CFA_XSP16, literal(-13)))
        CFI (cfiCond339) V4 load(1, XDATA, add(CFA_XSP16, literal(-12)))
        CFI (cfiCond339) V5 load(1, XDATA, add(CFA_XSP16, literal(-11)))
        CFI (cfiCond339) V6 load(1, XDATA, add(CFA_XSP16, literal(-10)))
        CFI (cfiCond339) V7 load(1, XDATA, add(CFA_XSP16, literal(-9)))
        CFI (cfiCond339) V8 load(1, XDATA, add(CFA_XSP16, literal(-8)))
        CFI (cfiCond339) V9 load(1, XDATA, add(CFA_XSP16, literal(-7)))
        CFI (cfiCond339) R7 load(1, XDATA, add(CFA_XSP16, literal(-6)))
        CFI (cfiCond339) ?RET_LOW load(1, XDATA, add(CFA_XSP16, literal(-5)))
        CFI (cfiCond339) ?RET_HIGH load(1, XDATA, add(CFA_XSP16, literal(-4)))
        CFI (cfiCond339) ?BRET_EXT load(1, XDATA, add(CFA_XSP16, literal(-3)))
        CFI (cfiCond339) DPL0 load(1, XDATA, add(CFA_XSP16, literal(-2)))
        CFI (cfiCond339) DPH0 load(1, XDATA, add(CFA_XSP16, literal(-1)))
        CFI (cfiCond339) CFA_SP SP+0
        CFI (cfiCond339) CFA_XSP16 add(XSP16, 18)
        CFI Block cfiCond340 Using cfiCommon0
        CFI (cfiCond340) NoFunction
        CFI (cfiCond340) Conditional ??CrossCallReturnLabel_187
        CFI (cfiCond340) R6 load(1, XDATA, add(CFA_XSP16, literal(-20)))
        CFI (cfiCond340) VB load(1, XDATA, add(CFA_XSP16, literal(-19)))
        CFI (cfiCond340) V0 load(1, XDATA, add(CFA_XSP16, literal(-18)))
        CFI (cfiCond340) V1 load(1, XDATA, add(CFA_XSP16, literal(-17)))
        CFI (cfiCond340) V2 load(1, XDATA, add(CFA_XSP16, literal(-16)))
        CFI (cfiCond340) V3 load(1, XDATA, add(CFA_XSP16, literal(-15)))
        CFI (cfiCond340) V4 load(1, XDATA, add(CFA_XSP16, literal(-14)))
        CFI (cfiCond340) V5 load(1, XDATA, add(CFA_XSP16, literal(-13)))
        CFI (cfiCond340) V6 load(1, XDATA, add(CFA_XSP16, literal(-12)))
        CFI (cfiCond340) V7 load(1, XDATA, add(CFA_XSP16, literal(-11)))
        CFI (cfiCond340) V8 load(1, XDATA, add(CFA_XSP16, literal(-10)))
        CFI (cfiCond340) V9 load(1, XDATA, add(CFA_XSP16, literal(-9)))
        CFI (cfiCond340) V10 load(1, XDATA, add(CFA_XSP16, literal(-8)))
        CFI (cfiCond340) V11 load(1, XDATA, add(CFA_XSP16, literal(-7)))
        CFI (cfiCond340) R7 load(1, XDATA, add(CFA_XSP16, literal(-6)))
        CFI (cfiCond340) ?RET_LOW load(1, XDATA, add(CFA_XSP16, literal(-5)))
        CFI (cfiCond340) ?RET_HIGH load(1, XDATA, add(CFA_XSP16, literal(-4)))
        CFI (cfiCond340) ?BRET_EXT load(1, XDATA, add(CFA_XSP16, literal(-3)))
        CFI (cfiCond340) DPL0 load(1, XDATA, add(CFA_XSP16, literal(-2)))
        CFI (cfiCond340) DPH0 load(1, XDATA, add(CFA_XSP16, literal(-1)))
        CFI (cfiCond340) CFA_SP SP+0
        CFI (cfiCond340) CFA_XSP16 add(XSP16, 21)
        CFI Block cfiCond341 Using cfiCommon0
        CFI (cfiCond341) NoFunction
        CFI (cfiCond341) Conditional ??CrossCallReturnLabel_188
        CFI (cfiCond341) R6 load(1, XDATA, add(CFA_XSP16, literal(-20)))
        CFI (cfiCond341) VB load(1, XDATA, add(CFA_XSP16, literal(-19)))
        CFI (cfiCond341) V0 load(1, XDATA, add(CFA_XSP16, literal(-18)))
        CFI (cfiCond341) V1 load(1, XDATA, add(CFA_XSP16, literal(-17)))
        CFI (cfiCond341) V2 load(1, XDATA, add(CFA_XSP16, literal(-16)))
        CFI (cfiCond341) V3 load(1, XDATA, add(CFA_XSP16, literal(-15)))
        CFI (cfiCond341) V4 load(1, XDATA, add(CFA_XSP16, literal(-14)))
        CFI (cfiCond341) V5 load(1, XDATA, add(CFA_XSP16, literal(-13)))
        CFI (cfiCond341) V6 load(1, XDATA, add(CFA_XSP16, literal(-12)))
        CFI (cfiCond341) V7 load(1, XDATA, add(CFA_XSP16, literal(-11)))
        CFI (cfiCond341) V8 load(1, XDATA, add(CFA_XSP16, literal(-10)))
        CFI (cfiCond341) V9 load(1, XDATA, add(CFA_XSP16, literal(-9)))
        CFI (cfiCond341) V10 load(1, XDATA, add(CFA_XSP16, literal(-8)))
        CFI (cfiCond341) V11 load(1, XDATA, add(CFA_XSP16, literal(-7)))
        CFI (cfiCond341) R7 load(1, XDATA, add(CFA_XSP16, literal(-6)))
        CFI (cfiCond341) ?RET_LOW load(1, XDATA, add(CFA_XSP16, literal(-5)))
        CFI (cfiCond341) ?RET_HIGH load(1, XDATA, add(CFA_XSP16, literal(-4)))
        CFI (cfiCond341) ?BRET_EXT load(1, XDATA, add(CFA_XSP16, literal(-3)))
        CFI (cfiCond341) DPL0 load(1, XDATA, add(CFA_XSP16, literal(-2)))
        CFI (cfiCond341) DPH0 load(1, XDATA, add(CFA_XSP16, literal(-1)))
        CFI (cfiCond341) CFA_SP SP+0
        CFI (cfiCond341) CFA_XSP16 add(XSP16, 21)
        CFI Block cfiPicker342 Using cfiCommon1
        CFI (cfiPicker342) NoFunction
        CFI (cfiPicker342) Picker
        LCALL   ??Subroutine104_0 & 0xFFFF
??CrossCallReturnLabel_193:
        RET
        CFI EndBlock cfiCond337
        CFI EndBlock cfiCond338
        CFI EndBlock cfiCond339
        CFI EndBlock cfiCond340
        CFI EndBlock cfiCond341
        CFI EndBlock cfiPicker342

        RSEG BANKED_CODE:CODE:NOROOT(0)
?Subroutine21:
        CFI Block cfiCond343 Using cfiCommon0
        CFI NoFunction
        CFI Conditional ??CrossCallReturnLabel_16
        CFI R6 load(1, XDATA, add(CFA_XSP16, literal(-18)))
        CFI VB load(1, XDATA, add(CFA_XSP16, literal(-17)))
        CFI V0 load(1, XDATA, add(CFA_XSP16, literal(-16)))
        CFI V1 load(1, XDATA, add(CFA_XSP16, literal(-15)))
        CFI V2 load(1, XDATA, add(CFA_XSP16, literal(-14)))
        CFI V3 load(1, XDATA, add(CFA_XSP16, literal(-13)))
        CFI V4 load(1, XDATA, add(CFA_XSP16, literal(-12)))
        CFI V5 load(1, XDATA, add(CFA_XSP16, literal(-11)))
        CFI V6 load(1, XDATA, add(CFA_XSP16, literal(-10)))
        CFI V7 load(1, XDATA, add(CFA_XSP16, literal(-9)))
        CFI V8 load(1, XDATA, add(CFA_XSP16, literal(-8)))
        CFI V9 load(1, XDATA, add(CFA_XSP16, literal(-7)))
        CFI R7 load(1, XDATA, add(CFA_XSP16, literal(-6)))
        CFI ?RET_LOW load(1, XDATA, add(CFA_XSP16, literal(-5)))
        CFI ?RET_HIGH load(1, XDATA, add(CFA_XSP16, literal(-4)))
        CFI ?BRET_EXT load(1, XDATA, add(CFA_XSP16, literal(-3)))
        CFI DPL0 load(1, XDATA, add(CFA_XSP16, literal(-2)))
        CFI DPH0 load(1, XDATA, add(CFA_XSP16, literal(-1)))
        CFI CFA_SP SP+0
        CFI CFA_XSP16 add(XSP16, 18)
        CFI Block cfiCond344 Using cfiCommon0
        CFI (cfiCond344) NoFunction
        CFI (cfiCond344) Conditional ??CrossCallReturnLabel_17
        CFI (cfiCond344) R6 load(1, XDATA, add(CFA_XSP16, literal(-20)))
        CFI (cfiCond344) VB load(1, XDATA, add(CFA_XSP16, literal(-19)))
        CFI (cfiCond344) V0 load(1, XDATA, add(CFA_XSP16, literal(-18)))
        CFI (cfiCond344) V1 load(1, XDATA, add(CFA_XSP16, literal(-17)))
        CFI (cfiCond344) V2 load(1, XDATA, add(CFA_XSP16, literal(-16)))
        CFI (cfiCond344) V3 load(1, XDATA, add(CFA_XSP16, literal(-15)))
        CFI (cfiCond344) V4 load(1, XDATA, add(CFA_XSP16, literal(-14)))
        CFI (cfiCond344) V5 load(1, XDATA, add(CFA_XSP16, literal(-13)))
        CFI (cfiCond344) V6 load(1, XDATA, add(CFA_XSP16, literal(-12)))
        CFI (cfiCond344) V7 load(1, XDATA, add(CFA_XSP16, literal(-11)))
        CFI (cfiCond344) V8 load(1, XDATA, add(CFA_XSP16, literal(-10)))
        CFI (cfiCond344) V9 load(1, XDATA, add(CFA_XSP16, literal(-9)))
        CFI (cfiCond344) V10 load(1, XDATA, add(CFA_XSP16, literal(-8)))
        CFI (cfiCond344) V11 load(1, XDATA, add(CFA_XSP16, literal(-7)))
        CFI (cfiCond344) R7 load(1, XDATA, add(CFA_XSP16, literal(-6)))
        CFI (cfiCond344) ?RET_LOW load(1, XDATA, add(CFA_XSP16, literal(-5)))
        CFI (cfiCond344) ?RET_HIGH load(1, XDATA, add(CFA_XSP16, literal(-4)))
        CFI (cfiCond344) ?BRET_EXT load(1, XDATA, add(CFA_XSP16, literal(-3)))
        CFI (cfiCond344) DPL0 load(1, XDATA, add(CFA_XSP16, literal(-2)))
        CFI (cfiCond344) DPH0 load(1, XDATA, add(CFA_XSP16, literal(-1)))
        CFI (cfiCond344) CFA_SP SP+0
        CFI (cfiCond344) CFA_XSP16 add(XSP16, 21)
        CFI Block cfiPicker345 Using cfiCommon1
        CFI (cfiPicker345) NoFunction
        CFI (cfiPicker345) Picker
        LCALL   ?Subroutine72 & 0xFFFF
??CrossCallReturnLabel_137:
        MOV     DPL,?V0 + 2
        MOV     DPH,?V0 + 3
        RET
        CFI EndBlock cfiCond343
        CFI EndBlock cfiCond344
        CFI EndBlock cfiPicker345

        RSEG BANKED_CODE:CODE:NOROOT(0)
?Subroutine16:
        CFI Block cfiCond346 Using cfiCommon0
        CFI NoFunction
        CFI Conditional ??CrossCallReturnLabel_8
        CFI R6 load(1, XDATA, add(CFA_XSP16, literal(-10)))
        CFI VB load(1, XDATA, add(CFA_XSP16, literal(-9)))
        CFI V0 load(1, XDATA, add(CFA_XSP16, literal(-8)))
        CFI V1 load(1, XDATA, add(CFA_XSP16, literal(-7)))
        CFI R7 load(1, XDATA, add(CFA_XSP16, literal(-6)))
        CFI ?RET_LOW load(1, XDATA, add(CFA_XSP16, literal(-5)))
        CFI ?RET_HIGH load(1, XDATA, add(CFA_XSP16, literal(-4)))
        CFI ?BRET_EXT load(1, XDATA, add(CFA_XSP16, literal(-3)))
        CFI DPL0 load(1, XDATA, add(CFA_XSP16, literal(-2)))
        CFI DPH0 load(1, XDATA, add(CFA_XSP16, literal(-1)))
        CFI CFA_SP SP+0
        CFI CFA_XSP16 add(XSP16, 10)
        CFI Block cfiCond347 Using cfiCommon0
        CFI (cfiCond347) NoFunction
        CFI (cfiCond347) Conditional ??CrossCallReturnLabel_9
        CFI (cfiCond347) R6 load(1, XDATA, add(CFA_XSP16, literal(-20)))
        CFI (cfiCond347) VB load(1, XDATA, add(CFA_XSP16, literal(-19)))
        CFI (cfiCond347) V0 load(1, XDATA, add(CFA_XSP16, literal(-18)))
        CFI (cfiCond347) V1 load(1, XDATA, add(CFA_XSP16, literal(-17)))
        CFI (cfiCond347) V2 load(1, XDATA, add(CFA_XSP16, literal(-16)))
        CFI (cfiCond347) V3 load(1, XDATA, add(CFA_XSP16, literal(-15)))
        CFI (cfiCond347) V4 load(1, XDATA, add(CFA_XSP16, literal(-14)))
        CFI (cfiCond347) V5 load(1, XDATA, add(CFA_XSP16, literal(-13)))
        CFI (cfiCond347) V6 load(1, XDATA, add(CFA_XSP16, literal(-12)))
        CFI (cfiCond347) V7 load(1, XDATA, add(CFA_XSP16, literal(-11)))
        CFI (cfiCond347) V8 load(1, XDATA, add(CFA_XSP16, literal(-10)))
        CFI (cfiCond347) V9 load(1, XDATA, add(CFA_XSP16, literal(-9)))
        CFI (cfiCond347) V10 load(1, XDATA, add(CFA_XSP16, literal(-8)))
        CFI (cfiCond347) V11 load(1, XDATA, add(CFA_XSP16, literal(-7)))
        CFI (cfiCond347) R7 load(1, XDATA, add(CFA_XSP16, literal(-6)))
        CFI (cfiCond347) ?RET_LOW load(1, XDATA, add(CFA_XSP16, literal(-5)))
        CFI (cfiCond347) ?RET_HIGH load(1, XDATA, add(CFA_XSP16, literal(-4)))
        CFI (cfiCond347) ?BRET_EXT load(1, XDATA, add(CFA_XSP16, literal(-3)))
        CFI (cfiCond347) DPL0 load(1, XDATA, add(CFA_XSP16, literal(-2)))
        CFI (cfiCond347) DPH0 load(1, XDATA, add(CFA_XSP16, literal(-1)))
        CFI (cfiCond347) CFA_SP SP+0
        CFI (cfiCond347) CFA_XSP16 add(XSP16, 21)
        CFI Block cfiPicker348 Using cfiCommon1
        CFI (cfiPicker348) NoFunction
        CFI (cfiPicker348) Picker
        ADDC    A,#0x0
        MOV     R5,A
        MOV     DPL,R4
        MOV     DPH,R5
        LCALL   ??Subroutine104_0 & 0xFFFF
??CrossCallReturnLabel_191:
        LCALL   ?Subroutine74 & 0xFFFF
??CrossCallReturnLabel_197:
        RET
        CFI EndBlock cfiCond346
        CFI EndBlock cfiCond347
        CFI EndBlock cfiPicker348

        RSEG BANKED_CODE:CODE:NOROOT(0)
?Subroutine74:
        CFI Block cfiCond349 Using cfiCommon0
        CFI NoFunction
        CFI Conditional ??CrossCallReturnLabel_196, ??CrossCallReturnLabel_0
        CFI R6 load(1, XDATA, add(CFA_XSP16, literal(-16)))
        CFI VB load(1, XDATA, add(CFA_XSP16, literal(-15)))
        CFI V0 load(1, XDATA, add(CFA_XSP16, literal(-14)))
        CFI V1 load(1, XDATA, add(CFA_XSP16, literal(-13)))
        CFI V2 load(1, XDATA, add(CFA_XSP16, literal(-12)))
        CFI V3 load(1, XDATA, add(CFA_XSP16, literal(-11)))
        CFI V4 load(1, XDATA, add(CFA_XSP16, literal(-10)))
        CFI V5 load(1, XDATA, add(CFA_XSP16, literal(-9)))
        CFI V6 load(1, XDATA, add(CFA_XSP16, literal(-8)))
        CFI V7 load(1, XDATA, add(CFA_XSP16, literal(-7)))
        CFI R7 load(1, XDATA, add(CFA_XSP16, literal(-6)))
        CFI ?RET_LOW load(1, XDATA, add(CFA_XSP16, literal(-5)))
        CFI ?RET_HIGH load(1, XDATA, add(CFA_XSP16, literal(-4)))
        CFI ?BRET_EXT load(1, XDATA, add(CFA_XSP16, literal(-3)))
        CFI DPL0 load(1, XDATA, add(CFA_XSP16, literal(-2)))
        CFI DPH0 load(1, XDATA, add(CFA_XSP16, literal(-1)))
        CFI CFA_SP SP+0
        CFI CFA_XSP16 add(XSP16, 16)
        CFI Block cfiCond350 Using cfiCommon0
        CFI (cfiCond350) NoFunction
        CFI (cfiCond350) Conditional ??CrossCallReturnLabel_196, ??CrossCallReturnLabel_1
        CFI (cfiCond350) R6 load(1, XDATA, add(CFA_XSP16, literal(-16)))
        CFI (cfiCond350) VB load(1, XDATA, add(CFA_XSP16, literal(-15)))
        CFI (cfiCond350) V0 load(1, XDATA, add(CFA_XSP16, literal(-14)))
        CFI (cfiCond350) V1 load(1, XDATA, add(CFA_XSP16, literal(-13)))
        CFI (cfiCond350) V2 load(1, XDATA, add(CFA_XSP16, literal(-12)))
        CFI (cfiCond350) V3 load(1, XDATA, add(CFA_XSP16, literal(-11)))
        CFI (cfiCond350) V4 load(1, XDATA, add(CFA_XSP16, literal(-10)))
        CFI (cfiCond350) V5 load(1, XDATA, add(CFA_XSP16, literal(-9)))
        CFI (cfiCond350) V6 load(1, XDATA, add(CFA_XSP16, literal(-8)))
        CFI (cfiCond350) V7 load(1, XDATA, add(CFA_XSP16, literal(-7)))
        CFI (cfiCond350) R7 load(1, XDATA, add(CFA_XSP16, literal(-6)))
        CFI (cfiCond350) ?RET_LOW load(1, XDATA, add(CFA_XSP16, literal(-5)))
        CFI (cfiCond350) ?RET_HIGH load(1, XDATA, add(CFA_XSP16, literal(-4)))
        CFI (cfiCond350) ?BRET_EXT load(1, XDATA, add(CFA_XSP16, literal(-3)))
        CFI (cfiCond350) DPL0 load(1, XDATA, add(CFA_XSP16, literal(-2)))
        CFI (cfiCond350) DPH0 load(1, XDATA, add(CFA_XSP16, literal(-1)))
        CFI (cfiCond350) CFA_SP SP+0
        CFI (cfiCond350) CFA_XSP16 add(XSP16, 16)
        CFI Block cfiCond351 Using cfiCommon0
        CFI (cfiCond351) NoFunction
        CFI (cfiCond351) Conditional ??CrossCallReturnLabel_197, ??CrossCallReturnLabel_8
        CFI (cfiCond351) R6 load(1, XDATA, add(CFA_XSP16, literal(-10)))
        CFI (cfiCond351) VB load(1, XDATA, add(CFA_XSP16, literal(-9)))
        CFI (cfiCond351) V0 load(1, XDATA, add(CFA_XSP16, literal(-8)))
        CFI (cfiCond351) V1 load(1, XDATA, add(CFA_XSP16, literal(-7)))
        CFI (cfiCond351) R7 load(1, XDATA, add(CFA_XSP16, literal(-6)))
        CFI (cfiCond351) ?RET_LOW load(1, XDATA, add(CFA_XSP16, literal(-5)))
        CFI (cfiCond351) ?RET_HIGH load(1, XDATA, add(CFA_XSP16, literal(-4)))
        CFI (cfiCond351) ?BRET_EXT load(1, XDATA, add(CFA_XSP16, literal(-3)))
        CFI (cfiCond351) DPL0 load(1, XDATA, add(CFA_XSP16, literal(-2)))
        CFI (cfiCond351) DPH0 load(1, XDATA, add(CFA_XSP16, literal(-1)))
        CFI (cfiCond351) CFA_SP SP+0
        CFI (cfiCond351) CFA_XSP16 add(XSP16, 10)
        CFI Block cfiCond352 Using cfiCommon0
        CFI (cfiCond352) NoFunction
        CFI (cfiCond352) Conditional ??CrossCallReturnLabel_197, ??CrossCallReturnLabel_9
        CFI (cfiCond352) R6 load(1, XDATA, add(CFA_XSP16, literal(-20)))
        CFI (cfiCond352) VB load(1, XDATA, add(CFA_XSP16, literal(-19)))
        CFI (cfiCond352) V0 load(1, XDATA, add(CFA_XSP16, literal(-18)))
        CFI (cfiCond352) V1 load(1, XDATA, add(CFA_XSP16, literal(-17)))
        CFI (cfiCond352) V2 load(1, XDATA, add(CFA_XSP16, literal(-16)))
        CFI (cfiCond352) V3 load(1, XDATA, add(CFA_XSP16, literal(-15)))
        CFI (cfiCond352) V4 load(1, XDATA, add(CFA_XSP16, literal(-14)))
        CFI (cfiCond352) V5 load(1, XDATA, add(CFA_XSP16, literal(-13)))
        CFI (cfiCond352) V6 load(1, XDATA, add(CFA_XSP16, literal(-12)))
        CFI (cfiCond352) V7 load(1, XDATA, add(CFA_XSP16, literal(-11)))
        CFI (cfiCond352) V8 load(1, XDATA, add(CFA_XSP16, literal(-10)))
        CFI (cfiCond352) V9 load(1, XDATA, add(CFA_XSP16, literal(-9)))
        CFI (cfiCond352) V10 load(1, XDATA, add(CFA_XSP16, literal(-8)))
        CFI (cfiCond352) V11 load(1, XDATA, add(CFA_XSP16, literal(-7)))
        CFI (cfiCond352) R7 load(1, XDATA, add(CFA_XSP16, literal(-6)))
        CFI (cfiCond352) ?RET_LOW load(1, XDATA, add(CFA_XSP16, literal(-5)))
        CFI (cfiCond352) ?RET_HIGH load(1, XDATA, add(CFA_XSP16, literal(-4)))
        CFI (cfiCond352) ?BRET_EXT load(1, XDATA, add(CFA_XSP16, literal(-3)))
        CFI (cfiCond352) DPL0 load(1, XDATA, add(CFA_XSP16, literal(-2)))
        CFI (cfiCond352) DPH0 load(1, XDATA, add(CFA_XSP16, literal(-1)))
        CFI (cfiCond352) CFA_SP SP+0
        CFI (cfiCond352) CFA_XSP16 add(XSP16, 21)
        CFI Block cfiPicker353 Using cfiCommon1
        CFI (cfiPicker353) NoFunction
        CFI (cfiPicker353) Picker
        MOV     DPL,R4
        MOV     DPH,R5
        CFI EndBlock cfiCond349
        CFI EndBlock cfiCond350
        CFI EndBlock cfiCond351
        CFI EndBlock cfiCond352
        CFI EndBlock cfiPicker353
        REQUIRE ??Subroutine103_0
        ; // Fall through to label ??Subroutine103_0

        RSEG BANKED_CODE:CODE:NOROOT(0)
??Subroutine103_0:
        CFI Block cfiCond354 Using cfiCommon0
        CFI NoFunction
        CFI Conditional ??CrossCallReturnLabel_195, ??CrossCallReturnLabel_38
        CFI R6 load(1, XDATA, add(CFA_XSP16, literal(-18)))
        CFI VB load(1, XDATA, add(CFA_XSP16, literal(-17)))
        CFI V0 load(1, XDATA, add(CFA_XSP16, literal(-16)))
        CFI V1 load(1, XDATA, add(CFA_XSP16, literal(-15)))
        CFI V2 load(1, XDATA, add(CFA_XSP16, literal(-14)))
        CFI V3 load(1, XDATA, add(CFA_XSP16, literal(-13)))
        CFI V4 load(1, XDATA, add(CFA_XSP16, literal(-12)))
        CFI V5 load(1, XDATA, add(CFA_XSP16, literal(-11)))
        CFI V6 load(1, XDATA, add(CFA_XSP16, literal(-10)))
        CFI V7 load(1, XDATA, add(CFA_XSP16, literal(-9)))
        CFI V8 load(1, XDATA, add(CFA_XSP16, literal(-8)))
        CFI V9 load(1, XDATA, add(CFA_XSP16, literal(-7)))
        CFI R7 load(1, XDATA, add(CFA_XSP16, literal(-6)))
        CFI ?RET_LOW load(1, XDATA, add(CFA_XSP16, literal(-5)))
        CFI ?RET_HIGH load(1, XDATA, add(CFA_XSP16, literal(-4)))
        CFI ?BRET_EXT load(1, XDATA, add(CFA_XSP16, literal(-3)))
        CFI DPL0 load(1, XDATA, add(CFA_XSP16, literal(-2)))
        CFI DPH0 load(1, XDATA, add(CFA_XSP16, literal(-1)))
        CFI CFA_SP SP+0
        CFI CFA_XSP16 add(XSP16, 18)
        CFI Block cfiCond355 Using cfiCommon0
        CFI (cfiCond355) NoFunction
        CFI (cfiCond355) Conditional ??CrossCallReturnLabel_195, ??CrossCallReturnLabel_39
        CFI (cfiCond355) R6 load(1, XDATA, add(CFA_XSP16, literal(-18)))
        CFI (cfiCond355) VB load(1, XDATA, add(CFA_XSP16, literal(-17)))
        CFI (cfiCond355) V0 load(1, XDATA, add(CFA_XSP16, literal(-16)))
        CFI (cfiCond355) V1 load(1, XDATA, add(CFA_XSP16, literal(-15)))
        CFI (cfiCond355) V2 load(1, XDATA, add(CFA_XSP16, literal(-14)))
        CFI (cfiCond355) V3 load(1, XDATA, add(CFA_XSP16, literal(-13)))
        CFI (cfiCond355) V4 load(1, XDATA, add(CFA_XSP16, literal(-12)))
        CFI (cfiCond355) V5 load(1, XDATA, add(CFA_XSP16, literal(-11)))
        CFI (cfiCond355) V6 load(1, XDATA, add(CFA_XSP16, literal(-10)))
        CFI (cfiCond355) V7 load(1, XDATA, add(CFA_XSP16, literal(-9)))
        CFI (cfiCond355) V8 load(1, XDATA, add(CFA_XSP16, literal(-8)))
        CFI (cfiCond355) V9 load(1, XDATA, add(CFA_XSP16, literal(-7)))
        CFI (cfiCond355) R7 load(1, XDATA, add(CFA_XSP16, literal(-6)))
        CFI (cfiCond355) ?RET_LOW load(1, XDATA, add(CFA_XSP16, literal(-5)))
        CFI (cfiCond355) ?RET_HIGH load(1, XDATA, add(CFA_XSP16, literal(-4)))
        CFI (cfiCond355) ?BRET_EXT load(1, XDATA, add(CFA_XSP16, literal(-3)))
        CFI (cfiCond355) DPL0 load(1, XDATA, add(CFA_XSP16, literal(-2)))
        CFI (cfiCond355) DPH0 load(1, XDATA, add(CFA_XSP16, literal(-1)))
        CFI (cfiCond355) CFA_SP SP+0
        CFI (cfiCond355) CFA_XSP16 add(XSP16, 18)
        CFI Block cfiCond356 Using cfiCommon0
        CFI (cfiCond356) NoFunction
        CFI (cfiCond356) Conditional ??CrossCallReturnLabel_194, ??CrossCallReturnLabel_2
        CFI (cfiCond356) R6 load(1, XDATA, add(CFA_XSP16, literal(-18)))
        CFI (cfiCond356) VB load(1, XDATA, add(CFA_XSP16, literal(-17)))
        CFI (cfiCond356) V0 load(1, XDATA, add(CFA_XSP16, literal(-16)))
        CFI (cfiCond356) V1 load(1, XDATA, add(CFA_XSP16, literal(-15)))
        CFI (cfiCond356) V2 load(1, XDATA, add(CFA_XSP16, literal(-14)))
        CFI (cfiCond356) V3 load(1, XDATA, add(CFA_XSP16, literal(-13)))
        CFI (cfiCond356) V4 load(1, XDATA, add(CFA_XSP16, literal(-12)))
        CFI (cfiCond356) V5 load(1, XDATA, add(CFA_XSP16, literal(-11)))
        CFI (cfiCond356) V6 load(1, XDATA, add(CFA_XSP16, literal(-10)))
        CFI (cfiCond356) V7 load(1, XDATA, add(CFA_XSP16, literal(-9)))
        CFI (cfiCond356) V8 load(1, XDATA, add(CFA_XSP16, literal(-8)))
        CFI (cfiCond356) V9 load(1, XDATA, add(CFA_XSP16, literal(-7)))
        CFI (cfiCond356) R7 load(1, XDATA, add(CFA_XSP16, literal(-6)))
        CFI (cfiCond356) ?RET_LOW load(1, XDATA, add(CFA_XSP16, literal(-5)))
        CFI (cfiCond356) ?RET_HIGH load(1, XDATA, add(CFA_XSP16, literal(-4)))
        CFI (cfiCond356) ?BRET_EXT load(1, XDATA, add(CFA_XSP16, literal(-3)))
        CFI (cfiCond356) DPL0 load(1, XDATA, add(CFA_XSP16, literal(-2)))
        CFI (cfiCond356) DPH0 load(1, XDATA, add(CFA_XSP16, literal(-1)))
        CFI (cfiCond356) CFA_SP SP+0
        CFI (cfiCond356) CFA_XSP16 add(XSP16, 18)
        CFI Block cfiCond357 Using cfiCommon0
        CFI (cfiCond357) NoFunction
        CFI (cfiCond357) Conditional ??CrossCallReturnLabel_194, ??CrossCallReturnLabel_3
        CFI (cfiCond357) R6 load(1, XDATA, add(CFA_XSP16, literal(-18)))
        CFI (cfiCond357) VB load(1, XDATA, add(CFA_XSP16, literal(-17)))
        CFI (cfiCond357) V0 load(1, XDATA, add(CFA_XSP16, literal(-16)))
        CFI (cfiCond357) V1 load(1, XDATA, add(CFA_XSP16, literal(-15)))
        CFI (cfiCond357) V2 load(1, XDATA, add(CFA_XSP16, literal(-14)))
        CFI (cfiCond357) V3 load(1, XDATA, add(CFA_XSP16, literal(-13)))
        CFI (cfiCond357) V4 load(1, XDATA, add(CFA_XSP16, literal(-12)))
        CFI (cfiCond357) V5 load(1, XDATA, add(CFA_XSP16, literal(-11)))
        CFI (cfiCond357) V6 load(1, XDATA, add(CFA_XSP16, literal(-10)))
        CFI (cfiCond357) V7 load(1, XDATA, add(CFA_XSP16, literal(-9)))
        CFI (cfiCond357) V8 load(1, XDATA, add(CFA_XSP16, literal(-8)))
        CFI (cfiCond357) V9 load(1, XDATA, add(CFA_XSP16, literal(-7)))
        CFI (cfiCond357) R7 load(1, XDATA, add(CFA_XSP16, literal(-6)))
        CFI (cfiCond357) ?RET_LOW load(1, XDATA, add(CFA_XSP16, literal(-5)))
        CFI (cfiCond357) ?RET_HIGH load(1, XDATA, add(CFA_XSP16, literal(-4)))
        CFI (cfiCond357) ?BRET_EXT load(1, XDATA, add(CFA_XSP16, literal(-3)))
        CFI (cfiCond357) DPL0 load(1, XDATA, add(CFA_XSP16, literal(-2)))
        CFI (cfiCond357) DPH0 load(1, XDATA, add(CFA_XSP16, literal(-1)))
        CFI (cfiCond357) CFA_SP SP+0
        CFI (cfiCond357) CFA_XSP16 add(XSP16, 18)
        CFI Block cfiCond358 Using cfiCommon0
        CFI (cfiCond358) NoFunction
        CFI (cfiCond358) Conditional ??CrossCallReturnLabel_196, ??CrossCallReturnLabel_0
        CFI (cfiCond358) R6 load(1, XDATA, add(CFA_XSP16, literal(-16)))
        CFI (cfiCond358) VB load(1, XDATA, add(CFA_XSP16, literal(-15)))
        CFI (cfiCond358) V0 load(1, XDATA, add(CFA_XSP16, literal(-14)))
        CFI (cfiCond358) V1 load(1, XDATA, add(CFA_XSP16, literal(-13)))
        CFI (cfiCond358) V2 load(1, XDATA, add(CFA_XSP16, literal(-12)))
        CFI (cfiCond358) V3 load(1, XDATA, add(CFA_XSP16, literal(-11)))
        CFI (cfiCond358) V4 load(1, XDATA, add(CFA_XSP16, literal(-10)))
        CFI (cfiCond358) V5 load(1, XDATA, add(CFA_XSP16, literal(-9)))
        CFI (cfiCond358) V6 load(1, XDATA, add(CFA_XSP16, literal(-8)))
        CFI (cfiCond358) V7 load(1, XDATA, add(CFA_XSP16, literal(-7)))
        CFI (cfiCond358) R7 load(1, XDATA, add(CFA_XSP16, literal(-6)))
        CFI (cfiCond358) ?RET_LOW load(1, XDATA, add(CFA_XSP16, literal(-5)))
        CFI (cfiCond358) ?RET_HIGH load(1, XDATA, add(CFA_XSP16, literal(-4)))
        CFI (cfiCond358) ?BRET_EXT load(1, XDATA, add(CFA_XSP16, literal(-3)))
        CFI (cfiCond358) DPL0 load(1, XDATA, add(CFA_XSP16, literal(-2)))
        CFI (cfiCond358) DPH0 load(1, XDATA, add(CFA_XSP16, literal(-1)))
        CFI (cfiCond358) CFA_SP SP+0
        CFI (cfiCond358) CFA_XSP16 add(XSP16, 16)
        CFI Block cfiCond359 Using cfiCommon0
        CFI (cfiCond359) NoFunction
        CFI (cfiCond359) Conditional ??CrossCallReturnLabel_196, ??CrossCallReturnLabel_1
        CFI (cfiCond359) R6 load(1, XDATA, add(CFA_XSP16, literal(-16)))
        CFI (cfiCond359) VB load(1, XDATA, add(CFA_XSP16, literal(-15)))
        CFI (cfiCond359) V0 load(1, XDATA, add(CFA_XSP16, literal(-14)))
        CFI (cfiCond359) V1 load(1, XDATA, add(CFA_XSP16, literal(-13)))
        CFI (cfiCond359) V2 load(1, XDATA, add(CFA_XSP16, literal(-12)))
        CFI (cfiCond359) V3 load(1, XDATA, add(CFA_XSP16, literal(-11)))
        CFI (cfiCond359) V4 load(1, XDATA, add(CFA_XSP16, literal(-10)))
        CFI (cfiCond359) V5 load(1, XDATA, add(CFA_XSP16, literal(-9)))
        CFI (cfiCond359) V6 load(1, XDATA, add(CFA_XSP16, literal(-8)))
        CFI (cfiCond359) V7 load(1, XDATA, add(CFA_XSP16, literal(-7)))
        CFI (cfiCond359) R7 load(1, XDATA, add(CFA_XSP16, literal(-6)))
        CFI (cfiCond359) ?RET_LOW load(1, XDATA, add(CFA_XSP16, literal(-5)))
        CFI (cfiCond359) ?RET_HIGH load(1, XDATA, add(CFA_XSP16, literal(-4)))
        CFI (cfiCond359) ?BRET_EXT load(1, XDATA, add(CFA_XSP16, literal(-3)))
        CFI (cfiCond359) DPL0 load(1, XDATA, add(CFA_XSP16, literal(-2)))
        CFI (cfiCond359) DPH0 load(1, XDATA, add(CFA_XSP16, literal(-1)))
        CFI (cfiCond359) CFA_SP SP+0
        CFI (cfiCond359) CFA_XSP16 add(XSP16, 16)
        CFI Block cfiCond360 Using cfiCommon0
        CFI (cfiCond360) NoFunction
        CFI (cfiCond360) Conditional ??CrossCallReturnLabel_197, ??CrossCallReturnLabel_8
        CFI (cfiCond360) R6 load(1, XDATA, add(CFA_XSP16, literal(-10)))
        CFI (cfiCond360) VB load(1, XDATA, add(CFA_XSP16, literal(-9)))
        CFI (cfiCond360) V0 load(1, XDATA, add(CFA_XSP16, literal(-8)))
        CFI (cfiCond360) V1 load(1, XDATA, add(CFA_XSP16, literal(-7)))
        CFI (cfiCond360) R7 load(1, XDATA, add(CFA_XSP16, literal(-6)))
        CFI (cfiCond360) ?RET_LOW load(1, XDATA, add(CFA_XSP16, literal(-5)))
        CFI (cfiCond360) ?RET_HIGH load(1, XDATA, add(CFA_XSP16, literal(-4)))
        CFI (cfiCond360) ?BRET_EXT load(1, XDATA, add(CFA_XSP16, literal(-3)))
        CFI (cfiCond360) DPL0 load(1, XDATA, add(CFA_XSP16, literal(-2)))
        CFI (cfiCond360) DPH0 load(1, XDATA, add(CFA_XSP16, literal(-1)))
        CFI (cfiCond360) CFA_SP SP+0
        CFI (cfiCond360) CFA_XSP16 add(XSP16, 10)
        CFI Block cfiCond361 Using cfiCommon0
        CFI (cfiCond361) NoFunction
        CFI (cfiCond361) Conditional ??CrossCallReturnLabel_197, ??CrossCallReturnLabel_9
        CFI (cfiCond361) R6 load(1, XDATA, add(CFA_XSP16, literal(-20)))
        CFI (cfiCond361) VB load(1, XDATA, add(CFA_XSP16, literal(-19)))
        CFI (cfiCond361) V0 load(1, XDATA, add(CFA_XSP16, literal(-18)))
        CFI (cfiCond361) V1 load(1, XDATA, add(CFA_XSP16, literal(-17)))
        CFI (cfiCond361) V2 load(1, XDATA, add(CFA_XSP16, literal(-16)))
        CFI (cfiCond361) V3 load(1, XDATA, add(CFA_XSP16, literal(-15)))
        CFI (cfiCond361) V4 load(1, XDATA, add(CFA_XSP16, literal(-14)))
        CFI (cfiCond361) V5 load(1, XDATA, add(CFA_XSP16, literal(-13)))
        CFI (cfiCond361) V6 load(1, XDATA, add(CFA_XSP16, literal(-12)))
        CFI (cfiCond361) V7 load(1, XDATA, add(CFA_XSP16, literal(-11)))
        CFI (cfiCond361) V8 load(1, XDATA, add(CFA_XSP16, literal(-10)))
        CFI (cfiCond361) V9 load(1, XDATA, add(CFA_XSP16, literal(-9)))
        CFI (cfiCond361) V10 load(1, XDATA, add(CFA_XSP16, literal(-8)))
        CFI (cfiCond361) V11 load(1, XDATA, add(CFA_XSP16, literal(-7)))
        CFI (cfiCond361) R7 load(1, XDATA, add(CFA_XSP16, literal(-6)))
        CFI (cfiCond361) ?RET_LOW load(1, XDATA, add(CFA_XSP16, literal(-5)))
        CFI (cfiCond361) ?RET_HIGH load(1, XDATA, add(CFA_XSP16, literal(-4)))
        CFI (cfiCond361) ?BRET_EXT load(1, XDATA, add(CFA_XSP16, literal(-3)))
        CFI (cfiCond361) DPL0 load(1, XDATA, add(CFA_XSP16, literal(-2)))
        CFI (cfiCond361) DPH0 load(1, XDATA, add(CFA_XSP16, literal(-1)))
        CFI (cfiCond361) CFA_SP SP+0
        CFI (cfiCond361) CFA_XSP16 add(XSP16, 21)
        CFI Block cfiPicker362 Using cfiCommon1
        CFI (cfiPicker362) NoFunction
        CFI (cfiPicker362) Picker
        INC     DPTR
        CFI EndBlock cfiCond354
        CFI EndBlock cfiCond355
        CFI EndBlock cfiCond356
        CFI EndBlock cfiCond357
        CFI EndBlock cfiCond358
        CFI EndBlock cfiCond359
        CFI EndBlock cfiCond360
        CFI EndBlock cfiCond361
        CFI EndBlock cfiPicker362
        REQUIRE ??Subroutine104_0
        ; // Fall through to label ??Subroutine104_0

        RSEG BANKED_CODE:CODE:NOROOT(0)
??Subroutine104_0:
        CFI Block cfiCond363 Using cfiCommon0
        CFI NoFunction
        CFI Conditional ??CrossCallReturnLabel_192, ??CrossCallReturnLabel_125
        CFI R6 load(1, XDATA, add(CFA_XSP16, literal(-10)))
        CFI VB load(1, XDATA, add(CFA_XSP16, literal(-9)))
        CFI V0 load(1, XDATA, add(CFA_XSP16, literal(-8)))
        CFI V1 load(1, XDATA, add(CFA_XSP16, literal(-7)))
        CFI R7 load(1, XDATA, add(CFA_XSP16, literal(-6)))
        CFI ?RET_LOW load(1, XDATA, add(CFA_XSP16, literal(-5)))
        CFI ?RET_HIGH load(1, XDATA, add(CFA_XSP16, literal(-4)))
        CFI ?BRET_EXT load(1, XDATA, add(CFA_XSP16, literal(-3)))
        CFI DPL0 load(1, XDATA, add(CFA_XSP16, literal(-2)))
        CFI DPH0 load(1, XDATA, add(CFA_XSP16, literal(-1)))
        CFI CFA_SP SP+0
        CFI CFA_XSP16 add(XSP16, 10)
        CFI Block cfiCond364 Using cfiCommon0
        CFI (cfiCond364) NoFunction
        CFI (cfiCond364) Conditional ??CrossCallReturnLabel_192, ??CrossCallReturnLabel_126
        CFI (cfiCond364) R6 load(1, XDATA, add(CFA_XSP16, literal(-10)))
        CFI (cfiCond364) VB load(1, XDATA, add(CFA_XSP16, literal(-9)))
        CFI (cfiCond364) V0 load(1, XDATA, add(CFA_XSP16, literal(-8)))
        CFI (cfiCond364) V1 load(1, XDATA, add(CFA_XSP16, literal(-7)))
        CFI (cfiCond364) R7 load(1, XDATA, add(CFA_XSP16, literal(-6)))
        CFI (cfiCond364) ?RET_LOW load(1, XDATA, add(CFA_XSP16, literal(-5)))
        CFI (cfiCond364) ?RET_HIGH load(1, XDATA, add(CFA_XSP16, literal(-4)))
        CFI (cfiCond364) ?BRET_EXT load(1, XDATA, add(CFA_XSP16, literal(-3)))
        CFI (cfiCond364) DPL0 load(1, XDATA, add(CFA_XSP16, literal(-2)))
        CFI (cfiCond364) DPH0 load(1, XDATA, add(CFA_XSP16, literal(-1)))
        CFI (cfiCond364) CFA_SP SP+0
        CFI (cfiCond364) CFA_XSP16 add(XSP16, 10)
        CFI Block cfiCond365 Using cfiCommon0
        CFI (cfiCond365) NoFunction
        CFI (cfiCond365) Conditional ??CrossCallReturnLabel_192, ??CrossCallReturnLabel_127
        CFI (cfiCond365) R6 load(1, XDATA, add(CFA_XSP16, literal(-10)))
        CFI (cfiCond365) VB load(1, XDATA, add(CFA_XSP16, literal(-9)))
        CFI (cfiCond365) V0 load(1, XDATA, add(CFA_XSP16, literal(-8)))
        CFI (cfiCond365) V1 load(1, XDATA, add(CFA_XSP16, literal(-7)))
        CFI (cfiCond365) R7 load(1, XDATA, add(CFA_XSP16, literal(-6)))
        CFI (cfiCond365) ?RET_LOW load(1, XDATA, add(CFA_XSP16, literal(-5)))
        CFI (cfiCond365) ?RET_HIGH load(1, XDATA, add(CFA_XSP16, literal(-4)))
        CFI (cfiCond365) ?BRET_EXT load(1, XDATA, add(CFA_XSP16, literal(-3)))
        CFI (cfiCond365) DPL0 load(1, XDATA, add(CFA_XSP16, literal(-2)))
        CFI (cfiCond365) DPH0 load(1, XDATA, add(CFA_XSP16, literal(-1)))
        CFI (cfiCond365) CFA_SP SP+0
        CFI (cfiCond365) CFA_XSP16 add(XSP16, 10)
        CFI Block cfiCond366 Using cfiCommon0
        CFI (cfiCond366) NoFunction
        CFI (cfiCond366) Conditional ??CrossCallReturnLabel_190, ??CrossCallReturnLabel_2
        CFI (cfiCond366) R6 load(1, XDATA, add(CFA_XSP16, literal(-18)))
        CFI (cfiCond366) VB load(1, XDATA, add(CFA_XSP16, literal(-17)))
        CFI (cfiCond366) V0 load(1, XDATA, add(CFA_XSP16, literal(-16)))
        CFI (cfiCond366) V1 load(1, XDATA, add(CFA_XSP16, literal(-15)))
        CFI (cfiCond366) V2 load(1, XDATA, add(CFA_XSP16, literal(-14)))
        CFI (cfiCond366) V3 load(1, XDATA, add(CFA_XSP16, literal(-13)))
        CFI (cfiCond366) V4 load(1, XDATA, add(CFA_XSP16, literal(-12)))
        CFI (cfiCond366) V5 load(1, XDATA, add(CFA_XSP16, literal(-11)))
        CFI (cfiCond366) V6 load(1, XDATA, add(CFA_XSP16, literal(-10)))
        CFI (cfiCond366) V7 load(1, XDATA, add(CFA_XSP16, literal(-9)))
        CFI (cfiCond366) V8 load(1, XDATA, add(CFA_XSP16, literal(-8)))
        CFI (cfiCond366) V9 load(1, XDATA, add(CFA_XSP16, literal(-7)))
        CFI (cfiCond366) R7 load(1, XDATA, add(CFA_XSP16, literal(-6)))
        CFI (cfiCond366) ?RET_LOW load(1, XDATA, add(CFA_XSP16, literal(-5)))
        CFI (cfiCond366) ?RET_HIGH load(1, XDATA, add(CFA_XSP16, literal(-4)))
        CFI (cfiCond366) ?BRET_EXT load(1, XDATA, add(CFA_XSP16, literal(-3)))
        CFI (cfiCond366) DPL0 load(1, XDATA, add(CFA_XSP16, literal(-2)))
        CFI (cfiCond366) DPH0 load(1, XDATA, add(CFA_XSP16, literal(-1)))
        CFI (cfiCond366) CFA_SP SP+0
        CFI (cfiCond366) CFA_XSP16 add(XSP16, 18)
        CFI Block cfiCond367 Using cfiCommon0
        CFI (cfiCond367) NoFunction
        CFI (cfiCond367) Conditional ??CrossCallReturnLabel_190, ??CrossCallReturnLabel_3
        CFI (cfiCond367) R6 load(1, XDATA, add(CFA_XSP16, literal(-18)))
        CFI (cfiCond367) VB load(1, XDATA, add(CFA_XSP16, literal(-17)))
        CFI (cfiCond367) V0 load(1, XDATA, add(CFA_XSP16, literal(-16)))
        CFI (cfiCond367) V1 load(1, XDATA, add(CFA_XSP16, literal(-15)))
        CFI (cfiCond367) V2 load(1, XDATA, add(CFA_XSP16, literal(-14)))
        CFI (cfiCond367) V3 load(1, XDATA, add(CFA_XSP16, literal(-13)))
        CFI (cfiCond367) V4 load(1, XDATA, add(CFA_XSP16, literal(-12)))
        CFI (cfiCond367) V5 load(1, XDATA, add(CFA_XSP16, literal(-11)))
        CFI (cfiCond367) V6 load(1, XDATA, add(CFA_XSP16, literal(-10)))
        CFI (cfiCond367) V7 load(1, XDATA, add(CFA_XSP16, literal(-9)))
        CFI (cfiCond367) V8 load(1, XDATA, add(CFA_XSP16, literal(-8)))
        CFI (cfiCond367) V9 load(1, XDATA, add(CFA_XSP16, literal(-7)))
        CFI (cfiCond367) R7 load(1, XDATA, add(CFA_XSP16, literal(-6)))
        CFI (cfiCond367) ?RET_LOW load(1, XDATA, add(CFA_XSP16, literal(-5)))
        CFI (cfiCond367) ?RET_HIGH load(1, XDATA, add(CFA_XSP16, literal(-4)))
        CFI (cfiCond367) ?BRET_EXT load(1, XDATA, add(CFA_XSP16, literal(-3)))
        CFI (cfiCond367) DPL0 load(1, XDATA, add(CFA_XSP16, literal(-2)))
        CFI (cfiCond367) DPH0 load(1, XDATA, add(CFA_XSP16, literal(-1)))
        CFI (cfiCond367) CFA_SP SP+0
        CFI (cfiCond367) CFA_XSP16 add(XSP16, 18)
        CFI Block cfiCond368 Using cfiCommon0
        CFI (cfiCond368) NoFunction
        CFI (cfiCond368) Conditional ??CrossCallReturnLabel_193, ??CrossCallReturnLabel_187
        CFI (cfiCond368) R6 load(1, XDATA, add(CFA_XSP16, literal(-20)))
        CFI (cfiCond368) VB load(1, XDATA, add(CFA_XSP16, literal(-19)))
        CFI (cfiCond368) V0 load(1, XDATA, add(CFA_XSP16, literal(-18)))
        CFI (cfiCond368) V1 load(1, XDATA, add(CFA_XSP16, literal(-17)))
        CFI (cfiCond368) V2 load(1, XDATA, add(CFA_XSP16, literal(-16)))
        CFI (cfiCond368) V3 load(1, XDATA, add(CFA_XSP16, literal(-15)))
        CFI (cfiCond368) V4 load(1, XDATA, add(CFA_XSP16, literal(-14)))
        CFI (cfiCond368) V5 load(1, XDATA, add(CFA_XSP16, literal(-13)))
        CFI (cfiCond368) V6 load(1, XDATA, add(CFA_XSP16, literal(-12)))
        CFI (cfiCond368) V7 load(1, XDATA, add(CFA_XSP16, literal(-11)))
        CFI (cfiCond368) V8 load(1, XDATA, add(CFA_XSP16, literal(-10)))
        CFI (cfiCond368) V9 load(1, XDATA, add(CFA_XSP16, literal(-9)))
        CFI (cfiCond368) V10 load(1, XDATA, add(CFA_XSP16, literal(-8)))
        CFI (cfiCond368) V11 load(1, XDATA, add(CFA_XSP16, literal(-7)))
        CFI (cfiCond368) R7 load(1, XDATA, add(CFA_XSP16, literal(-6)))
        CFI (cfiCond368) ?RET_LOW load(1, XDATA, add(CFA_XSP16, literal(-5)))
        CFI (cfiCond368) ?RET_HIGH load(1, XDATA, add(CFA_XSP16, literal(-4)))
        CFI (cfiCond368) ?BRET_EXT load(1, XDATA, add(CFA_XSP16, literal(-3)))
        CFI (cfiCond368) DPL0 load(1, XDATA, add(CFA_XSP16, literal(-2)))
        CFI (cfiCond368) DPH0 load(1, XDATA, add(CFA_XSP16, literal(-1)))
        CFI (cfiCond368) CFA_SP SP+0
        CFI (cfiCond368) CFA_XSP16 add(XSP16, 21)
        CFI Block cfiCond369 Using cfiCommon0
        CFI (cfiCond369) NoFunction
        CFI (cfiCond369) Conditional ??CrossCallReturnLabel_193, ??CrossCallReturnLabel_188
        CFI (cfiCond369) R6 load(1, XDATA, add(CFA_XSP16, literal(-20)))
        CFI (cfiCond369) VB load(1, XDATA, add(CFA_XSP16, literal(-19)))
        CFI (cfiCond369) V0 load(1, XDATA, add(CFA_XSP16, literal(-18)))
        CFI (cfiCond369) V1 load(1, XDATA, add(CFA_XSP16, literal(-17)))
        CFI (cfiCond369) V2 load(1, XDATA, add(CFA_XSP16, literal(-16)))
        CFI (cfiCond369) V3 load(1, XDATA, add(CFA_XSP16, literal(-15)))
        CFI (cfiCond369) V4 load(1, XDATA, add(CFA_XSP16, literal(-14)))
        CFI (cfiCond369) V5 load(1, XDATA, add(CFA_XSP16, literal(-13)))
        CFI (cfiCond369) V6 load(1, XDATA, add(CFA_XSP16, literal(-12)))
        CFI (cfiCond369) V7 load(1, XDATA, add(CFA_XSP16, literal(-11)))
        CFI (cfiCond369) V8 load(1, XDATA, add(CFA_XSP16, literal(-10)))
        CFI (cfiCond369) V9 load(1, XDATA, add(CFA_XSP16, literal(-9)))
        CFI (cfiCond369) V10 load(1, XDATA, add(CFA_XSP16, literal(-8)))
        CFI (cfiCond369) V11 load(1, XDATA, add(CFA_XSP16, literal(-7)))
        CFI (cfiCond369) R7 load(1, XDATA, add(CFA_XSP16, literal(-6)))
        CFI (cfiCond369) ?RET_LOW load(1, XDATA, add(CFA_XSP16, literal(-5)))
        CFI (cfiCond369) ?RET_HIGH load(1, XDATA, add(CFA_XSP16, literal(-4)))
        CFI (cfiCond369) ?BRET_EXT load(1, XDATA, add(CFA_XSP16, literal(-3)))
        CFI (cfiCond369) DPL0 load(1, XDATA, add(CFA_XSP16, literal(-2)))
        CFI (cfiCond369) DPH0 load(1, XDATA, add(CFA_XSP16, literal(-1)))
        CFI (cfiCond369) CFA_SP SP+0
        CFI (cfiCond369) CFA_XSP16 add(XSP16, 21)
        CFI Block cfiCond370 Using cfiCommon0
        CFI (cfiCond370) NoFunction
        CFI (cfiCond370) Conditional ??CrossCallReturnLabel_193, ??CrossCallReturnLabel_184
        CFI (cfiCond370) R6 load(1, XDATA, add(CFA_XSP16, literal(-18)))
        CFI (cfiCond370) VB load(1, XDATA, add(CFA_XSP16, literal(-17)))
        CFI (cfiCond370) V0 load(1, XDATA, add(CFA_XSP16, literal(-16)))
        CFI (cfiCond370) V1 load(1, XDATA, add(CFA_XSP16, literal(-15)))
        CFI (cfiCond370) V2 load(1, XDATA, add(CFA_XSP16, literal(-14)))
        CFI (cfiCond370) V3 load(1, XDATA, add(CFA_XSP16, literal(-13)))
        CFI (cfiCond370) V4 load(1, XDATA, add(CFA_XSP16, literal(-12)))
        CFI (cfiCond370) V5 load(1, XDATA, add(CFA_XSP16, literal(-11)))
        CFI (cfiCond370) V6 load(1, XDATA, add(CFA_XSP16, literal(-10)))
        CFI (cfiCond370) V7 load(1, XDATA, add(CFA_XSP16, literal(-9)))
        CFI (cfiCond370) V8 load(1, XDATA, add(CFA_XSP16, literal(-8)))
        CFI (cfiCond370) V9 load(1, XDATA, add(CFA_XSP16, literal(-7)))
        CFI (cfiCond370) R7 load(1, XDATA, add(CFA_XSP16, literal(-6)))
        CFI (cfiCond370) ?RET_LOW load(1, XDATA, add(CFA_XSP16, literal(-5)))
        CFI (cfiCond370) ?RET_HIGH load(1, XDATA, add(CFA_XSP16, literal(-4)))
        CFI (cfiCond370) ?BRET_EXT load(1, XDATA, add(CFA_XSP16, literal(-3)))
        CFI (cfiCond370) DPL0 load(1, XDATA, add(CFA_XSP16, literal(-2)))
        CFI (cfiCond370) DPH0 load(1, XDATA, add(CFA_XSP16, literal(-1)))
        CFI (cfiCond370) CFA_SP SP+0
        CFI (cfiCond370) CFA_XSP16 add(XSP16, 18)
        CFI Block cfiCond371 Using cfiCommon0
        CFI (cfiCond371) NoFunction
        CFI (cfiCond371) Conditional ??CrossCallReturnLabel_193, ??CrossCallReturnLabel_185
        CFI (cfiCond371) R6 load(1, XDATA, add(CFA_XSP16, literal(-18)))
        CFI (cfiCond371) VB load(1, XDATA, add(CFA_XSP16, literal(-17)))
        CFI (cfiCond371) V0 load(1, XDATA, add(CFA_XSP16, literal(-16)))
        CFI (cfiCond371) V1 load(1, XDATA, add(CFA_XSP16, literal(-15)))
        CFI (cfiCond371) V2 load(1, XDATA, add(CFA_XSP16, literal(-14)))
        CFI (cfiCond371) V3 load(1, XDATA, add(CFA_XSP16, literal(-13)))
        CFI (cfiCond371) V4 load(1, XDATA, add(CFA_XSP16, literal(-12)))
        CFI (cfiCond371) V5 load(1, XDATA, add(CFA_XSP16, literal(-11)))
        CFI (cfiCond371) V6 load(1, XDATA, add(CFA_XSP16, literal(-10)))
        CFI (cfiCond371) V7 load(1, XDATA, add(CFA_XSP16, literal(-9)))
        CFI (cfiCond371) V8 load(1, XDATA, add(CFA_XSP16, literal(-8)))
        CFI (cfiCond371) V9 load(1, XDATA, add(CFA_XSP16, literal(-7)))
        CFI (cfiCond371) R7 load(1, XDATA, add(CFA_XSP16, literal(-6)))
        CFI (cfiCond371) ?RET_LOW load(1, XDATA, add(CFA_XSP16, literal(-5)))
        CFI (cfiCond371) ?RET_HIGH load(1, XDATA, add(CFA_XSP16, literal(-4)))
        CFI (cfiCond371) ?BRET_EXT load(1, XDATA, add(CFA_XSP16, literal(-3)))
        CFI (cfiCond371) DPL0 load(1, XDATA, add(CFA_XSP16, literal(-2)))
        CFI (cfiCond371) DPH0 load(1, XDATA, add(CFA_XSP16, literal(-1)))
        CFI (cfiCond371) CFA_SP SP+0
        CFI (cfiCond371) CFA_XSP16 add(XSP16, 18)
        CFI Block cfiCond372 Using cfiCommon0
        CFI (cfiCond372) NoFunction
        CFI (cfiCond372) Conditional ??CrossCallReturnLabel_193, ??CrossCallReturnLabel_186
        CFI (cfiCond372) R6 load(1, XDATA, add(CFA_XSP16, literal(-18)))
        CFI (cfiCond372) VB load(1, XDATA, add(CFA_XSP16, literal(-17)))
        CFI (cfiCond372) V0 load(1, XDATA, add(CFA_XSP16, literal(-16)))
        CFI (cfiCond372) V1 load(1, XDATA, add(CFA_XSP16, literal(-15)))
        CFI (cfiCond372) V2 load(1, XDATA, add(CFA_XSP16, literal(-14)))
        CFI (cfiCond372) V3 load(1, XDATA, add(CFA_XSP16, literal(-13)))
        CFI (cfiCond372) V4 load(1, XDATA, add(CFA_XSP16, literal(-12)))
        CFI (cfiCond372) V5 load(1, XDATA, add(CFA_XSP16, literal(-11)))
        CFI (cfiCond372) V6 load(1, XDATA, add(CFA_XSP16, literal(-10)))
        CFI (cfiCond372) V7 load(1, XDATA, add(CFA_XSP16, literal(-9)))
        CFI (cfiCond372) V8 load(1, XDATA, add(CFA_XSP16, literal(-8)))
        CFI (cfiCond372) V9 load(1, XDATA, add(CFA_XSP16, literal(-7)))
        CFI (cfiCond372) R7 load(1, XDATA, add(CFA_XSP16, literal(-6)))
        CFI (cfiCond372) ?RET_LOW load(1, XDATA, add(CFA_XSP16, literal(-5)))
        CFI (cfiCond372) ?RET_HIGH load(1, XDATA, add(CFA_XSP16, literal(-4)))
        CFI (cfiCond372) ?BRET_EXT load(1, XDATA, add(CFA_XSP16, literal(-3)))
        CFI (cfiCond372) DPL0 load(1, XDATA, add(CFA_XSP16, literal(-2)))
        CFI (cfiCond372) DPH0 load(1, XDATA, add(CFA_XSP16, literal(-1)))
        CFI (cfiCond372) CFA_SP SP+0
        CFI (cfiCond372) CFA_XSP16 add(XSP16, 18)
        CFI Block cfiCond373 Using cfiCommon0
        CFI (cfiCond373) NoFunction
        CFI (cfiCond373) Conditional ??CrossCallReturnLabel_191, ??CrossCallReturnLabel_8
        CFI (cfiCond373) R6 load(1, XDATA, add(CFA_XSP16, literal(-10)))
        CFI (cfiCond373) VB load(1, XDATA, add(CFA_XSP16, literal(-9)))
        CFI (cfiCond373) V0 load(1, XDATA, add(CFA_XSP16, literal(-8)))
        CFI (cfiCond373) V1 load(1, XDATA, add(CFA_XSP16, literal(-7)))
        CFI (cfiCond373) R7 load(1, XDATA, add(CFA_XSP16, literal(-6)))
        CFI (cfiCond373) ?RET_LOW load(1, XDATA, add(CFA_XSP16, literal(-5)))
        CFI (cfiCond373) ?RET_HIGH load(1, XDATA, add(CFA_XSP16, literal(-4)))
        CFI (cfiCond373) ?BRET_EXT load(1, XDATA, add(CFA_XSP16, literal(-3)))
        CFI (cfiCond373) DPL0 load(1, XDATA, add(CFA_XSP16, literal(-2)))
        CFI (cfiCond373) DPH0 load(1, XDATA, add(CFA_XSP16, literal(-1)))
        CFI (cfiCond373) CFA_SP SP+0
        CFI (cfiCond373) CFA_XSP16 add(XSP16, 10)
        CFI Block cfiCond374 Using cfiCommon0
        CFI (cfiCond374) NoFunction
        CFI (cfiCond374) Conditional ??CrossCallReturnLabel_191, ??CrossCallReturnLabel_9
        CFI (cfiCond374) R6 load(1, XDATA, add(CFA_XSP16, literal(-20)))
        CFI (cfiCond374) VB load(1, XDATA, add(CFA_XSP16, literal(-19)))
        CFI (cfiCond374) V0 load(1, XDATA, add(CFA_XSP16, literal(-18)))
        CFI (cfiCond374) V1 load(1, XDATA, add(CFA_XSP16, literal(-17)))
        CFI (cfiCond374) V2 load(1, XDATA, add(CFA_XSP16, literal(-16)))
        CFI (cfiCond374) V3 load(1, XDATA, add(CFA_XSP16, literal(-15)))
        CFI (cfiCond374) V4 load(1, XDATA, add(CFA_XSP16, literal(-14)))
        CFI (cfiCond374) V5 load(1, XDATA, add(CFA_XSP16, literal(-13)))
        CFI (cfiCond374) V6 load(1, XDATA, add(CFA_XSP16, literal(-12)))
        CFI (cfiCond374) V7 load(1, XDATA, add(CFA_XSP16, literal(-11)))
        CFI (cfiCond374) V8 load(1, XDATA, add(CFA_XSP16, literal(-10)))
        CFI (cfiCond374) V9 load(1, XDATA, add(CFA_XSP16, literal(-9)))
        CFI (cfiCond374) V10 load(1, XDATA, add(CFA_XSP16, literal(-8)))
        CFI (cfiCond374) V11 load(1, XDATA, add(CFA_XSP16, literal(-7)))
        CFI (cfiCond374) R7 load(1, XDATA, add(CFA_XSP16, literal(-6)))
        CFI (cfiCond374) ?RET_LOW load(1, XDATA, add(CFA_XSP16, literal(-5)))
        CFI (cfiCond374) ?RET_HIGH load(1, XDATA, add(CFA_XSP16, literal(-4)))
        CFI (cfiCond374) ?BRET_EXT load(1, XDATA, add(CFA_XSP16, literal(-3)))
        CFI (cfiCond374) DPL0 load(1, XDATA, add(CFA_XSP16, literal(-2)))
        CFI (cfiCond374) DPH0 load(1, XDATA, add(CFA_XSP16, literal(-1)))
        CFI (cfiCond374) CFA_SP SP+0
        CFI (cfiCond374) CFA_XSP16 add(XSP16, 21)
        CFI Block cfiCond375 Using cfiCommon0
        CFI (cfiCond375) NoFunction
        CFI (cfiCond375) Conditional ??CrossCallReturnLabel_195, ??CrossCallReturnLabel_38
        CFI (cfiCond375) R6 load(1, XDATA, add(CFA_XSP16, literal(-18)))
        CFI (cfiCond375) VB load(1, XDATA, add(CFA_XSP16, literal(-17)))
        CFI (cfiCond375) V0 load(1, XDATA, add(CFA_XSP16, literal(-16)))
        CFI (cfiCond375) V1 load(1, XDATA, add(CFA_XSP16, literal(-15)))
        CFI (cfiCond375) V2 load(1, XDATA, add(CFA_XSP16, literal(-14)))
        CFI (cfiCond375) V3 load(1, XDATA, add(CFA_XSP16, literal(-13)))
        CFI (cfiCond375) V4 load(1, XDATA, add(CFA_XSP16, literal(-12)))
        CFI (cfiCond375) V5 load(1, XDATA, add(CFA_XSP16, literal(-11)))
        CFI (cfiCond375) V6 load(1, XDATA, add(CFA_XSP16, literal(-10)))
        CFI (cfiCond375) V7 load(1, XDATA, add(CFA_XSP16, literal(-9)))
        CFI (cfiCond375) V8 load(1, XDATA, add(CFA_XSP16, literal(-8)))
        CFI (cfiCond375) V9 load(1, XDATA, add(CFA_XSP16, literal(-7)))
        CFI (cfiCond375) R7 load(1, XDATA, add(CFA_XSP16, literal(-6)))
        CFI (cfiCond375) ?RET_LOW load(1, XDATA, add(CFA_XSP16, literal(-5)))
        CFI (cfiCond375) ?RET_HIGH load(1, XDATA, add(CFA_XSP16, literal(-4)))
        CFI (cfiCond375) ?BRET_EXT load(1, XDATA, add(CFA_XSP16, literal(-3)))
        CFI (cfiCond375) DPL0 load(1, XDATA, add(CFA_XSP16, literal(-2)))
        CFI (cfiCond375) DPH0 load(1, XDATA, add(CFA_XSP16, literal(-1)))
        CFI (cfiCond375) CFA_SP SP+0
        CFI (cfiCond375) CFA_XSP16 add(XSP16, 18)
        CFI Block cfiCond376 Using cfiCommon0
        CFI (cfiCond376) NoFunction
        CFI (cfiCond376) Conditional ??CrossCallReturnLabel_195, ??CrossCallReturnLabel_39
        CFI (cfiCond376) R6 load(1, XDATA, add(CFA_XSP16, literal(-18)))
        CFI (cfiCond376) VB load(1, XDATA, add(CFA_XSP16, literal(-17)))
        CFI (cfiCond376) V0 load(1, XDATA, add(CFA_XSP16, literal(-16)))
        CFI (cfiCond376) V1 load(1, XDATA, add(CFA_XSP16, literal(-15)))
        CFI (cfiCond376) V2 load(1, XDATA, add(CFA_XSP16, literal(-14)))
        CFI (cfiCond376) V3 load(1, XDATA, add(CFA_XSP16, literal(-13)))
        CFI (cfiCond376) V4 load(1, XDATA, add(CFA_XSP16, literal(-12)))
        CFI (cfiCond376) V5 load(1, XDATA, add(CFA_XSP16, literal(-11)))
        CFI (cfiCond376) V6 load(1, XDATA, add(CFA_XSP16, literal(-10)))
        CFI (cfiCond376) V7 load(1, XDATA, add(CFA_XSP16, literal(-9)))
        CFI (cfiCond376) V8 load(1, XDATA, add(CFA_XSP16, literal(-8)))
        CFI (cfiCond376) V9 load(1, XDATA, add(CFA_XSP16, literal(-7)))
        CFI (cfiCond376) R7 load(1, XDATA, add(CFA_XSP16, literal(-6)))
        CFI (cfiCond376) ?RET_LOW load(1, XDATA, add(CFA_XSP16, literal(-5)))
        CFI (cfiCond376) ?RET_HIGH load(1, XDATA, add(CFA_XSP16, literal(-4)))
        CFI (cfiCond376) ?BRET_EXT load(1, XDATA, add(CFA_XSP16, literal(-3)))
        CFI (cfiCond376) DPL0 load(1, XDATA, add(CFA_XSP16, literal(-2)))
        CFI (cfiCond376) DPH0 load(1, XDATA, add(CFA_XSP16, literal(-1)))
        CFI (cfiCond376) CFA_SP SP+0
        CFI (cfiCond376) CFA_XSP16 add(XSP16, 18)
        CFI Block cfiCond377 Using cfiCommon0
        CFI (cfiCond377) NoFunction
        CFI (cfiCond377) Conditional ??CrossCallReturnLabel_194, ??CrossCallReturnLabel_2
        CFI (cfiCond377) R6 load(1, XDATA, add(CFA_XSP16, literal(-18)))
        CFI (cfiCond377) VB load(1, XDATA, add(CFA_XSP16, literal(-17)))
        CFI (cfiCond377) V0 load(1, XDATA, add(CFA_XSP16, literal(-16)))
        CFI (cfiCond377) V1 load(1, XDATA, add(CFA_XSP16, literal(-15)))
        CFI (cfiCond377) V2 load(1, XDATA, add(CFA_XSP16, literal(-14)))
        CFI (cfiCond377) V3 load(1, XDATA, add(CFA_XSP16, literal(-13)))
        CFI (cfiCond377) V4 load(1, XDATA, add(CFA_XSP16, literal(-12)))
        CFI (cfiCond377) V5 load(1, XDATA, add(CFA_XSP16, literal(-11)))
        CFI (cfiCond377) V6 load(1, XDATA, add(CFA_XSP16, literal(-10)))
        CFI (cfiCond377) V7 load(1, XDATA, add(CFA_XSP16, literal(-9)))
        CFI (cfiCond377) V8 load(1, XDATA, add(CFA_XSP16, literal(-8)))
        CFI (cfiCond377) V9 load(1, XDATA, add(CFA_XSP16, literal(-7)))
        CFI (cfiCond377) R7 load(1, XDATA, add(CFA_XSP16, literal(-6)))
        CFI (cfiCond377) ?RET_LOW load(1, XDATA, add(CFA_XSP16, literal(-5)))
        CFI (cfiCond377) ?RET_HIGH load(1, XDATA, add(CFA_XSP16, literal(-4)))
        CFI (cfiCond377) ?BRET_EXT load(1, XDATA, add(CFA_XSP16, literal(-3)))
        CFI (cfiCond377) DPL0 load(1, XDATA, add(CFA_XSP16, literal(-2)))
        CFI (cfiCond377) DPH0 load(1, XDATA, add(CFA_XSP16, literal(-1)))
        CFI (cfiCond377) CFA_SP SP+0
        CFI (cfiCond377) CFA_XSP16 add(XSP16, 18)
        CFI Block cfiCond378 Using cfiCommon0
        CFI (cfiCond378) NoFunction
        CFI (cfiCond378) Conditional ??CrossCallReturnLabel_194, ??CrossCallReturnLabel_3
        CFI (cfiCond378) R6 load(1, XDATA, add(CFA_XSP16, literal(-18)))
        CFI (cfiCond378) VB load(1, XDATA, add(CFA_XSP16, literal(-17)))
        CFI (cfiCond378) V0 load(1, XDATA, add(CFA_XSP16, literal(-16)))
        CFI (cfiCond378) V1 load(1, XDATA, add(CFA_XSP16, literal(-15)))
        CFI (cfiCond378) V2 load(1, XDATA, add(CFA_XSP16, literal(-14)))
        CFI (cfiCond378) V3 load(1, XDATA, add(CFA_XSP16, literal(-13)))
        CFI (cfiCond378) V4 load(1, XDATA, add(CFA_XSP16, literal(-12)))
        CFI (cfiCond378) V5 load(1, XDATA, add(CFA_XSP16, literal(-11)))
        CFI (cfiCond378) V6 load(1, XDATA, add(CFA_XSP16, literal(-10)))
        CFI (cfiCond378) V7 load(1, XDATA, add(CFA_XSP16, literal(-9)))
        CFI (cfiCond378) V8 load(1, XDATA, add(CFA_XSP16, literal(-8)))
        CFI (cfiCond378) V9 load(1, XDATA, add(CFA_XSP16, literal(-7)))
        CFI (cfiCond378) R7 load(1, XDATA, add(CFA_XSP16, literal(-6)))
        CFI (cfiCond378) ?RET_LOW load(1, XDATA, add(CFA_XSP16, literal(-5)))
        CFI (cfiCond378) ?RET_HIGH load(1, XDATA, add(CFA_XSP16, literal(-4)))
        CFI (cfiCond378) ?BRET_EXT load(1, XDATA, add(CFA_XSP16, literal(-3)))
        CFI (cfiCond378) DPL0 load(1, XDATA, add(CFA_XSP16, literal(-2)))
        CFI (cfiCond378) DPH0 load(1, XDATA, add(CFA_XSP16, literal(-1)))
        CFI (cfiCond378) CFA_SP SP+0
        CFI (cfiCond378) CFA_XSP16 add(XSP16, 18)
        CFI Block cfiCond379 Using cfiCommon0
        CFI (cfiCond379) NoFunction
        CFI (cfiCond379) Conditional ??CrossCallReturnLabel_196, ??CrossCallReturnLabel_0
        CFI (cfiCond379) R6 load(1, XDATA, add(CFA_XSP16, literal(-16)))
        CFI (cfiCond379) VB load(1, XDATA, add(CFA_XSP16, literal(-15)))
        CFI (cfiCond379) V0 load(1, XDATA, add(CFA_XSP16, literal(-14)))
        CFI (cfiCond379) V1 load(1, XDATA, add(CFA_XSP16, literal(-13)))
        CFI (cfiCond379) V2 load(1, XDATA, add(CFA_XSP16, literal(-12)))
        CFI (cfiCond379) V3 load(1, XDATA, add(CFA_XSP16, literal(-11)))
        CFI (cfiCond379) V4 load(1, XDATA, add(CFA_XSP16, literal(-10)))
        CFI (cfiCond379) V5 load(1, XDATA, add(CFA_XSP16, literal(-9)))
        CFI (cfiCond379) V6 load(1, XDATA, add(CFA_XSP16, literal(-8)))
        CFI (cfiCond379) V7 load(1, XDATA, add(CFA_XSP16, literal(-7)))
        CFI (cfiCond379) R7 load(1, XDATA, add(CFA_XSP16, literal(-6)))
        CFI (cfiCond379) ?RET_LOW load(1, XDATA, add(CFA_XSP16, literal(-5)))
        CFI (cfiCond379) ?RET_HIGH load(1, XDATA, add(CFA_XSP16, literal(-4)))
        CFI (cfiCond379) ?BRET_EXT load(1, XDATA, add(CFA_XSP16, literal(-3)))
        CFI (cfiCond379) DPL0 load(1, XDATA, add(CFA_XSP16, literal(-2)))
        CFI (cfiCond379) DPH0 load(1, XDATA, add(CFA_XSP16, literal(-1)))
        CFI (cfiCond379) CFA_SP SP+0
        CFI (cfiCond379) CFA_XSP16 add(XSP16, 16)
        CFI Block cfiCond380 Using cfiCommon0
        CFI (cfiCond380) NoFunction
        CFI (cfiCond380) Conditional ??CrossCallReturnLabel_196, ??CrossCallReturnLabel_1
        CFI (cfiCond380) R6 load(1, XDATA, add(CFA_XSP16, literal(-16)))
        CFI (cfiCond380) VB load(1, XDATA, add(CFA_XSP16, literal(-15)))
        CFI (cfiCond380) V0 load(1, XDATA, add(CFA_XSP16, literal(-14)))
        CFI (cfiCond380) V1 load(1, XDATA, add(CFA_XSP16, literal(-13)))
        CFI (cfiCond380) V2 load(1, XDATA, add(CFA_XSP16, literal(-12)))
        CFI (cfiCond380) V3 load(1, XDATA, add(CFA_XSP16, literal(-11)))
        CFI (cfiCond380) V4 load(1, XDATA, add(CFA_XSP16, literal(-10)))
        CFI (cfiCond380) V5 load(1, XDATA, add(CFA_XSP16, literal(-9)))
        CFI (cfiCond380) V6 load(1, XDATA, add(CFA_XSP16, literal(-8)))
        CFI (cfiCond380) V7 load(1, XDATA, add(CFA_XSP16, literal(-7)))
        CFI (cfiCond380) R7 load(1, XDATA, add(CFA_XSP16, literal(-6)))
        CFI (cfiCond380) ?RET_LOW load(1, XDATA, add(CFA_XSP16, literal(-5)))
        CFI (cfiCond380) ?RET_HIGH load(1, XDATA, add(CFA_XSP16, literal(-4)))
        CFI (cfiCond380) ?BRET_EXT load(1, XDATA, add(CFA_XSP16, literal(-3)))
        CFI (cfiCond380) DPL0 load(1, XDATA, add(CFA_XSP16, literal(-2)))
        CFI (cfiCond380) DPH0 load(1, XDATA, add(CFA_XSP16, literal(-1)))
        CFI (cfiCond380) CFA_SP SP+0
        CFI (cfiCond380) CFA_XSP16 add(XSP16, 16)
        CFI Block cfiCond381 Using cfiCommon0
        CFI (cfiCond381) NoFunction
        CFI (cfiCond381) Conditional ??CrossCallReturnLabel_197, ??CrossCallReturnLabel_8
        CFI (cfiCond381) R6 load(1, XDATA, add(CFA_XSP16, literal(-10)))
        CFI (cfiCond381) VB load(1, XDATA, add(CFA_XSP16, literal(-9)))
        CFI (cfiCond381) V0 load(1, XDATA, add(CFA_XSP16, literal(-8)))
        CFI (cfiCond381) V1 load(1, XDATA, add(CFA_XSP16, literal(-7)))
        CFI (cfiCond381) R7 load(1, XDATA, add(CFA_XSP16, literal(-6)))
        CFI (cfiCond381) ?RET_LOW load(1, XDATA, add(CFA_XSP16, literal(-5)))
        CFI (cfiCond381) ?RET_HIGH load(1, XDATA, add(CFA_XSP16, literal(-4)))
        CFI (cfiCond381) ?BRET_EXT load(1, XDATA, add(CFA_XSP16, literal(-3)))
        CFI (cfiCond381) DPL0 load(1, XDATA, add(CFA_XSP16, literal(-2)))
        CFI (cfiCond381) DPH0 load(1, XDATA, add(CFA_XSP16, literal(-1)))
        CFI (cfiCond381) CFA_SP SP+0
        CFI (cfiCond381) CFA_XSP16 add(XSP16, 10)
        CFI Block cfiCond382 Using cfiCommon0
        CFI (cfiCond382) NoFunction
        CFI (cfiCond382) Conditional ??CrossCallReturnLabel_197, ??CrossCallReturnLabel_9
        CFI (cfiCond382) R6 load(1, XDATA, add(CFA_XSP16, literal(-20)))
        CFI (cfiCond382) VB load(1, XDATA, add(CFA_XSP16, literal(-19)))
        CFI (cfiCond382) V0 load(1, XDATA, add(CFA_XSP16, literal(-18)))
        CFI (cfiCond382) V1 load(1, XDATA, add(CFA_XSP16, literal(-17)))
        CFI (cfiCond382) V2 load(1, XDATA, add(CFA_XSP16, literal(-16)))
        CFI (cfiCond382) V3 load(1, XDATA, add(CFA_XSP16, literal(-15)))
        CFI (cfiCond382) V4 load(1, XDATA, add(CFA_XSP16, literal(-14)))
        CFI (cfiCond382) V5 load(1, XDATA, add(CFA_XSP16, literal(-13)))
        CFI (cfiCond382) V6 load(1, XDATA, add(CFA_XSP16, literal(-12)))
        CFI (cfiCond382) V7 load(1, XDATA, add(CFA_XSP16, literal(-11)))
        CFI (cfiCond382) V8 load(1, XDATA, add(CFA_XSP16, literal(-10)))
        CFI (cfiCond382) V9 load(1, XDATA, add(CFA_XSP16, literal(-9)))
        CFI (cfiCond382) V10 load(1, XDATA, add(CFA_XSP16, literal(-8)))
        CFI (cfiCond382) V11 load(1, XDATA, add(CFA_XSP16, literal(-7)))
        CFI (cfiCond382) R7 load(1, XDATA, add(CFA_XSP16, literal(-6)))
        CFI (cfiCond382) ?RET_LOW load(1, XDATA, add(CFA_XSP16, literal(-5)))
        CFI (cfiCond382) ?RET_HIGH load(1, XDATA, add(CFA_XSP16, literal(-4)))
        CFI (cfiCond382) ?BRET_EXT load(1, XDATA, add(CFA_XSP16, literal(-3)))
        CFI (cfiCond382) DPL0 load(1, XDATA, add(CFA_XSP16, literal(-2)))
        CFI (cfiCond382) DPH0 load(1, XDATA, add(CFA_XSP16, literal(-1)))
        CFI (cfiCond382) CFA_SP SP+0
        CFI (cfiCond382) CFA_XSP16 add(XSP16, 21)
        CFI Block cfiPicker383 Using cfiCommon1
        CFI (cfiPicker383) NoFunction
        CFI (cfiPicker383) Picker
        MOVX    A,@DPTR
        CFI EndBlock cfiCond363
        CFI EndBlock cfiCond364
        CFI EndBlock cfiCond365
        CFI EndBlock cfiCond366
        CFI EndBlock cfiCond367
        CFI EndBlock cfiCond368
        CFI EndBlock cfiCond369
        CFI EndBlock cfiCond370
        CFI EndBlock cfiCond371
        CFI EndBlock cfiCond372
        CFI EndBlock cfiCond373
        CFI EndBlock cfiCond374
        CFI EndBlock cfiCond375
        CFI EndBlock cfiCond376
        CFI EndBlock cfiCond377
        CFI EndBlock cfiCond378
        CFI EndBlock cfiCond379
        CFI EndBlock cfiCond380
        CFI EndBlock cfiCond381
        CFI EndBlock cfiCond382
        CFI EndBlock cfiPicker383
        REQUIRE ??Subroutine105_0
        ; // Fall through to label ??Subroutine105_0

        RSEG BANKED_CODE:CODE:NOROOT(0)
??Subroutine105_0:
        CFI Block cfiCond384 Using cfiCommon0
        CFI NoFunction
        CFI Conditional ??CrossCallReturnLabel_189
        CFI R6 load(1, XDATA, add(CFA_XSP16, literal(-18)))
        CFI VB load(1, XDATA, add(CFA_XSP16, literal(-17)))
        CFI V0 load(1, XDATA, add(CFA_XSP16, literal(-16)))
        CFI V1 load(1, XDATA, add(CFA_XSP16, literal(-15)))
        CFI V2 load(1, XDATA, add(CFA_XSP16, literal(-14)))
        CFI V3 load(1, XDATA, add(CFA_XSP16, literal(-13)))
        CFI V4 load(1, XDATA, add(CFA_XSP16, literal(-12)))
        CFI V5 load(1, XDATA, add(CFA_XSP16, literal(-11)))
        CFI V6 load(1, XDATA, add(CFA_XSP16, literal(-10)))
        CFI V7 load(1, XDATA, add(CFA_XSP16, literal(-9)))
        CFI V8 load(1, XDATA, add(CFA_XSP16, literal(-8)))
        CFI V9 load(1, XDATA, add(CFA_XSP16, literal(-7)))
        CFI R7 load(1, XDATA, add(CFA_XSP16, literal(-6)))
        CFI ?RET_LOW load(1, XDATA, add(CFA_XSP16, literal(-5)))
        CFI ?RET_HIGH load(1, XDATA, add(CFA_XSP16, literal(-4)))
        CFI ?BRET_EXT load(1, XDATA, add(CFA_XSP16, literal(-3)))
        CFI DPL0 load(1, XDATA, add(CFA_XSP16, literal(-2)))
        CFI DPH0 load(1, XDATA, add(CFA_XSP16, literal(-1)))
        CFI CFA_SP SP+0
        CFI CFA_XSP16 add(XSP16, 18)
        CFI Block cfiCond385 Using cfiCommon0
        CFI (cfiCond385) NoFunction
        CFI (cfiCond385) Conditional ??CrossCallReturnLabel_192, ??CrossCallReturnLabel_125
        CFI (cfiCond385) R6 load(1, XDATA, add(CFA_XSP16, literal(-10)))
        CFI (cfiCond385) VB load(1, XDATA, add(CFA_XSP16, literal(-9)))
        CFI (cfiCond385) V0 load(1, XDATA, add(CFA_XSP16, literal(-8)))
        CFI (cfiCond385) V1 load(1, XDATA, add(CFA_XSP16, literal(-7)))
        CFI (cfiCond385) R7 load(1, XDATA, add(CFA_XSP16, literal(-6)))
        CFI (cfiCond385) ?RET_LOW load(1, XDATA, add(CFA_XSP16, literal(-5)))
        CFI (cfiCond385) ?RET_HIGH load(1, XDATA, add(CFA_XSP16, literal(-4)))
        CFI (cfiCond385) ?BRET_EXT load(1, XDATA, add(CFA_XSP16, literal(-3)))
        CFI (cfiCond385) DPL0 load(1, XDATA, add(CFA_XSP16, literal(-2)))
        CFI (cfiCond385) DPH0 load(1, XDATA, add(CFA_XSP16, literal(-1)))
        CFI (cfiCond385) CFA_SP SP+0
        CFI (cfiCond385) CFA_XSP16 add(XSP16, 10)
        CFI Block cfiCond386 Using cfiCommon0
        CFI (cfiCond386) NoFunction
        CFI (cfiCond386) Conditional ??CrossCallReturnLabel_192, ??CrossCallReturnLabel_126
        CFI (cfiCond386) R6 load(1, XDATA, add(CFA_XSP16, literal(-10)))
        CFI (cfiCond386) VB load(1, XDATA, add(CFA_XSP16, literal(-9)))
        CFI (cfiCond386) V0 load(1, XDATA, add(CFA_XSP16, literal(-8)))
        CFI (cfiCond386) V1 load(1, XDATA, add(CFA_XSP16, literal(-7)))
        CFI (cfiCond386) R7 load(1, XDATA, add(CFA_XSP16, literal(-6)))
        CFI (cfiCond386) ?RET_LOW load(1, XDATA, add(CFA_XSP16, literal(-5)))
        CFI (cfiCond386) ?RET_HIGH load(1, XDATA, add(CFA_XSP16, literal(-4)))
        CFI (cfiCond386) ?BRET_EXT load(1, XDATA, add(CFA_XSP16, literal(-3)))
        CFI (cfiCond386) DPL0 load(1, XDATA, add(CFA_XSP16, literal(-2)))
        CFI (cfiCond386) DPH0 load(1, XDATA, add(CFA_XSP16, literal(-1)))
        CFI (cfiCond386) CFA_SP SP+0
        CFI (cfiCond386) CFA_XSP16 add(XSP16, 10)
        CFI Block cfiCond387 Using cfiCommon0
        CFI (cfiCond387) NoFunction
        CFI (cfiCond387) Conditional ??CrossCallReturnLabel_192, ??CrossCallReturnLabel_127
        CFI (cfiCond387) R6 load(1, XDATA, add(CFA_XSP16, literal(-10)))
        CFI (cfiCond387) VB load(1, XDATA, add(CFA_XSP16, literal(-9)))
        CFI (cfiCond387) V0 load(1, XDATA, add(CFA_XSP16, literal(-8)))
        CFI (cfiCond387) V1 load(1, XDATA, add(CFA_XSP16, literal(-7)))
        CFI (cfiCond387) R7 load(1, XDATA, add(CFA_XSP16, literal(-6)))
        CFI (cfiCond387) ?RET_LOW load(1, XDATA, add(CFA_XSP16, literal(-5)))
        CFI (cfiCond387) ?RET_HIGH load(1, XDATA, add(CFA_XSP16, literal(-4)))
        CFI (cfiCond387) ?BRET_EXT load(1, XDATA, add(CFA_XSP16, literal(-3)))
        CFI (cfiCond387) DPL0 load(1, XDATA, add(CFA_XSP16, literal(-2)))
        CFI (cfiCond387) DPH0 load(1, XDATA, add(CFA_XSP16, literal(-1)))
        CFI (cfiCond387) CFA_SP SP+0
        CFI (cfiCond387) CFA_XSP16 add(XSP16, 10)
        CFI Block cfiCond388 Using cfiCommon0
        CFI (cfiCond388) NoFunction
        CFI (cfiCond388) Conditional ??CrossCallReturnLabel_190, ??CrossCallReturnLabel_2
        CFI (cfiCond388) R6 load(1, XDATA, add(CFA_XSP16, literal(-18)))
        CFI (cfiCond388) VB load(1, XDATA, add(CFA_XSP16, literal(-17)))
        CFI (cfiCond388) V0 load(1, XDATA, add(CFA_XSP16, literal(-16)))
        CFI (cfiCond388) V1 load(1, XDATA, add(CFA_XSP16, literal(-15)))
        CFI (cfiCond388) V2 load(1, XDATA, add(CFA_XSP16, literal(-14)))
        CFI (cfiCond388) V3 load(1, XDATA, add(CFA_XSP16, literal(-13)))
        CFI (cfiCond388) V4 load(1, XDATA, add(CFA_XSP16, literal(-12)))
        CFI (cfiCond388) V5 load(1, XDATA, add(CFA_XSP16, literal(-11)))
        CFI (cfiCond388) V6 load(1, XDATA, add(CFA_XSP16, literal(-10)))
        CFI (cfiCond388) V7 load(1, XDATA, add(CFA_XSP16, literal(-9)))
        CFI (cfiCond388) V8 load(1, XDATA, add(CFA_XSP16, literal(-8)))
        CFI (cfiCond388) V9 load(1, XDATA, add(CFA_XSP16, literal(-7)))
        CFI (cfiCond388) R7 load(1, XDATA, add(CFA_XSP16, literal(-6)))
        CFI (cfiCond388) ?RET_LOW load(1, XDATA, add(CFA_XSP16, literal(-5)))
        CFI (cfiCond388) ?RET_HIGH load(1, XDATA, add(CFA_XSP16, literal(-4)))
        CFI (cfiCond388) ?BRET_EXT load(1, XDATA, add(CFA_XSP16, literal(-3)))
        CFI (cfiCond388) DPL0 load(1, XDATA, add(CFA_XSP16, literal(-2)))
        CFI (cfiCond388) DPH0 load(1, XDATA, add(CFA_XSP16, literal(-1)))
        CFI (cfiCond388) CFA_SP SP+0
        CFI (cfiCond388) CFA_XSP16 add(XSP16, 18)
        CFI Block cfiCond389 Using cfiCommon0
        CFI (cfiCond389) NoFunction
        CFI (cfiCond389) Conditional ??CrossCallReturnLabel_190, ??CrossCallReturnLabel_3
        CFI (cfiCond389) R6 load(1, XDATA, add(CFA_XSP16, literal(-18)))
        CFI (cfiCond389) VB load(1, XDATA, add(CFA_XSP16, literal(-17)))
        CFI (cfiCond389) V0 load(1, XDATA, add(CFA_XSP16, literal(-16)))
        CFI (cfiCond389) V1 load(1, XDATA, add(CFA_XSP16, literal(-15)))
        CFI (cfiCond389) V2 load(1, XDATA, add(CFA_XSP16, literal(-14)))
        CFI (cfiCond389) V3 load(1, XDATA, add(CFA_XSP16, literal(-13)))
        CFI (cfiCond389) V4 load(1, XDATA, add(CFA_XSP16, literal(-12)))
        CFI (cfiCond389) V5 load(1, XDATA, add(CFA_XSP16, literal(-11)))
        CFI (cfiCond389) V6 load(1, XDATA, add(CFA_XSP16, literal(-10)))
        CFI (cfiCond389) V7 load(1, XDATA, add(CFA_XSP16, literal(-9)))
        CFI (cfiCond389) V8 load(1, XDATA, add(CFA_XSP16, literal(-8)))
        CFI (cfiCond389) V9 load(1, XDATA, add(CFA_XSP16, literal(-7)))
        CFI (cfiCond389) R7 load(1, XDATA, add(CFA_XSP16, literal(-6)))
        CFI (cfiCond389) ?RET_LOW load(1, XDATA, add(CFA_XSP16, literal(-5)))
        CFI (cfiCond389) ?RET_HIGH load(1, XDATA, add(CFA_XSP16, literal(-4)))
        CFI (cfiCond389) ?BRET_EXT load(1, XDATA, add(CFA_XSP16, literal(-3)))
        CFI (cfiCond389) DPL0 load(1, XDATA, add(CFA_XSP16, literal(-2)))
        CFI (cfiCond389) DPH0 load(1, XDATA, add(CFA_XSP16, literal(-1)))
        CFI (cfiCond389) CFA_SP SP+0
        CFI (cfiCond389) CFA_XSP16 add(XSP16, 18)
        CFI Block cfiCond390 Using cfiCommon0
        CFI (cfiCond390) NoFunction
        CFI (cfiCond390) Conditional ??CrossCallReturnLabel_193, ??CrossCallReturnLabel_187
        CFI (cfiCond390) R6 load(1, XDATA, add(CFA_XSP16, literal(-20)))
        CFI (cfiCond390) VB load(1, XDATA, add(CFA_XSP16, literal(-19)))
        CFI (cfiCond390) V0 load(1, XDATA, add(CFA_XSP16, literal(-18)))
        CFI (cfiCond390) V1 load(1, XDATA, add(CFA_XSP16, literal(-17)))
        CFI (cfiCond390) V2 load(1, XDATA, add(CFA_XSP16, literal(-16)))
        CFI (cfiCond390) V3 load(1, XDATA, add(CFA_XSP16, literal(-15)))
        CFI (cfiCond390) V4 load(1, XDATA, add(CFA_XSP16, literal(-14)))
        CFI (cfiCond390) V5 load(1, XDATA, add(CFA_XSP16, literal(-13)))
        CFI (cfiCond390) V6 load(1, XDATA, add(CFA_XSP16, literal(-12)))
        CFI (cfiCond390) V7 load(1, XDATA, add(CFA_XSP16, literal(-11)))
        CFI (cfiCond390) V8 load(1, XDATA, add(CFA_XSP16, literal(-10)))
        CFI (cfiCond390) V9 load(1, XDATA, add(CFA_XSP16, literal(-9)))
        CFI (cfiCond390) V10 load(1, XDATA, add(CFA_XSP16, literal(-8)))
        CFI (cfiCond390) V11 load(1, XDATA, add(CFA_XSP16, literal(-7)))
        CFI (cfiCond390) R7 load(1, XDATA, add(CFA_XSP16, literal(-6)))
        CFI (cfiCond390) ?RET_LOW load(1, XDATA, add(CFA_XSP16, literal(-5)))
        CFI (cfiCond390) ?RET_HIGH load(1, XDATA, add(CFA_XSP16, literal(-4)))
        CFI (cfiCond390) ?BRET_EXT load(1, XDATA, add(CFA_XSP16, literal(-3)))
        CFI (cfiCond390) DPL0 load(1, XDATA, add(CFA_XSP16, literal(-2)))
        CFI (cfiCond390) DPH0 load(1, XDATA, add(CFA_XSP16, literal(-1)))
        CFI (cfiCond390) CFA_SP SP+0
        CFI (cfiCond390) CFA_XSP16 add(XSP16, 21)
        CFI Block cfiCond391 Using cfiCommon0
        CFI (cfiCond391) NoFunction
        CFI (cfiCond391) Conditional ??CrossCallReturnLabel_193, ??CrossCallReturnLabel_188
        CFI (cfiCond391) R6 load(1, XDATA, add(CFA_XSP16, literal(-20)))
        CFI (cfiCond391) VB load(1, XDATA, add(CFA_XSP16, literal(-19)))
        CFI (cfiCond391) V0 load(1, XDATA, add(CFA_XSP16, literal(-18)))
        CFI (cfiCond391) V1 load(1, XDATA, add(CFA_XSP16, literal(-17)))
        CFI (cfiCond391) V2 load(1, XDATA, add(CFA_XSP16, literal(-16)))
        CFI (cfiCond391) V3 load(1, XDATA, add(CFA_XSP16, literal(-15)))
        CFI (cfiCond391) V4 load(1, XDATA, add(CFA_XSP16, literal(-14)))
        CFI (cfiCond391) V5 load(1, XDATA, add(CFA_XSP16, literal(-13)))
        CFI (cfiCond391) V6 load(1, XDATA, add(CFA_XSP16, literal(-12)))
        CFI (cfiCond391) V7 load(1, XDATA, add(CFA_XSP16, literal(-11)))
        CFI (cfiCond391) V8 load(1, XDATA, add(CFA_XSP16, literal(-10)))
        CFI (cfiCond391) V9 load(1, XDATA, add(CFA_XSP16, literal(-9)))
        CFI (cfiCond391) V10 load(1, XDATA, add(CFA_XSP16, literal(-8)))
        CFI (cfiCond391) V11 load(1, XDATA, add(CFA_XSP16, literal(-7)))
        CFI (cfiCond391) R7 load(1, XDATA, add(CFA_XSP16, literal(-6)))
        CFI (cfiCond391) ?RET_LOW load(1, XDATA, add(CFA_XSP16, literal(-5)))
        CFI (cfiCond391) ?RET_HIGH load(1, XDATA, add(CFA_XSP16, literal(-4)))
        CFI (cfiCond391) ?BRET_EXT load(1, XDATA, add(CFA_XSP16, literal(-3)))
        CFI (cfiCond391) DPL0 load(1, XDATA, add(CFA_XSP16, literal(-2)))
        CFI (cfiCond391) DPH0 load(1, XDATA, add(CFA_XSP16, literal(-1)))
        CFI (cfiCond391) CFA_SP SP+0
        CFI (cfiCond391) CFA_XSP16 add(XSP16, 21)
        CFI Block cfiCond392 Using cfiCommon0
        CFI (cfiCond392) NoFunction
        CFI (cfiCond392) Conditional ??CrossCallReturnLabel_193, ??CrossCallReturnLabel_184
        CFI (cfiCond392) R6 load(1, XDATA, add(CFA_XSP16, literal(-18)))
        CFI (cfiCond392) VB load(1, XDATA, add(CFA_XSP16, literal(-17)))
        CFI (cfiCond392) V0 load(1, XDATA, add(CFA_XSP16, literal(-16)))
        CFI (cfiCond392) V1 load(1, XDATA, add(CFA_XSP16, literal(-15)))
        CFI (cfiCond392) V2 load(1, XDATA, add(CFA_XSP16, literal(-14)))
        CFI (cfiCond392) V3 load(1, XDATA, add(CFA_XSP16, literal(-13)))
        CFI (cfiCond392) V4 load(1, XDATA, add(CFA_XSP16, literal(-12)))
        CFI (cfiCond392) V5 load(1, XDATA, add(CFA_XSP16, literal(-11)))
        CFI (cfiCond392) V6 load(1, XDATA, add(CFA_XSP16, literal(-10)))
        CFI (cfiCond392) V7 load(1, XDATA, add(CFA_XSP16, literal(-9)))
        CFI (cfiCond392) V8 load(1, XDATA, add(CFA_XSP16, literal(-8)))
        CFI (cfiCond392) V9 load(1, XDATA, add(CFA_XSP16, literal(-7)))
        CFI (cfiCond392) R7 load(1, XDATA, add(CFA_XSP16, literal(-6)))
        CFI (cfiCond392) ?RET_LOW load(1, XDATA, add(CFA_XSP16, literal(-5)))
        CFI (cfiCond392) ?RET_HIGH load(1, XDATA, add(CFA_XSP16, literal(-4)))
        CFI (cfiCond392) ?BRET_EXT load(1, XDATA, add(CFA_XSP16, literal(-3)))
        CFI (cfiCond392) DPL0 load(1, XDATA, add(CFA_XSP16, literal(-2)))
        CFI (cfiCond392) DPH0 load(1, XDATA, add(CFA_XSP16, literal(-1)))
        CFI (cfiCond392) CFA_SP SP+0
        CFI (cfiCond392) CFA_XSP16 add(XSP16, 18)
        CFI Block cfiCond393 Using cfiCommon0
        CFI (cfiCond393) NoFunction
        CFI (cfiCond393) Conditional ??CrossCallReturnLabel_193, ??CrossCallReturnLabel_185
        CFI (cfiCond393) R6 load(1, XDATA, add(CFA_XSP16, literal(-18)))
        CFI (cfiCond393) VB load(1, XDATA, add(CFA_XSP16, literal(-17)))
        CFI (cfiCond393) V0 load(1, XDATA, add(CFA_XSP16, literal(-16)))
        CFI (cfiCond393) V1 load(1, XDATA, add(CFA_XSP16, literal(-15)))
        CFI (cfiCond393) V2 load(1, XDATA, add(CFA_XSP16, literal(-14)))
        CFI (cfiCond393) V3 load(1, XDATA, add(CFA_XSP16, literal(-13)))
        CFI (cfiCond393) V4 load(1, XDATA, add(CFA_XSP16, literal(-12)))
        CFI (cfiCond393) V5 load(1, XDATA, add(CFA_XSP16, literal(-11)))
        CFI (cfiCond393) V6 load(1, XDATA, add(CFA_XSP16, literal(-10)))
        CFI (cfiCond393) V7 load(1, XDATA, add(CFA_XSP16, literal(-9)))
        CFI (cfiCond393) V8 load(1, XDATA, add(CFA_XSP16, literal(-8)))
        CFI (cfiCond393) V9 load(1, XDATA, add(CFA_XSP16, literal(-7)))
        CFI (cfiCond393) R7 load(1, XDATA, add(CFA_XSP16, literal(-6)))
        CFI (cfiCond393) ?RET_LOW load(1, XDATA, add(CFA_XSP16, literal(-5)))
        CFI (cfiCond393) ?RET_HIGH load(1, XDATA, add(CFA_XSP16, literal(-4)))
        CFI (cfiCond393) ?BRET_EXT load(1, XDATA, add(CFA_XSP16, literal(-3)))
        CFI (cfiCond393) DPL0 load(1, XDATA, add(CFA_XSP16, literal(-2)))
        CFI (cfiCond393) DPH0 load(1, XDATA, add(CFA_XSP16, literal(-1)))
        CFI (cfiCond393) CFA_SP SP+0
        CFI (cfiCond393) CFA_XSP16 add(XSP16, 18)
        CFI Block cfiCond394 Using cfiCommon0
        CFI (cfiCond394) NoFunction
        CFI (cfiCond394) Conditional ??CrossCallReturnLabel_193, ??CrossCallReturnLabel_186
        CFI (cfiCond394) R6 load(1, XDATA, add(CFA_XSP16, literal(-18)))
        CFI (cfiCond394) VB load(1, XDATA, add(CFA_XSP16, literal(-17)))
        CFI (cfiCond394) V0 load(1, XDATA, add(CFA_XSP16, literal(-16)))
        CFI (cfiCond394) V1 load(1, XDATA, add(CFA_XSP16, literal(-15)))
        CFI (cfiCond394) V2 load(1, XDATA, add(CFA_XSP16, literal(-14)))
        CFI (cfiCond394) V3 load(1, XDATA, add(CFA_XSP16, literal(-13)))
        CFI (cfiCond394) V4 load(1, XDATA, add(CFA_XSP16, literal(-12)))
        CFI (cfiCond394) V5 load(1, XDATA, add(CFA_XSP16, literal(-11)))
        CFI (cfiCond394) V6 load(1, XDATA, add(CFA_XSP16, literal(-10)))
        CFI (cfiCond394) V7 load(1, XDATA, add(CFA_XSP16, literal(-9)))
        CFI (cfiCond394) V8 load(1, XDATA, add(CFA_XSP16, literal(-8)))
        CFI (cfiCond394) V9 load(1, XDATA, add(CFA_XSP16, literal(-7)))
        CFI (cfiCond394) R7 load(1, XDATA, add(CFA_XSP16, literal(-6)))
        CFI (cfiCond394) ?RET_LOW load(1, XDATA, add(CFA_XSP16, literal(-5)))
        CFI (cfiCond394) ?RET_HIGH load(1, XDATA, add(CFA_XSP16, literal(-4)))
        CFI (cfiCond394) ?BRET_EXT load(1, XDATA, add(CFA_XSP16, literal(-3)))
        CFI (cfiCond394) DPL0 load(1, XDATA, add(CFA_XSP16, literal(-2)))
        CFI (cfiCond394) DPH0 load(1, XDATA, add(CFA_XSP16, literal(-1)))
        CFI (cfiCond394) CFA_SP SP+0
        CFI (cfiCond394) CFA_XSP16 add(XSP16, 18)
        CFI Block cfiCond395 Using cfiCommon0
        CFI (cfiCond395) NoFunction
        CFI (cfiCond395) Conditional ??CrossCallReturnLabel_191, ??CrossCallReturnLabel_8
        CFI (cfiCond395) R6 load(1, XDATA, add(CFA_XSP16, literal(-10)))
        CFI (cfiCond395) VB load(1, XDATA, add(CFA_XSP16, literal(-9)))
        CFI (cfiCond395) V0 load(1, XDATA, add(CFA_XSP16, literal(-8)))
        CFI (cfiCond395) V1 load(1, XDATA, add(CFA_XSP16, literal(-7)))
        CFI (cfiCond395) R7 load(1, XDATA, add(CFA_XSP16, literal(-6)))
        CFI (cfiCond395) ?RET_LOW load(1, XDATA, add(CFA_XSP16, literal(-5)))
        CFI (cfiCond395) ?RET_HIGH load(1, XDATA, add(CFA_XSP16, literal(-4)))
        CFI (cfiCond395) ?BRET_EXT load(1, XDATA, add(CFA_XSP16, literal(-3)))
        CFI (cfiCond395) DPL0 load(1, XDATA, add(CFA_XSP16, literal(-2)))
        CFI (cfiCond395) DPH0 load(1, XDATA, add(CFA_XSP16, literal(-1)))
        CFI (cfiCond395) CFA_SP SP+0
        CFI (cfiCond395) CFA_XSP16 add(XSP16, 10)
        CFI Block cfiCond396 Using cfiCommon0
        CFI (cfiCond396) NoFunction
        CFI (cfiCond396) Conditional ??CrossCallReturnLabel_191, ??CrossCallReturnLabel_9
        CFI (cfiCond396) R6 load(1, XDATA, add(CFA_XSP16, literal(-20)))
        CFI (cfiCond396) VB load(1, XDATA, add(CFA_XSP16, literal(-19)))
        CFI (cfiCond396) V0 load(1, XDATA, add(CFA_XSP16, literal(-18)))
        CFI (cfiCond396) V1 load(1, XDATA, add(CFA_XSP16, literal(-17)))
        CFI (cfiCond396) V2 load(1, XDATA, add(CFA_XSP16, literal(-16)))
        CFI (cfiCond396) V3 load(1, XDATA, add(CFA_XSP16, literal(-15)))
        CFI (cfiCond396) V4 load(1, XDATA, add(CFA_XSP16, literal(-14)))
        CFI (cfiCond396) V5 load(1, XDATA, add(CFA_XSP16, literal(-13)))
        CFI (cfiCond396) V6 load(1, XDATA, add(CFA_XSP16, literal(-12)))
        CFI (cfiCond396) V7 load(1, XDATA, add(CFA_XSP16, literal(-11)))
        CFI (cfiCond396) V8 load(1, XDATA, add(CFA_XSP16, literal(-10)))
        CFI (cfiCond396) V9 load(1, XDATA, add(CFA_XSP16, literal(-9)))
        CFI (cfiCond396) V10 load(1, XDATA, add(CFA_XSP16, literal(-8)))
        CFI (cfiCond396) V11 load(1, XDATA, add(CFA_XSP16, literal(-7)))
        CFI (cfiCond396) R7 load(1, XDATA, add(CFA_XSP16, literal(-6)))
        CFI (cfiCond396) ?RET_LOW load(1, XDATA, add(CFA_XSP16, literal(-5)))
        CFI (cfiCond396) ?RET_HIGH load(1, XDATA, add(CFA_XSP16, literal(-4)))
        CFI (cfiCond396) ?BRET_EXT load(1, XDATA, add(CFA_XSP16, literal(-3)))
        CFI (cfiCond396) DPL0 load(1, XDATA, add(CFA_XSP16, literal(-2)))
        CFI (cfiCond396) DPH0 load(1, XDATA, add(CFA_XSP16, literal(-1)))
        CFI (cfiCond396) CFA_SP SP+0
        CFI (cfiCond396) CFA_XSP16 add(XSP16, 21)
        CFI Block cfiCond397 Using cfiCommon0
        CFI (cfiCond397) NoFunction
        CFI (cfiCond397) Conditional ??CrossCallReturnLabel_195, ??CrossCallReturnLabel_38
        CFI (cfiCond397) R6 load(1, XDATA, add(CFA_XSP16, literal(-18)))
        CFI (cfiCond397) VB load(1, XDATA, add(CFA_XSP16, literal(-17)))
        CFI (cfiCond397) V0 load(1, XDATA, add(CFA_XSP16, literal(-16)))
        CFI (cfiCond397) V1 load(1, XDATA, add(CFA_XSP16, literal(-15)))
        CFI (cfiCond397) V2 load(1, XDATA, add(CFA_XSP16, literal(-14)))
        CFI (cfiCond397) V3 load(1, XDATA, add(CFA_XSP16, literal(-13)))
        CFI (cfiCond397) V4 load(1, XDATA, add(CFA_XSP16, literal(-12)))
        CFI (cfiCond397) V5 load(1, XDATA, add(CFA_XSP16, literal(-11)))
        CFI (cfiCond397) V6 load(1, XDATA, add(CFA_XSP16, literal(-10)))
        CFI (cfiCond397) V7 load(1, XDATA, add(CFA_XSP16, literal(-9)))
        CFI (cfiCond397) V8 load(1, XDATA, add(CFA_XSP16, literal(-8)))
        CFI (cfiCond397) V9 load(1, XDATA, add(CFA_XSP16, literal(-7)))
        CFI (cfiCond397) R7 load(1, XDATA, add(CFA_XSP16, literal(-6)))
        CFI (cfiCond397) ?RET_LOW load(1, XDATA, add(CFA_XSP16, literal(-5)))
        CFI (cfiCond397) ?RET_HIGH load(1, XDATA, add(CFA_XSP16, literal(-4)))
        CFI (cfiCond397) ?BRET_EXT load(1, XDATA, add(CFA_XSP16, literal(-3)))
        CFI (cfiCond397) DPL0 load(1, XDATA, add(CFA_XSP16, literal(-2)))
        CFI (cfiCond397) DPH0 load(1, XDATA, add(CFA_XSP16, literal(-1)))
        CFI (cfiCond397) CFA_SP SP+0
        CFI (cfiCond397) CFA_XSP16 add(XSP16, 18)
        CFI Block cfiCond398 Using cfiCommon0
        CFI (cfiCond398) NoFunction
        CFI (cfiCond398) Conditional ??CrossCallReturnLabel_195, ??CrossCallReturnLabel_39
        CFI (cfiCond398) R6 load(1, XDATA, add(CFA_XSP16, literal(-18)))
        CFI (cfiCond398) VB load(1, XDATA, add(CFA_XSP16, literal(-17)))
        CFI (cfiCond398) V0 load(1, XDATA, add(CFA_XSP16, literal(-16)))
        CFI (cfiCond398) V1 load(1, XDATA, add(CFA_XSP16, literal(-15)))
        CFI (cfiCond398) V2 load(1, XDATA, add(CFA_XSP16, literal(-14)))
        CFI (cfiCond398) V3 load(1, XDATA, add(CFA_XSP16, literal(-13)))
        CFI (cfiCond398) V4 load(1, XDATA, add(CFA_XSP16, literal(-12)))
        CFI (cfiCond398) V5 load(1, XDATA, add(CFA_XSP16, literal(-11)))
        CFI (cfiCond398) V6 load(1, XDATA, add(CFA_XSP16, literal(-10)))
        CFI (cfiCond398) V7 load(1, XDATA, add(CFA_XSP16, literal(-9)))
        CFI (cfiCond398) V8 load(1, XDATA, add(CFA_XSP16, literal(-8)))
        CFI (cfiCond398) V9 load(1, XDATA, add(CFA_XSP16, literal(-7)))
        CFI (cfiCond398) R7 load(1, XDATA, add(CFA_XSP16, literal(-6)))
        CFI (cfiCond398) ?RET_LOW load(1, XDATA, add(CFA_XSP16, literal(-5)))
        CFI (cfiCond398) ?RET_HIGH load(1, XDATA, add(CFA_XSP16, literal(-4)))
        CFI (cfiCond398) ?BRET_EXT load(1, XDATA, add(CFA_XSP16, literal(-3)))
        CFI (cfiCond398) DPL0 load(1, XDATA, add(CFA_XSP16, literal(-2)))
        CFI (cfiCond398) DPH0 load(1, XDATA, add(CFA_XSP16, literal(-1)))
        CFI (cfiCond398) CFA_SP SP+0
        CFI (cfiCond398) CFA_XSP16 add(XSP16, 18)
        CFI Block cfiCond399 Using cfiCommon0
        CFI (cfiCond399) NoFunction
        CFI (cfiCond399) Conditional ??CrossCallReturnLabel_194, ??CrossCallReturnLabel_2
        CFI (cfiCond399) R6 load(1, XDATA, add(CFA_XSP16, literal(-18)))
        CFI (cfiCond399) VB load(1, XDATA, add(CFA_XSP16, literal(-17)))
        CFI (cfiCond399) V0 load(1, XDATA, add(CFA_XSP16, literal(-16)))
        CFI (cfiCond399) V1 load(1, XDATA, add(CFA_XSP16, literal(-15)))
        CFI (cfiCond399) V2 load(1, XDATA, add(CFA_XSP16, literal(-14)))
        CFI (cfiCond399) V3 load(1, XDATA, add(CFA_XSP16, literal(-13)))
        CFI (cfiCond399) V4 load(1, XDATA, add(CFA_XSP16, literal(-12)))
        CFI (cfiCond399) V5 load(1, XDATA, add(CFA_XSP16, literal(-11)))
        CFI (cfiCond399) V6 load(1, XDATA, add(CFA_XSP16, literal(-10)))
        CFI (cfiCond399) V7 load(1, XDATA, add(CFA_XSP16, literal(-9)))
        CFI (cfiCond399) V8 load(1, XDATA, add(CFA_XSP16, literal(-8)))
        CFI (cfiCond399) V9 load(1, XDATA, add(CFA_XSP16, literal(-7)))
        CFI (cfiCond399) R7 load(1, XDATA, add(CFA_XSP16, literal(-6)))
        CFI (cfiCond399) ?RET_LOW load(1, XDATA, add(CFA_XSP16, literal(-5)))
        CFI (cfiCond399) ?RET_HIGH load(1, XDATA, add(CFA_XSP16, literal(-4)))
        CFI (cfiCond399) ?BRET_EXT load(1, XDATA, add(CFA_XSP16, literal(-3)))
        CFI (cfiCond399) DPL0 load(1, XDATA, add(CFA_XSP16, literal(-2)))
        CFI (cfiCond399) DPH0 load(1, XDATA, add(CFA_XSP16, literal(-1)))
        CFI (cfiCond399) CFA_SP SP+0
        CFI (cfiCond399) CFA_XSP16 add(XSP16, 18)
        CFI Block cfiCond400 Using cfiCommon0
        CFI (cfiCond400) NoFunction
        CFI (cfiCond400) Conditional ??CrossCallReturnLabel_194, ??CrossCallReturnLabel_3
        CFI (cfiCond400) R6 load(1, XDATA, add(CFA_XSP16, literal(-18)))
        CFI (cfiCond400) VB load(1, XDATA, add(CFA_XSP16, literal(-17)))
        CFI (cfiCond400) V0 load(1, XDATA, add(CFA_XSP16, literal(-16)))
        CFI (cfiCond400) V1 load(1, XDATA, add(CFA_XSP16, literal(-15)))
        CFI (cfiCond400) V2 load(1, XDATA, add(CFA_XSP16, literal(-14)))
        CFI (cfiCond400) V3 load(1, XDATA, add(CFA_XSP16, literal(-13)))
        CFI (cfiCond400) V4 load(1, XDATA, add(CFA_XSP16, literal(-12)))
        CFI (cfiCond400) V5 load(1, XDATA, add(CFA_XSP16, literal(-11)))
        CFI (cfiCond400) V6 load(1, XDATA, add(CFA_XSP16, literal(-10)))
        CFI (cfiCond400) V7 load(1, XDATA, add(CFA_XSP16, literal(-9)))
        CFI (cfiCond400) V8 load(1, XDATA, add(CFA_XSP16, literal(-8)))
        CFI (cfiCond400) V9 load(1, XDATA, add(CFA_XSP16, literal(-7)))
        CFI (cfiCond400) R7 load(1, XDATA, add(CFA_XSP16, literal(-6)))
        CFI (cfiCond400) ?RET_LOW load(1, XDATA, add(CFA_XSP16, literal(-5)))
        CFI (cfiCond400) ?RET_HIGH load(1, XDATA, add(CFA_XSP16, literal(-4)))
        CFI (cfiCond400) ?BRET_EXT load(1, XDATA, add(CFA_XSP16, literal(-3)))
        CFI (cfiCond400) DPL0 load(1, XDATA, add(CFA_XSP16, literal(-2)))
        CFI (cfiCond400) DPH0 load(1, XDATA, add(CFA_XSP16, literal(-1)))
        CFI (cfiCond400) CFA_SP SP+0
        CFI (cfiCond400) CFA_XSP16 add(XSP16, 18)
        CFI Block cfiCond401 Using cfiCommon0
        CFI (cfiCond401) NoFunction
        CFI (cfiCond401) Conditional ??CrossCallReturnLabel_196, ??CrossCallReturnLabel_0
        CFI (cfiCond401) R6 load(1, XDATA, add(CFA_XSP16, literal(-16)))
        CFI (cfiCond401) VB load(1, XDATA, add(CFA_XSP16, literal(-15)))
        CFI (cfiCond401) V0 load(1, XDATA, add(CFA_XSP16, literal(-14)))
        CFI (cfiCond401) V1 load(1, XDATA, add(CFA_XSP16, literal(-13)))
        CFI (cfiCond401) V2 load(1, XDATA, add(CFA_XSP16, literal(-12)))
        CFI (cfiCond401) V3 load(1, XDATA, add(CFA_XSP16, literal(-11)))
        CFI (cfiCond401) V4 load(1, XDATA, add(CFA_XSP16, literal(-10)))
        CFI (cfiCond401) V5 load(1, XDATA, add(CFA_XSP16, literal(-9)))
        CFI (cfiCond401) V6 load(1, XDATA, add(CFA_XSP16, literal(-8)))
        CFI (cfiCond401) V7 load(1, XDATA, add(CFA_XSP16, literal(-7)))
        CFI (cfiCond401) R7 load(1, XDATA, add(CFA_XSP16, literal(-6)))
        CFI (cfiCond401) ?RET_LOW load(1, XDATA, add(CFA_XSP16, literal(-5)))
        CFI (cfiCond401) ?RET_HIGH load(1, XDATA, add(CFA_XSP16, literal(-4)))
        CFI (cfiCond401) ?BRET_EXT load(1, XDATA, add(CFA_XSP16, literal(-3)))
        CFI (cfiCond401) DPL0 load(1, XDATA, add(CFA_XSP16, literal(-2)))
        CFI (cfiCond401) DPH0 load(1, XDATA, add(CFA_XSP16, literal(-1)))
        CFI (cfiCond401) CFA_SP SP+0
        CFI (cfiCond401) CFA_XSP16 add(XSP16, 16)
        CFI Block cfiCond402 Using cfiCommon0
        CFI (cfiCond402) NoFunction
        CFI (cfiCond402) Conditional ??CrossCallReturnLabel_196, ??CrossCallReturnLabel_1
        CFI (cfiCond402) R6 load(1, XDATA, add(CFA_XSP16, literal(-16)))
        CFI (cfiCond402) VB load(1, XDATA, add(CFA_XSP16, literal(-15)))
        CFI (cfiCond402) V0 load(1, XDATA, add(CFA_XSP16, literal(-14)))
        CFI (cfiCond402) V1 load(1, XDATA, add(CFA_XSP16, literal(-13)))
        CFI (cfiCond402) V2 load(1, XDATA, add(CFA_XSP16, literal(-12)))
        CFI (cfiCond402) V3 load(1, XDATA, add(CFA_XSP16, literal(-11)))
        CFI (cfiCond402) V4 load(1, XDATA, add(CFA_XSP16, literal(-10)))
        CFI (cfiCond402) V5 load(1, XDATA, add(CFA_XSP16, literal(-9)))
        CFI (cfiCond402) V6 load(1, XDATA, add(CFA_XSP16, literal(-8)))
        CFI (cfiCond402) V7 load(1, XDATA, add(CFA_XSP16, literal(-7)))
        CFI (cfiCond402) R7 load(1, XDATA, add(CFA_XSP16, literal(-6)))
        CFI (cfiCond402) ?RET_LOW load(1, XDATA, add(CFA_XSP16, literal(-5)))
        CFI (cfiCond402) ?RET_HIGH load(1, XDATA, add(CFA_XSP16, literal(-4)))
        CFI (cfiCond402) ?BRET_EXT load(1, XDATA, add(CFA_XSP16, literal(-3)))
        CFI (cfiCond402) DPL0 load(1, XDATA, add(CFA_XSP16, literal(-2)))
        CFI (cfiCond402) DPH0 load(1, XDATA, add(CFA_XSP16, literal(-1)))
        CFI (cfiCond402) CFA_SP SP+0
        CFI (cfiCond402) CFA_XSP16 add(XSP16, 16)
        CFI Block cfiCond403 Using cfiCommon0
        CFI (cfiCond403) NoFunction
        CFI (cfiCond403) Conditional ??CrossCallReturnLabel_197, ??CrossCallReturnLabel_8
        CFI (cfiCond403) R6 load(1, XDATA, add(CFA_XSP16, literal(-10)))
        CFI (cfiCond403) VB load(1, XDATA, add(CFA_XSP16, literal(-9)))
        CFI (cfiCond403) V0 load(1, XDATA, add(CFA_XSP16, literal(-8)))
        CFI (cfiCond403) V1 load(1, XDATA, add(CFA_XSP16, literal(-7)))
        CFI (cfiCond403) R7 load(1, XDATA, add(CFA_XSP16, literal(-6)))
        CFI (cfiCond403) ?RET_LOW load(1, XDATA, add(CFA_XSP16, literal(-5)))
        CFI (cfiCond403) ?RET_HIGH load(1, XDATA, add(CFA_XSP16, literal(-4)))
        CFI (cfiCond403) ?BRET_EXT load(1, XDATA, add(CFA_XSP16, literal(-3)))
        CFI (cfiCond403) DPL0 load(1, XDATA, add(CFA_XSP16, literal(-2)))
        CFI (cfiCond403) DPH0 load(1, XDATA, add(CFA_XSP16, literal(-1)))
        CFI (cfiCond403) CFA_SP SP+0
        CFI (cfiCond403) CFA_XSP16 add(XSP16, 10)
        CFI Block cfiCond404 Using cfiCommon0
        CFI (cfiCond404) NoFunction
        CFI (cfiCond404) Conditional ??CrossCallReturnLabel_197, ??CrossCallReturnLabel_9
        CFI (cfiCond404) R6 load(1, XDATA, add(CFA_XSP16, literal(-20)))
        CFI (cfiCond404) VB load(1, XDATA, add(CFA_XSP16, literal(-19)))
        CFI (cfiCond404) V0 load(1, XDATA, add(CFA_XSP16, literal(-18)))
        CFI (cfiCond404) V1 load(1, XDATA, add(CFA_XSP16, literal(-17)))
        CFI (cfiCond404) V2 load(1, XDATA, add(CFA_XSP16, literal(-16)))
        CFI (cfiCond404) V3 load(1, XDATA, add(CFA_XSP16, literal(-15)))
        CFI (cfiCond404) V4 load(1, XDATA, add(CFA_XSP16, literal(-14)))
        CFI (cfiCond404) V5 load(1, XDATA, add(CFA_XSP16, literal(-13)))
        CFI (cfiCond404) V6 load(1, XDATA, add(CFA_XSP16, literal(-12)))
        CFI (cfiCond404) V7 load(1, XDATA, add(CFA_XSP16, literal(-11)))
        CFI (cfiCond404) V8 load(1, XDATA, add(CFA_XSP16, literal(-10)))
        CFI (cfiCond404) V9 load(1, XDATA, add(CFA_XSP16, literal(-9)))
        CFI (cfiCond404) V10 load(1, XDATA, add(CFA_XSP16, literal(-8)))
        CFI (cfiCond404) V11 load(1, XDATA, add(CFA_XSP16, literal(-7)))
        CFI (cfiCond404) R7 load(1, XDATA, add(CFA_XSP16, literal(-6)))
        CFI (cfiCond404) ?RET_LOW load(1, XDATA, add(CFA_XSP16, literal(-5)))
        CFI (cfiCond404) ?RET_HIGH load(1, XDATA, add(CFA_XSP16, literal(-4)))
        CFI (cfiCond404) ?BRET_EXT load(1, XDATA, add(CFA_XSP16, literal(-3)))
        CFI (cfiCond404) DPL0 load(1, XDATA, add(CFA_XSP16, literal(-2)))
        CFI (cfiCond404) DPH0 load(1, XDATA, add(CFA_XSP16, literal(-1)))
        CFI (cfiCond404) CFA_SP SP+0
        CFI (cfiCond404) CFA_XSP16 add(XSP16, 21)
        CFI Block cfiPicker405 Using cfiCommon1
        CFI (cfiPicker405) NoFunction
        CFI (cfiPicker405) Picker
        MOV     DPL,R0
        MOV     DPH,R1
        MOVX    @DPTR,A
        INC     DPTR
        INC     R0
        MOV     R1,DPH
        RET
        CFI EndBlock cfiCond384
        CFI EndBlock cfiCond385
        CFI EndBlock cfiCond386
        CFI EndBlock cfiCond387
        CFI EndBlock cfiCond388
        CFI EndBlock cfiCond389
        CFI EndBlock cfiCond390
        CFI EndBlock cfiCond391
        CFI EndBlock cfiCond392
        CFI EndBlock cfiCond393
        CFI EndBlock cfiCond394
        CFI EndBlock cfiCond395
        CFI EndBlock cfiCond396
        CFI EndBlock cfiCond397
        CFI EndBlock cfiCond398
        CFI EndBlock cfiCond399
        CFI EndBlock cfiCond400
        CFI EndBlock cfiCond401
        CFI EndBlock cfiCond402
        CFI EndBlock cfiCond403
        CFI EndBlock cfiCond404
        CFI EndBlock cfiPicker405
// 1593 
// 1594 /*********************************************************************
// 1595  * @fn          ZDP_MgmtBindRsp
// 1596  *
// 1597  * @brief       This builds and send a Mgmt_Bind_rsp message. This
// 1598  *              function sends a unicast message.
// 1599  *
// 1600  * @param       dstAddr - destination address of the message
// 1601  * @param       Status - message status (ZDP_SUCCESS or other)
// 1602  * @param       BindingTableEntries - Total number of entries
// 1603  * @param       StartIndex - Starting index within the reporting list
// 1604  * @param       BindingTableListCount - number of entries included
// 1605  *                                 in this message
// 1606  * @param       BindingTableList - List of Binding Table entries
// 1607  * @param       SecurityEnable - Security Options
// 1608  *
// 1609  * @return      ZStatus_t
// 1610  */

        RSEG BANKED_CODE:CODE:NOROOT(0)
// 1611 ZStatus_t ZDP_MgmtBindRsp( byte TransSeq, zAddrType_t *dstAddr,
ZDP_MgmtBindRsp:
        CFI Block cfiBlock406 Using cfiCommon0
        CFI Function ZDP_MgmtBindRsp
        CODE
// 1612                             byte Status,
// 1613                             byte BindingTableEntries,
// 1614                             byte StartIndex,
// 1615                             byte BindingTableListCount,
// 1616                             apsBindingItem_t *BindingTableList,
// 1617                             byte SecurityEnable )
// 1618 {
        FUNCALL ZDP_MgmtBindRsp, osal_mem_alloc
        LOCFRAME ISTACK, 0, STACK
        LOCFRAME PSTACK, 0, STACK
        LOCFRAME XSTACK, 21, STACK
        LOCFRAME IOVERLAY, 0, STATIC
        LOCFRAME DOVERLAY, 0, STATIC
        ARGFRAME ISTACK, 0, STACK
        ARGFRAME PSTACK, 0, STACK
        ARGFRAME XSTACK, 21, STACK
        ARGFRAME IOVERLAY, 0, STATIC
        ARGFRAME DOVERLAY, 0, STATIC
        FUNCALL ZDP_MgmtBindRsp, sAddrExtCpy
        LOCFRAME ISTACK, 0, STACK
        LOCFRAME PSTACK, 0, STACK
        LOCFRAME XSTACK, 21, STACK
        LOCFRAME IOVERLAY, 0, STATIC
        LOCFRAME DOVERLAY, 0, STATIC
        ARGFRAME ISTACK, 0, STACK
        ARGFRAME PSTACK, 0, STACK
        ARGFRAME XSTACK, 21, STACK
        ARGFRAME IOVERLAY, 0, STATIC
        ARGFRAME DOVERLAY, 0, STATIC
        FUNCALL ZDP_MgmtBindRsp, sAddrExtCpy
        LOCFRAME ISTACK, 0, STACK
        LOCFRAME PSTACK, 0, STACK
        LOCFRAME XSTACK, 21, STACK
        LOCFRAME IOVERLAY, 0, STATIC
        LOCFRAME DOVERLAY, 0, STATIC
        ARGFRAME ISTACK, 0, STACK
        ARGFRAME PSTACK, 0, STACK
        ARGFRAME XSTACK, 21, STACK
        ARGFRAME IOVERLAY, 0, STATIC
        ARGFRAME DOVERLAY, 0, STATIC
        FUNCALL ZDP_MgmtBindRsp, fillAndSend
        LOCFRAME ISTACK, 0, STACK
        LOCFRAME PSTACK, 0, STACK
        LOCFRAME XSTACK, 23, STACK
        LOCFRAME IOVERLAY, 0, STATIC
        LOCFRAME DOVERLAY, 0, STATIC
        ARGFRAME ISTACK, 0, STACK
        ARGFRAME PSTACK, 0, STACK
        ARGFRAME XSTACK, 23, STACK
        ARGFRAME IOVERLAY, 0, STATIC
        ARGFRAME DOVERLAY, 0, STATIC
        FUNCALL ZDP_MgmtBindRsp, osal_mem_free
        LOCFRAME ISTACK, 0, STACK
        LOCFRAME PSTACK, 0, STACK
        LOCFRAME XSTACK, 21, STACK
        LOCFRAME IOVERLAY, 0, STATIC
        LOCFRAME DOVERLAY, 0, STATIC
        ARGFRAME ISTACK, 0, STACK
        ARGFRAME PSTACK, 0, STACK
        ARGFRAME XSTACK, 21, STACK
        ARGFRAME IOVERLAY, 0, STATIC
        ARGFRAME DOVERLAY, 0, STATIC
        MOV     A,#-0x14
        LCALL   ?BANKED_ENTER_XDATA
        CFI DPH0 load(1, XDATA, add(CFA_XSP16, literal(-1)))
        CFI DPL0 load(1, XDATA, add(CFA_XSP16, literal(-2)))
        CFI ?BRET_EXT load(1, XDATA, add(CFA_XSP16, literal(-3)))
        CFI ?RET_HIGH load(1, XDATA, add(CFA_XSP16, literal(-4)))
        CFI ?RET_LOW load(1, XDATA, add(CFA_XSP16, literal(-5)))
        CFI R7 load(1, XDATA, add(CFA_XSP16, literal(-6)))
        CFI V11 load(1, XDATA, add(CFA_XSP16, literal(-7)))
        CFI V10 load(1, XDATA, add(CFA_XSP16, literal(-8)))
        CFI V9 load(1, XDATA, add(CFA_XSP16, literal(-9)))
        CFI V8 load(1, XDATA, add(CFA_XSP16, literal(-10)))
        CFI V7 load(1, XDATA, add(CFA_XSP16, literal(-11)))
        CFI V6 load(1, XDATA, add(CFA_XSP16, literal(-12)))
        CFI V5 load(1, XDATA, add(CFA_XSP16, literal(-13)))
        CFI V4 load(1, XDATA, add(CFA_XSP16, literal(-14)))
        CFI V3 load(1, XDATA, add(CFA_XSP16, literal(-15)))
        CFI V2 load(1, XDATA, add(CFA_XSP16, literal(-16)))
        CFI V1 load(1, XDATA, add(CFA_XSP16, literal(-17)))
        CFI V0 load(1, XDATA, add(CFA_XSP16, literal(-18)))
        CFI VB load(1, XDATA, add(CFA_XSP16, literal(-19)))
        CFI R6 load(1, XDATA, add(CFA_XSP16, literal(-20)))
        CFI CFA_SP SP+0
        CFI CFA_XSP16 add(XSP16, 20)
        ; Saved register size: 20
        ; Auto size: 1
        MOV     A,#-0x1
        LCALL   ?ALLOC_XSTACK8
        CFI CFA_XSP16 add(XSP16, 21)
        MOV     A,R1
        MOV     DPL,?XSP + 0
        MOV     DPH,?XSP + 1
        MOVX    @DPTR,A
        MOV     ?V0 + 10,R2
        MOV     ?V0 + 11,R3
        MOV     ?V0 + 7,R4
        MOV     ?V0 + 6,R5
        MOV     A,#0x15
        LCALL   ?XSTACK_DISP0_8
        MOVX    A,@DPTR
        MOV     ?V0 + 0,A
        MOV     A,#0x16
        LCALL   ?XSTACK_DISP0_8
        MOVX    A,@DPTR
        MOV     ?V0 + 8,A
        MOV     A,#0x17
        LCALL   ?XSTACK_DISP0_8
        LCALL   ??Subroutine108_0 & 0xFFFF
// 1619   uint8 *buf;
// 1620   uint8 *pBuf;
// 1621   uint8 maxLen; // maxLen is the maximum packet length to allocate enough memory space
// 1622   uint8 len;    // Actual length varies due to different addrMode
// 1623   uint8 x;
// 1624   byte extZdpBindEntrySize = ZDP_BINDINGENTRY_SIZE + 1 + 1; // One more byte for cluserID and DstAddrMode
// 1625   byte shortZdpBindEntrySize = ZDP_BINDINGENTRY_SIZE + 1 + 1 + 2 - 8 - 1; // clusterID + DstAddrMode + shortAddr - ExtAddr - DstEndpoint
// 1626 
// 1627   (void)SecurityEnable;  // Intentionally unreferenced parameter
// 1628 
// 1629   // Status + BindingTableEntries + StartIndex + BindingTableListCount.
// 1630   maxLen = 1 + 1 + 1 + 1;
// 1631   maxLen += (BindingTableListCount * extZdpBindEntrySize );  //max length
// 1632   buf = osal_mem_alloc( maxLen + 1 );  // +1 for transaction ID
??CrossCallReturnLabel_227:
        ; Setup parameters for call to function osal_mem_alloc
        MOV     B,#0x15
        MOV     A,?V0 + 8
        MUL     AB
        ADD     A,#0x5
        MOV     R2,A
        CLR     A
        ADDC    A,#0x0
        MOV     R3,A
        LCALL   ??osal_mem_alloc?relay
        MOV     ?V0 + 2,R2
        MOV     ?V0 + 3,R3
// 1633 
// 1634   if ( buf == NULL )
        MOV     A,R2
        ORL     A,?V0 + 3
        JNZ     ??ZDP_MgmtBindRsp_0
// 1635   {
// 1636     return afStatus_MEM_FAIL;
        MOV     R1,#0x10
        LJMP    ??CrossCallReturnLabel_174 & 0xFFFF
// 1637   }
// 1638 
// 1639   pBuf = buf+1;
??ZDP_MgmtBindRsp_0:
        MOV     DPL,R2
        MOV     DPH,R3
        INC     DPTR
        MOV     ?V0 + 4,DPL
        MOV     ?V0 + 5,DPH
// 1640 
// 1641   *pBuf++ = Status;
        MOV     A,?V0 + 7
        MOVX    @DPTR,A
        INC     DPTR
// 1642   *pBuf++ = BindingTableEntries;
        MOV     A,?V0 + 6
        MOVX    @DPTR,A
        INC     DPTR
// 1643   *pBuf++ = StartIndex;
        MOV     A,?V0 + 0
        LCALL   ?Subroutine48 & 0xFFFF
// 1644   *pBuf++ = BindingTableListCount;
// 1645 
// 1646   // Initial length = Status + BindingTableEntries + StartIndex + BindingTableListCount.
// 1647   // length += ZDP_BINDINGENTRY_SIZE   -- Version 1.0
// 1648   //           extZdpBindEntrySize     -- Version 1.1 extended address mode
// 1649   //           shortZdpBindEntrySize   -- Version 1.1 group address mode
// 1650 
// 1651   len = 1 + 1 + 1 + 1;
??CrossCallReturnLabel_241:
        MOV     ?V0 + 0,#0x4
// 1652   for ( x = 0; x < BindingTableListCount; x++ )
        JZ      ??ZDP_MgmtBindRsp_1
        MOV     ?V0 + 1,A
// 1653   {
// 1654     pBuf = osal_cpyExtAddr( pBuf, BindingTableList->srcAddr );
??ZDP_MgmtBindRsp_2:
        ; Setup parameters for call to function sAddrExtCpy
        MOV     A,R6
        MOV     R4,A
        MOV     A,R7
        MOV     R5,A
        LCALL   ??sAddrExtCpy?relay
// 1655     *pBuf++ = BindingTableList->srcEP;
        MOV     DPL,R6
        MOV     DPH,R7
        INC     DPTR
        INC     DPTR
        INC     DPTR
        INC     DPTR
        INC     DPTR
        INC     DPTR
        INC     DPTR
        INC     DPTR
        LCALL   ?Subroutine45 & 0xFFFF
??CrossCallReturnLabel_60:
        MOV     R3,DPH
// 1656 
// 1657     // Cluster ID
// 1658     *pBuf++ = LO_UINT16( BindingTableList->clusterID );
        MOV     A,R6
        ADD     A,#0x9
        MOV     R0,A
        MOV     A,R7
        ADDC    A,#0x0
        MOV     R1,A
        LCALL   ?Subroutine25 & 0xFFFF
// 1659     *pBuf++ = HI_UINT16( BindingTableList->clusterID );
??CrossCallReturnLabel_25:
        INC     DPTR
        LCALL   ?Subroutine36 & 0xFFFF
// 1660 
// 1661     *pBuf++ = BindingTableList->dstAddr.addrMode;
??CrossCallReturnLabel_42:
        ADD     A,#0x13
        MOV     R0,A
        MOV     A,R7
        LCALL   ?Subroutine63 & 0xFFFF
??CrossCallReturnLabel_91:
        LCALL   ?Subroutine36 & 0xFFFF
// 1662     if ( BindingTableList->dstAddr.addrMode == Addr64Bit )
??CrossCallReturnLabel_43:
        ADD     A,#0xb
        MOV     R4,A
        MOV     A,R7
        ADDC    A,#0x0
        MOV     R5,A
        MOV     DPL,R0
        MOV     DPH,R1
        MOVX    A,@DPTR
        XRL     A,#0x3
        JNZ     ??ZDP_MgmtBindRsp_3
// 1663     {
// 1664       len += extZdpBindEntrySize;
        MOV     A,#0x15
        ADD     A,?V0 + 0
        MOV     ?V0 + 0,A
// 1665       pBuf = osal_cpyExtAddr( pBuf, BindingTableList->dstAddr.addr.extAddr );
        ; Setup parameters for call to function sAddrExtCpy
        LCALL   ??sAddrExtCpy?relay
// 1666       *pBuf++ = BindingTableList->dstEP;
        MOV     A,R6
        ADD     A,#0x14
        MOV     DPL,A
        MOV     A,R7
        LCALL   ??Subroutine111_0 & 0xFFFF
// 1667     }
??CrossCallReturnLabel_249:
        LCALL   ?Subroutine45 & 0xFFFF
??CrossCallReturnLabel_61:
        SJMP    ??CrossCallReturnLabel_116
// 1668     else
// 1669     {
// 1670       len += shortZdpBindEntrySize;
??ZDP_MgmtBindRsp_3:
        MOV     A,#0xe
        ADD     A,?V0 + 0
        MOV     ?V0 + 0,A
// 1671       *pBuf++ = LO_UINT16( BindingTableList->dstAddr.addr.shortAddr );
        MOV     DPL,R4
        MOV     DPH,R5
        LCALL   ?Subroutine37 & 0xFFFF
// 1672       *pBuf++ = HI_UINT16( BindingTableList->dstAddr.addr.shortAddr );
??CrossCallReturnLabel_46:
        MOV     DPL,R4
        MOV     DPH,R5
        INC     DPTR
        LCALL   ?Subroutine83 & 0xFFFF
// 1673     }
??CrossCallReturnLabel_116:
        MOV     R3,DPH
// 1674     BindingTableList++;    // Move to next list entry
        MOV     A,R6
        ADD     A,#0x15
        MOV     R6,A
        MOV     A,R7
        ADDC    A,#0x0
        MOV     R7,A
// 1675   }
        DEC     ?V0 + 1
        MOV     A,?V0 + 1
        JNZ     ??ZDP_MgmtBindRsp_2
// 1676 
// 1677   FillAndSendBuffer( &TransSeq, dstAddr, Mgmt_Bind_rsp, len, buf );
??ZDP_MgmtBindRsp_1:
        MOV     DPTR,#ZDP_TmpBuf
        MOV     A,?V0 + 4
        MOVX    @DPTR,A
        INC     DPTR
        MOV     A,?V0 + 5
        MOVX    @DPTR,A
        ; Setup parameters for call to function fillAndSend
        MOV     ?V0 + 4,#0x33
        MOV     ?V0 + 5,#-0x80
        MOV     R0,#?V0 + 4
        LCALL   ?PUSH_XSTACK_I_TWO
        CFI CFA_XSP16 add(XSP16, 23)
        MOV     R1,?V0 + 0
        MOV     R4,?V0 + 10
        MOV     R5,?V0 + 11
        MOV     A,#0x2
        LCALL   ?XSTACK_DISP0_8
        MOV     R2,DPL
        MOV     R3,DPH
        LCALL   ??Subroutine107_0 & 0xFFFF
??CrossCallReturnLabel_220:
        LCALL   ?DEALLOC_XSTACK8
        CFI CFA_XSP16 add(XSP16, 21)
        LCALL   ?Subroutine54 & 0xFFFF
??CrossCallReturnLabel_174:
        LJMP    ?Subroutine7 & 0xFFFF
        CFI EndBlock cfiBlock406
// 1678 }

        RSEG BANKED_CODE:CODE:NOROOT(0)
?Subroutine63:
        CFI Block cfiCond407 Using cfiCommon0
        CFI NoFunction
        CFI Conditional ??CrossCallReturnLabel_89
        CFI R6 load(1, XDATA, add(CFA_XSP16, literal(-12)))
        CFI VB load(1, XDATA, add(CFA_XSP16, literal(-11)))
        CFI V0 load(1, XDATA, add(CFA_XSP16, literal(-10)))
        CFI V1 load(1, XDATA, add(CFA_XSP16, literal(-9)))
        CFI V2 load(1, XDATA, add(CFA_XSP16, literal(-8)))
        CFI V3 load(1, XDATA, add(CFA_XSP16, literal(-7)))
        CFI R7 load(1, XDATA, add(CFA_XSP16, literal(-6)))
        CFI ?RET_LOW load(1, XDATA, add(CFA_XSP16, literal(-5)))
        CFI ?RET_HIGH load(1, XDATA, add(CFA_XSP16, literal(-4)))
        CFI ?BRET_EXT load(1, XDATA, add(CFA_XSP16, literal(-3)))
        CFI DPL0 load(1, XDATA, add(CFA_XSP16, literal(-2)))
        CFI DPH0 load(1, XDATA, add(CFA_XSP16, literal(-1)))
        CFI CFA_SP SP+0
        CFI CFA_XSP16 add(XSP16, 12)
        CFI Block cfiCond408 Using cfiCommon0
        CFI (cfiCond408) NoFunction
        CFI (cfiCond408) Conditional ??CrossCallReturnLabel_90
        CFI (cfiCond408) R6 load(1, XDATA, add(CFA_XSP16, literal(-22)))
        CFI (cfiCond408) VB load(1, XDATA, add(CFA_XSP16, literal(-21)))
        CFI (cfiCond408) V0 load(1, XDATA, add(CFA_XSP16, literal(-20)))
        CFI (cfiCond408) V1 load(1, XDATA, add(CFA_XSP16, literal(-19)))
        CFI (cfiCond408) V2 load(1, XDATA, add(CFA_XSP16, literal(-18)))
        CFI (cfiCond408) V3 load(1, XDATA, add(CFA_XSP16, literal(-17)))
        CFI (cfiCond408) V4 load(1, XDATA, add(CFA_XSP16, literal(-16)))
        CFI (cfiCond408) V5 load(1, XDATA, add(CFA_XSP16, literal(-15)))
        CFI (cfiCond408) V6 load(1, XDATA, add(CFA_XSP16, literal(-14)))
        CFI (cfiCond408) V7 load(1, XDATA, add(CFA_XSP16, literal(-13)))
        CFI (cfiCond408) V8 load(1, XDATA, add(CFA_XSP16, literal(-12)))
        CFI (cfiCond408) V9 load(1, XDATA, add(CFA_XSP16, literal(-11)))
        CFI (cfiCond408) V10 load(1, XDATA, add(CFA_XSP16, literal(-10)))
        CFI (cfiCond408) V11 load(1, XDATA, add(CFA_XSP16, literal(-9)))
        CFI (cfiCond408) V12 load(1, XDATA, add(CFA_XSP16, literal(-8)))
        CFI (cfiCond408) V13 load(1, XDATA, add(CFA_XSP16, literal(-7)))
        CFI (cfiCond408) R7 load(1, XDATA, add(CFA_XSP16, literal(-6)))
        CFI (cfiCond408) ?RET_LOW load(1, XDATA, add(CFA_XSP16, literal(-5)))
        CFI (cfiCond408) ?RET_HIGH load(1, XDATA, add(CFA_XSP16, literal(-4)))
        CFI (cfiCond408) ?BRET_EXT load(1, XDATA, add(CFA_XSP16, literal(-3)))
        CFI (cfiCond408) DPL0 load(1, XDATA, add(CFA_XSP16, literal(-2)))
        CFI (cfiCond408) DPH0 load(1, XDATA, add(CFA_XSP16, literal(-1)))
        CFI (cfiCond408) CFA_SP SP+0
        CFI (cfiCond408) CFA_XSP16 add(XSP16, 23)
        CFI Block cfiCond409 Using cfiCommon0
        CFI (cfiCond409) NoFunction
        CFI (cfiCond409) Conditional ??CrossCallReturnLabel_91
        CFI (cfiCond409) R6 load(1, XDATA, add(CFA_XSP16, literal(-20)))
        CFI (cfiCond409) VB load(1, XDATA, add(CFA_XSP16, literal(-19)))
        CFI (cfiCond409) V0 load(1, XDATA, add(CFA_XSP16, literal(-18)))
        CFI (cfiCond409) V1 load(1, XDATA, add(CFA_XSP16, literal(-17)))
        CFI (cfiCond409) V2 load(1, XDATA, add(CFA_XSP16, literal(-16)))
        CFI (cfiCond409) V3 load(1, XDATA, add(CFA_XSP16, literal(-15)))
        CFI (cfiCond409) V4 load(1, XDATA, add(CFA_XSP16, literal(-14)))
        CFI (cfiCond409) V5 load(1, XDATA, add(CFA_XSP16, literal(-13)))
        CFI (cfiCond409) V6 load(1, XDATA, add(CFA_XSP16, literal(-12)))
        CFI (cfiCond409) V7 load(1, XDATA, add(CFA_XSP16, literal(-11)))
        CFI (cfiCond409) V8 load(1, XDATA, add(CFA_XSP16, literal(-10)))
        CFI (cfiCond409) V9 load(1, XDATA, add(CFA_XSP16, literal(-9)))
        CFI (cfiCond409) V10 load(1, XDATA, add(CFA_XSP16, literal(-8)))
        CFI (cfiCond409) V11 load(1, XDATA, add(CFA_XSP16, literal(-7)))
        CFI (cfiCond409) R7 load(1, XDATA, add(CFA_XSP16, literal(-6)))
        CFI (cfiCond409) ?RET_LOW load(1, XDATA, add(CFA_XSP16, literal(-5)))
        CFI (cfiCond409) ?RET_HIGH load(1, XDATA, add(CFA_XSP16, literal(-4)))
        CFI (cfiCond409) ?BRET_EXT load(1, XDATA, add(CFA_XSP16, literal(-3)))
        CFI (cfiCond409) DPL0 load(1, XDATA, add(CFA_XSP16, literal(-2)))
        CFI (cfiCond409) DPH0 load(1, XDATA, add(CFA_XSP16, literal(-1)))
        CFI (cfiCond409) CFA_SP SP+0
        CFI (cfiCond409) CFA_XSP16 add(XSP16, 21)
        CFI Block cfiCond410 Using cfiCommon0
        CFI (cfiCond410) NoFunction
        CFI (cfiCond410) Conditional ??CrossCallReturnLabel_92
        CFI (cfiCond410) R6 load(1, XDATA, add(CFA_XSP16, literal(-10)))
        CFI (cfiCond410) VB load(1, XDATA, add(CFA_XSP16, literal(-9)))
        CFI (cfiCond410) V0 load(1, XDATA, add(CFA_XSP16, literal(-8)))
        CFI (cfiCond410) V1 load(1, XDATA, add(CFA_XSP16, literal(-7)))
        CFI (cfiCond410) R7 load(1, XDATA, add(CFA_XSP16, literal(-6)))
        CFI (cfiCond410) ?RET_LOW load(1, XDATA, add(CFA_XSP16, literal(-5)))
        CFI (cfiCond410) ?RET_HIGH load(1, XDATA, add(CFA_XSP16, literal(-4)))
        CFI (cfiCond410) ?BRET_EXT load(1, XDATA, add(CFA_XSP16, literal(-3)))
        CFI (cfiCond410) DPL0 load(1, XDATA, add(CFA_XSP16, literal(-2)))
        CFI (cfiCond410) DPH0 load(1, XDATA, add(CFA_XSP16, literal(-1)))
        CFI (cfiCond410) CFA_SP SP+0
        CFI (cfiCond410) CFA_XSP16 add(XSP16, 31)
        CFI Block cfiPicker411 Using cfiCommon1
        CFI (cfiPicker411) NoFunction
        CFI (cfiPicker411) Picker
        ADDC    A,#0x0
        MOV     R1,A
        MOV     DPL,R0
        MOV     DPH,R1
        RET
        CFI EndBlock cfiCond407
        CFI EndBlock cfiCond408
        CFI EndBlock cfiCond409
        CFI EndBlock cfiCond410
        CFI EndBlock cfiPicker411

        RSEG BANKED_CODE:CODE:NOROOT(0)
?Subroutine60:
        CFI Block cfiCond412 Using cfiCommon0
        CFI NoFunction
        CFI Conditional ??CrossCallReturnLabel_198
        CFI R6 load(1, XDATA, add(CFA_XSP16, literal(-14)))
        CFI VB load(1, XDATA, add(CFA_XSP16, literal(-13)))
        CFI V0 load(1, XDATA, add(CFA_XSP16, literal(-12)))
        CFI V1 load(1, XDATA, add(CFA_XSP16, literal(-11)))
        CFI V2 load(1, XDATA, add(CFA_XSP16, literal(-10)))
        CFI V3 load(1, XDATA, add(CFA_XSP16, literal(-9)))
        CFI V4 load(1, XDATA, add(CFA_XSP16, literal(-8)))
        CFI V5 load(1, XDATA, add(CFA_XSP16, literal(-7)))
        CFI R7 load(1, XDATA, add(CFA_XSP16, literal(-6)))
        CFI ?RET_LOW load(1, XDATA, add(CFA_XSP16, literal(-5)))
        CFI ?RET_HIGH load(1, XDATA, add(CFA_XSP16, literal(-4)))
        CFI ?BRET_EXT load(1, XDATA, add(CFA_XSP16, literal(-3)))
        CFI DPL0 load(1, XDATA, add(CFA_XSP16, literal(-2)))
        CFI DPH0 load(1, XDATA, add(CFA_XSP16, literal(-1)))
        CFI CFA_SP SP+0
        CFI CFA_XSP16 add(XSP16, 25)
        CFI Block cfiCond413 Using cfiCommon0
        CFI (cfiCond413) NoFunction
        CFI (cfiCond413) Conditional ??CrossCallReturnLabel_199
        CFI (cfiCond413) R6 load(1, XDATA, add(CFA_XSP16, literal(-10)))
        CFI (cfiCond413) VB load(1, XDATA, add(CFA_XSP16, literal(-9)))
        CFI (cfiCond413) V0 load(1, XDATA, add(CFA_XSP16, literal(-8)))
        CFI (cfiCond413) V1 load(1, XDATA, add(CFA_XSP16, literal(-7)))
        CFI (cfiCond413) R7 load(1, XDATA, add(CFA_XSP16, literal(-6)))
        CFI (cfiCond413) ?RET_LOW load(1, XDATA, add(CFA_XSP16, literal(-5)))
        CFI (cfiCond413) ?RET_HIGH load(1, XDATA, add(CFA_XSP16, literal(-4)))
        CFI (cfiCond413) ?BRET_EXT load(1, XDATA, add(CFA_XSP16, literal(-3)))
        CFI (cfiCond413) DPL0 load(1, XDATA, add(CFA_XSP16, literal(-2)))
        CFI (cfiCond413) DPH0 load(1, XDATA, add(CFA_XSP16, literal(-1)))
        CFI (cfiCond413) CFA_SP SP+0
        CFI (cfiCond413) CFA_XSP16 add(XSP16, 21)
        CFI Block cfiCond414 Using cfiCommon0
        CFI (cfiCond414) NoFunction
        CFI (cfiCond414) Conditional ??CrossCallReturnLabel_199
        CFI (cfiCond414) R6 load(1, XDATA, add(CFA_XSP16, literal(-10)))
        CFI (cfiCond414) VB load(1, XDATA, add(CFA_XSP16, literal(-9)))
        CFI (cfiCond414) V0 load(1, XDATA, add(CFA_XSP16, literal(-8)))
        CFI (cfiCond414) V1 load(1, XDATA, add(CFA_XSP16, literal(-7)))
        CFI (cfiCond414) R7 load(1, XDATA, add(CFA_XSP16, literal(-6)))
        CFI (cfiCond414) ?RET_LOW load(1, XDATA, add(CFA_XSP16, literal(-5)))
        CFI (cfiCond414) ?RET_HIGH load(1, XDATA, add(CFA_XSP16, literal(-4)))
        CFI (cfiCond414) ?BRET_EXT load(1, XDATA, add(CFA_XSP16, literal(-3)))
        CFI (cfiCond414) DPL0 load(1, XDATA, add(CFA_XSP16, literal(-2)))
        CFI (cfiCond414) DPH0 load(1, XDATA, add(CFA_XSP16, literal(-1)))
        CFI (cfiCond414) CFA_SP SP+0
        CFI (cfiCond414) CFA_XSP16 add(XSP16, 21)
        CFI Block cfiCond415 Using cfiCommon0
        CFI (cfiCond415) NoFunction
        CFI (cfiCond415) Conditional ??CrossCallReturnLabel_200
        CFI (cfiCond415) R6 load(1, XDATA, add(CFA_XSP16, literal(-10)))
        CFI (cfiCond415) VB load(1, XDATA, add(CFA_XSP16, literal(-9)))
        CFI (cfiCond415) V0 load(1, XDATA, add(CFA_XSP16, literal(-8)))
        CFI (cfiCond415) V1 load(1, XDATA, add(CFA_XSP16, literal(-7)))
        CFI (cfiCond415) R7 load(1, XDATA, add(CFA_XSP16, literal(-6)))
        CFI (cfiCond415) ?RET_LOW load(1, XDATA, add(CFA_XSP16, literal(-5)))
        CFI (cfiCond415) ?RET_HIGH load(1, XDATA, add(CFA_XSP16, literal(-4)))
        CFI (cfiCond415) ?BRET_EXT load(1, XDATA, add(CFA_XSP16, literal(-3)))
        CFI (cfiCond415) DPL0 load(1, XDATA, add(CFA_XSP16, literal(-2)))
        CFI (cfiCond415) DPH0 load(1, XDATA, add(CFA_XSP16, literal(-1)))
        CFI (cfiCond415) CFA_SP SP+0
        CFI (cfiCond415) CFA_XSP16 add(XSP16, 21)
        CFI Block cfiPicker416 Using cfiCommon1
        CFI (cfiPicker416) NoFunction
        CFI (cfiPicker416) Picker
        MOV     R4,DPL
        MOV     R5,DPH
        CFI EndBlock cfiCond412
        CFI EndBlock cfiCond413
        CFI EndBlock cfiCond414
        CFI EndBlock cfiCond415
        CFI EndBlock cfiPicker416
        REQUIRE ??Subroutine106_0
        ; // Fall through to label ??Subroutine106_0

        RSEG BANKED_CODE:CODE:NOROOT(0)
??Subroutine106_0:
        CFI Block cfiCond417 Using cfiCommon0
        CFI NoFunction
        CFI Conditional ??CrossCallReturnLabel_201
        CFI R6 load(1, XDATA, add(CFA_XSP16, literal(-16)))
        CFI VB load(1, XDATA, add(CFA_XSP16, literal(-15)))
        CFI V0 load(1, XDATA, add(CFA_XSP16, literal(-14)))
        CFI V1 load(1, XDATA, add(CFA_XSP16, literal(-13)))
        CFI V2 load(1, XDATA, add(CFA_XSP16, literal(-12)))
        CFI V3 load(1, XDATA, add(CFA_XSP16, literal(-11)))
        CFI V4 load(1, XDATA, add(CFA_XSP16, literal(-10)))
        CFI V5 load(1, XDATA, add(CFA_XSP16, literal(-9)))
        CFI V6 load(1, XDATA, add(CFA_XSP16, literal(-8)))
        CFI V7 load(1, XDATA, add(CFA_XSP16, literal(-7)))
        CFI R7 load(1, XDATA, add(CFA_XSP16, literal(-6)))
        CFI ?RET_LOW load(1, XDATA, add(CFA_XSP16, literal(-5)))
        CFI ?RET_HIGH load(1, XDATA, add(CFA_XSP16, literal(-4)))
        CFI ?BRET_EXT load(1, XDATA, add(CFA_XSP16, literal(-3)))
        CFI DPL0 load(1, XDATA, add(CFA_XSP16, literal(-2)))
        CFI DPH0 load(1, XDATA, add(CFA_XSP16, literal(-1)))
        CFI CFA_SP SP+0
        CFI CFA_XSP16 add(XSP16, 18)
        CFI Block cfiCond418 Using cfiCommon0
        CFI (cfiCond418) NoFunction
        CFI (cfiCond418) Conditional ??CrossCallReturnLabel_202
        CFI (cfiCond418) R6 load(1, XDATA, add(CFA_XSP16, literal(-19)))
        CFI (cfiCond418) VB load(1, XDATA, add(CFA_XSP16, literal(-18)))
        CFI (cfiCond418) V0 load(1, XDATA, add(CFA_XSP16, literal(-17)))
        CFI (cfiCond418) V1 load(1, XDATA, add(CFA_XSP16, literal(-16)))
        CFI (cfiCond418) V2 load(1, XDATA, add(CFA_XSP16, literal(-15)))
        CFI (cfiCond418) V3 load(1, XDATA, add(CFA_XSP16, literal(-14)))
        CFI (cfiCond418) V4 load(1, XDATA, add(CFA_XSP16, literal(-13)))
        CFI (cfiCond418) V5 load(1, XDATA, add(CFA_XSP16, literal(-12)))
        CFI (cfiCond418) V6 load(1, XDATA, add(CFA_XSP16, literal(-11)))
        CFI (cfiCond418) V7 load(1, XDATA, add(CFA_XSP16, literal(-10)))
        CFI (cfiCond418) V8 load(1, XDATA, add(CFA_XSP16, literal(-9)))
        CFI (cfiCond418) V9 load(1, XDATA, add(CFA_XSP16, literal(-8)))
        CFI (cfiCond418) V10 load(1, XDATA, add(CFA_XSP16, literal(-7)))
        CFI (cfiCond418) R7 load(1, XDATA, add(CFA_XSP16, literal(-6)))
        CFI (cfiCond418) ?RET_LOW load(1, XDATA, add(CFA_XSP16, literal(-5)))
        CFI (cfiCond418) ?RET_HIGH load(1, XDATA, add(CFA_XSP16, literal(-4)))
        CFI (cfiCond418) ?BRET_EXT load(1, XDATA, add(CFA_XSP16, literal(-3)))
        CFI (cfiCond418) DPL0 load(1, XDATA, add(CFA_XSP16, literal(-2)))
        CFI (cfiCond418) DPH0 load(1, XDATA, add(CFA_XSP16, literal(-1)))
        CFI (cfiCond418) CFA_SP SP+0
        CFI (cfiCond418) CFA_XSP16 add(XSP16, 21)
        CFI Block cfiCond419 Using cfiCommon0
        CFI (cfiCond419) NoFunction
        CFI (cfiCond419) Conditional ??CrossCallReturnLabel_203
        CFI (cfiCond419) R6 load(1, XDATA, add(CFA_XSP16, literal(-24)))
        CFI (cfiCond419) VB load(1, XDATA, add(CFA_XSP16, literal(-23)))
        CFI (cfiCond419) V0 load(1, XDATA, add(CFA_XSP16, literal(-22)))
        CFI (cfiCond419) V1 load(1, XDATA, add(CFA_XSP16, literal(-21)))
        CFI (cfiCond419) V2 load(1, XDATA, add(CFA_XSP16, literal(-20)))
        CFI (cfiCond419) V3 load(1, XDATA, add(CFA_XSP16, literal(-19)))
        CFI (cfiCond419) V4 load(1, XDATA, add(CFA_XSP16, literal(-18)))
        CFI (cfiCond419) V5 load(1, XDATA, add(CFA_XSP16, literal(-17)))
        CFI (cfiCond419) V6 load(1, XDATA, add(CFA_XSP16, literal(-16)))
        CFI (cfiCond419) V7 load(1, XDATA, add(CFA_XSP16, literal(-15)))
        CFI (cfiCond419) V8 load(1, XDATA, add(CFA_XSP16, literal(-14)))
        CFI (cfiCond419) V9 load(1, XDATA, add(CFA_XSP16, literal(-13)))
        CFI (cfiCond419) V10 load(1, XDATA, add(CFA_XSP16, literal(-12)))
        CFI (cfiCond419) V11 load(1, XDATA, add(CFA_XSP16, literal(-11)))
        CFI (cfiCond419) V12 load(1, XDATA, add(CFA_XSP16, literal(-10)))
        CFI (cfiCond419) V13 load(1, XDATA, add(CFA_XSP16, literal(-9)))
        CFI (cfiCond419) V14 load(1, XDATA, add(CFA_XSP16, literal(-8)))
        CFI (cfiCond419) V15 load(1, XDATA, add(CFA_XSP16, literal(-7)))
        CFI (cfiCond419) R7 load(1, XDATA, add(CFA_XSP16, literal(-6)))
        CFI (cfiCond419) ?RET_LOW load(1, XDATA, add(CFA_XSP16, literal(-5)))
        CFI (cfiCond419) ?RET_HIGH load(1, XDATA, add(CFA_XSP16, literal(-4)))
        CFI (cfiCond419) ?BRET_EXT load(1, XDATA, add(CFA_XSP16, literal(-3)))
        CFI (cfiCond419) DPL0 load(1, XDATA, add(CFA_XSP16, literal(-2)))
        CFI (cfiCond419) DPH0 load(1, XDATA, add(CFA_XSP16, literal(-1)))
        CFI (cfiCond419) CFA_SP SP+0
        CFI (cfiCond419) CFA_XSP16 add(XSP16, 26)
        CFI Block cfiCond420 Using cfiCommon0
        CFI (cfiCond420) NoFunction
        CFI (cfiCond420) Conditional ??CrossCallReturnLabel_204
        CFI (cfiCond420) R6 load(1, XDATA, add(CFA_XSP16, literal(-22)))
        CFI (cfiCond420) VB load(1, XDATA, add(CFA_XSP16, literal(-21)))
        CFI (cfiCond420) V0 load(1, XDATA, add(CFA_XSP16, literal(-20)))
        CFI (cfiCond420) V1 load(1, XDATA, add(CFA_XSP16, literal(-19)))
        CFI (cfiCond420) V2 load(1, XDATA, add(CFA_XSP16, literal(-18)))
        CFI (cfiCond420) V3 load(1, XDATA, add(CFA_XSP16, literal(-17)))
        CFI (cfiCond420) V4 load(1, XDATA, add(CFA_XSP16, literal(-16)))
        CFI (cfiCond420) V5 load(1, XDATA, add(CFA_XSP16, literal(-15)))
        CFI (cfiCond420) V6 load(1, XDATA, add(CFA_XSP16, literal(-14)))
        CFI (cfiCond420) V7 load(1, XDATA, add(CFA_XSP16, literal(-13)))
        CFI (cfiCond420) V8 load(1, XDATA, add(CFA_XSP16, literal(-12)))
        CFI (cfiCond420) V9 load(1, XDATA, add(CFA_XSP16, literal(-11)))
        CFI (cfiCond420) V10 load(1, XDATA, add(CFA_XSP16, literal(-10)))
        CFI (cfiCond420) V11 load(1, XDATA, add(CFA_XSP16, literal(-9)))
        CFI (cfiCond420) V12 load(1, XDATA, add(CFA_XSP16, literal(-8)))
        CFI (cfiCond420) V13 load(1, XDATA, add(CFA_XSP16, literal(-7)))
        CFI (cfiCond420) R7 load(1, XDATA, add(CFA_XSP16, literal(-6)))
        CFI (cfiCond420) ?RET_LOW load(1, XDATA, add(CFA_XSP16, literal(-5)))
        CFI (cfiCond420) ?RET_HIGH load(1, XDATA, add(CFA_XSP16, literal(-4)))
        CFI (cfiCond420) ?BRET_EXT load(1, XDATA, add(CFA_XSP16, literal(-3)))
        CFI (cfiCond420) DPL0 load(1, XDATA, add(CFA_XSP16, literal(-2)))
        CFI (cfiCond420) DPH0 load(1, XDATA, add(CFA_XSP16, literal(-1)))
        CFI (cfiCond420) CFA_SP SP+0
        CFI (cfiCond420) CFA_XSP16 add(XSP16, 24)
        CFI Block cfiCond421 Using cfiCommon0
        CFI (cfiCond421) NoFunction
        CFI (cfiCond421) Conditional ??CrossCallReturnLabel_205
        CFI (cfiCond421) R6 load(1, XDATA, add(CFA_XSP16, literal(-16)))
        CFI (cfiCond421) VB load(1, XDATA, add(CFA_XSP16, literal(-15)))
        CFI (cfiCond421) V0 load(1, XDATA, add(CFA_XSP16, literal(-14)))
        CFI (cfiCond421) V1 load(1, XDATA, add(CFA_XSP16, literal(-13)))
        CFI (cfiCond421) V2 load(1, XDATA, add(CFA_XSP16, literal(-12)))
        CFI (cfiCond421) V3 load(1, XDATA, add(CFA_XSP16, literal(-11)))
        CFI (cfiCond421) V4 load(1, XDATA, add(CFA_XSP16, literal(-10)))
        CFI (cfiCond421) V5 load(1, XDATA, add(CFA_XSP16, literal(-9)))
        CFI (cfiCond421) V6 load(1, XDATA, add(CFA_XSP16, literal(-8)))
        CFI (cfiCond421) V7 load(1, XDATA, add(CFA_XSP16, literal(-7)))
        CFI (cfiCond421) R7 load(1, XDATA, add(CFA_XSP16, literal(-6)))
        CFI (cfiCond421) ?RET_LOW load(1, XDATA, add(CFA_XSP16, literal(-5)))
        CFI (cfiCond421) ?RET_HIGH load(1, XDATA, add(CFA_XSP16, literal(-4)))
        CFI (cfiCond421) ?BRET_EXT load(1, XDATA, add(CFA_XSP16, literal(-3)))
        CFI (cfiCond421) DPL0 load(1, XDATA, add(CFA_XSP16, literal(-2)))
        CFI (cfiCond421) DPH0 load(1, XDATA, add(CFA_XSP16, literal(-1)))
        CFI (cfiCond421) CFA_SP SP+0
        CFI (cfiCond421) CFA_XSP16 add(XSP16, 18)
        CFI Block cfiCond422 Using cfiCommon0
        CFI (cfiCond422) NoFunction
        CFI (cfiCond422) Conditional ??CrossCallReturnLabel_206
        CFI (cfiCond422) R6 load(1, XDATA, add(CFA_XSP16, literal(-12)))
        CFI (cfiCond422) VB load(1, XDATA, add(CFA_XSP16, literal(-11)))
        CFI (cfiCond422) V0 load(1, XDATA, add(CFA_XSP16, literal(-10)))
        CFI (cfiCond422) V1 load(1, XDATA, add(CFA_XSP16, literal(-9)))
        CFI (cfiCond422) V2 load(1, XDATA, add(CFA_XSP16, literal(-8)))
        CFI (cfiCond422) V3 load(1, XDATA, add(CFA_XSP16, literal(-7)))
        CFI (cfiCond422) R7 load(1, XDATA, add(CFA_XSP16, literal(-6)))
        CFI (cfiCond422) ?RET_LOW load(1, XDATA, add(CFA_XSP16, literal(-5)))
        CFI (cfiCond422) ?RET_HIGH load(1, XDATA, add(CFA_XSP16, literal(-4)))
        CFI (cfiCond422) ?BRET_EXT load(1, XDATA, add(CFA_XSP16, literal(-3)))
        CFI (cfiCond422) DPL0 load(1, XDATA, add(CFA_XSP16, literal(-2)))
        CFI (cfiCond422) DPH0 load(1, XDATA, add(CFA_XSP16, literal(-1)))
        CFI (cfiCond422) CFA_SP SP+0
        CFI (cfiCond422) CFA_XSP16 add(XSP16, 14)
        CFI Block cfiCond423 Using cfiCommon0
        CFI (cfiCond423) NoFunction
        CFI (cfiCond423) Conditional ??CrossCallReturnLabel_206
        CFI (cfiCond423) R6 load(1, XDATA, add(CFA_XSP16, literal(-12)))
        CFI (cfiCond423) VB load(1, XDATA, add(CFA_XSP16, literal(-11)))
        CFI (cfiCond423) V0 load(1, XDATA, add(CFA_XSP16, literal(-10)))
        CFI (cfiCond423) V1 load(1, XDATA, add(CFA_XSP16, literal(-9)))
        CFI (cfiCond423) V2 load(1, XDATA, add(CFA_XSP16, literal(-8)))
        CFI (cfiCond423) V3 load(1, XDATA, add(CFA_XSP16, literal(-7)))
        CFI (cfiCond423) R7 load(1, XDATA, add(CFA_XSP16, literal(-6)))
        CFI (cfiCond423) ?RET_LOW load(1, XDATA, add(CFA_XSP16, literal(-5)))
        CFI (cfiCond423) ?RET_HIGH load(1, XDATA, add(CFA_XSP16, literal(-4)))
        CFI (cfiCond423) ?BRET_EXT load(1, XDATA, add(CFA_XSP16, literal(-3)))
        CFI (cfiCond423) DPL0 load(1, XDATA, add(CFA_XSP16, literal(-2)))
        CFI (cfiCond423) DPH0 load(1, XDATA, add(CFA_XSP16, literal(-1)))
        CFI (cfiCond423) CFA_SP SP+0
        CFI (cfiCond423) CFA_XSP16 add(XSP16, 14)
        CFI Block cfiCond424 Using cfiCommon0
        CFI (cfiCond424) NoFunction
        CFI (cfiCond424) Conditional ??CrossCallReturnLabel_207
        CFI (cfiCond424) R6 load(1, XDATA, add(CFA_XSP16, literal(-18)))
        CFI (cfiCond424) VB load(1, XDATA, add(CFA_XSP16, literal(-17)))
        CFI (cfiCond424) V0 load(1, XDATA, add(CFA_XSP16, literal(-16)))
        CFI (cfiCond424) V1 load(1, XDATA, add(CFA_XSP16, literal(-15)))
        CFI (cfiCond424) V2 load(1, XDATA, add(CFA_XSP16, literal(-14)))
        CFI (cfiCond424) V3 load(1, XDATA, add(CFA_XSP16, literal(-13)))
        CFI (cfiCond424) V4 load(1, XDATA, add(CFA_XSP16, literal(-12)))
        CFI (cfiCond424) V5 load(1, XDATA, add(CFA_XSP16, literal(-11)))
        CFI (cfiCond424) V6 load(1, XDATA, add(CFA_XSP16, literal(-10)))
        CFI (cfiCond424) V7 load(1, XDATA, add(CFA_XSP16, literal(-9)))
        CFI (cfiCond424) V8 load(1, XDATA, add(CFA_XSP16, literal(-8)))
        CFI (cfiCond424) V9 load(1, XDATA, add(CFA_XSP16, literal(-7)))
        CFI (cfiCond424) R7 load(1, XDATA, add(CFA_XSP16, literal(-6)))
        CFI (cfiCond424) ?RET_LOW load(1, XDATA, add(CFA_XSP16, literal(-5)))
        CFI (cfiCond424) ?RET_HIGH load(1, XDATA, add(CFA_XSP16, literal(-4)))
        CFI (cfiCond424) ?BRET_EXT load(1, XDATA, add(CFA_XSP16, literal(-3)))
        CFI (cfiCond424) DPL0 load(1, XDATA, add(CFA_XSP16, literal(-2)))
        CFI (cfiCond424) DPH0 load(1, XDATA, add(CFA_XSP16, literal(-1)))
        CFI (cfiCond424) CFA_SP SP+0
        CFI (cfiCond424) CFA_XSP16 add(XSP16, 20)
        CFI Block cfiCond425 Using cfiCommon0
        CFI (cfiCond425) NoFunction
        CFI (cfiCond425) Conditional ??CrossCallReturnLabel_198
        CFI (cfiCond425) R6 load(1, XDATA, add(CFA_XSP16, literal(-14)))
        CFI (cfiCond425) VB load(1, XDATA, add(CFA_XSP16, literal(-13)))
        CFI (cfiCond425) V0 load(1, XDATA, add(CFA_XSP16, literal(-12)))
        CFI (cfiCond425) V1 load(1, XDATA, add(CFA_XSP16, literal(-11)))
        CFI (cfiCond425) V2 load(1, XDATA, add(CFA_XSP16, literal(-10)))
        CFI (cfiCond425) V3 load(1, XDATA, add(CFA_XSP16, literal(-9)))
        CFI (cfiCond425) V4 load(1, XDATA, add(CFA_XSP16, literal(-8)))
        CFI (cfiCond425) V5 load(1, XDATA, add(CFA_XSP16, literal(-7)))
        CFI (cfiCond425) R7 load(1, XDATA, add(CFA_XSP16, literal(-6)))
        CFI (cfiCond425) ?RET_LOW load(1, XDATA, add(CFA_XSP16, literal(-5)))
        CFI (cfiCond425) ?RET_HIGH load(1, XDATA, add(CFA_XSP16, literal(-4)))
        CFI (cfiCond425) ?BRET_EXT load(1, XDATA, add(CFA_XSP16, literal(-3)))
        CFI (cfiCond425) DPL0 load(1, XDATA, add(CFA_XSP16, literal(-2)))
        CFI (cfiCond425) DPH0 load(1, XDATA, add(CFA_XSP16, literal(-1)))
        CFI (cfiCond425) CFA_SP SP+0
        CFI (cfiCond425) CFA_XSP16 add(XSP16, 25)
        CFI Block cfiCond426 Using cfiCommon0
        CFI (cfiCond426) NoFunction
        CFI (cfiCond426) Conditional ??CrossCallReturnLabel_199
        CFI (cfiCond426) R6 load(1, XDATA, add(CFA_XSP16, literal(-10)))
        CFI (cfiCond426) VB load(1, XDATA, add(CFA_XSP16, literal(-9)))
        CFI (cfiCond426) V0 load(1, XDATA, add(CFA_XSP16, literal(-8)))
        CFI (cfiCond426) V1 load(1, XDATA, add(CFA_XSP16, literal(-7)))
        CFI (cfiCond426) R7 load(1, XDATA, add(CFA_XSP16, literal(-6)))
        CFI (cfiCond426) ?RET_LOW load(1, XDATA, add(CFA_XSP16, literal(-5)))
        CFI (cfiCond426) ?RET_HIGH load(1, XDATA, add(CFA_XSP16, literal(-4)))
        CFI (cfiCond426) ?BRET_EXT load(1, XDATA, add(CFA_XSP16, literal(-3)))
        CFI (cfiCond426) DPL0 load(1, XDATA, add(CFA_XSP16, literal(-2)))
        CFI (cfiCond426) DPH0 load(1, XDATA, add(CFA_XSP16, literal(-1)))
        CFI (cfiCond426) CFA_SP SP+0
        CFI (cfiCond426) CFA_XSP16 add(XSP16, 21)
        CFI Block cfiCond427 Using cfiCommon0
        CFI (cfiCond427) NoFunction
        CFI (cfiCond427) Conditional ??CrossCallReturnLabel_199
        CFI (cfiCond427) R6 load(1, XDATA, add(CFA_XSP16, literal(-10)))
        CFI (cfiCond427) VB load(1, XDATA, add(CFA_XSP16, literal(-9)))
        CFI (cfiCond427) V0 load(1, XDATA, add(CFA_XSP16, literal(-8)))
        CFI (cfiCond427) V1 load(1, XDATA, add(CFA_XSP16, literal(-7)))
        CFI (cfiCond427) R7 load(1, XDATA, add(CFA_XSP16, literal(-6)))
        CFI (cfiCond427) ?RET_LOW load(1, XDATA, add(CFA_XSP16, literal(-5)))
        CFI (cfiCond427) ?RET_HIGH load(1, XDATA, add(CFA_XSP16, literal(-4)))
        CFI (cfiCond427) ?BRET_EXT load(1, XDATA, add(CFA_XSP16, literal(-3)))
        CFI (cfiCond427) DPL0 load(1, XDATA, add(CFA_XSP16, literal(-2)))
        CFI (cfiCond427) DPH0 load(1, XDATA, add(CFA_XSP16, literal(-1)))
        CFI (cfiCond427) CFA_SP SP+0
        CFI (cfiCond427) CFA_XSP16 add(XSP16, 21)
        CFI Block cfiCond428 Using cfiCommon0
        CFI (cfiCond428) NoFunction
        CFI (cfiCond428) Conditional ??CrossCallReturnLabel_200
        CFI (cfiCond428) R6 load(1, XDATA, add(CFA_XSP16, literal(-10)))
        CFI (cfiCond428) VB load(1, XDATA, add(CFA_XSP16, literal(-9)))
        CFI (cfiCond428) V0 load(1, XDATA, add(CFA_XSP16, literal(-8)))
        CFI (cfiCond428) V1 load(1, XDATA, add(CFA_XSP16, literal(-7)))
        CFI (cfiCond428) R7 load(1, XDATA, add(CFA_XSP16, literal(-6)))
        CFI (cfiCond428) ?RET_LOW load(1, XDATA, add(CFA_XSP16, literal(-5)))
        CFI (cfiCond428) ?RET_HIGH load(1, XDATA, add(CFA_XSP16, literal(-4)))
        CFI (cfiCond428) ?BRET_EXT load(1, XDATA, add(CFA_XSP16, literal(-3)))
        CFI (cfiCond428) DPL0 load(1, XDATA, add(CFA_XSP16, literal(-2)))
        CFI (cfiCond428) DPH0 load(1, XDATA, add(CFA_XSP16, literal(-1)))
        CFI (cfiCond428) CFA_SP SP+0
        CFI (cfiCond428) CFA_XSP16 add(XSP16, 21)
        CFI Block cfiPicker429 Using cfiCommon1
        CFI (cfiPicker429) NoFunction
        CFI (cfiPicker429) Picker
        MOV     R2,#ZDP_TransID & 0xff
        MOV     R3,#(ZDP_TransID >> 8) & 0xff
        CFI EndBlock cfiCond417
        CFI EndBlock cfiCond418
        CFI EndBlock cfiCond419
        CFI EndBlock cfiCond420
        CFI EndBlock cfiCond421
        CFI EndBlock cfiCond422
        CFI EndBlock cfiCond423
        CFI EndBlock cfiCond424
        CFI EndBlock cfiCond425
        CFI EndBlock cfiCond426
        CFI EndBlock cfiCond427
        CFI EndBlock cfiCond428
        CFI EndBlock cfiPicker429
        REQUIRE ??Subroutine107_0
        ; // Fall through to label ??Subroutine107_0

        RSEG BANKED_CODE:CODE:NOROOT(0)
??Subroutine107_0:
        CFI Block cfiCond430 Using cfiCommon0
        CFI NoFunction
        CFI Conditional ??CrossCallReturnLabel_208
        CFI R6 load(1, XDATA, add(CFA_XSP16, literal(-14)))
        CFI VB load(1, XDATA, add(CFA_XSP16, literal(-13)))
        CFI V0 load(1, XDATA, add(CFA_XSP16, literal(-12)))
        CFI V1 load(1, XDATA, add(CFA_XSP16, literal(-11)))
        CFI V2 load(1, XDATA, add(CFA_XSP16, literal(-10)))
        CFI V3 load(1, XDATA, add(CFA_XSP16, literal(-9)))
        CFI V4 load(1, XDATA, add(CFA_XSP16, literal(-8)))
        CFI V5 load(1, XDATA, add(CFA_XSP16, literal(-7)))
        CFI R7 load(1, XDATA, add(CFA_XSP16, literal(-6)))
        CFI ?RET_LOW load(1, XDATA, add(CFA_XSP16, literal(-5)))
        CFI ?RET_HIGH load(1, XDATA, add(CFA_XSP16, literal(-4)))
        CFI ?BRET_EXT load(1, XDATA, add(CFA_XSP16, literal(-3)))
        CFI DPL0 load(1, XDATA, add(CFA_XSP16, literal(-2)))
        CFI DPH0 load(1, XDATA, add(CFA_XSP16, literal(-1)))
        CFI CFA_SP SP+0
        CFI CFA_XSP16 add(XSP16, 16)
        CFI Block cfiCond431 Using cfiCommon0
        CFI (cfiCond431) NoFunction
        CFI (cfiCond431) Conditional ??CrossCallReturnLabel_209
        CFI (cfiCond431) R6 load(1, XDATA, add(CFA_XSP16, literal(-10)))
        CFI (cfiCond431) VB load(1, XDATA, add(CFA_XSP16, literal(-9)))
        CFI (cfiCond431) V0 load(1, XDATA, add(CFA_XSP16, literal(-8)))
        CFI (cfiCond431) V1 load(1, XDATA, add(CFA_XSP16, literal(-7)))
        CFI (cfiCond431) R7 load(1, XDATA, add(CFA_XSP16, literal(-6)))
        CFI (cfiCond431) ?RET_LOW load(1, XDATA, add(CFA_XSP16, literal(-5)))
        CFI (cfiCond431) ?RET_HIGH load(1, XDATA, add(CFA_XSP16, literal(-4)))
        CFI (cfiCond431) ?BRET_EXT load(1, XDATA, add(CFA_XSP16, literal(-3)))
        CFI (cfiCond431) DPL0 load(1, XDATA, add(CFA_XSP16, literal(-2)))
        CFI (cfiCond431) DPH0 load(1, XDATA, add(CFA_XSP16, literal(-1)))
        CFI (cfiCond431) CFA_SP SP+0
        CFI (cfiCond431) CFA_XSP16 add(XSP16, 12)
        CFI Block cfiCond432 Using cfiCommon0
        CFI (cfiCond432) NoFunction
        CFI (cfiCond432) Conditional ??CrossCallReturnLabel_209
        CFI (cfiCond432) R6 load(1, XDATA, add(CFA_XSP16, literal(-10)))
        CFI (cfiCond432) VB load(1, XDATA, add(CFA_XSP16, literal(-9)))
        CFI (cfiCond432) V0 load(1, XDATA, add(CFA_XSP16, literal(-8)))
        CFI (cfiCond432) V1 load(1, XDATA, add(CFA_XSP16, literal(-7)))
        CFI (cfiCond432) R7 load(1, XDATA, add(CFA_XSP16, literal(-6)))
        CFI (cfiCond432) ?RET_LOW load(1, XDATA, add(CFA_XSP16, literal(-5)))
        CFI (cfiCond432) ?RET_HIGH load(1, XDATA, add(CFA_XSP16, literal(-4)))
        CFI (cfiCond432) ?BRET_EXT load(1, XDATA, add(CFA_XSP16, literal(-3)))
        CFI (cfiCond432) DPL0 load(1, XDATA, add(CFA_XSP16, literal(-2)))
        CFI (cfiCond432) DPH0 load(1, XDATA, add(CFA_XSP16, literal(-1)))
        CFI (cfiCond432) CFA_SP SP+0
        CFI (cfiCond432) CFA_XSP16 add(XSP16, 12)
        CFI Block cfiCond433 Using cfiCommon0
        CFI (cfiCond433) NoFunction
        CFI (cfiCond433) Conditional ??CrossCallReturnLabel_209
        CFI (cfiCond433) R6 load(1, XDATA, add(CFA_XSP16, literal(-10)))
        CFI (cfiCond433) VB load(1, XDATA, add(CFA_XSP16, literal(-9)))
        CFI (cfiCond433) V0 load(1, XDATA, add(CFA_XSP16, literal(-8)))
        CFI (cfiCond433) V1 load(1, XDATA, add(CFA_XSP16, literal(-7)))
        CFI (cfiCond433) R7 load(1, XDATA, add(CFA_XSP16, literal(-6)))
        CFI (cfiCond433) ?RET_LOW load(1, XDATA, add(CFA_XSP16, literal(-5)))
        CFI (cfiCond433) ?RET_HIGH load(1, XDATA, add(CFA_XSP16, literal(-4)))
        CFI (cfiCond433) ?BRET_EXT load(1, XDATA, add(CFA_XSP16, literal(-3)))
        CFI (cfiCond433) DPL0 load(1, XDATA, add(CFA_XSP16, literal(-2)))
        CFI (cfiCond433) DPH0 load(1, XDATA, add(CFA_XSP16, literal(-1)))
        CFI (cfiCond433) CFA_SP SP+0
        CFI (cfiCond433) CFA_XSP16 add(XSP16, 12)
        CFI Block cfiCond434 Using cfiCommon0
        CFI (cfiCond434) NoFunction
        CFI (cfiCond434) Conditional ??CrossCallReturnLabel_209
        CFI (cfiCond434) R6 load(1, XDATA, add(CFA_XSP16, literal(-10)))
        CFI (cfiCond434) VB load(1, XDATA, add(CFA_XSP16, literal(-9)))
        CFI (cfiCond434) V0 load(1, XDATA, add(CFA_XSP16, literal(-8)))
        CFI (cfiCond434) V1 load(1, XDATA, add(CFA_XSP16, literal(-7)))
        CFI (cfiCond434) R7 load(1, XDATA, add(CFA_XSP16, literal(-6)))
        CFI (cfiCond434) ?RET_LOW load(1, XDATA, add(CFA_XSP16, literal(-5)))
        CFI (cfiCond434) ?RET_HIGH load(1, XDATA, add(CFA_XSP16, literal(-4)))
        CFI (cfiCond434) ?BRET_EXT load(1, XDATA, add(CFA_XSP16, literal(-3)))
        CFI (cfiCond434) DPL0 load(1, XDATA, add(CFA_XSP16, literal(-2)))
        CFI (cfiCond434) DPH0 load(1, XDATA, add(CFA_XSP16, literal(-1)))
        CFI (cfiCond434) CFA_SP SP+0
        CFI (cfiCond434) CFA_XSP16 add(XSP16, 12)
        CFI Block cfiCond435 Using cfiCommon0
        CFI (cfiCond435) NoFunction
        CFI (cfiCond435) Conditional ??CrossCallReturnLabel_209
        CFI (cfiCond435) R6 load(1, XDATA, add(CFA_XSP16, literal(-10)))
        CFI (cfiCond435) VB load(1, XDATA, add(CFA_XSP16, literal(-9)))
        CFI (cfiCond435) V0 load(1, XDATA, add(CFA_XSP16, literal(-8)))
        CFI (cfiCond435) V1 load(1, XDATA, add(CFA_XSP16, literal(-7)))
        CFI (cfiCond435) R7 load(1, XDATA, add(CFA_XSP16, literal(-6)))
        CFI (cfiCond435) ?RET_LOW load(1, XDATA, add(CFA_XSP16, literal(-5)))
        CFI (cfiCond435) ?RET_HIGH load(1, XDATA, add(CFA_XSP16, literal(-4)))
        CFI (cfiCond435) ?BRET_EXT load(1, XDATA, add(CFA_XSP16, literal(-3)))
        CFI (cfiCond435) DPL0 load(1, XDATA, add(CFA_XSP16, literal(-2)))
        CFI (cfiCond435) DPH0 load(1, XDATA, add(CFA_XSP16, literal(-1)))
        CFI (cfiCond435) CFA_SP SP+0
        CFI (cfiCond435) CFA_XSP16 add(XSP16, 12)
        CFI Block cfiCond436 Using cfiCommon0
        CFI (cfiCond436) NoFunction
        CFI (cfiCond436) Conditional ??CrossCallReturnLabel_210
        CFI (cfiCond436) R6 load(1, XDATA, add(CFA_XSP16, literal(-15)))
        CFI (cfiCond436) VB load(1, XDATA, add(CFA_XSP16, literal(-14)))
        CFI (cfiCond436) V0 load(1, XDATA, add(CFA_XSP16, literal(-13)))
        CFI (cfiCond436) V1 load(1, XDATA, add(CFA_XSP16, literal(-12)))
        CFI (cfiCond436) V2 load(1, XDATA, add(CFA_XSP16, literal(-11)))
        CFI (cfiCond436) V3 load(1, XDATA, add(CFA_XSP16, literal(-10)))
        CFI (cfiCond436) V4 load(1, XDATA, add(CFA_XSP16, literal(-9)))
        CFI (cfiCond436) V5 load(1, XDATA, add(CFA_XSP16, literal(-8)))
        CFI (cfiCond436) V6 load(1, XDATA, add(CFA_XSP16, literal(-7)))
        CFI (cfiCond436) R7 load(1, XDATA, add(CFA_XSP16, literal(-6)))
        CFI (cfiCond436) ?RET_LOW load(1, XDATA, add(CFA_XSP16, literal(-5)))
        CFI (cfiCond436) ?RET_HIGH load(1, XDATA, add(CFA_XSP16, literal(-4)))
        CFI (cfiCond436) ?BRET_EXT load(1, XDATA, add(CFA_XSP16, literal(-3)))
        CFI (cfiCond436) DPL0 load(1, XDATA, add(CFA_XSP16, literal(-2)))
        CFI (cfiCond436) DPH0 load(1, XDATA, add(CFA_XSP16, literal(-1)))
        CFI (cfiCond436) CFA_SP SP+0
        CFI (cfiCond436) CFA_XSP16 add(XSP16, 17)
        CFI Block cfiCond437 Using cfiCommon0
        CFI (cfiCond437) NoFunction
        CFI (cfiCond437) Conditional ??CrossCallReturnLabel_211
        CFI (cfiCond437) R6 load(1, XDATA, add(CFA_XSP16, literal(-18)))
        CFI (cfiCond437) VB load(1, XDATA, add(CFA_XSP16, literal(-17)))
        CFI (cfiCond437) V0 load(1, XDATA, add(CFA_XSP16, literal(-16)))
        CFI (cfiCond437) V1 load(1, XDATA, add(CFA_XSP16, literal(-15)))
        CFI (cfiCond437) V2 load(1, XDATA, add(CFA_XSP16, literal(-14)))
        CFI (cfiCond437) V3 load(1, XDATA, add(CFA_XSP16, literal(-13)))
        CFI (cfiCond437) V4 load(1, XDATA, add(CFA_XSP16, literal(-12)))
        CFI (cfiCond437) V5 load(1, XDATA, add(CFA_XSP16, literal(-11)))
        CFI (cfiCond437) V6 load(1, XDATA, add(CFA_XSP16, literal(-10)))
        CFI (cfiCond437) V7 load(1, XDATA, add(CFA_XSP16, literal(-9)))
        CFI (cfiCond437) V8 load(1, XDATA, add(CFA_XSP16, literal(-8)))
        CFI (cfiCond437) V9 load(1, XDATA, add(CFA_XSP16, literal(-7)))
        CFI (cfiCond437) R7 load(1, XDATA, add(CFA_XSP16, literal(-6)))
        CFI (cfiCond437) ?RET_LOW load(1, XDATA, add(CFA_XSP16, literal(-5)))
        CFI (cfiCond437) ?RET_HIGH load(1, XDATA, add(CFA_XSP16, literal(-4)))
        CFI (cfiCond437) ?BRET_EXT load(1, XDATA, add(CFA_XSP16, literal(-3)))
        CFI (cfiCond437) DPL0 load(1, XDATA, add(CFA_XSP16, literal(-2)))
        CFI (cfiCond437) DPH0 load(1, XDATA, add(CFA_XSP16, literal(-1)))
        CFI (cfiCond437) CFA_SP SP+0
        CFI (cfiCond437) CFA_XSP16 add(XSP16, 20)
        CFI Block cfiCond438 Using cfiCommon0
        CFI (cfiCond438) NoFunction
        CFI (cfiCond438) Conditional ??CrossCallReturnLabel_212
        CFI (cfiCond438) R6 load(1, XDATA, add(CFA_XSP16, literal(-18)))
        CFI (cfiCond438) VB load(1, XDATA, add(CFA_XSP16, literal(-17)))
        CFI (cfiCond438) V0 load(1, XDATA, add(CFA_XSP16, literal(-16)))
        CFI (cfiCond438) V1 load(1, XDATA, add(CFA_XSP16, literal(-15)))
        CFI (cfiCond438) V2 load(1, XDATA, add(CFA_XSP16, literal(-14)))
        CFI (cfiCond438) V3 load(1, XDATA, add(CFA_XSP16, literal(-13)))
        CFI (cfiCond438) V4 load(1, XDATA, add(CFA_XSP16, literal(-12)))
        CFI (cfiCond438) V5 load(1, XDATA, add(CFA_XSP16, literal(-11)))
        CFI (cfiCond438) V6 load(1, XDATA, add(CFA_XSP16, literal(-10)))
        CFI (cfiCond438) V7 load(1, XDATA, add(CFA_XSP16, literal(-9)))
        CFI (cfiCond438) V8 load(1, XDATA, add(CFA_XSP16, literal(-8)))
        CFI (cfiCond438) V9 load(1, XDATA, add(CFA_XSP16, literal(-7)))
        CFI (cfiCond438) R7 load(1, XDATA, add(CFA_XSP16, literal(-6)))
        CFI (cfiCond438) ?RET_LOW load(1, XDATA, add(CFA_XSP16, literal(-5)))
        CFI (cfiCond438) ?RET_HIGH load(1, XDATA, add(CFA_XSP16, literal(-4)))
        CFI (cfiCond438) ?BRET_EXT load(1, XDATA, add(CFA_XSP16, literal(-3)))
        CFI (cfiCond438) DPL0 load(1, XDATA, add(CFA_XSP16, literal(-2)))
        CFI (cfiCond438) DPH0 load(1, XDATA, add(CFA_XSP16, literal(-1)))
        CFI (cfiCond438) CFA_SP SP+0
        CFI (cfiCond438) CFA_XSP16 add(XSP16, 21)
        CFI Block cfiCond439 Using cfiCommon0
        CFI (cfiCond439) NoFunction
        CFI (cfiCond439) Conditional ??CrossCallReturnLabel_213
        CFI (cfiCond439) R6 load(1, XDATA, add(CFA_XSP16, literal(-18)))
        CFI (cfiCond439) VB load(1, XDATA, add(CFA_XSP16, literal(-17)))
        CFI (cfiCond439) V0 load(1, XDATA, add(CFA_XSP16, literal(-16)))
        CFI (cfiCond439) V1 load(1, XDATA, add(CFA_XSP16, literal(-15)))
        CFI (cfiCond439) V2 load(1, XDATA, add(CFA_XSP16, literal(-14)))
        CFI (cfiCond439) V3 load(1, XDATA, add(CFA_XSP16, literal(-13)))
        CFI (cfiCond439) V4 load(1, XDATA, add(CFA_XSP16, literal(-12)))
        CFI (cfiCond439) V5 load(1, XDATA, add(CFA_XSP16, literal(-11)))
        CFI (cfiCond439) V6 load(1, XDATA, add(CFA_XSP16, literal(-10)))
        CFI (cfiCond439) V7 load(1, XDATA, add(CFA_XSP16, literal(-9)))
        CFI (cfiCond439) V8 load(1, XDATA, add(CFA_XSP16, literal(-8)))
        CFI (cfiCond439) V9 load(1, XDATA, add(CFA_XSP16, literal(-7)))
        CFI (cfiCond439) R7 load(1, XDATA, add(CFA_XSP16, literal(-6)))
        CFI (cfiCond439) ?RET_LOW load(1, XDATA, add(CFA_XSP16, literal(-5)))
        CFI (cfiCond439) ?RET_HIGH load(1, XDATA, add(CFA_XSP16, literal(-4)))
        CFI (cfiCond439) ?BRET_EXT load(1, XDATA, add(CFA_XSP16, literal(-3)))
        CFI (cfiCond439) DPL0 load(1, XDATA, add(CFA_XSP16, literal(-2)))
        CFI (cfiCond439) DPH0 load(1, XDATA, add(CFA_XSP16, literal(-1)))
        CFI (cfiCond439) CFA_SP SP+0
        CFI (cfiCond439) CFA_XSP16 add(XSP16, 21)
        CFI Block cfiCond440 Using cfiCommon0
        CFI (cfiCond440) NoFunction
        CFI (cfiCond440) Conditional ??CrossCallReturnLabel_214
        CFI (cfiCond440) R6 load(1, XDATA, add(CFA_XSP16, literal(-10)))
        CFI (cfiCond440) VB load(1, XDATA, add(CFA_XSP16, literal(-9)))
        CFI (cfiCond440) V0 load(1, XDATA, add(CFA_XSP16, literal(-8)))
        CFI (cfiCond440) V1 load(1, XDATA, add(CFA_XSP16, literal(-7)))
        CFI (cfiCond440) R7 load(1, XDATA, add(CFA_XSP16, literal(-6)))
        CFI (cfiCond440) ?RET_LOW load(1, XDATA, add(CFA_XSP16, literal(-5)))
        CFI (cfiCond440) ?RET_HIGH load(1, XDATA, add(CFA_XSP16, literal(-4)))
        CFI (cfiCond440) ?BRET_EXT load(1, XDATA, add(CFA_XSP16, literal(-3)))
        CFI (cfiCond440) DPL0 load(1, XDATA, add(CFA_XSP16, literal(-2)))
        CFI (cfiCond440) DPH0 load(1, XDATA, add(CFA_XSP16, literal(-1)))
        CFI (cfiCond440) CFA_SP SP+0
        CFI (cfiCond440) CFA_XSP16 add(XSP16, 13)
        CFI Block cfiCond441 Using cfiCommon0
        CFI (cfiCond441) NoFunction
        CFI (cfiCond441) Conditional ??CrossCallReturnLabel_215
        CFI (cfiCond441) R6 load(1, XDATA, add(CFA_XSP16, literal(-10)))
        CFI (cfiCond441) VB load(1, XDATA, add(CFA_XSP16, literal(-9)))
        CFI (cfiCond441) V0 load(1, XDATA, add(CFA_XSP16, literal(-8)))
        CFI (cfiCond441) V1 load(1, XDATA, add(CFA_XSP16, literal(-7)))
        CFI (cfiCond441) R7 load(1, XDATA, add(CFA_XSP16, literal(-6)))
        CFI (cfiCond441) ?RET_LOW load(1, XDATA, add(CFA_XSP16, literal(-5)))
        CFI (cfiCond441) ?RET_HIGH load(1, XDATA, add(CFA_XSP16, literal(-4)))
        CFI (cfiCond441) ?BRET_EXT load(1, XDATA, add(CFA_XSP16, literal(-3)))
        CFI (cfiCond441) DPL0 load(1, XDATA, add(CFA_XSP16, literal(-2)))
        CFI (cfiCond441) DPH0 load(1, XDATA, add(CFA_XSP16, literal(-1)))
        CFI (cfiCond441) CFA_SP SP+0
        CFI (cfiCond441) CFA_XSP16 add(XSP16, 13)
        CFI Block cfiCond442 Using cfiCommon0
        CFI (cfiCond442) NoFunction
        CFI (cfiCond442) Conditional ??CrossCallReturnLabel_216
        CFI (cfiCond442) R6 load(1, XDATA, add(CFA_XSP16, literal(-22)))
        CFI (cfiCond442) VB load(1, XDATA, add(CFA_XSP16, literal(-21)))
        CFI (cfiCond442) V0 load(1, XDATA, add(CFA_XSP16, literal(-20)))
        CFI (cfiCond442) V1 load(1, XDATA, add(CFA_XSP16, literal(-19)))
        CFI (cfiCond442) V2 load(1, XDATA, add(CFA_XSP16, literal(-18)))
        CFI (cfiCond442) V3 load(1, XDATA, add(CFA_XSP16, literal(-17)))
        CFI (cfiCond442) V4 load(1, XDATA, add(CFA_XSP16, literal(-16)))
        CFI (cfiCond442) V5 load(1, XDATA, add(CFA_XSP16, literal(-15)))
        CFI (cfiCond442) V6 load(1, XDATA, add(CFA_XSP16, literal(-14)))
        CFI (cfiCond442) V7 load(1, XDATA, add(CFA_XSP16, literal(-13)))
        CFI (cfiCond442) V8 load(1, XDATA, add(CFA_XSP16, literal(-12)))
        CFI (cfiCond442) V9 load(1, XDATA, add(CFA_XSP16, literal(-11)))
        CFI (cfiCond442) V10 load(1, XDATA, add(CFA_XSP16, literal(-10)))
        CFI (cfiCond442) V11 load(1, XDATA, add(CFA_XSP16, literal(-9)))
        CFI (cfiCond442) V12 load(1, XDATA, add(CFA_XSP16, literal(-8)))
        CFI (cfiCond442) V13 load(1, XDATA, add(CFA_XSP16, literal(-7)))
        CFI (cfiCond442) R7 load(1, XDATA, add(CFA_XSP16, literal(-6)))
        CFI (cfiCond442) ?RET_LOW load(1, XDATA, add(CFA_XSP16, literal(-5)))
        CFI (cfiCond442) ?RET_HIGH load(1, XDATA, add(CFA_XSP16, literal(-4)))
        CFI (cfiCond442) ?BRET_EXT load(1, XDATA, add(CFA_XSP16, literal(-3)))
        CFI (cfiCond442) DPL0 load(1, XDATA, add(CFA_XSP16, literal(-2)))
        CFI (cfiCond442) DPH0 load(1, XDATA, add(CFA_XSP16, literal(-1)))
        CFI (cfiCond442) CFA_SP SP+0
        CFI (cfiCond442) CFA_XSP16 add(XSP16, 25)
        CFI Block cfiCond443 Using cfiCommon0
        CFI (cfiCond443) NoFunction
        CFI (cfiCond443) Conditional ??CrossCallReturnLabel_217
        CFI (cfiCond443) R6 load(1, XDATA, add(CFA_XSP16, literal(-22)))
        CFI (cfiCond443) VB load(1, XDATA, add(CFA_XSP16, literal(-21)))
        CFI (cfiCond443) V0 load(1, XDATA, add(CFA_XSP16, literal(-20)))
        CFI (cfiCond443) V1 load(1, XDATA, add(CFA_XSP16, literal(-19)))
        CFI (cfiCond443) V2 load(1, XDATA, add(CFA_XSP16, literal(-18)))
        CFI (cfiCond443) V3 load(1, XDATA, add(CFA_XSP16, literal(-17)))
        CFI (cfiCond443) V4 load(1, XDATA, add(CFA_XSP16, literal(-16)))
        CFI (cfiCond443) V5 load(1, XDATA, add(CFA_XSP16, literal(-15)))
        CFI (cfiCond443) V6 load(1, XDATA, add(CFA_XSP16, literal(-14)))
        CFI (cfiCond443) V7 load(1, XDATA, add(CFA_XSP16, literal(-13)))
        CFI (cfiCond443) V8 load(1, XDATA, add(CFA_XSP16, literal(-12)))
        CFI (cfiCond443) V9 load(1, XDATA, add(CFA_XSP16, literal(-11)))
        CFI (cfiCond443) V10 load(1, XDATA, add(CFA_XSP16, literal(-10)))
        CFI (cfiCond443) V11 load(1, XDATA, add(CFA_XSP16, literal(-9)))
        CFI (cfiCond443) V12 load(1, XDATA, add(CFA_XSP16, literal(-8)))
        CFI (cfiCond443) V13 load(1, XDATA, add(CFA_XSP16, literal(-7)))
        CFI (cfiCond443) R7 load(1, XDATA, add(CFA_XSP16, literal(-6)))
        CFI (cfiCond443) ?RET_LOW load(1, XDATA, add(CFA_XSP16, literal(-5)))
        CFI (cfiCond443) ?RET_HIGH load(1, XDATA, add(CFA_XSP16, literal(-4)))
        CFI (cfiCond443) ?BRET_EXT load(1, XDATA, add(CFA_XSP16, literal(-3)))
        CFI (cfiCond443) DPL0 load(1, XDATA, add(CFA_XSP16, literal(-2)))
        CFI (cfiCond443) DPH0 load(1, XDATA, add(CFA_XSP16, literal(-1)))
        CFI (cfiCond443) CFA_SP SP+0
        CFI (cfiCond443) CFA_XSP16 add(XSP16, 25)
        CFI Block cfiCond444 Using cfiCommon0
        CFI (cfiCond444) NoFunction
        CFI (cfiCond444) Conditional ??CrossCallReturnLabel_218
        CFI (cfiCond444) R6 load(1, XDATA, add(CFA_XSP16, literal(-22)))
        CFI (cfiCond444) VB load(1, XDATA, add(CFA_XSP16, literal(-21)))
        CFI (cfiCond444) V0 load(1, XDATA, add(CFA_XSP16, literal(-20)))
        CFI (cfiCond444) V1 load(1, XDATA, add(CFA_XSP16, literal(-19)))
        CFI (cfiCond444) V2 load(1, XDATA, add(CFA_XSP16, literal(-18)))
        CFI (cfiCond444) V3 load(1, XDATA, add(CFA_XSP16, literal(-17)))
        CFI (cfiCond444) V4 load(1, XDATA, add(CFA_XSP16, literal(-16)))
        CFI (cfiCond444) V5 load(1, XDATA, add(CFA_XSP16, literal(-15)))
        CFI (cfiCond444) V6 load(1, XDATA, add(CFA_XSP16, literal(-14)))
        CFI (cfiCond444) V7 load(1, XDATA, add(CFA_XSP16, literal(-13)))
        CFI (cfiCond444) V8 load(1, XDATA, add(CFA_XSP16, literal(-12)))
        CFI (cfiCond444) V9 load(1, XDATA, add(CFA_XSP16, literal(-11)))
        CFI (cfiCond444) V10 load(1, XDATA, add(CFA_XSP16, literal(-10)))
        CFI (cfiCond444) V11 load(1, XDATA, add(CFA_XSP16, literal(-9)))
        CFI (cfiCond444) V12 load(1, XDATA, add(CFA_XSP16, literal(-8)))
        CFI (cfiCond444) V13 load(1, XDATA, add(CFA_XSP16, literal(-7)))
        CFI (cfiCond444) R7 load(1, XDATA, add(CFA_XSP16, literal(-6)))
        CFI (cfiCond444) ?RET_LOW load(1, XDATA, add(CFA_XSP16, literal(-5)))
        CFI (cfiCond444) ?RET_HIGH load(1, XDATA, add(CFA_XSP16, literal(-4)))
        CFI (cfiCond444) ?BRET_EXT load(1, XDATA, add(CFA_XSP16, literal(-3)))
        CFI (cfiCond444) DPL0 load(1, XDATA, add(CFA_XSP16, literal(-2)))
        CFI (cfiCond444) DPH0 load(1, XDATA, add(CFA_XSP16, literal(-1)))
        CFI (cfiCond444) CFA_SP SP+0
        CFI (cfiCond444) CFA_XSP16 add(XSP16, 25)
        CFI Block cfiCond445 Using cfiCommon0
        CFI (cfiCond445) NoFunction
        CFI (cfiCond445) Conditional ??CrossCallReturnLabel_219
        CFI (cfiCond445) R6 load(1, XDATA, add(CFA_XSP16, literal(-20)))
        CFI (cfiCond445) VB load(1, XDATA, add(CFA_XSP16, literal(-19)))
        CFI (cfiCond445) V0 load(1, XDATA, add(CFA_XSP16, literal(-18)))
        CFI (cfiCond445) V1 load(1, XDATA, add(CFA_XSP16, literal(-17)))
        CFI (cfiCond445) V2 load(1, XDATA, add(CFA_XSP16, literal(-16)))
        CFI (cfiCond445) V3 load(1, XDATA, add(CFA_XSP16, literal(-15)))
        CFI (cfiCond445) V4 load(1, XDATA, add(CFA_XSP16, literal(-14)))
        CFI (cfiCond445) V5 load(1, XDATA, add(CFA_XSP16, literal(-13)))
        CFI (cfiCond445) V6 load(1, XDATA, add(CFA_XSP16, literal(-12)))
        CFI (cfiCond445) V7 load(1, XDATA, add(CFA_XSP16, literal(-11)))
        CFI (cfiCond445) V8 load(1, XDATA, add(CFA_XSP16, literal(-10)))
        CFI (cfiCond445) V9 load(1, XDATA, add(CFA_XSP16, literal(-9)))
        CFI (cfiCond445) V10 load(1, XDATA, add(CFA_XSP16, literal(-8)))
        CFI (cfiCond445) V11 load(1, XDATA, add(CFA_XSP16, literal(-7)))
        CFI (cfiCond445) R7 load(1, XDATA, add(CFA_XSP16, literal(-6)))
        CFI (cfiCond445) ?RET_LOW load(1, XDATA, add(CFA_XSP16, literal(-5)))
        CFI (cfiCond445) ?RET_HIGH load(1, XDATA, add(CFA_XSP16, literal(-4)))
        CFI (cfiCond445) ?BRET_EXT load(1, XDATA, add(CFA_XSP16, literal(-3)))
        CFI (cfiCond445) DPL0 load(1, XDATA, add(CFA_XSP16, literal(-2)))
        CFI (cfiCond445) DPH0 load(1, XDATA, add(CFA_XSP16, literal(-1)))
        CFI (cfiCond445) CFA_SP SP+0
        CFI (cfiCond445) CFA_XSP16 add(XSP16, 23)
        CFI Block cfiCond446 Using cfiCommon0
        CFI (cfiCond446) NoFunction
        CFI (cfiCond446) Conditional ??CrossCallReturnLabel_220
        CFI (cfiCond446) R6 load(1, XDATA, add(CFA_XSP16, literal(-20)))
        CFI (cfiCond446) VB load(1, XDATA, add(CFA_XSP16, literal(-19)))
        CFI (cfiCond446) V0 load(1, XDATA, add(CFA_XSP16, literal(-18)))
        CFI (cfiCond446) V1 load(1, XDATA, add(CFA_XSP16, literal(-17)))
        CFI (cfiCond446) V2 load(1, XDATA, add(CFA_XSP16, literal(-16)))
        CFI (cfiCond446) V3 load(1, XDATA, add(CFA_XSP16, literal(-15)))
        CFI (cfiCond446) V4 load(1, XDATA, add(CFA_XSP16, literal(-14)))
        CFI (cfiCond446) V5 load(1, XDATA, add(CFA_XSP16, literal(-13)))
        CFI (cfiCond446) V6 load(1, XDATA, add(CFA_XSP16, literal(-12)))
        CFI (cfiCond446) V7 load(1, XDATA, add(CFA_XSP16, literal(-11)))
        CFI (cfiCond446) V8 load(1, XDATA, add(CFA_XSP16, literal(-10)))
        CFI (cfiCond446) V9 load(1, XDATA, add(CFA_XSP16, literal(-9)))
        CFI (cfiCond446) V10 load(1, XDATA, add(CFA_XSP16, literal(-8)))
        CFI (cfiCond446) V11 load(1, XDATA, add(CFA_XSP16, literal(-7)))
        CFI (cfiCond446) R7 load(1, XDATA, add(CFA_XSP16, literal(-6)))
        CFI (cfiCond446) ?RET_LOW load(1, XDATA, add(CFA_XSP16, literal(-5)))
        CFI (cfiCond446) ?RET_HIGH load(1, XDATA, add(CFA_XSP16, literal(-4)))
        CFI (cfiCond446) ?BRET_EXT load(1, XDATA, add(CFA_XSP16, literal(-3)))
        CFI (cfiCond446) DPL0 load(1, XDATA, add(CFA_XSP16, literal(-2)))
        CFI (cfiCond446) DPH0 load(1, XDATA, add(CFA_XSP16, literal(-1)))
        CFI (cfiCond446) CFA_SP SP+0
        CFI (cfiCond446) CFA_XSP16 add(XSP16, 23)
        CFI Block cfiCond447 Using cfiCommon0
        CFI (cfiCond447) NoFunction
        CFI (cfiCond447) Conditional ??CrossCallReturnLabel_221
        CFI (cfiCond447) R6 load(1, XDATA, add(CFA_XSP16, literal(-24)))
        CFI (cfiCond447) VB load(1, XDATA, add(CFA_XSP16, literal(-23)))
        CFI (cfiCond447) V0 load(1, XDATA, add(CFA_XSP16, literal(-22)))
        CFI (cfiCond447) V1 load(1, XDATA, add(CFA_XSP16, literal(-21)))
        CFI (cfiCond447) V2 load(1, XDATA, add(CFA_XSP16, literal(-20)))
        CFI (cfiCond447) V3 load(1, XDATA, add(CFA_XSP16, literal(-19)))
        CFI (cfiCond447) V4 load(1, XDATA, add(CFA_XSP16, literal(-18)))
        CFI (cfiCond447) V5 load(1, XDATA, add(CFA_XSP16, literal(-17)))
        CFI (cfiCond447) V6 load(1, XDATA, add(CFA_XSP16, literal(-16)))
        CFI (cfiCond447) V7 load(1, XDATA, add(CFA_XSP16, literal(-15)))
        CFI (cfiCond447) V8 load(1, XDATA, add(CFA_XSP16, literal(-14)))
        CFI (cfiCond447) V9 load(1, XDATA, add(CFA_XSP16, literal(-13)))
        CFI (cfiCond447) V10 load(1, XDATA, add(CFA_XSP16, literal(-12)))
        CFI (cfiCond447) V11 load(1, XDATA, add(CFA_XSP16, literal(-11)))
        CFI (cfiCond447) V12 load(1, XDATA, add(CFA_XSP16, literal(-10)))
        CFI (cfiCond447) V13 load(1, XDATA, add(CFA_XSP16, literal(-9)))
        CFI (cfiCond447) V14 load(1, XDATA, add(CFA_XSP16, literal(-8)))
        CFI (cfiCond447) V15 load(1, XDATA, add(CFA_XSP16, literal(-7)))
        CFI (cfiCond447) R7 load(1, XDATA, add(CFA_XSP16, literal(-6)))
        CFI (cfiCond447) ?RET_LOW load(1, XDATA, add(CFA_XSP16, literal(-5)))
        CFI (cfiCond447) ?RET_HIGH load(1, XDATA, add(CFA_XSP16, literal(-4)))
        CFI (cfiCond447) ?BRET_EXT load(1, XDATA, add(CFA_XSP16, literal(-3)))
        CFI (cfiCond447) DPL0 load(1, XDATA, add(CFA_XSP16, literal(-2)))
        CFI (cfiCond447) DPH0 load(1, XDATA, add(CFA_XSP16, literal(-1)))
        CFI (cfiCond447) CFA_SP SP+0
        CFI (cfiCond447) CFA_XSP16 add(XSP16, 29)
        CFI Block cfiCond448 Using cfiCommon0
        CFI (cfiCond448) NoFunction
        CFI (cfiCond448) Conditional ??CrossCallReturnLabel_201
        CFI (cfiCond448) R6 load(1, XDATA, add(CFA_XSP16, literal(-16)))
        CFI (cfiCond448) VB load(1, XDATA, add(CFA_XSP16, literal(-15)))
        CFI (cfiCond448) V0 load(1, XDATA, add(CFA_XSP16, literal(-14)))
        CFI (cfiCond448) V1 load(1, XDATA, add(CFA_XSP16, literal(-13)))
        CFI (cfiCond448) V2 load(1, XDATA, add(CFA_XSP16, literal(-12)))
        CFI (cfiCond448) V3 load(1, XDATA, add(CFA_XSP16, literal(-11)))
        CFI (cfiCond448) V4 load(1, XDATA, add(CFA_XSP16, literal(-10)))
        CFI (cfiCond448) V5 load(1, XDATA, add(CFA_XSP16, literal(-9)))
        CFI (cfiCond448) V6 load(1, XDATA, add(CFA_XSP16, literal(-8)))
        CFI (cfiCond448) V7 load(1, XDATA, add(CFA_XSP16, literal(-7)))
        CFI (cfiCond448) R7 load(1, XDATA, add(CFA_XSP16, literal(-6)))
        CFI (cfiCond448) ?RET_LOW load(1, XDATA, add(CFA_XSP16, literal(-5)))
        CFI (cfiCond448) ?RET_HIGH load(1, XDATA, add(CFA_XSP16, literal(-4)))
        CFI (cfiCond448) ?BRET_EXT load(1, XDATA, add(CFA_XSP16, literal(-3)))
        CFI (cfiCond448) DPL0 load(1, XDATA, add(CFA_XSP16, literal(-2)))
        CFI (cfiCond448) DPH0 load(1, XDATA, add(CFA_XSP16, literal(-1)))
        CFI (cfiCond448) CFA_SP SP+0
        CFI (cfiCond448) CFA_XSP16 add(XSP16, 18)
        CFI Block cfiCond449 Using cfiCommon0
        CFI (cfiCond449) NoFunction
        CFI (cfiCond449) Conditional ??CrossCallReturnLabel_202
        CFI (cfiCond449) R6 load(1, XDATA, add(CFA_XSP16, literal(-19)))
        CFI (cfiCond449) VB load(1, XDATA, add(CFA_XSP16, literal(-18)))
        CFI (cfiCond449) V0 load(1, XDATA, add(CFA_XSP16, literal(-17)))
        CFI (cfiCond449) V1 load(1, XDATA, add(CFA_XSP16, literal(-16)))
        CFI (cfiCond449) V2 load(1, XDATA, add(CFA_XSP16, literal(-15)))
        CFI (cfiCond449) V3 load(1, XDATA, add(CFA_XSP16, literal(-14)))
        CFI (cfiCond449) V4 load(1, XDATA, add(CFA_XSP16, literal(-13)))
        CFI (cfiCond449) V5 load(1, XDATA, add(CFA_XSP16, literal(-12)))
        CFI (cfiCond449) V6 load(1, XDATA, add(CFA_XSP16, literal(-11)))
        CFI (cfiCond449) V7 load(1, XDATA, add(CFA_XSP16, literal(-10)))
        CFI (cfiCond449) V8 load(1, XDATA, add(CFA_XSP16, literal(-9)))
        CFI (cfiCond449) V9 load(1, XDATA, add(CFA_XSP16, literal(-8)))
        CFI (cfiCond449) V10 load(1, XDATA, add(CFA_XSP16, literal(-7)))
        CFI (cfiCond449) R7 load(1, XDATA, add(CFA_XSP16, literal(-6)))
        CFI (cfiCond449) ?RET_LOW load(1, XDATA, add(CFA_XSP16, literal(-5)))
        CFI (cfiCond449) ?RET_HIGH load(1, XDATA, add(CFA_XSP16, literal(-4)))
        CFI (cfiCond449) ?BRET_EXT load(1, XDATA, add(CFA_XSP16, literal(-3)))
        CFI (cfiCond449) DPL0 load(1, XDATA, add(CFA_XSP16, literal(-2)))
        CFI (cfiCond449) DPH0 load(1, XDATA, add(CFA_XSP16, literal(-1)))
        CFI (cfiCond449) CFA_SP SP+0
        CFI (cfiCond449) CFA_XSP16 add(XSP16, 21)
        CFI Block cfiCond450 Using cfiCommon0
        CFI (cfiCond450) NoFunction
        CFI (cfiCond450) Conditional ??CrossCallReturnLabel_203
        CFI (cfiCond450) R6 load(1, XDATA, add(CFA_XSP16, literal(-24)))
        CFI (cfiCond450) VB load(1, XDATA, add(CFA_XSP16, literal(-23)))
        CFI (cfiCond450) V0 load(1, XDATA, add(CFA_XSP16, literal(-22)))
        CFI (cfiCond450) V1 load(1, XDATA, add(CFA_XSP16, literal(-21)))
        CFI (cfiCond450) V2 load(1, XDATA, add(CFA_XSP16, literal(-20)))
        CFI (cfiCond450) V3 load(1, XDATA, add(CFA_XSP16, literal(-19)))
        CFI (cfiCond450) V4 load(1, XDATA, add(CFA_XSP16, literal(-18)))
        CFI (cfiCond450) V5 load(1, XDATA, add(CFA_XSP16, literal(-17)))
        CFI (cfiCond450) V6 load(1, XDATA, add(CFA_XSP16, literal(-16)))
        CFI (cfiCond450) V7 load(1, XDATA, add(CFA_XSP16, literal(-15)))
        CFI (cfiCond450) V8 load(1, XDATA, add(CFA_XSP16, literal(-14)))
        CFI (cfiCond450) V9 load(1, XDATA, add(CFA_XSP16, literal(-13)))
        CFI (cfiCond450) V10 load(1, XDATA, add(CFA_XSP16, literal(-12)))
        CFI (cfiCond450) V11 load(1, XDATA, add(CFA_XSP16, literal(-11)))
        CFI (cfiCond450) V12 load(1, XDATA, add(CFA_XSP16, literal(-10)))
        CFI (cfiCond450) V13 load(1, XDATA, add(CFA_XSP16, literal(-9)))
        CFI (cfiCond450) V14 load(1, XDATA, add(CFA_XSP16, literal(-8)))
        CFI (cfiCond450) V15 load(1, XDATA, add(CFA_XSP16, literal(-7)))
        CFI (cfiCond450) R7 load(1, XDATA, add(CFA_XSP16, literal(-6)))
        CFI (cfiCond450) ?RET_LOW load(1, XDATA, add(CFA_XSP16, literal(-5)))
        CFI (cfiCond450) ?RET_HIGH load(1, XDATA, add(CFA_XSP16, literal(-4)))
        CFI (cfiCond450) ?BRET_EXT load(1, XDATA, add(CFA_XSP16, literal(-3)))
        CFI (cfiCond450) DPL0 load(1, XDATA, add(CFA_XSP16, literal(-2)))
        CFI (cfiCond450) DPH0 load(1, XDATA, add(CFA_XSP16, literal(-1)))
        CFI (cfiCond450) CFA_SP SP+0
        CFI (cfiCond450) CFA_XSP16 add(XSP16, 26)
        CFI Block cfiCond451 Using cfiCommon0
        CFI (cfiCond451) NoFunction
        CFI (cfiCond451) Conditional ??CrossCallReturnLabel_204
        CFI (cfiCond451) R6 load(1, XDATA, add(CFA_XSP16, literal(-22)))
        CFI (cfiCond451) VB load(1, XDATA, add(CFA_XSP16, literal(-21)))
        CFI (cfiCond451) V0 load(1, XDATA, add(CFA_XSP16, literal(-20)))
        CFI (cfiCond451) V1 load(1, XDATA, add(CFA_XSP16, literal(-19)))
        CFI (cfiCond451) V2 load(1, XDATA, add(CFA_XSP16, literal(-18)))
        CFI (cfiCond451) V3 load(1, XDATA, add(CFA_XSP16, literal(-17)))
        CFI (cfiCond451) V4 load(1, XDATA, add(CFA_XSP16, literal(-16)))
        CFI (cfiCond451) V5 load(1, XDATA, add(CFA_XSP16, literal(-15)))
        CFI (cfiCond451) V6 load(1, XDATA, add(CFA_XSP16, literal(-14)))
        CFI (cfiCond451) V7 load(1, XDATA, add(CFA_XSP16, literal(-13)))
        CFI (cfiCond451) V8 load(1, XDATA, add(CFA_XSP16, literal(-12)))
        CFI (cfiCond451) V9 load(1, XDATA, add(CFA_XSP16, literal(-11)))
        CFI (cfiCond451) V10 load(1, XDATA, add(CFA_XSP16, literal(-10)))
        CFI (cfiCond451) V11 load(1, XDATA, add(CFA_XSP16, literal(-9)))
        CFI (cfiCond451) V12 load(1, XDATA, add(CFA_XSP16, literal(-8)))
        CFI (cfiCond451) V13 load(1, XDATA, add(CFA_XSP16, literal(-7)))
        CFI (cfiCond451) R7 load(1, XDATA, add(CFA_XSP16, literal(-6)))
        CFI (cfiCond451) ?RET_LOW load(1, XDATA, add(CFA_XSP16, literal(-5)))
        CFI (cfiCond451) ?RET_HIGH load(1, XDATA, add(CFA_XSP16, literal(-4)))
        CFI (cfiCond451) ?BRET_EXT load(1, XDATA, add(CFA_XSP16, literal(-3)))
        CFI (cfiCond451) DPL0 load(1, XDATA, add(CFA_XSP16, literal(-2)))
        CFI (cfiCond451) DPH0 load(1, XDATA, add(CFA_XSP16, literal(-1)))
        CFI (cfiCond451) CFA_SP SP+0
        CFI (cfiCond451) CFA_XSP16 add(XSP16, 24)
        CFI Block cfiCond452 Using cfiCommon0
        CFI (cfiCond452) NoFunction
        CFI (cfiCond452) Conditional ??CrossCallReturnLabel_205
        CFI (cfiCond452) R6 load(1, XDATA, add(CFA_XSP16, literal(-16)))
        CFI (cfiCond452) VB load(1, XDATA, add(CFA_XSP16, literal(-15)))
        CFI (cfiCond452) V0 load(1, XDATA, add(CFA_XSP16, literal(-14)))
        CFI (cfiCond452) V1 load(1, XDATA, add(CFA_XSP16, literal(-13)))
        CFI (cfiCond452) V2 load(1, XDATA, add(CFA_XSP16, literal(-12)))
        CFI (cfiCond452) V3 load(1, XDATA, add(CFA_XSP16, literal(-11)))
        CFI (cfiCond452) V4 load(1, XDATA, add(CFA_XSP16, literal(-10)))
        CFI (cfiCond452) V5 load(1, XDATA, add(CFA_XSP16, literal(-9)))
        CFI (cfiCond452) V6 load(1, XDATA, add(CFA_XSP16, literal(-8)))
        CFI (cfiCond452) V7 load(1, XDATA, add(CFA_XSP16, literal(-7)))
        CFI (cfiCond452) R7 load(1, XDATA, add(CFA_XSP16, literal(-6)))
        CFI (cfiCond452) ?RET_LOW load(1, XDATA, add(CFA_XSP16, literal(-5)))
        CFI (cfiCond452) ?RET_HIGH load(1, XDATA, add(CFA_XSP16, literal(-4)))
        CFI (cfiCond452) ?BRET_EXT load(1, XDATA, add(CFA_XSP16, literal(-3)))
        CFI (cfiCond452) DPL0 load(1, XDATA, add(CFA_XSP16, literal(-2)))
        CFI (cfiCond452) DPH0 load(1, XDATA, add(CFA_XSP16, literal(-1)))
        CFI (cfiCond452) CFA_SP SP+0
        CFI (cfiCond452) CFA_XSP16 add(XSP16, 18)
        CFI Block cfiCond453 Using cfiCommon0
        CFI (cfiCond453) NoFunction
        CFI (cfiCond453) Conditional ??CrossCallReturnLabel_206
        CFI (cfiCond453) R6 load(1, XDATA, add(CFA_XSP16, literal(-12)))
        CFI (cfiCond453) VB load(1, XDATA, add(CFA_XSP16, literal(-11)))
        CFI (cfiCond453) V0 load(1, XDATA, add(CFA_XSP16, literal(-10)))
        CFI (cfiCond453) V1 load(1, XDATA, add(CFA_XSP16, literal(-9)))
        CFI (cfiCond453) V2 load(1, XDATA, add(CFA_XSP16, literal(-8)))
        CFI (cfiCond453) V3 load(1, XDATA, add(CFA_XSP16, literal(-7)))
        CFI (cfiCond453) R7 load(1, XDATA, add(CFA_XSP16, literal(-6)))
        CFI (cfiCond453) ?RET_LOW load(1, XDATA, add(CFA_XSP16, literal(-5)))
        CFI (cfiCond453) ?RET_HIGH load(1, XDATA, add(CFA_XSP16, literal(-4)))
        CFI (cfiCond453) ?BRET_EXT load(1, XDATA, add(CFA_XSP16, literal(-3)))
        CFI (cfiCond453) DPL0 load(1, XDATA, add(CFA_XSP16, literal(-2)))
        CFI (cfiCond453) DPH0 load(1, XDATA, add(CFA_XSP16, literal(-1)))
        CFI (cfiCond453) CFA_SP SP+0
        CFI (cfiCond453) CFA_XSP16 add(XSP16, 14)
        CFI Block cfiCond454 Using cfiCommon0
        CFI (cfiCond454) NoFunction
        CFI (cfiCond454) Conditional ??CrossCallReturnLabel_206
        CFI (cfiCond454) R6 load(1, XDATA, add(CFA_XSP16, literal(-12)))
        CFI (cfiCond454) VB load(1, XDATA, add(CFA_XSP16, literal(-11)))
        CFI (cfiCond454) V0 load(1, XDATA, add(CFA_XSP16, literal(-10)))
        CFI (cfiCond454) V1 load(1, XDATA, add(CFA_XSP16, literal(-9)))
        CFI (cfiCond454) V2 load(1, XDATA, add(CFA_XSP16, literal(-8)))
        CFI (cfiCond454) V3 load(1, XDATA, add(CFA_XSP16, literal(-7)))
        CFI (cfiCond454) R7 load(1, XDATA, add(CFA_XSP16, literal(-6)))
        CFI (cfiCond454) ?RET_LOW load(1, XDATA, add(CFA_XSP16, literal(-5)))
        CFI (cfiCond454) ?RET_HIGH load(1, XDATA, add(CFA_XSP16, literal(-4)))
        CFI (cfiCond454) ?BRET_EXT load(1, XDATA, add(CFA_XSP16, literal(-3)))
        CFI (cfiCond454) DPL0 load(1, XDATA, add(CFA_XSP16, literal(-2)))
        CFI (cfiCond454) DPH0 load(1, XDATA, add(CFA_XSP16, literal(-1)))
        CFI (cfiCond454) CFA_SP SP+0
        CFI (cfiCond454) CFA_XSP16 add(XSP16, 14)
        CFI Block cfiCond455 Using cfiCommon0
        CFI (cfiCond455) NoFunction
        CFI (cfiCond455) Conditional ??CrossCallReturnLabel_207
        CFI (cfiCond455) R6 load(1, XDATA, add(CFA_XSP16, literal(-18)))
        CFI (cfiCond455) VB load(1, XDATA, add(CFA_XSP16, literal(-17)))
        CFI (cfiCond455) V0 load(1, XDATA, add(CFA_XSP16, literal(-16)))
        CFI (cfiCond455) V1 load(1, XDATA, add(CFA_XSP16, literal(-15)))
        CFI (cfiCond455) V2 load(1, XDATA, add(CFA_XSP16, literal(-14)))
        CFI (cfiCond455) V3 load(1, XDATA, add(CFA_XSP16, literal(-13)))
        CFI (cfiCond455) V4 load(1, XDATA, add(CFA_XSP16, literal(-12)))
        CFI (cfiCond455) V5 load(1, XDATA, add(CFA_XSP16, literal(-11)))
        CFI (cfiCond455) V6 load(1, XDATA, add(CFA_XSP16, literal(-10)))
        CFI (cfiCond455) V7 load(1, XDATA, add(CFA_XSP16, literal(-9)))
        CFI (cfiCond455) V8 load(1, XDATA, add(CFA_XSP16, literal(-8)))
        CFI (cfiCond455) V9 load(1, XDATA, add(CFA_XSP16, literal(-7)))
        CFI (cfiCond455) R7 load(1, XDATA, add(CFA_XSP16, literal(-6)))
        CFI (cfiCond455) ?RET_LOW load(1, XDATA, add(CFA_XSP16, literal(-5)))
        CFI (cfiCond455) ?RET_HIGH load(1, XDATA, add(CFA_XSP16, literal(-4)))
        CFI (cfiCond455) ?BRET_EXT load(1, XDATA, add(CFA_XSP16, literal(-3)))
        CFI (cfiCond455) DPL0 load(1, XDATA, add(CFA_XSP16, literal(-2)))
        CFI (cfiCond455) DPH0 load(1, XDATA, add(CFA_XSP16, literal(-1)))
        CFI (cfiCond455) CFA_SP SP+0
        CFI (cfiCond455) CFA_XSP16 add(XSP16, 20)
        CFI Block cfiCond456 Using cfiCommon0
        CFI (cfiCond456) NoFunction
        CFI (cfiCond456) Conditional ??CrossCallReturnLabel_198
        CFI (cfiCond456) R6 load(1, XDATA, add(CFA_XSP16, literal(-14)))
        CFI (cfiCond456) VB load(1, XDATA, add(CFA_XSP16, literal(-13)))
        CFI (cfiCond456) V0 load(1, XDATA, add(CFA_XSP16, literal(-12)))
        CFI (cfiCond456) V1 load(1, XDATA, add(CFA_XSP16, literal(-11)))
        CFI (cfiCond456) V2 load(1, XDATA, add(CFA_XSP16, literal(-10)))
        CFI (cfiCond456) V3 load(1, XDATA, add(CFA_XSP16, literal(-9)))
        CFI (cfiCond456) V4 load(1, XDATA, add(CFA_XSP16, literal(-8)))
        CFI (cfiCond456) V5 load(1, XDATA, add(CFA_XSP16, literal(-7)))
        CFI (cfiCond456) R7 load(1, XDATA, add(CFA_XSP16, literal(-6)))
        CFI (cfiCond456) ?RET_LOW load(1, XDATA, add(CFA_XSP16, literal(-5)))
        CFI (cfiCond456) ?RET_HIGH load(1, XDATA, add(CFA_XSP16, literal(-4)))
        CFI (cfiCond456) ?BRET_EXT load(1, XDATA, add(CFA_XSP16, literal(-3)))
        CFI (cfiCond456) DPL0 load(1, XDATA, add(CFA_XSP16, literal(-2)))
        CFI (cfiCond456) DPH0 load(1, XDATA, add(CFA_XSP16, literal(-1)))
        CFI (cfiCond456) CFA_SP SP+0
        CFI (cfiCond456) CFA_XSP16 add(XSP16, 25)
        CFI Block cfiCond457 Using cfiCommon0
        CFI (cfiCond457) NoFunction
        CFI (cfiCond457) Conditional ??CrossCallReturnLabel_199
        CFI (cfiCond457) R6 load(1, XDATA, add(CFA_XSP16, literal(-10)))
        CFI (cfiCond457) VB load(1, XDATA, add(CFA_XSP16, literal(-9)))
        CFI (cfiCond457) V0 load(1, XDATA, add(CFA_XSP16, literal(-8)))
        CFI (cfiCond457) V1 load(1, XDATA, add(CFA_XSP16, literal(-7)))
        CFI (cfiCond457) R7 load(1, XDATA, add(CFA_XSP16, literal(-6)))
        CFI (cfiCond457) ?RET_LOW load(1, XDATA, add(CFA_XSP16, literal(-5)))
        CFI (cfiCond457) ?RET_HIGH load(1, XDATA, add(CFA_XSP16, literal(-4)))
        CFI (cfiCond457) ?BRET_EXT load(1, XDATA, add(CFA_XSP16, literal(-3)))
        CFI (cfiCond457) DPL0 load(1, XDATA, add(CFA_XSP16, literal(-2)))
        CFI (cfiCond457) DPH0 load(1, XDATA, add(CFA_XSP16, literal(-1)))
        CFI (cfiCond457) CFA_SP SP+0
        CFI (cfiCond457) CFA_XSP16 add(XSP16, 21)
        CFI Block cfiCond458 Using cfiCommon0
        CFI (cfiCond458) NoFunction
        CFI (cfiCond458) Conditional ??CrossCallReturnLabel_199
        CFI (cfiCond458) R6 load(1, XDATA, add(CFA_XSP16, literal(-10)))
        CFI (cfiCond458) VB load(1, XDATA, add(CFA_XSP16, literal(-9)))
        CFI (cfiCond458) V0 load(1, XDATA, add(CFA_XSP16, literal(-8)))
        CFI (cfiCond458) V1 load(1, XDATA, add(CFA_XSP16, literal(-7)))
        CFI (cfiCond458) R7 load(1, XDATA, add(CFA_XSP16, literal(-6)))
        CFI (cfiCond458) ?RET_LOW load(1, XDATA, add(CFA_XSP16, literal(-5)))
        CFI (cfiCond458) ?RET_HIGH load(1, XDATA, add(CFA_XSP16, literal(-4)))
        CFI (cfiCond458) ?BRET_EXT load(1, XDATA, add(CFA_XSP16, literal(-3)))
        CFI (cfiCond458) DPL0 load(1, XDATA, add(CFA_XSP16, literal(-2)))
        CFI (cfiCond458) DPH0 load(1, XDATA, add(CFA_XSP16, literal(-1)))
        CFI (cfiCond458) CFA_SP SP+0
        CFI (cfiCond458) CFA_XSP16 add(XSP16, 21)
        CFI Block cfiCond459 Using cfiCommon0
        CFI (cfiCond459) NoFunction
        CFI (cfiCond459) Conditional ??CrossCallReturnLabel_200
        CFI (cfiCond459) R6 load(1, XDATA, add(CFA_XSP16, literal(-10)))
        CFI (cfiCond459) VB load(1, XDATA, add(CFA_XSP16, literal(-9)))
        CFI (cfiCond459) V0 load(1, XDATA, add(CFA_XSP16, literal(-8)))
        CFI (cfiCond459) V1 load(1, XDATA, add(CFA_XSP16, literal(-7)))
        CFI (cfiCond459) R7 load(1, XDATA, add(CFA_XSP16, literal(-6)))
        CFI (cfiCond459) ?RET_LOW load(1, XDATA, add(CFA_XSP16, literal(-5)))
        CFI (cfiCond459) ?RET_HIGH load(1, XDATA, add(CFA_XSP16, literal(-4)))
        CFI (cfiCond459) ?BRET_EXT load(1, XDATA, add(CFA_XSP16, literal(-3)))
        CFI (cfiCond459) DPL0 load(1, XDATA, add(CFA_XSP16, literal(-2)))
        CFI (cfiCond459) DPH0 load(1, XDATA, add(CFA_XSP16, literal(-1)))
        CFI (cfiCond459) CFA_SP SP+0
        CFI (cfiCond459) CFA_XSP16 add(XSP16, 21)
        CFI Block cfiPicker460 Using cfiCommon1
        CFI (cfiPicker460) NoFunction
        CFI (cfiPicker460) Picker
        LCALL   ??fillAndSend?relay
        MOV     A,#0x2
        RET
        CFI EndBlock cfiCond430
        CFI EndBlock cfiCond431
        CFI EndBlock cfiCond432
        CFI EndBlock cfiCond433
        CFI EndBlock cfiCond434
        CFI EndBlock cfiCond435
        CFI EndBlock cfiCond436
        CFI EndBlock cfiCond437
        CFI EndBlock cfiCond438
        CFI EndBlock cfiCond439
        CFI EndBlock cfiCond440
        CFI EndBlock cfiCond441
        CFI EndBlock cfiCond442
        CFI EndBlock cfiCond443
        CFI EndBlock cfiCond444
        CFI EndBlock cfiCond445
        CFI EndBlock cfiCond446
        CFI EndBlock cfiCond447
        CFI EndBlock cfiCond448
        CFI EndBlock cfiCond449
        CFI EndBlock cfiCond450
        CFI EndBlock cfiCond451
        CFI EndBlock cfiCond452
        CFI EndBlock cfiCond453
        CFI EndBlock cfiCond454
        CFI EndBlock cfiCond455
        CFI EndBlock cfiCond456
        CFI EndBlock cfiCond457
        CFI EndBlock cfiCond458
        CFI EndBlock cfiCond459
        CFI EndBlock cfiPicker460

        RSEG BANKED_CODE:CODE:NOROOT(0)
?Subroutine45:
        CFI Block cfiCond461 Using cfiCommon0
        CFI NoFunction
        CFI Conditional ??CrossCallReturnLabel_60
        CFI R6 load(1, XDATA, add(CFA_XSP16, literal(-20)))
        CFI VB load(1, XDATA, add(CFA_XSP16, literal(-19)))
        CFI V0 load(1, XDATA, add(CFA_XSP16, literal(-18)))
        CFI V1 load(1, XDATA, add(CFA_XSP16, literal(-17)))
        CFI V2 load(1, XDATA, add(CFA_XSP16, literal(-16)))
        CFI V3 load(1, XDATA, add(CFA_XSP16, literal(-15)))
        CFI V4 load(1, XDATA, add(CFA_XSP16, literal(-14)))
        CFI V5 load(1, XDATA, add(CFA_XSP16, literal(-13)))
        CFI V6 load(1, XDATA, add(CFA_XSP16, literal(-12)))
        CFI V7 load(1, XDATA, add(CFA_XSP16, literal(-11)))
        CFI V8 load(1, XDATA, add(CFA_XSP16, literal(-10)))
        CFI V9 load(1, XDATA, add(CFA_XSP16, literal(-9)))
        CFI V10 load(1, XDATA, add(CFA_XSP16, literal(-8)))
        CFI V11 load(1, XDATA, add(CFA_XSP16, literal(-7)))
        CFI R7 load(1, XDATA, add(CFA_XSP16, literal(-6)))
        CFI ?RET_LOW load(1, XDATA, add(CFA_XSP16, literal(-5)))
        CFI ?RET_HIGH load(1, XDATA, add(CFA_XSP16, literal(-4)))
        CFI ?BRET_EXT load(1, XDATA, add(CFA_XSP16, literal(-3)))
        CFI DPL0 load(1, XDATA, add(CFA_XSP16, literal(-2)))
        CFI DPH0 load(1, XDATA, add(CFA_XSP16, literal(-1)))
        CFI CFA_SP SP+0
        CFI CFA_XSP16 add(XSP16, 21)
        CFI Block cfiCond462 Using cfiCommon0
        CFI (cfiCond462) NoFunction
        CFI (cfiCond462) Conditional ??CrossCallReturnLabel_61
        CFI (cfiCond462) R6 load(1, XDATA, add(CFA_XSP16, literal(-20)))
        CFI (cfiCond462) VB load(1, XDATA, add(CFA_XSP16, literal(-19)))
        CFI (cfiCond462) V0 load(1, XDATA, add(CFA_XSP16, literal(-18)))
        CFI (cfiCond462) V1 load(1, XDATA, add(CFA_XSP16, literal(-17)))
        CFI (cfiCond462) V2 load(1, XDATA, add(CFA_XSP16, literal(-16)))
        CFI (cfiCond462) V3 load(1, XDATA, add(CFA_XSP16, literal(-15)))
        CFI (cfiCond462) V4 load(1, XDATA, add(CFA_XSP16, literal(-14)))
        CFI (cfiCond462) V5 load(1, XDATA, add(CFA_XSP16, literal(-13)))
        CFI (cfiCond462) V6 load(1, XDATA, add(CFA_XSP16, literal(-12)))
        CFI (cfiCond462) V7 load(1, XDATA, add(CFA_XSP16, literal(-11)))
        CFI (cfiCond462) V8 load(1, XDATA, add(CFA_XSP16, literal(-10)))
        CFI (cfiCond462) V9 load(1, XDATA, add(CFA_XSP16, literal(-9)))
        CFI (cfiCond462) V10 load(1, XDATA, add(CFA_XSP16, literal(-8)))
        CFI (cfiCond462) V11 load(1, XDATA, add(CFA_XSP16, literal(-7)))
        CFI (cfiCond462) R7 load(1, XDATA, add(CFA_XSP16, literal(-6)))
        CFI (cfiCond462) ?RET_LOW load(1, XDATA, add(CFA_XSP16, literal(-5)))
        CFI (cfiCond462) ?RET_HIGH load(1, XDATA, add(CFA_XSP16, literal(-4)))
        CFI (cfiCond462) ?BRET_EXT load(1, XDATA, add(CFA_XSP16, literal(-3)))
        CFI (cfiCond462) DPL0 load(1, XDATA, add(CFA_XSP16, literal(-2)))
        CFI (cfiCond462) DPH0 load(1, XDATA, add(CFA_XSP16, literal(-1)))
        CFI (cfiCond462) CFA_SP SP+0
        CFI (cfiCond462) CFA_XSP16 add(XSP16, 21)
        CFI Block cfiPicker463 Using cfiCommon1
        CFI (cfiPicker463) NoFunction
        CFI (cfiPicker463) Picker
        MOVX    A,@DPTR
        MOV     DPL,R2
        MOV     DPH,R3
        MOVX    @DPTR,A
        INC     DPTR
        MOV     R2,DPL
        RET
        CFI EndBlock cfiCond461
        CFI EndBlock cfiCond462
        CFI EndBlock cfiPicker463

        RSEG BANKED_CODE:CODE:NOROOT(0)
?Subroutine37:
        CFI Block cfiCond464 Using cfiCommon0
        CFI NoFunction
        CFI Conditional ??CrossCallReturnLabel_44
        CFI R6 load(1, XDATA, add(CFA_XSP16, literal(-22)))
        CFI VB load(1, XDATA, add(CFA_XSP16, literal(-21)))
        CFI V0 load(1, XDATA, add(CFA_XSP16, literal(-20)))
        CFI V1 load(1, XDATA, add(CFA_XSP16, literal(-19)))
        CFI V2 load(1, XDATA, add(CFA_XSP16, literal(-18)))
        CFI V3 load(1, XDATA, add(CFA_XSP16, literal(-17)))
        CFI V4 load(1, XDATA, add(CFA_XSP16, literal(-16)))
        CFI V5 load(1, XDATA, add(CFA_XSP16, literal(-15)))
        CFI V6 load(1, XDATA, add(CFA_XSP16, literal(-14)))
        CFI V7 load(1, XDATA, add(CFA_XSP16, literal(-13)))
        CFI V8 load(1, XDATA, add(CFA_XSP16, literal(-12)))
        CFI V9 load(1, XDATA, add(CFA_XSP16, literal(-11)))
        CFI V10 load(1, XDATA, add(CFA_XSP16, literal(-10)))
        CFI V11 load(1, XDATA, add(CFA_XSP16, literal(-9)))
        CFI V12 load(1, XDATA, add(CFA_XSP16, literal(-8)))
        CFI V13 load(1, XDATA, add(CFA_XSP16, literal(-7)))
        CFI R7 load(1, XDATA, add(CFA_XSP16, literal(-6)))
        CFI ?RET_LOW load(1, XDATA, add(CFA_XSP16, literal(-5)))
        CFI ?RET_HIGH load(1, XDATA, add(CFA_XSP16, literal(-4)))
        CFI ?BRET_EXT load(1, XDATA, add(CFA_XSP16, literal(-3)))
        CFI DPL0 load(1, XDATA, add(CFA_XSP16, literal(-2)))
        CFI DPH0 load(1, XDATA, add(CFA_XSP16, literal(-1)))
        CFI CFA_SP SP+0
        CFI CFA_XSP16 add(XSP16, 22)
        CFI Block cfiCond465 Using cfiCommon0
        CFI (cfiCond465) NoFunction
        CFI (cfiCond465) Conditional ??CrossCallReturnLabel_45
        CFI (cfiCond465) R6 load(1, XDATA, add(CFA_XSP16, literal(-22)))
        CFI (cfiCond465) VB load(1, XDATA, add(CFA_XSP16, literal(-21)))
        CFI (cfiCond465) V0 load(1, XDATA, add(CFA_XSP16, literal(-20)))
        CFI (cfiCond465) V1 load(1, XDATA, add(CFA_XSP16, literal(-19)))
        CFI (cfiCond465) V2 load(1, XDATA, add(CFA_XSP16, literal(-18)))
        CFI (cfiCond465) V3 load(1, XDATA, add(CFA_XSP16, literal(-17)))
        CFI (cfiCond465) V4 load(1, XDATA, add(CFA_XSP16, literal(-16)))
        CFI (cfiCond465) V5 load(1, XDATA, add(CFA_XSP16, literal(-15)))
        CFI (cfiCond465) V6 load(1, XDATA, add(CFA_XSP16, literal(-14)))
        CFI (cfiCond465) V7 load(1, XDATA, add(CFA_XSP16, literal(-13)))
        CFI (cfiCond465) V8 load(1, XDATA, add(CFA_XSP16, literal(-12)))
        CFI (cfiCond465) V9 load(1, XDATA, add(CFA_XSP16, literal(-11)))
        CFI (cfiCond465) V10 load(1, XDATA, add(CFA_XSP16, literal(-10)))
        CFI (cfiCond465) V11 load(1, XDATA, add(CFA_XSP16, literal(-9)))
        CFI (cfiCond465) V12 load(1, XDATA, add(CFA_XSP16, literal(-8)))
        CFI (cfiCond465) V13 load(1, XDATA, add(CFA_XSP16, literal(-7)))
        CFI (cfiCond465) R7 load(1, XDATA, add(CFA_XSP16, literal(-6)))
        CFI (cfiCond465) ?RET_LOW load(1, XDATA, add(CFA_XSP16, literal(-5)))
        CFI (cfiCond465) ?RET_HIGH load(1, XDATA, add(CFA_XSP16, literal(-4)))
        CFI (cfiCond465) ?BRET_EXT load(1, XDATA, add(CFA_XSP16, literal(-3)))
        CFI (cfiCond465) DPL0 load(1, XDATA, add(CFA_XSP16, literal(-2)))
        CFI (cfiCond465) DPH0 load(1, XDATA, add(CFA_XSP16, literal(-1)))
        CFI (cfiCond465) CFA_SP SP+0
        CFI (cfiCond465) CFA_XSP16 add(XSP16, 22)
        CFI Block cfiCond466 Using cfiCommon0
        CFI (cfiCond466) NoFunction
        CFI (cfiCond466) Conditional ??CrossCallReturnLabel_46
        CFI (cfiCond466) R6 load(1, XDATA, add(CFA_XSP16, literal(-20)))
        CFI (cfiCond466) VB load(1, XDATA, add(CFA_XSP16, literal(-19)))
        CFI (cfiCond466) V0 load(1, XDATA, add(CFA_XSP16, literal(-18)))
        CFI (cfiCond466) V1 load(1, XDATA, add(CFA_XSP16, literal(-17)))
        CFI (cfiCond466) V2 load(1, XDATA, add(CFA_XSP16, literal(-16)))
        CFI (cfiCond466) V3 load(1, XDATA, add(CFA_XSP16, literal(-15)))
        CFI (cfiCond466) V4 load(1, XDATA, add(CFA_XSP16, literal(-14)))
        CFI (cfiCond466) V5 load(1, XDATA, add(CFA_XSP16, literal(-13)))
        CFI (cfiCond466) V6 load(1, XDATA, add(CFA_XSP16, literal(-12)))
        CFI (cfiCond466) V7 load(1, XDATA, add(CFA_XSP16, literal(-11)))
        CFI (cfiCond466) V8 load(1, XDATA, add(CFA_XSP16, literal(-10)))
        CFI (cfiCond466) V9 load(1, XDATA, add(CFA_XSP16, literal(-9)))
        CFI (cfiCond466) V10 load(1, XDATA, add(CFA_XSP16, literal(-8)))
        CFI (cfiCond466) V11 load(1, XDATA, add(CFA_XSP16, literal(-7)))
        CFI (cfiCond466) R7 load(1, XDATA, add(CFA_XSP16, literal(-6)))
        CFI (cfiCond466) ?RET_LOW load(1, XDATA, add(CFA_XSP16, literal(-5)))
        CFI (cfiCond466) ?RET_HIGH load(1, XDATA, add(CFA_XSP16, literal(-4)))
        CFI (cfiCond466) ?BRET_EXT load(1, XDATA, add(CFA_XSP16, literal(-3)))
        CFI (cfiCond466) DPL0 load(1, XDATA, add(CFA_XSP16, literal(-2)))
        CFI (cfiCond466) DPH0 load(1, XDATA, add(CFA_XSP16, literal(-1)))
        CFI (cfiCond466) CFA_SP SP+0
        CFI (cfiCond466) CFA_XSP16 add(XSP16, 21)
        CFI Block cfiPicker467 Using cfiCommon1
        CFI (cfiPicker467) NoFunction
        CFI (cfiPicker467) Picker
        LCALL   ?Subroutine75 & 0xFFFF
??CrossCallReturnLabel_110:
        RET
        CFI EndBlock cfiCond464
        CFI EndBlock cfiCond465
        CFI EndBlock cfiCond466
        CFI EndBlock cfiPicker467

        RSEG BANKED_CODE:CODE:NOROOT(0)
?Subroutine75:
        CFI Block cfiCond468 Using cfiCommon0
        CFI NoFunction
        CFI Conditional ??CrossCallReturnLabel_110, ??CrossCallReturnLabel_44
        CFI R6 load(1, XDATA, add(CFA_XSP16, literal(-22)))
        CFI VB load(1, XDATA, add(CFA_XSP16, literal(-21)))
        CFI V0 load(1, XDATA, add(CFA_XSP16, literal(-20)))
        CFI V1 load(1, XDATA, add(CFA_XSP16, literal(-19)))
        CFI V2 load(1, XDATA, add(CFA_XSP16, literal(-18)))
        CFI V3 load(1, XDATA, add(CFA_XSP16, literal(-17)))
        CFI V4 load(1, XDATA, add(CFA_XSP16, literal(-16)))
        CFI V5 load(1, XDATA, add(CFA_XSP16, literal(-15)))
        CFI V6 load(1, XDATA, add(CFA_XSP16, literal(-14)))
        CFI V7 load(1, XDATA, add(CFA_XSP16, literal(-13)))
        CFI V8 load(1, XDATA, add(CFA_XSP16, literal(-12)))
        CFI V9 load(1, XDATA, add(CFA_XSP16, literal(-11)))
        CFI V10 load(1, XDATA, add(CFA_XSP16, literal(-10)))
        CFI V11 load(1, XDATA, add(CFA_XSP16, literal(-9)))
        CFI V12 load(1, XDATA, add(CFA_XSP16, literal(-8)))
        CFI V13 load(1, XDATA, add(CFA_XSP16, literal(-7)))
        CFI R7 load(1, XDATA, add(CFA_XSP16, literal(-6)))
        CFI ?RET_LOW load(1, XDATA, add(CFA_XSP16, literal(-5)))
        CFI ?RET_HIGH load(1, XDATA, add(CFA_XSP16, literal(-4)))
        CFI ?BRET_EXT load(1, XDATA, add(CFA_XSP16, literal(-3)))
        CFI DPL0 load(1, XDATA, add(CFA_XSP16, literal(-2)))
        CFI DPH0 load(1, XDATA, add(CFA_XSP16, literal(-1)))
        CFI CFA_SP SP+0
        CFI CFA_XSP16 add(XSP16, 22)
        CFI Block cfiCond469 Using cfiCommon0
        CFI (cfiCond469) NoFunction
        CFI (cfiCond469) Conditional ??CrossCallReturnLabel_110, ??CrossCallReturnLabel_45
        CFI (cfiCond469) R6 load(1, XDATA, add(CFA_XSP16, literal(-22)))
        CFI (cfiCond469) VB load(1, XDATA, add(CFA_XSP16, literal(-21)))
        CFI (cfiCond469) V0 load(1, XDATA, add(CFA_XSP16, literal(-20)))
        CFI (cfiCond469) V1 load(1, XDATA, add(CFA_XSP16, literal(-19)))
        CFI (cfiCond469) V2 load(1, XDATA, add(CFA_XSP16, literal(-18)))
        CFI (cfiCond469) V3 load(1, XDATA, add(CFA_XSP16, literal(-17)))
        CFI (cfiCond469) V4 load(1, XDATA, add(CFA_XSP16, literal(-16)))
        CFI (cfiCond469) V5 load(1, XDATA, add(CFA_XSP16, literal(-15)))
        CFI (cfiCond469) V6 load(1, XDATA, add(CFA_XSP16, literal(-14)))
        CFI (cfiCond469) V7 load(1, XDATA, add(CFA_XSP16, literal(-13)))
        CFI (cfiCond469) V8 load(1, XDATA, add(CFA_XSP16, literal(-12)))
        CFI (cfiCond469) V9 load(1, XDATA, add(CFA_XSP16, literal(-11)))
        CFI (cfiCond469) V10 load(1, XDATA, add(CFA_XSP16, literal(-10)))
        CFI (cfiCond469) V11 load(1, XDATA, add(CFA_XSP16, literal(-9)))
        CFI (cfiCond469) V12 load(1, XDATA, add(CFA_XSP16, literal(-8)))
        CFI (cfiCond469) V13 load(1, XDATA, add(CFA_XSP16, literal(-7)))
        CFI (cfiCond469) R7 load(1, XDATA, add(CFA_XSP16, literal(-6)))
        CFI (cfiCond469) ?RET_LOW load(1, XDATA, add(CFA_XSP16, literal(-5)))
        CFI (cfiCond469) ?RET_HIGH load(1, XDATA, add(CFA_XSP16, literal(-4)))
        CFI (cfiCond469) ?BRET_EXT load(1, XDATA, add(CFA_XSP16, literal(-3)))
        CFI (cfiCond469) DPL0 load(1, XDATA, add(CFA_XSP16, literal(-2)))
        CFI (cfiCond469) DPH0 load(1, XDATA, add(CFA_XSP16, literal(-1)))
        CFI (cfiCond469) CFA_SP SP+0
        CFI (cfiCond469) CFA_XSP16 add(XSP16, 22)
        CFI Block cfiCond470 Using cfiCommon0
        CFI (cfiCond470) NoFunction
        CFI (cfiCond470) Conditional ??CrossCallReturnLabel_110, ??CrossCallReturnLabel_46
        CFI (cfiCond470) R6 load(1, XDATA, add(CFA_XSP16, literal(-20)))
        CFI (cfiCond470) VB load(1, XDATA, add(CFA_XSP16, literal(-19)))
        CFI (cfiCond470) V0 load(1, XDATA, add(CFA_XSP16, literal(-18)))
        CFI (cfiCond470) V1 load(1, XDATA, add(CFA_XSP16, literal(-17)))
        CFI (cfiCond470) V2 load(1, XDATA, add(CFA_XSP16, literal(-16)))
        CFI (cfiCond470) V3 load(1, XDATA, add(CFA_XSP16, literal(-15)))
        CFI (cfiCond470) V4 load(1, XDATA, add(CFA_XSP16, literal(-14)))
        CFI (cfiCond470) V5 load(1, XDATA, add(CFA_XSP16, literal(-13)))
        CFI (cfiCond470) V6 load(1, XDATA, add(CFA_XSP16, literal(-12)))
        CFI (cfiCond470) V7 load(1, XDATA, add(CFA_XSP16, literal(-11)))
        CFI (cfiCond470) V8 load(1, XDATA, add(CFA_XSP16, literal(-10)))
        CFI (cfiCond470) V9 load(1, XDATA, add(CFA_XSP16, literal(-9)))
        CFI (cfiCond470) V10 load(1, XDATA, add(CFA_XSP16, literal(-8)))
        CFI (cfiCond470) V11 load(1, XDATA, add(CFA_XSP16, literal(-7)))
        CFI (cfiCond470) R7 load(1, XDATA, add(CFA_XSP16, literal(-6)))
        CFI (cfiCond470) ?RET_LOW load(1, XDATA, add(CFA_XSP16, literal(-5)))
        CFI (cfiCond470) ?RET_HIGH load(1, XDATA, add(CFA_XSP16, literal(-4)))
        CFI (cfiCond470) ?BRET_EXT load(1, XDATA, add(CFA_XSP16, literal(-3)))
        CFI (cfiCond470) DPL0 load(1, XDATA, add(CFA_XSP16, literal(-2)))
        CFI (cfiCond470) DPH0 load(1, XDATA, add(CFA_XSP16, literal(-1)))
        CFI (cfiCond470) CFA_SP SP+0
        CFI (cfiCond470) CFA_XSP16 add(XSP16, 21)
        CFI Block cfiCond471 Using cfiCommon0
        CFI (cfiCond471) NoFunction
        CFI (cfiCond471) Conditional ??CrossCallReturnLabel_109, ??CrossCallReturnLabel_42
        CFI (cfiCond471) R6 load(1, XDATA, add(CFA_XSP16, literal(-20)))
        CFI (cfiCond471) VB load(1, XDATA, add(CFA_XSP16, literal(-19)))
        CFI (cfiCond471) V0 load(1, XDATA, add(CFA_XSP16, literal(-18)))
        CFI (cfiCond471) V1 load(1, XDATA, add(CFA_XSP16, literal(-17)))
        CFI (cfiCond471) V2 load(1, XDATA, add(CFA_XSP16, literal(-16)))
        CFI (cfiCond471) V3 load(1, XDATA, add(CFA_XSP16, literal(-15)))
        CFI (cfiCond471) V4 load(1, XDATA, add(CFA_XSP16, literal(-14)))
        CFI (cfiCond471) V5 load(1, XDATA, add(CFA_XSP16, literal(-13)))
        CFI (cfiCond471) V6 load(1, XDATA, add(CFA_XSP16, literal(-12)))
        CFI (cfiCond471) V7 load(1, XDATA, add(CFA_XSP16, literal(-11)))
        CFI (cfiCond471) V8 load(1, XDATA, add(CFA_XSP16, literal(-10)))
        CFI (cfiCond471) V9 load(1, XDATA, add(CFA_XSP16, literal(-9)))
        CFI (cfiCond471) V10 load(1, XDATA, add(CFA_XSP16, literal(-8)))
        CFI (cfiCond471) V11 load(1, XDATA, add(CFA_XSP16, literal(-7)))
        CFI (cfiCond471) R7 load(1, XDATA, add(CFA_XSP16, literal(-6)))
        CFI (cfiCond471) ?RET_LOW load(1, XDATA, add(CFA_XSP16, literal(-5)))
        CFI (cfiCond471) ?RET_HIGH load(1, XDATA, add(CFA_XSP16, literal(-4)))
        CFI (cfiCond471) ?BRET_EXT load(1, XDATA, add(CFA_XSP16, literal(-3)))
        CFI (cfiCond471) DPL0 load(1, XDATA, add(CFA_XSP16, literal(-2)))
        CFI (cfiCond471) DPH0 load(1, XDATA, add(CFA_XSP16, literal(-1)))
        CFI (cfiCond471) CFA_SP SP+0
        CFI (cfiCond471) CFA_XSP16 add(XSP16, 21)
        CFI Block cfiCond472 Using cfiCommon0
        CFI (cfiCond472) NoFunction
        CFI (cfiCond472) Conditional ??CrossCallReturnLabel_109, ??CrossCallReturnLabel_43
        CFI (cfiCond472) R6 load(1, XDATA, add(CFA_XSP16, literal(-20)))
        CFI (cfiCond472) VB load(1, XDATA, add(CFA_XSP16, literal(-19)))
        CFI (cfiCond472) V0 load(1, XDATA, add(CFA_XSP16, literal(-18)))
        CFI (cfiCond472) V1 load(1, XDATA, add(CFA_XSP16, literal(-17)))
        CFI (cfiCond472) V2 load(1, XDATA, add(CFA_XSP16, literal(-16)))
        CFI (cfiCond472) V3 load(1, XDATA, add(CFA_XSP16, literal(-15)))
        CFI (cfiCond472) V4 load(1, XDATA, add(CFA_XSP16, literal(-14)))
        CFI (cfiCond472) V5 load(1, XDATA, add(CFA_XSP16, literal(-13)))
        CFI (cfiCond472) V6 load(1, XDATA, add(CFA_XSP16, literal(-12)))
        CFI (cfiCond472) V7 load(1, XDATA, add(CFA_XSP16, literal(-11)))
        CFI (cfiCond472) V8 load(1, XDATA, add(CFA_XSP16, literal(-10)))
        CFI (cfiCond472) V9 load(1, XDATA, add(CFA_XSP16, literal(-9)))
        CFI (cfiCond472) V10 load(1, XDATA, add(CFA_XSP16, literal(-8)))
        CFI (cfiCond472) V11 load(1, XDATA, add(CFA_XSP16, literal(-7)))
        CFI (cfiCond472) R7 load(1, XDATA, add(CFA_XSP16, literal(-6)))
        CFI (cfiCond472) ?RET_LOW load(1, XDATA, add(CFA_XSP16, literal(-5)))
        CFI (cfiCond472) ?RET_HIGH load(1, XDATA, add(CFA_XSP16, literal(-4)))
        CFI (cfiCond472) ?BRET_EXT load(1, XDATA, add(CFA_XSP16, literal(-3)))
        CFI (cfiCond472) DPL0 load(1, XDATA, add(CFA_XSP16, literal(-2)))
        CFI (cfiCond472) DPH0 load(1, XDATA, add(CFA_XSP16, literal(-1)))
        CFI (cfiCond472) CFA_SP SP+0
        CFI (cfiCond472) CFA_XSP16 add(XSP16, 21)
        CFI Block cfiCond473 Using cfiCommon0
        CFI (cfiCond473) NoFunction
        CFI (cfiCond473) Conditional ??CrossCallReturnLabel_108, ??CrossCallReturnLabel_24
        CFI (cfiCond473) R6 load(1, XDATA, add(CFA_XSP16, literal(-10)))
        CFI (cfiCond473) VB load(1, XDATA, add(CFA_XSP16, literal(-9)))
        CFI (cfiCond473) V0 load(1, XDATA, add(CFA_XSP16, literal(-8)))
        CFI (cfiCond473) V1 load(1, XDATA, add(CFA_XSP16, literal(-7)))
        CFI (cfiCond473) R7 load(1, XDATA, add(CFA_XSP16, literal(-6)))
        CFI (cfiCond473) ?RET_LOW load(1, XDATA, add(CFA_XSP16, literal(-5)))
        CFI (cfiCond473) ?RET_HIGH load(1, XDATA, add(CFA_XSP16, literal(-4)))
        CFI (cfiCond473) ?BRET_EXT load(1, XDATA, add(CFA_XSP16, literal(-3)))
        CFI (cfiCond473) DPL0 load(1, XDATA, add(CFA_XSP16, literal(-2)))
        CFI (cfiCond473) DPH0 load(1, XDATA, add(CFA_XSP16, literal(-1)))
        CFI (cfiCond473) CFA_SP SP+0
        CFI (cfiCond473) CFA_XSP16 add(XSP16, 10)
        CFI Block cfiCond474 Using cfiCommon0
        CFI (cfiCond474) NoFunction
        CFI (cfiCond474) Conditional ??CrossCallReturnLabel_108, ??CrossCallReturnLabel_25
        CFI (cfiCond474) R6 load(1, XDATA, add(CFA_XSP16, literal(-20)))
        CFI (cfiCond474) VB load(1, XDATA, add(CFA_XSP16, literal(-19)))
        CFI (cfiCond474) V0 load(1, XDATA, add(CFA_XSP16, literal(-18)))
        CFI (cfiCond474) V1 load(1, XDATA, add(CFA_XSP16, literal(-17)))
        CFI (cfiCond474) V2 load(1, XDATA, add(CFA_XSP16, literal(-16)))
        CFI (cfiCond474) V3 load(1, XDATA, add(CFA_XSP16, literal(-15)))
        CFI (cfiCond474) V4 load(1, XDATA, add(CFA_XSP16, literal(-14)))
        CFI (cfiCond474) V5 load(1, XDATA, add(CFA_XSP16, literal(-13)))
        CFI (cfiCond474) V6 load(1, XDATA, add(CFA_XSP16, literal(-12)))
        CFI (cfiCond474) V7 load(1, XDATA, add(CFA_XSP16, literal(-11)))
        CFI (cfiCond474) V8 load(1, XDATA, add(CFA_XSP16, literal(-10)))
        CFI (cfiCond474) V9 load(1, XDATA, add(CFA_XSP16, literal(-9)))
        CFI (cfiCond474) V10 load(1, XDATA, add(CFA_XSP16, literal(-8)))
        CFI (cfiCond474) V11 load(1, XDATA, add(CFA_XSP16, literal(-7)))
        CFI (cfiCond474) R7 load(1, XDATA, add(CFA_XSP16, literal(-6)))
        CFI (cfiCond474) ?RET_LOW load(1, XDATA, add(CFA_XSP16, literal(-5)))
        CFI (cfiCond474) ?RET_HIGH load(1, XDATA, add(CFA_XSP16, literal(-4)))
        CFI (cfiCond474) ?BRET_EXT load(1, XDATA, add(CFA_XSP16, literal(-3)))
        CFI (cfiCond474) DPL0 load(1, XDATA, add(CFA_XSP16, literal(-2)))
        CFI (cfiCond474) DPH0 load(1, XDATA, add(CFA_XSP16, literal(-1)))
        CFI (cfiCond474) CFA_SP SP+0
        CFI (cfiCond474) CFA_XSP16 add(XSP16, 21)
        CFI Block cfiPicker475 Using cfiCommon1
        CFI (cfiPicker475) NoFunction
        CFI (cfiPicker475) Picker
        LCALL   ?Subroutine83 & 0xFFFF
??CrossCallReturnLabel_117:
        MOV     R3,DPH
        RET
        CFI EndBlock cfiCond468
        CFI EndBlock cfiCond469
        CFI EndBlock cfiCond470
        CFI EndBlock cfiCond471
        CFI EndBlock cfiCond472
        CFI EndBlock cfiCond473
        CFI EndBlock cfiCond474
        CFI EndBlock cfiPicker475

        RSEG BANKED_CODE:CODE:NOROOT(0)
?Subroutine83:
        CFI Block cfiCond476 Using cfiCommon0
        CFI NoFunction
        CFI Conditional ??CrossCallReturnLabel_116
        CFI R6 load(1, XDATA, add(CFA_XSP16, literal(-20)))
        CFI VB load(1, XDATA, add(CFA_XSP16, literal(-19)))
        CFI V0 load(1, XDATA, add(CFA_XSP16, literal(-18)))
        CFI V1 load(1, XDATA, add(CFA_XSP16, literal(-17)))
        CFI V2 load(1, XDATA, add(CFA_XSP16, literal(-16)))
        CFI V3 load(1, XDATA, add(CFA_XSP16, literal(-15)))
        CFI V4 load(1, XDATA, add(CFA_XSP16, literal(-14)))
        CFI V5 load(1, XDATA, add(CFA_XSP16, literal(-13)))
        CFI V6 load(1, XDATA, add(CFA_XSP16, literal(-12)))
        CFI V7 load(1, XDATA, add(CFA_XSP16, literal(-11)))
        CFI V8 load(1, XDATA, add(CFA_XSP16, literal(-10)))
        CFI V9 load(1, XDATA, add(CFA_XSP16, literal(-9)))
        CFI V10 load(1, XDATA, add(CFA_XSP16, literal(-8)))
        CFI V11 load(1, XDATA, add(CFA_XSP16, literal(-7)))
        CFI R7 load(1, XDATA, add(CFA_XSP16, literal(-6)))
        CFI ?RET_LOW load(1, XDATA, add(CFA_XSP16, literal(-5)))
        CFI ?RET_HIGH load(1, XDATA, add(CFA_XSP16, literal(-4)))
        CFI ?BRET_EXT load(1, XDATA, add(CFA_XSP16, literal(-3)))
        CFI DPL0 load(1, XDATA, add(CFA_XSP16, literal(-2)))
        CFI DPH0 load(1, XDATA, add(CFA_XSP16, literal(-1)))
        CFI CFA_SP SP+0
        CFI CFA_XSP16 add(XSP16, 21)
        CFI Block cfiCond477 Using cfiCommon0
        CFI (cfiCond477) NoFunction
        CFI (cfiCond477) Conditional ??CrossCallReturnLabel_117, ??CrossCallReturnLabel_110, ??CrossCallReturnLabel_44
        CFI (cfiCond477) R6 load(1, XDATA, add(CFA_XSP16, literal(-22)))
        CFI (cfiCond477) VB load(1, XDATA, add(CFA_XSP16, literal(-21)))
        CFI (cfiCond477) V0 load(1, XDATA, add(CFA_XSP16, literal(-20)))
        CFI (cfiCond477) V1 load(1, XDATA, add(CFA_XSP16, literal(-19)))
        CFI (cfiCond477) V2 load(1, XDATA, add(CFA_XSP16, literal(-18)))
        CFI (cfiCond477) V3 load(1, XDATA, add(CFA_XSP16, literal(-17)))
        CFI (cfiCond477) V4 load(1, XDATA, add(CFA_XSP16, literal(-16)))
        CFI (cfiCond477) V5 load(1, XDATA, add(CFA_XSP16, literal(-15)))
        CFI (cfiCond477) V6 load(1, XDATA, add(CFA_XSP16, literal(-14)))
        CFI (cfiCond477) V7 load(1, XDATA, add(CFA_XSP16, literal(-13)))
        CFI (cfiCond477) V8 load(1, XDATA, add(CFA_XSP16, literal(-12)))
        CFI (cfiCond477) V9 load(1, XDATA, add(CFA_XSP16, literal(-11)))
        CFI (cfiCond477) V10 load(1, XDATA, add(CFA_XSP16, literal(-10)))
        CFI (cfiCond477) V11 load(1, XDATA, add(CFA_XSP16, literal(-9)))
        CFI (cfiCond477) V12 load(1, XDATA, add(CFA_XSP16, literal(-8)))
        CFI (cfiCond477) V13 load(1, XDATA, add(CFA_XSP16, literal(-7)))
        CFI (cfiCond477) R7 load(1, XDATA, add(CFA_XSP16, literal(-6)))
        CFI (cfiCond477) ?RET_LOW load(1, XDATA, add(CFA_XSP16, literal(-5)))
        CFI (cfiCond477) ?RET_HIGH load(1, XDATA, add(CFA_XSP16, literal(-4)))
        CFI (cfiCond477) ?BRET_EXT load(1, XDATA, add(CFA_XSP16, literal(-3)))
        CFI (cfiCond477) DPL0 load(1, XDATA, add(CFA_XSP16, literal(-2)))
        CFI (cfiCond477) DPH0 load(1, XDATA, add(CFA_XSP16, literal(-1)))
        CFI (cfiCond477) CFA_SP SP+0
        CFI (cfiCond477) CFA_XSP16 add(XSP16, 22)
        CFI Block cfiCond478 Using cfiCommon0
        CFI (cfiCond478) NoFunction
        CFI (cfiCond478) Conditional ??CrossCallReturnLabel_117, ??CrossCallReturnLabel_110, ??CrossCallReturnLabel_45
        CFI (cfiCond478) R6 load(1, XDATA, add(CFA_XSP16, literal(-22)))
        CFI (cfiCond478) VB load(1, XDATA, add(CFA_XSP16, literal(-21)))
        CFI (cfiCond478) V0 load(1, XDATA, add(CFA_XSP16, literal(-20)))
        CFI (cfiCond478) V1 load(1, XDATA, add(CFA_XSP16, literal(-19)))
        CFI (cfiCond478) V2 load(1, XDATA, add(CFA_XSP16, literal(-18)))
        CFI (cfiCond478) V3 load(1, XDATA, add(CFA_XSP16, literal(-17)))
        CFI (cfiCond478) V4 load(1, XDATA, add(CFA_XSP16, literal(-16)))
        CFI (cfiCond478) V5 load(1, XDATA, add(CFA_XSP16, literal(-15)))
        CFI (cfiCond478) V6 load(1, XDATA, add(CFA_XSP16, literal(-14)))
        CFI (cfiCond478) V7 load(1, XDATA, add(CFA_XSP16, literal(-13)))
        CFI (cfiCond478) V8 load(1, XDATA, add(CFA_XSP16, literal(-12)))
        CFI (cfiCond478) V9 load(1, XDATA, add(CFA_XSP16, literal(-11)))
        CFI (cfiCond478) V10 load(1, XDATA, add(CFA_XSP16, literal(-10)))
        CFI (cfiCond478) V11 load(1, XDATA, add(CFA_XSP16, literal(-9)))
        CFI (cfiCond478) V12 load(1, XDATA, add(CFA_XSP16, literal(-8)))
        CFI (cfiCond478) V13 load(1, XDATA, add(CFA_XSP16, literal(-7)))
        CFI (cfiCond478) R7 load(1, XDATA, add(CFA_XSP16, literal(-6)))
        CFI (cfiCond478) ?RET_LOW load(1, XDATA, add(CFA_XSP16, literal(-5)))
        CFI (cfiCond478) ?RET_HIGH load(1, XDATA, add(CFA_XSP16, literal(-4)))
        CFI (cfiCond478) ?BRET_EXT load(1, XDATA, add(CFA_XSP16, literal(-3)))
        CFI (cfiCond478) DPL0 load(1, XDATA, add(CFA_XSP16, literal(-2)))
        CFI (cfiCond478) DPH0 load(1, XDATA, add(CFA_XSP16, literal(-1)))
        CFI (cfiCond478) CFA_SP SP+0
        CFI (cfiCond478) CFA_XSP16 add(XSP16, 22)
        CFI Block cfiCond479 Using cfiCommon0
        CFI (cfiCond479) NoFunction
        CFI (cfiCond479) Conditional ??CrossCallReturnLabel_117, ??CrossCallReturnLabel_110, ??CrossCallReturnLabel_46
        CFI (cfiCond479) R6 load(1, XDATA, add(CFA_XSP16, literal(-20)))
        CFI (cfiCond479) VB load(1, XDATA, add(CFA_XSP16, literal(-19)))
        CFI (cfiCond479) V0 load(1, XDATA, add(CFA_XSP16, literal(-18)))
        CFI (cfiCond479) V1 load(1, XDATA, add(CFA_XSP16, literal(-17)))
        CFI (cfiCond479) V2 load(1, XDATA, add(CFA_XSP16, literal(-16)))
        CFI (cfiCond479) V3 load(1, XDATA, add(CFA_XSP16, literal(-15)))
        CFI (cfiCond479) V4 load(1, XDATA, add(CFA_XSP16, literal(-14)))
        CFI (cfiCond479) V5 load(1, XDATA, add(CFA_XSP16, literal(-13)))
        CFI (cfiCond479) V6 load(1, XDATA, add(CFA_XSP16, literal(-12)))
        CFI (cfiCond479) V7 load(1, XDATA, add(CFA_XSP16, literal(-11)))
        CFI (cfiCond479) V8 load(1, XDATA, add(CFA_XSP16, literal(-10)))
        CFI (cfiCond479) V9 load(1, XDATA, add(CFA_XSP16, literal(-9)))
        CFI (cfiCond479) V10 load(1, XDATA, add(CFA_XSP16, literal(-8)))
        CFI (cfiCond479) V11 load(1, XDATA, add(CFA_XSP16, literal(-7)))
        CFI (cfiCond479) R7 load(1, XDATA, add(CFA_XSP16, literal(-6)))
        CFI (cfiCond479) ?RET_LOW load(1, XDATA, add(CFA_XSP16, literal(-5)))
        CFI (cfiCond479) ?RET_HIGH load(1, XDATA, add(CFA_XSP16, literal(-4)))
        CFI (cfiCond479) ?BRET_EXT load(1, XDATA, add(CFA_XSP16, literal(-3)))
        CFI (cfiCond479) DPL0 load(1, XDATA, add(CFA_XSP16, literal(-2)))
        CFI (cfiCond479) DPH0 load(1, XDATA, add(CFA_XSP16, literal(-1)))
        CFI (cfiCond479) CFA_SP SP+0
        CFI (cfiCond479) CFA_XSP16 add(XSP16, 21)
        CFI Block cfiCond480 Using cfiCommon0
        CFI (cfiCond480) NoFunction
        CFI (cfiCond480) Conditional ??CrossCallReturnLabel_117, ??CrossCallReturnLabel_109, ??CrossCallReturnLabel_42
        CFI (cfiCond480) R6 load(1, XDATA, add(CFA_XSP16, literal(-20)))
        CFI (cfiCond480) VB load(1, XDATA, add(CFA_XSP16, literal(-19)))
        CFI (cfiCond480) V0 load(1, XDATA, add(CFA_XSP16, literal(-18)))
        CFI (cfiCond480) V1 load(1, XDATA, add(CFA_XSP16, literal(-17)))
        CFI (cfiCond480) V2 load(1, XDATA, add(CFA_XSP16, literal(-16)))
        CFI (cfiCond480) V3 load(1, XDATA, add(CFA_XSP16, literal(-15)))
        CFI (cfiCond480) V4 load(1, XDATA, add(CFA_XSP16, literal(-14)))
        CFI (cfiCond480) V5 load(1, XDATA, add(CFA_XSP16, literal(-13)))
        CFI (cfiCond480) V6 load(1, XDATA, add(CFA_XSP16, literal(-12)))
        CFI (cfiCond480) V7 load(1, XDATA, add(CFA_XSP16, literal(-11)))
        CFI (cfiCond480) V8 load(1, XDATA, add(CFA_XSP16, literal(-10)))
        CFI (cfiCond480) V9 load(1, XDATA, add(CFA_XSP16, literal(-9)))
        CFI (cfiCond480) V10 load(1, XDATA, add(CFA_XSP16, literal(-8)))
        CFI (cfiCond480) V11 load(1, XDATA, add(CFA_XSP16, literal(-7)))
        CFI (cfiCond480) R7 load(1, XDATA, add(CFA_XSP16, literal(-6)))
        CFI (cfiCond480) ?RET_LOW load(1, XDATA, add(CFA_XSP16, literal(-5)))
        CFI (cfiCond480) ?RET_HIGH load(1, XDATA, add(CFA_XSP16, literal(-4)))
        CFI (cfiCond480) ?BRET_EXT load(1, XDATA, add(CFA_XSP16, literal(-3)))
        CFI (cfiCond480) DPL0 load(1, XDATA, add(CFA_XSP16, literal(-2)))
        CFI (cfiCond480) DPH0 load(1, XDATA, add(CFA_XSP16, literal(-1)))
        CFI (cfiCond480) CFA_SP SP+0
        CFI (cfiCond480) CFA_XSP16 add(XSP16, 21)
        CFI Block cfiCond481 Using cfiCommon0
        CFI (cfiCond481) NoFunction
        CFI (cfiCond481) Conditional ??CrossCallReturnLabel_117, ??CrossCallReturnLabel_109, ??CrossCallReturnLabel_43
        CFI (cfiCond481) R6 load(1, XDATA, add(CFA_XSP16, literal(-20)))
        CFI (cfiCond481) VB load(1, XDATA, add(CFA_XSP16, literal(-19)))
        CFI (cfiCond481) V0 load(1, XDATA, add(CFA_XSP16, literal(-18)))
        CFI (cfiCond481) V1 load(1, XDATA, add(CFA_XSP16, literal(-17)))
        CFI (cfiCond481) V2 load(1, XDATA, add(CFA_XSP16, literal(-16)))
        CFI (cfiCond481) V3 load(1, XDATA, add(CFA_XSP16, literal(-15)))
        CFI (cfiCond481) V4 load(1, XDATA, add(CFA_XSP16, literal(-14)))
        CFI (cfiCond481) V5 load(1, XDATA, add(CFA_XSP16, literal(-13)))
        CFI (cfiCond481) V6 load(1, XDATA, add(CFA_XSP16, literal(-12)))
        CFI (cfiCond481) V7 load(1, XDATA, add(CFA_XSP16, literal(-11)))
        CFI (cfiCond481) V8 load(1, XDATA, add(CFA_XSP16, literal(-10)))
        CFI (cfiCond481) V9 load(1, XDATA, add(CFA_XSP16, literal(-9)))
        CFI (cfiCond481) V10 load(1, XDATA, add(CFA_XSP16, literal(-8)))
        CFI (cfiCond481) V11 load(1, XDATA, add(CFA_XSP16, literal(-7)))
        CFI (cfiCond481) R7 load(1, XDATA, add(CFA_XSP16, literal(-6)))
        CFI (cfiCond481) ?RET_LOW load(1, XDATA, add(CFA_XSP16, literal(-5)))
        CFI (cfiCond481) ?RET_HIGH load(1, XDATA, add(CFA_XSP16, literal(-4)))
        CFI (cfiCond481) ?BRET_EXT load(1, XDATA, add(CFA_XSP16, literal(-3)))
        CFI (cfiCond481) DPL0 load(1, XDATA, add(CFA_XSP16, literal(-2)))
        CFI (cfiCond481) DPH0 load(1, XDATA, add(CFA_XSP16, literal(-1)))
        CFI (cfiCond481) CFA_SP SP+0
        CFI (cfiCond481) CFA_XSP16 add(XSP16, 21)
        CFI Block cfiCond482 Using cfiCommon0
        CFI (cfiCond482) NoFunction
        CFI (cfiCond482) Conditional ??CrossCallReturnLabel_117, ??CrossCallReturnLabel_108, ??CrossCallReturnLabel_24
        CFI (cfiCond482) R6 load(1, XDATA, add(CFA_XSP16, literal(-10)))
        CFI (cfiCond482) VB load(1, XDATA, add(CFA_XSP16, literal(-9)))
        CFI (cfiCond482) V0 load(1, XDATA, add(CFA_XSP16, literal(-8)))
        CFI (cfiCond482) V1 load(1, XDATA, add(CFA_XSP16, literal(-7)))
        CFI (cfiCond482) R7 load(1, XDATA, add(CFA_XSP16, literal(-6)))
        CFI (cfiCond482) ?RET_LOW load(1, XDATA, add(CFA_XSP16, literal(-5)))
        CFI (cfiCond482) ?RET_HIGH load(1, XDATA, add(CFA_XSP16, literal(-4)))
        CFI (cfiCond482) ?BRET_EXT load(1, XDATA, add(CFA_XSP16, literal(-3)))
        CFI (cfiCond482) DPL0 load(1, XDATA, add(CFA_XSP16, literal(-2)))
        CFI (cfiCond482) DPH0 load(1, XDATA, add(CFA_XSP16, literal(-1)))
        CFI (cfiCond482) CFA_SP SP+0
        CFI (cfiCond482) CFA_XSP16 add(XSP16, 10)
        CFI Block cfiCond483 Using cfiCommon0
        CFI (cfiCond483) NoFunction
        CFI (cfiCond483) Conditional ??CrossCallReturnLabel_117, ??CrossCallReturnLabel_108, ??CrossCallReturnLabel_25
        CFI (cfiCond483) R6 load(1, XDATA, add(CFA_XSP16, literal(-20)))
        CFI (cfiCond483) VB load(1, XDATA, add(CFA_XSP16, literal(-19)))
        CFI (cfiCond483) V0 load(1, XDATA, add(CFA_XSP16, literal(-18)))
        CFI (cfiCond483) V1 load(1, XDATA, add(CFA_XSP16, literal(-17)))
        CFI (cfiCond483) V2 load(1, XDATA, add(CFA_XSP16, literal(-16)))
        CFI (cfiCond483) V3 load(1, XDATA, add(CFA_XSP16, literal(-15)))
        CFI (cfiCond483) V4 load(1, XDATA, add(CFA_XSP16, literal(-14)))
        CFI (cfiCond483) V5 load(1, XDATA, add(CFA_XSP16, literal(-13)))
        CFI (cfiCond483) V6 load(1, XDATA, add(CFA_XSP16, literal(-12)))
        CFI (cfiCond483) V7 load(1, XDATA, add(CFA_XSP16, literal(-11)))
        CFI (cfiCond483) V8 load(1, XDATA, add(CFA_XSP16, literal(-10)))
        CFI (cfiCond483) V9 load(1, XDATA, add(CFA_XSP16, literal(-9)))
        CFI (cfiCond483) V10 load(1, XDATA, add(CFA_XSP16, literal(-8)))
        CFI (cfiCond483) V11 load(1, XDATA, add(CFA_XSP16, literal(-7)))
        CFI (cfiCond483) R7 load(1, XDATA, add(CFA_XSP16, literal(-6)))
        CFI (cfiCond483) ?RET_LOW load(1, XDATA, add(CFA_XSP16, literal(-5)))
        CFI (cfiCond483) ?RET_HIGH load(1, XDATA, add(CFA_XSP16, literal(-4)))
        CFI (cfiCond483) ?BRET_EXT load(1, XDATA, add(CFA_XSP16, literal(-3)))
        CFI (cfiCond483) DPL0 load(1, XDATA, add(CFA_XSP16, literal(-2)))
        CFI (cfiCond483) DPH0 load(1, XDATA, add(CFA_XSP16, literal(-1)))
        CFI (cfiCond483) CFA_SP SP+0
        CFI (cfiCond483) CFA_XSP16 add(XSP16, 21)
        CFI Block cfiPicker484 Using cfiCommon1
        CFI (cfiPicker484) NoFunction
        CFI (cfiPicker484) Picker
        MOVX    A,@DPTR
        MOV     DPL,R2
        MOV     DPH,R3
        MOVX    @DPTR,A
        INC     DPTR
        INC     R2
        RET
        CFI EndBlock cfiCond476
        CFI EndBlock cfiCond477
        CFI EndBlock cfiCond478
        CFI EndBlock cfiCond479
        CFI EndBlock cfiCond480
        CFI EndBlock cfiCond481
        CFI EndBlock cfiCond482
        CFI EndBlock cfiCond483
        CFI EndBlock cfiPicker484

        RSEG BANKED_CODE:CODE:NOROOT(0)
?Subroutine36:
        CFI Block cfiCond485 Using cfiCommon0
        CFI NoFunction
        CFI Conditional ??CrossCallReturnLabel_42
        CFI R6 load(1, XDATA, add(CFA_XSP16, literal(-20)))
        CFI VB load(1, XDATA, add(CFA_XSP16, literal(-19)))
        CFI V0 load(1, XDATA, add(CFA_XSP16, literal(-18)))
        CFI V1 load(1, XDATA, add(CFA_XSP16, literal(-17)))
        CFI V2 load(1, XDATA, add(CFA_XSP16, literal(-16)))
        CFI V3 load(1, XDATA, add(CFA_XSP16, literal(-15)))
        CFI V4 load(1, XDATA, add(CFA_XSP16, literal(-14)))
        CFI V5 load(1, XDATA, add(CFA_XSP16, literal(-13)))
        CFI V6 load(1, XDATA, add(CFA_XSP16, literal(-12)))
        CFI V7 load(1, XDATA, add(CFA_XSP16, literal(-11)))
        CFI V8 load(1, XDATA, add(CFA_XSP16, literal(-10)))
        CFI V9 load(1, XDATA, add(CFA_XSP16, literal(-9)))
        CFI V10 load(1, XDATA, add(CFA_XSP16, literal(-8)))
        CFI V11 load(1, XDATA, add(CFA_XSP16, literal(-7)))
        CFI R7 load(1, XDATA, add(CFA_XSP16, literal(-6)))
        CFI ?RET_LOW load(1, XDATA, add(CFA_XSP16, literal(-5)))
        CFI ?RET_HIGH load(1, XDATA, add(CFA_XSP16, literal(-4)))
        CFI ?BRET_EXT load(1, XDATA, add(CFA_XSP16, literal(-3)))
        CFI DPL0 load(1, XDATA, add(CFA_XSP16, literal(-2)))
        CFI DPH0 load(1, XDATA, add(CFA_XSP16, literal(-1)))
        CFI CFA_SP SP+0
        CFI CFA_XSP16 add(XSP16, 21)
        CFI Block cfiCond486 Using cfiCommon0
        CFI (cfiCond486) NoFunction
        CFI (cfiCond486) Conditional ??CrossCallReturnLabel_43
        CFI (cfiCond486) R6 load(1, XDATA, add(CFA_XSP16, literal(-20)))
        CFI (cfiCond486) VB load(1, XDATA, add(CFA_XSP16, literal(-19)))
        CFI (cfiCond486) V0 load(1, XDATA, add(CFA_XSP16, literal(-18)))
        CFI (cfiCond486) V1 load(1, XDATA, add(CFA_XSP16, literal(-17)))
        CFI (cfiCond486) V2 load(1, XDATA, add(CFA_XSP16, literal(-16)))
        CFI (cfiCond486) V3 load(1, XDATA, add(CFA_XSP16, literal(-15)))
        CFI (cfiCond486) V4 load(1, XDATA, add(CFA_XSP16, literal(-14)))
        CFI (cfiCond486) V5 load(1, XDATA, add(CFA_XSP16, literal(-13)))
        CFI (cfiCond486) V6 load(1, XDATA, add(CFA_XSP16, literal(-12)))
        CFI (cfiCond486) V7 load(1, XDATA, add(CFA_XSP16, literal(-11)))
        CFI (cfiCond486) V8 load(1, XDATA, add(CFA_XSP16, literal(-10)))
        CFI (cfiCond486) V9 load(1, XDATA, add(CFA_XSP16, literal(-9)))
        CFI (cfiCond486) V10 load(1, XDATA, add(CFA_XSP16, literal(-8)))
        CFI (cfiCond486) V11 load(1, XDATA, add(CFA_XSP16, literal(-7)))
        CFI (cfiCond486) R7 load(1, XDATA, add(CFA_XSP16, literal(-6)))
        CFI (cfiCond486) ?RET_LOW load(1, XDATA, add(CFA_XSP16, literal(-5)))
        CFI (cfiCond486) ?RET_HIGH load(1, XDATA, add(CFA_XSP16, literal(-4)))
        CFI (cfiCond486) ?BRET_EXT load(1, XDATA, add(CFA_XSP16, literal(-3)))
        CFI (cfiCond486) DPL0 load(1, XDATA, add(CFA_XSP16, literal(-2)))
        CFI (cfiCond486) DPH0 load(1, XDATA, add(CFA_XSP16, literal(-1)))
        CFI (cfiCond486) CFA_SP SP+0
        CFI (cfiCond486) CFA_XSP16 add(XSP16, 21)
        CFI Block cfiPicker487 Using cfiCommon1
        CFI (cfiPicker487) NoFunction
        CFI (cfiPicker487) Picker
        LCALL   ?Subroutine75 & 0xFFFF
??CrossCallReturnLabel_109:
        MOV     A,R6
        RET
        CFI EndBlock cfiCond485
        CFI EndBlock cfiCond486
        CFI EndBlock cfiPicker487

        RSEG BANKED_CODE:CODE:NOROOT(0)
?Subroutine25:
        CFI Block cfiCond488 Using cfiCommon0
        CFI NoFunction
        CFI Conditional ??CrossCallReturnLabel_24
        CFI R6 load(1, XDATA, add(CFA_XSP16, literal(-10)))
        CFI VB load(1, XDATA, add(CFA_XSP16, literal(-9)))
        CFI V0 load(1, XDATA, add(CFA_XSP16, literal(-8)))
        CFI V1 load(1, XDATA, add(CFA_XSP16, literal(-7)))
        CFI R7 load(1, XDATA, add(CFA_XSP16, literal(-6)))
        CFI ?RET_LOW load(1, XDATA, add(CFA_XSP16, literal(-5)))
        CFI ?RET_HIGH load(1, XDATA, add(CFA_XSP16, literal(-4)))
        CFI ?BRET_EXT load(1, XDATA, add(CFA_XSP16, literal(-3)))
        CFI DPL0 load(1, XDATA, add(CFA_XSP16, literal(-2)))
        CFI DPH0 load(1, XDATA, add(CFA_XSP16, literal(-1)))
        CFI CFA_SP SP+0
        CFI CFA_XSP16 add(XSP16, 10)
        CFI Block cfiCond489 Using cfiCommon0
        CFI (cfiCond489) NoFunction
        CFI (cfiCond489) Conditional ??CrossCallReturnLabel_25
        CFI (cfiCond489) R6 load(1, XDATA, add(CFA_XSP16, literal(-20)))
        CFI (cfiCond489) VB load(1, XDATA, add(CFA_XSP16, literal(-19)))
        CFI (cfiCond489) V0 load(1, XDATA, add(CFA_XSP16, literal(-18)))
        CFI (cfiCond489) V1 load(1, XDATA, add(CFA_XSP16, literal(-17)))
        CFI (cfiCond489) V2 load(1, XDATA, add(CFA_XSP16, literal(-16)))
        CFI (cfiCond489) V3 load(1, XDATA, add(CFA_XSP16, literal(-15)))
        CFI (cfiCond489) V4 load(1, XDATA, add(CFA_XSP16, literal(-14)))
        CFI (cfiCond489) V5 load(1, XDATA, add(CFA_XSP16, literal(-13)))
        CFI (cfiCond489) V6 load(1, XDATA, add(CFA_XSP16, literal(-12)))
        CFI (cfiCond489) V7 load(1, XDATA, add(CFA_XSP16, literal(-11)))
        CFI (cfiCond489) V8 load(1, XDATA, add(CFA_XSP16, literal(-10)))
        CFI (cfiCond489) V9 load(1, XDATA, add(CFA_XSP16, literal(-9)))
        CFI (cfiCond489) V10 load(1, XDATA, add(CFA_XSP16, literal(-8)))
        CFI (cfiCond489) V11 load(1, XDATA, add(CFA_XSP16, literal(-7)))
        CFI (cfiCond489) R7 load(1, XDATA, add(CFA_XSP16, literal(-6)))
        CFI (cfiCond489) ?RET_LOW load(1, XDATA, add(CFA_XSP16, literal(-5)))
        CFI (cfiCond489) ?RET_HIGH load(1, XDATA, add(CFA_XSP16, literal(-4)))
        CFI (cfiCond489) ?BRET_EXT load(1, XDATA, add(CFA_XSP16, literal(-3)))
        CFI (cfiCond489) DPL0 load(1, XDATA, add(CFA_XSP16, literal(-2)))
        CFI (cfiCond489) DPH0 load(1, XDATA, add(CFA_XSP16, literal(-1)))
        CFI (cfiCond489) CFA_SP SP+0
        CFI (cfiCond489) CFA_XSP16 add(XSP16, 21)
        CFI Block cfiPicker490 Using cfiCommon1
        CFI (cfiPicker490) NoFunction
        CFI (cfiPicker490) Picker
        MOV     DPL,R0
        MOV     DPH,R1
        LCALL   ?Subroutine75 & 0xFFFF
??CrossCallReturnLabel_108:
        MOV     DPL,R0
        MOV     DPH,R1
        RET
        CFI EndBlock cfiCond488
        CFI EndBlock cfiCond489
        CFI EndBlock cfiPicker490

        RSEG BANKED_CODE:CODE:NOROOT(0)
?Subroutine15:
        CFI Block cfiCond491 Using cfiCommon0
        CFI NoFunction
        CFI Conditional ??CrossCallReturnLabel_232
        CFI R6 load(1, XDATA, add(CFA_XSP16, literal(-15)))
        CFI VB load(1, XDATA, add(CFA_XSP16, literal(-14)))
        CFI V0 load(1, XDATA, add(CFA_XSP16, literal(-13)))
        CFI V1 load(1, XDATA, add(CFA_XSP16, literal(-12)))
        CFI V2 load(1, XDATA, add(CFA_XSP16, literal(-11)))
        CFI V3 load(1, XDATA, add(CFA_XSP16, literal(-10)))
        CFI V4 load(1, XDATA, add(CFA_XSP16, literal(-9)))
        CFI V5 load(1, XDATA, add(CFA_XSP16, literal(-8)))
        CFI V6 load(1, XDATA, add(CFA_XSP16, literal(-7)))
        CFI R7 load(1, XDATA, add(CFA_XSP16, literal(-6)))
        CFI ?RET_LOW load(1, XDATA, add(CFA_XSP16, literal(-5)))
        CFI ?RET_HIGH load(1, XDATA, add(CFA_XSP16, literal(-4)))
        CFI ?BRET_EXT load(1, XDATA, add(CFA_XSP16, literal(-3)))
        CFI DPL0 load(1, XDATA, add(CFA_XSP16, literal(-2)))
        CFI DPH0 load(1, XDATA, add(CFA_XSP16, literal(-1)))
        CFI CFA_SP SP+0
        CFI CFA_XSP16 add(XSP16, 15)
        CFI Block cfiCond492 Using cfiCommon0
        CFI (cfiCond492) NoFunction
        CFI (cfiCond492) Conditional ??CrossCallReturnLabel_233
        CFI (cfiCond492) R6 load(1, XDATA, add(CFA_XSP16, literal(-15)))
        CFI (cfiCond492) VB load(1, XDATA, add(CFA_XSP16, literal(-14)))
        CFI (cfiCond492) V0 load(1, XDATA, add(CFA_XSP16, literal(-13)))
        CFI (cfiCond492) V1 load(1, XDATA, add(CFA_XSP16, literal(-12)))
        CFI (cfiCond492) V2 load(1, XDATA, add(CFA_XSP16, literal(-11)))
        CFI (cfiCond492) V3 load(1, XDATA, add(CFA_XSP16, literal(-10)))
        CFI (cfiCond492) V4 load(1, XDATA, add(CFA_XSP16, literal(-9)))
        CFI (cfiCond492) V5 load(1, XDATA, add(CFA_XSP16, literal(-8)))
        CFI (cfiCond492) V6 load(1, XDATA, add(CFA_XSP16, literal(-7)))
        CFI (cfiCond492) R7 load(1, XDATA, add(CFA_XSP16, literal(-6)))
        CFI (cfiCond492) ?RET_LOW load(1, XDATA, add(CFA_XSP16, literal(-5)))
        CFI (cfiCond492) ?RET_HIGH load(1, XDATA, add(CFA_XSP16, literal(-4)))
        CFI (cfiCond492) ?BRET_EXT load(1, XDATA, add(CFA_XSP16, literal(-3)))
        CFI (cfiCond492) DPL0 load(1, XDATA, add(CFA_XSP16, literal(-2)))
        CFI (cfiCond492) DPH0 load(1, XDATA, add(CFA_XSP16, literal(-1)))
        CFI (cfiCond492) CFA_SP SP+0
        CFI (cfiCond492) CFA_XSP16 add(XSP16, 15)
        CFI Block cfiPicker493 Using cfiCommon1
        CFI (cfiPicker493) NoFunction
        CFI (cfiPicker493) Picker
        MOV     DPTR,#ZDAppNwkAddr
        CFI EndBlock cfiCond491
        CFI EndBlock cfiCond492
        CFI EndBlock cfiPicker493
        REQUIRE ??Subroutine108_0
        ; // Fall through to label ??Subroutine108_0

        RSEG BANKED_CODE:CODE:NOROOT(0)
??Subroutine108_0:
        CFI Block cfiCond494 Using cfiCommon0
        CFI NoFunction
        CFI Conditional ??CrossCallReturnLabel_222
        CFI R6 load(1, XDATA, add(CFA_XSP16, literal(-14)))
        CFI VB load(1, XDATA, add(CFA_XSP16, literal(-13)))
        CFI V0 load(1, XDATA, add(CFA_XSP16, literal(-12)))
        CFI V1 load(1, XDATA, add(CFA_XSP16, literal(-11)))
        CFI V2 load(1, XDATA, add(CFA_XSP16, literal(-10)))
        CFI V3 load(1, XDATA, add(CFA_XSP16, literal(-9)))
        CFI V4 load(1, XDATA, add(CFA_XSP16, literal(-8)))
        CFI V5 load(1, XDATA, add(CFA_XSP16, literal(-7)))
        CFI R7 load(1, XDATA, add(CFA_XSP16, literal(-6)))
        CFI ?RET_LOW load(1, XDATA, add(CFA_XSP16, literal(-5)))
        CFI ?RET_HIGH load(1, XDATA, add(CFA_XSP16, literal(-4)))
        CFI ?BRET_EXT load(1, XDATA, add(CFA_XSP16, literal(-3)))
        CFI DPL0 load(1, XDATA, add(CFA_XSP16, literal(-2)))
        CFI DPH0 load(1, XDATA, add(CFA_XSP16, literal(-1)))
        CFI CFA_SP SP+0
        CFI CFA_XSP16 add(XSP16, 14)
        CFI Block cfiCond495 Using cfiCommon0
        CFI (cfiCond495) NoFunction
        CFI (cfiCond495) Conditional ??CrossCallReturnLabel_223
        CFI (cfiCond495) R6 load(1, XDATA, add(CFA_XSP16, literal(-10)))
        CFI (cfiCond495) VB load(1, XDATA, add(CFA_XSP16, literal(-9)))
        CFI (cfiCond495) V0 load(1, XDATA, add(CFA_XSP16, literal(-8)))
        CFI (cfiCond495) V1 load(1, XDATA, add(CFA_XSP16, literal(-7)))
        CFI (cfiCond495) R7 load(1, XDATA, add(CFA_XSP16, literal(-6)))
        CFI (cfiCond495) ?RET_LOW load(1, XDATA, add(CFA_XSP16, literal(-5)))
        CFI (cfiCond495) ?RET_HIGH load(1, XDATA, add(CFA_XSP16, literal(-4)))
        CFI (cfiCond495) ?BRET_EXT load(1, XDATA, add(CFA_XSP16, literal(-3)))
        CFI (cfiCond495) DPL0 load(1, XDATA, add(CFA_XSP16, literal(-2)))
        CFI (cfiCond495) DPH0 load(1, XDATA, add(CFA_XSP16, literal(-1)))
        CFI (cfiCond495) CFA_SP SP+0
        CFI (cfiCond495) CFA_XSP16 add(XSP16, 10)
        CFI Block cfiCond496 Using cfiCommon0
        CFI (cfiCond496) NoFunction
        CFI (cfiCond496) Conditional ??CrossCallReturnLabel_224
        CFI (cfiCond496) R6 load(1, XDATA, add(CFA_XSP16, literal(-24)))
        CFI (cfiCond496) VB load(1, XDATA, add(CFA_XSP16, literal(-23)))
        CFI (cfiCond496) V0 load(1, XDATA, add(CFA_XSP16, literal(-22)))
        CFI (cfiCond496) V1 load(1, XDATA, add(CFA_XSP16, literal(-21)))
        CFI (cfiCond496) V2 load(1, XDATA, add(CFA_XSP16, literal(-20)))
        CFI (cfiCond496) V3 load(1, XDATA, add(CFA_XSP16, literal(-19)))
        CFI (cfiCond496) V4 load(1, XDATA, add(CFA_XSP16, literal(-18)))
        CFI (cfiCond496) V5 load(1, XDATA, add(CFA_XSP16, literal(-17)))
        CFI (cfiCond496) V6 load(1, XDATA, add(CFA_XSP16, literal(-16)))
        CFI (cfiCond496) V7 load(1, XDATA, add(CFA_XSP16, literal(-15)))
        CFI (cfiCond496) V8 load(1, XDATA, add(CFA_XSP16, literal(-14)))
        CFI (cfiCond496) V9 load(1, XDATA, add(CFA_XSP16, literal(-13)))
        CFI (cfiCond496) V10 load(1, XDATA, add(CFA_XSP16, literal(-12)))
        CFI (cfiCond496) V11 load(1, XDATA, add(CFA_XSP16, literal(-11)))
        CFI (cfiCond496) V12 load(1, XDATA, add(CFA_XSP16, literal(-10)))
        CFI (cfiCond496) V13 load(1, XDATA, add(CFA_XSP16, literal(-9)))
        CFI (cfiCond496) V14 load(1, XDATA, add(CFA_XSP16, literal(-8)))
        CFI (cfiCond496) V15 load(1, XDATA, add(CFA_XSP16, literal(-7)))
        CFI (cfiCond496) R7 load(1, XDATA, add(CFA_XSP16, literal(-6)))
        CFI (cfiCond496) ?RET_LOW load(1, XDATA, add(CFA_XSP16, literal(-5)))
        CFI (cfiCond496) ?RET_HIGH load(1, XDATA, add(CFA_XSP16, literal(-4)))
        CFI (cfiCond496) ?BRET_EXT load(1, XDATA, add(CFA_XSP16, literal(-3)))
        CFI (cfiCond496) DPL0 load(1, XDATA, add(CFA_XSP16, literal(-2)))
        CFI (cfiCond496) DPH0 load(1, XDATA, add(CFA_XSP16, literal(-1)))
        CFI (cfiCond496) CFA_SP SP+0
        CFI (cfiCond496) CFA_XSP16 add(XSP16, 24)
        CFI Block cfiCond497 Using cfiCommon0
        CFI (cfiCond497) NoFunction
        CFI (cfiCond497) Conditional ??CrossCallReturnLabel_225
        CFI (cfiCond497) R6 load(1, XDATA, add(CFA_XSP16, literal(-22)))
        CFI (cfiCond497) VB load(1, XDATA, add(CFA_XSP16, literal(-21)))
        CFI (cfiCond497) V0 load(1, XDATA, add(CFA_XSP16, literal(-20)))
        CFI (cfiCond497) V1 load(1, XDATA, add(CFA_XSP16, literal(-19)))
        CFI (cfiCond497) V2 load(1, XDATA, add(CFA_XSP16, literal(-18)))
        CFI (cfiCond497) V3 load(1, XDATA, add(CFA_XSP16, literal(-17)))
        CFI (cfiCond497) V4 load(1, XDATA, add(CFA_XSP16, literal(-16)))
        CFI (cfiCond497) V5 load(1, XDATA, add(CFA_XSP16, literal(-15)))
        CFI (cfiCond497) V6 load(1, XDATA, add(CFA_XSP16, literal(-14)))
        CFI (cfiCond497) V7 load(1, XDATA, add(CFA_XSP16, literal(-13)))
        CFI (cfiCond497) V8 load(1, XDATA, add(CFA_XSP16, literal(-12)))
        CFI (cfiCond497) V9 load(1, XDATA, add(CFA_XSP16, literal(-11)))
        CFI (cfiCond497) V10 load(1, XDATA, add(CFA_XSP16, literal(-10)))
        CFI (cfiCond497) V11 load(1, XDATA, add(CFA_XSP16, literal(-9)))
        CFI (cfiCond497) V12 load(1, XDATA, add(CFA_XSP16, literal(-8)))
        CFI (cfiCond497) V13 load(1, XDATA, add(CFA_XSP16, literal(-7)))
        CFI (cfiCond497) R7 load(1, XDATA, add(CFA_XSP16, literal(-6)))
        CFI (cfiCond497) ?RET_LOW load(1, XDATA, add(CFA_XSP16, literal(-5)))
        CFI (cfiCond497) ?RET_HIGH load(1, XDATA, add(CFA_XSP16, literal(-4)))
        CFI (cfiCond497) ?BRET_EXT load(1, XDATA, add(CFA_XSP16, literal(-3)))
        CFI (cfiCond497) DPL0 load(1, XDATA, add(CFA_XSP16, literal(-2)))
        CFI (cfiCond497) DPH0 load(1, XDATA, add(CFA_XSP16, literal(-1)))
        CFI (cfiCond497) CFA_SP SP+0
        CFI (cfiCond497) CFA_XSP16 add(XSP16, 22)
        CFI Block cfiCond498 Using cfiCommon0
        CFI (cfiCond498) NoFunction
        CFI (cfiCond498) Conditional ??CrossCallReturnLabel_226
        CFI (cfiCond498) R6 load(1, XDATA, add(CFA_XSP16, literal(-18)))
        CFI (cfiCond498) VB load(1, XDATA, add(CFA_XSP16, literal(-17)))
        CFI (cfiCond498) V0 load(1, XDATA, add(CFA_XSP16, literal(-16)))
        CFI (cfiCond498) V1 load(1, XDATA, add(CFA_XSP16, literal(-15)))
        CFI (cfiCond498) V2 load(1, XDATA, add(CFA_XSP16, literal(-14)))
        CFI (cfiCond498) V3 load(1, XDATA, add(CFA_XSP16, literal(-13)))
        CFI (cfiCond498) V4 load(1, XDATA, add(CFA_XSP16, literal(-12)))
        CFI (cfiCond498) V5 load(1, XDATA, add(CFA_XSP16, literal(-11)))
        CFI (cfiCond498) V6 load(1, XDATA, add(CFA_XSP16, literal(-10)))
        CFI (cfiCond498) V7 load(1, XDATA, add(CFA_XSP16, literal(-9)))
        CFI (cfiCond498) V8 load(1, XDATA, add(CFA_XSP16, literal(-8)))
        CFI (cfiCond498) V9 load(1, XDATA, add(CFA_XSP16, literal(-7)))
        CFI (cfiCond498) R7 load(1, XDATA, add(CFA_XSP16, literal(-6)))
        CFI (cfiCond498) ?RET_LOW load(1, XDATA, add(CFA_XSP16, literal(-5)))
        CFI (cfiCond498) ?RET_HIGH load(1, XDATA, add(CFA_XSP16, literal(-4)))
        CFI (cfiCond498) ?BRET_EXT load(1, XDATA, add(CFA_XSP16, literal(-3)))
        CFI (cfiCond498) DPL0 load(1, XDATA, add(CFA_XSP16, literal(-2)))
        CFI (cfiCond498) DPH0 load(1, XDATA, add(CFA_XSP16, literal(-1)))
        CFI (cfiCond498) CFA_SP SP+0
        CFI (cfiCond498) CFA_XSP16 add(XSP16, 18)
        CFI Block cfiCond499 Using cfiCommon0
        CFI (cfiCond499) NoFunction
        CFI (cfiCond499) Conditional ??CrossCallReturnLabel_227
        CFI (cfiCond499) R6 load(1, XDATA, add(CFA_XSP16, literal(-20)))
        CFI (cfiCond499) VB load(1, XDATA, add(CFA_XSP16, literal(-19)))
        CFI (cfiCond499) V0 load(1, XDATA, add(CFA_XSP16, literal(-18)))
        CFI (cfiCond499) V1 load(1, XDATA, add(CFA_XSP16, literal(-17)))
        CFI (cfiCond499) V2 load(1, XDATA, add(CFA_XSP16, literal(-16)))
        CFI (cfiCond499) V3 load(1, XDATA, add(CFA_XSP16, literal(-15)))
        CFI (cfiCond499) V4 load(1, XDATA, add(CFA_XSP16, literal(-14)))
        CFI (cfiCond499) V5 load(1, XDATA, add(CFA_XSP16, literal(-13)))
        CFI (cfiCond499) V6 load(1, XDATA, add(CFA_XSP16, literal(-12)))
        CFI (cfiCond499) V7 load(1, XDATA, add(CFA_XSP16, literal(-11)))
        CFI (cfiCond499) V8 load(1, XDATA, add(CFA_XSP16, literal(-10)))
        CFI (cfiCond499) V9 load(1, XDATA, add(CFA_XSP16, literal(-9)))
        CFI (cfiCond499) V10 load(1, XDATA, add(CFA_XSP16, literal(-8)))
        CFI (cfiCond499) V11 load(1, XDATA, add(CFA_XSP16, literal(-7)))
        CFI (cfiCond499) R7 load(1, XDATA, add(CFA_XSP16, literal(-6)))
        CFI (cfiCond499) ?RET_LOW load(1, XDATA, add(CFA_XSP16, literal(-5)))
        CFI (cfiCond499) ?RET_HIGH load(1, XDATA, add(CFA_XSP16, literal(-4)))
        CFI (cfiCond499) ?BRET_EXT load(1, XDATA, add(CFA_XSP16, literal(-3)))
        CFI (cfiCond499) DPL0 load(1, XDATA, add(CFA_XSP16, literal(-2)))
        CFI (cfiCond499) DPH0 load(1, XDATA, add(CFA_XSP16, literal(-1)))
        CFI (cfiCond499) CFA_SP SP+0
        CFI (cfiCond499) CFA_XSP16 add(XSP16, 21)
        CFI Block cfiCond500 Using cfiCommon0
        CFI (cfiCond500) NoFunction
        CFI (cfiCond500) Conditional ??CrossCallReturnLabel_228
        CFI (cfiCond500) R6 load(1, XDATA, add(CFA_XSP16, literal(-24)))
        CFI (cfiCond500) VB load(1, XDATA, add(CFA_XSP16, literal(-23)))
        CFI (cfiCond500) V0 load(1, XDATA, add(CFA_XSP16, literal(-22)))
        CFI (cfiCond500) V1 load(1, XDATA, add(CFA_XSP16, literal(-21)))
        CFI (cfiCond500) V2 load(1, XDATA, add(CFA_XSP16, literal(-20)))
        CFI (cfiCond500) V3 load(1, XDATA, add(CFA_XSP16, literal(-19)))
        CFI (cfiCond500) V4 load(1, XDATA, add(CFA_XSP16, literal(-18)))
        CFI (cfiCond500) V5 load(1, XDATA, add(CFA_XSP16, literal(-17)))
        CFI (cfiCond500) V6 load(1, XDATA, add(CFA_XSP16, literal(-16)))
        CFI (cfiCond500) V7 load(1, XDATA, add(CFA_XSP16, literal(-15)))
        CFI (cfiCond500) V8 load(1, XDATA, add(CFA_XSP16, literal(-14)))
        CFI (cfiCond500) V9 load(1, XDATA, add(CFA_XSP16, literal(-13)))
        CFI (cfiCond500) V10 load(1, XDATA, add(CFA_XSP16, literal(-12)))
        CFI (cfiCond500) V11 load(1, XDATA, add(CFA_XSP16, literal(-11)))
        CFI (cfiCond500) V12 load(1, XDATA, add(CFA_XSP16, literal(-10)))
        CFI (cfiCond500) V13 load(1, XDATA, add(CFA_XSP16, literal(-9)))
        CFI (cfiCond500) V14 load(1, XDATA, add(CFA_XSP16, literal(-8)))
        CFI (cfiCond500) V15 load(1, XDATA, add(CFA_XSP16, literal(-7)))
        CFI (cfiCond500) R7 load(1, XDATA, add(CFA_XSP16, literal(-6)))
        CFI (cfiCond500) ?RET_LOW load(1, XDATA, add(CFA_XSP16, literal(-5)))
        CFI (cfiCond500) ?RET_HIGH load(1, XDATA, add(CFA_XSP16, literal(-4)))
        CFI (cfiCond500) ?BRET_EXT load(1, XDATA, add(CFA_XSP16, literal(-3)))
        CFI (cfiCond500) DPL0 load(1, XDATA, add(CFA_XSP16, literal(-2)))
        CFI (cfiCond500) DPH0 load(1, XDATA, add(CFA_XSP16, literal(-1)))
        CFI (cfiCond500) CFA_SP SP+0
        CFI (cfiCond500) CFA_XSP16 add(XSP16, 27)
        CFI Block cfiCond501 Using cfiCommon0
        CFI (cfiCond501) NoFunction
        CFI (cfiCond501) Conditional ??CrossCallReturnLabel_229
        CFI (cfiCond501) R6 load(1, XDATA, add(CFA_XSP16, literal(-14)))
        CFI (cfiCond501) VB load(1, XDATA, add(CFA_XSP16, literal(-13)))
        CFI (cfiCond501) V0 load(1, XDATA, add(CFA_XSP16, literal(-12)))
        CFI (cfiCond501) V1 load(1, XDATA, add(CFA_XSP16, literal(-11)))
        CFI (cfiCond501) V2 load(1, XDATA, add(CFA_XSP16, literal(-10)))
        CFI (cfiCond501) V3 load(1, XDATA, add(CFA_XSP16, literal(-9)))
        CFI (cfiCond501) V4 load(1, XDATA, add(CFA_XSP16, literal(-8)))
        CFI (cfiCond501) V5 load(1, XDATA, add(CFA_XSP16, literal(-7)))
        CFI (cfiCond501) R7 load(1, XDATA, add(CFA_XSP16, literal(-6)))
        CFI (cfiCond501) ?RET_LOW load(1, XDATA, add(CFA_XSP16, literal(-5)))
        CFI (cfiCond501) ?RET_HIGH load(1, XDATA, add(CFA_XSP16, literal(-4)))
        CFI (cfiCond501) ?BRET_EXT load(1, XDATA, add(CFA_XSP16, literal(-3)))
        CFI (cfiCond501) DPL0 load(1, XDATA, add(CFA_XSP16, literal(-2)))
        CFI (cfiCond501) DPH0 load(1, XDATA, add(CFA_XSP16, literal(-1)))
        CFI (cfiCond501) CFA_SP SP+0
        CFI (cfiCond501) CFA_XSP16 add(XSP16, 14)
        CFI Block cfiCond502 Using cfiCommon0
        CFI (cfiCond502) NoFunction
        CFI (cfiCond502) Conditional ??CrossCallReturnLabel_230
        CFI (cfiCond502) R6 load(1, XDATA, add(CFA_XSP16, literal(-24)))
        CFI (cfiCond502) VB load(1, XDATA, add(CFA_XSP16, literal(-23)))
        CFI (cfiCond502) V0 load(1, XDATA, add(CFA_XSP16, literal(-22)))
        CFI (cfiCond502) V1 load(1, XDATA, add(CFA_XSP16, literal(-21)))
        CFI (cfiCond502) V2 load(1, XDATA, add(CFA_XSP16, literal(-20)))
        CFI (cfiCond502) V3 load(1, XDATA, add(CFA_XSP16, literal(-19)))
        CFI (cfiCond502) V4 load(1, XDATA, add(CFA_XSP16, literal(-18)))
        CFI (cfiCond502) V5 load(1, XDATA, add(CFA_XSP16, literal(-17)))
        CFI (cfiCond502) V6 load(1, XDATA, add(CFA_XSP16, literal(-16)))
        CFI (cfiCond502) V7 load(1, XDATA, add(CFA_XSP16, literal(-15)))
        CFI (cfiCond502) V8 load(1, XDATA, add(CFA_XSP16, literal(-14)))
        CFI (cfiCond502) V9 load(1, XDATA, add(CFA_XSP16, literal(-13)))
        CFI (cfiCond502) V10 load(1, XDATA, add(CFA_XSP16, literal(-12)))
        CFI (cfiCond502) V11 load(1, XDATA, add(CFA_XSP16, literal(-11)))
        CFI (cfiCond502) V12 load(1, XDATA, add(CFA_XSP16, literal(-10)))
        CFI (cfiCond502) V13 load(1, XDATA, add(CFA_XSP16, literal(-9)))
        CFI (cfiCond502) V14 load(1, XDATA, add(CFA_XSP16, literal(-8)))
        CFI (cfiCond502) V15 load(1, XDATA, add(CFA_XSP16, literal(-7)))
        CFI (cfiCond502) R7 load(1, XDATA, add(CFA_XSP16, literal(-6)))
        CFI (cfiCond502) ?RET_LOW load(1, XDATA, add(CFA_XSP16, literal(-5)))
        CFI (cfiCond502) ?RET_HIGH load(1, XDATA, add(CFA_XSP16, literal(-4)))
        CFI (cfiCond502) ?BRET_EXT load(1, XDATA, add(CFA_XSP16, literal(-3)))
        CFI (cfiCond502) DPL0 load(1, XDATA, add(CFA_XSP16, literal(-2)))
        CFI (cfiCond502) DPH0 load(1, XDATA, add(CFA_XSP16, literal(-1)))
        CFI (cfiCond502) CFA_SP SP+0
        CFI (cfiCond502) CFA_XSP16 add(XSP16, 24)
        CFI Block cfiCond503 Using cfiCommon0
        CFI (cfiCond503) NoFunction
        CFI (cfiCond503) Conditional ??CrossCallReturnLabel_231
        CFI (cfiCond503) R6 load(1, XDATA, add(CFA_XSP16, literal(-24)))
        CFI (cfiCond503) VB load(1, XDATA, add(CFA_XSP16, literal(-23)))
        CFI (cfiCond503) V0 load(1, XDATA, add(CFA_XSP16, literal(-22)))
        CFI (cfiCond503) V1 load(1, XDATA, add(CFA_XSP16, literal(-21)))
        CFI (cfiCond503) V2 load(1, XDATA, add(CFA_XSP16, literal(-20)))
        CFI (cfiCond503) V3 load(1, XDATA, add(CFA_XSP16, literal(-19)))
        CFI (cfiCond503) V4 load(1, XDATA, add(CFA_XSP16, literal(-18)))
        CFI (cfiCond503) V5 load(1, XDATA, add(CFA_XSP16, literal(-17)))
        CFI (cfiCond503) V6 load(1, XDATA, add(CFA_XSP16, literal(-16)))
        CFI (cfiCond503) V7 load(1, XDATA, add(CFA_XSP16, literal(-15)))
        CFI (cfiCond503) V8 load(1, XDATA, add(CFA_XSP16, literal(-14)))
        CFI (cfiCond503) V9 load(1, XDATA, add(CFA_XSP16, literal(-13)))
        CFI (cfiCond503) V10 load(1, XDATA, add(CFA_XSP16, literal(-12)))
        CFI (cfiCond503) V11 load(1, XDATA, add(CFA_XSP16, literal(-11)))
        CFI (cfiCond503) V12 load(1, XDATA, add(CFA_XSP16, literal(-10)))
        CFI (cfiCond503) V13 load(1, XDATA, add(CFA_XSP16, literal(-9)))
        CFI (cfiCond503) V14 load(1, XDATA, add(CFA_XSP16, literal(-8)))
        CFI (cfiCond503) V15 load(1, XDATA, add(CFA_XSP16, literal(-7)))
        CFI (cfiCond503) R7 load(1, XDATA, add(CFA_XSP16, literal(-6)))
        CFI (cfiCond503) ?RET_LOW load(1, XDATA, add(CFA_XSP16, literal(-5)))
        CFI (cfiCond503) ?RET_HIGH load(1, XDATA, add(CFA_XSP16, literal(-4)))
        CFI (cfiCond503) ?BRET_EXT load(1, XDATA, add(CFA_XSP16, literal(-3)))
        CFI (cfiCond503) DPL0 load(1, XDATA, add(CFA_XSP16, literal(-2)))
        CFI (cfiCond503) DPH0 load(1, XDATA, add(CFA_XSP16, literal(-1)))
        CFI (cfiCond503) CFA_SP SP+0
        CFI (cfiCond503) CFA_XSP16 add(XSP16, 24)
        CFI Block cfiCond504 Using cfiCommon0
        CFI (cfiCond504) NoFunction
        CFI (cfiCond504) Conditional ??CrossCallReturnLabel_232
        CFI (cfiCond504) R6 load(1, XDATA, add(CFA_XSP16, literal(-15)))
        CFI (cfiCond504) VB load(1, XDATA, add(CFA_XSP16, literal(-14)))
        CFI (cfiCond504) V0 load(1, XDATA, add(CFA_XSP16, literal(-13)))
        CFI (cfiCond504) V1 load(1, XDATA, add(CFA_XSP16, literal(-12)))
        CFI (cfiCond504) V2 load(1, XDATA, add(CFA_XSP16, literal(-11)))
        CFI (cfiCond504) V3 load(1, XDATA, add(CFA_XSP16, literal(-10)))
        CFI (cfiCond504) V4 load(1, XDATA, add(CFA_XSP16, literal(-9)))
        CFI (cfiCond504) V5 load(1, XDATA, add(CFA_XSP16, literal(-8)))
        CFI (cfiCond504) V6 load(1, XDATA, add(CFA_XSP16, literal(-7)))
        CFI (cfiCond504) R7 load(1, XDATA, add(CFA_XSP16, literal(-6)))
        CFI (cfiCond504) ?RET_LOW load(1, XDATA, add(CFA_XSP16, literal(-5)))
        CFI (cfiCond504) ?RET_HIGH load(1, XDATA, add(CFA_XSP16, literal(-4)))
        CFI (cfiCond504) ?BRET_EXT load(1, XDATA, add(CFA_XSP16, literal(-3)))
        CFI (cfiCond504) DPL0 load(1, XDATA, add(CFA_XSP16, literal(-2)))
        CFI (cfiCond504) DPH0 load(1, XDATA, add(CFA_XSP16, literal(-1)))
        CFI (cfiCond504) CFA_SP SP+0
        CFI (cfiCond504) CFA_XSP16 add(XSP16, 15)
        CFI Block cfiCond505 Using cfiCommon0
        CFI (cfiCond505) NoFunction
        CFI (cfiCond505) Conditional ??CrossCallReturnLabel_233
        CFI (cfiCond505) R6 load(1, XDATA, add(CFA_XSP16, literal(-15)))
        CFI (cfiCond505) VB load(1, XDATA, add(CFA_XSP16, literal(-14)))
        CFI (cfiCond505) V0 load(1, XDATA, add(CFA_XSP16, literal(-13)))
        CFI (cfiCond505) V1 load(1, XDATA, add(CFA_XSP16, literal(-12)))
        CFI (cfiCond505) V2 load(1, XDATA, add(CFA_XSP16, literal(-11)))
        CFI (cfiCond505) V3 load(1, XDATA, add(CFA_XSP16, literal(-10)))
        CFI (cfiCond505) V4 load(1, XDATA, add(CFA_XSP16, literal(-9)))
        CFI (cfiCond505) V5 load(1, XDATA, add(CFA_XSP16, literal(-8)))
        CFI (cfiCond505) V6 load(1, XDATA, add(CFA_XSP16, literal(-7)))
        CFI (cfiCond505) R7 load(1, XDATA, add(CFA_XSP16, literal(-6)))
        CFI (cfiCond505) ?RET_LOW load(1, XDATA, add(CFA_XSP16, literal(-5)))
        CFI (cfiCond505) ?RET_HIGH load(1, XDATA, add(CFA_XSP16, literal(-4)))
        CFI (cfiCond505) ?BRET_EXT load(1, XDATA, add(CFA_XSP16, literal(-3)))
        CFI (cfiCond505) DPL0 load(1, XDATA, add(CFA_XSP16, literal(-2)))
        CFI (cfiCond505) DPH0 load(1, XDATA, add(CFA_XSP16, literal(-1)))
        CFI (cfiCond505) CFA_SP SP+0
        CFI (cfiCond505) CFA_XSP16 add(XSP16, 15)
        CFI Block cfiPicker506 Using cfiCommon1
        CFI (cfiPicker506) NoFunction
        CFI (cfiPicker506) Picker
        MOVX    A,@DPTR
        MOV     R6,A
        INC     DPTR
        MOVX    A,@DPTR
        MOV     R7,A
        RET
        CFI EndBlock cfiCond494
        CFI EndBlock cfiCond495
        CFI EndBlock cfiCond496
        CFI EndBlock cfiCond497
        CFI EndBlock cfiCond498
        CFI EndBlock cfiCond499
        CFI EndBlock cfiCond500
        CFI EndBlock cfiCond501
        CFI EndBlock cfiCond502
        CFI EndBlock cfiCond503
        CFI EndBlock cfiCond504
        CFI EndBlock cfiCond505
        CFI EndBlock cfiPicker506
// 1679 
// 1680 /*********************************************************************
// 1681  * @fn          ZDP_MgmtNwkUpdateNotify
// 1682  *
// 1683  * @brief       This builds and send a Mgmt_NWK_Update_notify message. This
// 1684  *              function sends a unicast message.
// 1685  *
// 1686  * @param       dstAddr - destination address of the message
// 1687  * @param       status - message status (ZDP_SUCCESS or other)
// 1688  * @param       scannedChannels - List of channels scanned by the request
// 1689  * @param       totalTransmissions - Total transmissions
// 1690  * @param       transmissionFailures - Sum of transmission failures
// 1691  * @param       listCount - Number of records contained in the energyValues list
// 1692  * @param       energyValues - List of descriptors, one for each of ListCount,
// 1693  *                             of the enegry detect descriptors
// 1694  * @param       txOptions - Transmit options
// 1695  * @param       securityEnable - Security options
// 1696  *
// 1697  * @return      afStatus_t
// 1698  */

        RSEG BANKED_CODE:CODE:NOROOT(0)
// 1699 afStatus_t ZDP_MgmtNwkUpdateNotify( uint8 TransSeq, zAddrType_t *dstAddr,
ZDP_MgmtNwkUpdateNotify:
        CFI Block cfiBlock507 Using cfiCommon0
        CFI Function ZDP_MgmtNwkUpdateNotify
        CODE
// 1700                                     uint8 status, uint32 scannedChannels,
// 1701                                     uint16 totalTransmissions, uint16 transmissionFailures,
// 1702                                     uint8 listCount, uint8 *energyValues, uint8 txOptions,
// 1703                                     uint8 securityEnable )
// 1704 {
        FUNCALL ZDP_MgmtNwkUpdateNotify, osal_mem_alloc
        LOCFRAME ISTACK, 0, STACK
        LOCFRAME PSTACK, 0, STACK
        LOCFRAME XSTACK, 27, STACK
        LOCFRAME IOVERLAY, 0, STATIC
        LOCFRAME DOVERLAY, 0, STATIC
        ARGFRAME ISTACK, 0, STACK
        ARGFRAME PSTACK, 0, STACK
        ARGFRAME XSTACK, 27, STACK
        ARGFRAME IOVERLAY, 0, STATIC
        ARGFRAME DOVERLAY, 0, STATIC
        FUNCALL ZDP_MgmtNwkUpdateNotify, osal_buffer_uint32
        LOCFRAME ISTACK, 0, STACK
        LOCFRAME PSTACK, 0, STACK
        LOCFRAME XSTACK, 31, STACK
        LOCFRAME IOVERLAY, 0, STATIC
        LOCFRAME DOVERLAY, 0, STATIC
        ARGFRAME ISTACK, 0, STACK
        ARGFRAME PSTACK, 0, STACK
        ARGFRAME XSTACK, 31, STACK
        ARGFRAME IOVERLAY, 0, STATIC
        ARGFRAME DOVERLAY, 0, STATIC
        FUNCALL ZDP_MgmtNwkUpdateNotify, osal_memcpy
        LOCFRAME ISTACK, 0, STACK
        LOCFRAME PSTACK, 0, STACK
        LOCFRAME XSTACK, 30, STACK
        LOCFRAME IOVERLAY, 0, STATIC
        LOCFRAME DOVERLAY, 0, STATIC
        ARGFRAME ISTACK, 0, STACK
        ARGFRAME PSTACK, 0, STACK
        ARGFRAME XSTACK, 30, STACK
        ARGFRAME IOVERLAY, 0, STATIC
        ARGFRAME DOVERLAY, 0, STATIC
        FUNCALL ZDP_MgmtNwkUpdateNotify, fillAndSend
        LOCFRAME ISTACK, 0, STACK
        LOCFRAME PSTACK, 0, STACK
        LOCFRAME XSTACK, 29, STACK
        LOCFRAME IOVERLAY, 0, STATIC
        LOCFRAME DOVERLAY, 0, STATIC
        ARGFRAME ISTACK, 0, STACK
        ARGFRAME PSTACK, 0, STACK
        ARGFRAME XSTACK, 29, STACK
        ARGFRAME IOVERLAY, 0, STATIC
        ARGFRAME DOVERLAY, 0, STATIC
        FUNCALL ZDP_MgmtNwkUpdateNotify, osal_mem_free
        LOCFRAME ISTACK, 0, STACK
        LOCFRAME PSTACK, 0, STACK
        LOCFRAME XSTACK, 27, STACK
        LOCFRAME IOVERLAY, 0, STATIC
        LOCFRAME DOVERLAY, 0, STATIC
        ARGFRAME ISTACK, 0, STACK
        ARGFRAME PSTACK, 0, STACK
        ARGFRAME XSTACK, 27, STACK
        ARGFRAME IOVERLAY, 0, STATIC
        ARGFRAME DOVERLAY, 0, STATIC
        MOV     A,#-0x18
        LCALL   ?BANKED_ENTER_XDATA
        CFI DPH0 load(1, XDATA, add(CFA_XSP16, literal(-1)))
        CFI DPL0 load(1, XDATA, add(CFA_XSP16, literal(-2)))
        CFI ?BRET_EXT load(1, XDATA, add(CFA_XSP16, literal(-3)))
        CFI ?RET_HIGH load(1, XDATA, add(CFA_XSP16, literal(-4)))
        CFI ?RET_LOW load(1, XDATA, add(CFA_XSP16, literal(-5)))
        CFI R7 load(1, XDATA, add(CFA_XSP16, literal(-6)))
        CFI V15 load(1, XDATA, add(CFA_XSP16, literal(-7)))
        CFI V14 load(1, XDATA, add(CFA_XSP16, literal(-8)))
        CFI V13 load(1, XDATA, add(CFA_XSP16, literal(-9)))
        CFI V12 load(1, XDATA, add(CFA_XSP16, literal(-10)))
        CFI V11 load(1, XDATA, add(CFA_XSP16, literal(-11)))
        CFI V10 load(1, XDATA, add(CFA_XSP16, literal(-12)))
        CFI V9 load(1, XDATA, add(CFA_XSP16, literal(-13)))
        CFI V8 load(1, XDATA, add(CFA_XSP16, literal(-14)))
        CFI V7 load(1, XDATA, add(CFA_XSP16, literal(-15)))
        CFI V6 load(1, XDATA, add(CFA_XSP16, literal(-16)))
        CFI V5 load(1, XDATA, add(CFA_XSP16, literal(-17)))
        CFI V4 load(1, XDATA, add(CFA_XSP16, literal(-18)))
        CFI V3 load(1, XDATA, add(CFA_XSP16, literal(-19)))
        CFI V2 load(1, XDATA, add(CFA_XSP16, literal(-20)))
        CFI V1 load(1, XDATA, add(CFA_XSP16, literal(-21)))
        CFI V0 load(1, XDATA, add(CFA_XSP16, literal(-22)))
        CFI VB load(1, XDATA, add(CFA_XSP16, literal(-23)))
        CFI R6 load(1, XDATA, add(CFA_XSP16, literal(-24)))
        CFI CFA_SP SP+0
        CFI CFA_XSP16 add(XSP16, 24)
        ; Saved register size: 24
        ; Auto size: 3
        MOV     A,#-0x3
        LCALL   ?ALLOC_XSTACK8
        CFI CFA_XSP16 add(XSP16, 27)
        MOV     A,R1
        MOV     DPL,?XSP + 0
        MOV     DPH,?XSP + 1
        MOVX    @DPTR,A
        MOV     A,#0x1
        LCALL   ?XSTACK_DISP0_8
        MOV     A,R2
        LCALL   ??Subroutine109_0 & 0xFFFF
??CrossCallReturnLabel_238:
        MOV     ?V0 + 13,R4
        MOV     ?V0 + 2,R5
        MOV     A,#0x1b
        LCALL   ?XSTACK_DISP0_8
        MOV     R0,#?V0 + 4
        LCALL   ?L_MOV_X
        MOV     A,#0x1f
        LCALL   ?XSTACK_DISP0_8
        LCALL   ??Subroutine108_0 & 0xFFFF
??CrossCallReturnLabel_228:
        MOV     A,#0x21
        LCALL   ?XSTACK_DISP0_8
        LCALL   ??Subroutine99_0 & 0xFFFF
??CrossCallReturnLabel_170:
        MOV     A,#0x23
        LCALL   ?XSTACK_DISP0_8
        MOVX    A,@DPTR
        MOV     ?V0 + 14,A
        INC     DPTR
        MOVX    A,@DPTR
        MOV     ?V0 + 15,A
        MOV     A,#0x25
        LCALL   ?XSTACK_DISP0_8
        MOVX    A,@DPTR
        MOV     ?V0 + 12,A
// 1705   uint8 *buf;
// 1706   uint8 *pBuf;
// 1707   uint8 len;
// 1708 
// 1709   (void)securityEnable;  // Intentionally unreferenced parameter
// 1710 
// 1711   // Status + ScannedChannels + totalTransmissions + transmissionFailures + ListCount + energyValues
// 1712   len = 1 + 4 + 2 + 2 + 1 + listCount;
        MOV     A,#0xa
        ADD     A,?V0 + 2
        LCALL   ?Subroutine61 & 0xFFFF
// 1713 
// 1714   buf = osal_mem_alloc( len+1 ); // +1 for transaction ID
??CrossCallReturnLabel_154:
        MOV     ?V0 + 8,R2
        MOV     ?V0 + 9,R3
// 1715   if ( buf == NULL )
        MOV     A,R2
        ORL     A,?V0 + 9
        JNZ     ??ZDP_MgmtNwkUpdateNotify_0
// 1716   {
// 1717     return afStatus_MEM_FAIL;
        MOV     R1,#0x10
        LJMP    ??ZDP_MgmtNwkUpdateNotify_1 & 0xFFFF
// 1718   }
// 1719 
// 1720   pBuf = buf+1;
??ZDP_MgmtNwkUpdateNotify_0:
        MOV     DPL,R2
        MOV     DPH,R3
        INC     DPTR
        MOV     ?V0 + 10,DPL
        MOV     ?V0 + 11,DPH
// 1721 
// 1722   *pBuf++ = status;
        MOV     A,?V0 + 13
        LCALL   ??Subroutine110_0 & 0xFFFF
// 1723 
// 1724   pBuf = osal_buffer_uint32( pBuf, scannedChannels );
??CrossCallReturnLabel_245:
        ; Setup parameters for call to function osal_buffer_uint32
        MOV     R0,#?V0 + 4
        LCALL   ?PUSH_XSTACK_I_FOUR
        CFI CFA_XSP16 add(XSP16, 31)
        LCALL   ??osal_buffer_uint32?relay
        MOV     A,#0x4
        LCALL   ?DEALLOC_XSTACK8
        CFI CFA_XSP16 add(XSP16, 27)
// 1725 
// 1726   *pBuf++ = LO_UINT16( totalTransmissions );
        MOV     A,R6
        MOV     DPL,R2
        MOV     DPH,R3
        MOVX    @DPTR,A
        INC     DPTR
// 1727   *pBuf++ = HI_UINT16( totalTransmissions );
        MOV     A,R7
        LCALL   ?Subroutine47 & 0xFFFF
// 1728 
// 1729   *pBuf++ = LO_UINT16( transmissionFailures );
// 1730   *pBuf++ = HI_UINT16( transmissionFailures );
// 1731 
// 1732   *pBuf++ = listCount;
??CrossCallReturnLabel_67:
        MOV     A,?V0 + 2
        LCALL   ??Subroutine110_0 & 0xFFFF
// 1733 
// 1734   if ( listCount > 0 )
??CrossCallReturnLabel_246:
        JZ      ??ZDP_MgmtNwkUpdateNotify_2
// 1735     osal_memcpy( pBuf, energyValues, listCount );
        ; Setup parameters for call to function osal_memcpy
        MOV     ?V0 + 4,?V0 + 14
        MOV     ?V0 + 5,?V0 + 15
        MOV     ?V0 + 6,#0x0
        MOV     R0,#?V0 + 4
        LCALL   ?PUSH_XSTACK_I_THREE
        CFI CFA_XSP16 add(XSP16, 30)
        MOV     ?V0 + 0,?V0 + 2
        MOV     R4,?V0 + 0
        LCALL   ?Subroutine68 & 0xFFFF
??CrossCallReturnLabel_140:
        LCALL   ?DEALLOC_XSTACK8
        CFI CFA_XSP16 add(XSP16, 27)
// 1736 
// 1737   FillAndSendBufferTxOptions( &TransSeq, dstAddr, Mgmt_NWK_Update_notify, len, buf, txOptions );
??ZDP_MgmtNwkUpdateNotify_2:
        MOV     DPTR,#ZDP_TmpBuf
        MOV     A,?V0 + 10
        MOVX    @DPTR,A
        INC     DPTR
        MOV     A,?V0 + 11
        MOVX    @DPTR,A
        MOV     A,?V0 + 12
        MOV     DPTR,#ZDP_TxOptions
        MOVX    @DPTR,A
        ; Setup parameters for call to function fillAndSend
        MOV     ?V0 + 0,#0x38
        MOV     ?V0 + 1,#-0x80
        MOV     R0,#?V0 + 0
        LCALL   ?PUSH_XSTACK_I_TWO
        CFI CFA_XSP16 add(XSP16, 29)
        MOV     R1,?V0 + 3
        MOV     A,#0x3
        LCALL   ?XSTACK_DISP0_8
        LCALL   ?Subroutine44 & 0xFFFF
??CrossCallReturnLabel_58:
        MOV     A,#0x2
        LCALL   ?XSTACK_DISP0_8
        MOV     R2,DPL
        MOV     R3,DPH
        LCALL   ??Subroutine107_0 & 0xFFFF
??CrossCallReturnLabel_221:
        LCALL   ?DEALLOC_XSTACK8
        CFI CFA_XSP16 add(XSP16, 27)
        MOV     A,R1
        MOV     R6,A
        ; Setup parameters for call to function osal_mem_free
        MOV     R2,?V0 + 8
        MOV     R3,?V0 + 9
        LCALL   ?Subroutine70 & 0xFFFF
??CrossCallReturnLabel_103:
        MOV     DPTR,#ZDP_TxOptions
        CLR     A
        MOVX    @DPTR,A
        MOV     A,R6
        MOV     R1,A
??ZDP_MgmtNwkUpdateNotify_1:
        MOV     A,#0x3
        LCALL   ?DEALLOC_XSTACK8
        CFI CFA_XSP16 add(XSP16, 24)
        LJMP    ?Subroutine4 & 0xFFFF
        CFI EndBlock cfiBlock507
// 1738 }

        RSEG BANKED_CODE:CODE:NOROOT(0)
?Subroutine70:
        CFI Block cfiCond508 Using cfiCommon0
        CFI NoFunction
        CFI Conditional ??CrossCallReturnLabel_102
        CFI R6 load(1, XDATA, add(CFA_XSP16, literal(-20)))
        CFI VB load(1, XDATA, add(CFA_XSP16, literal(-19)))
        CFI V0 load(1, XDATA, add(CFA_XSP16, literal(-18)))
        CFI V1 load(1, XDATA, add(CFA_XSP16, literal(-17)))
        CFI V2 load(1, XDATA, add(CFA_XSP16, literal(-16)))
        CFI V3 load(1, XDATA, add(CFA_XSP16, literal(-15)))
        CFI V4 load(1, XDATA, add(CFA_XSP16, literal(-14)))
        CFI V5 load(1, XDATA, add(CFA_XSP16, literal(-13)))
        CFI V6 load(1, XDATA, add(CFA_XSP16, literal(-12)))
        CFI V7 load(1, XDATA, add(CFA_XSP16, literal(-11)))
        CFI V8 load(1, XDATA, add(CFA_XSP16, literal(-10)))
        CFI V9 load(1, XDATA, add(CFA_XSP16, literal(-9)))
        CFI V10 load(1, XDATA, add(CFA_XSP16, literal(-8)))
        CFI V11 load(1, XDATA, add(CFA_XSP16, literal(-7)))
        CFI R7 load(1, XDATA, add(CFA_XSP16, literal(-6)))
        CFI ?RET_LOW load(1, XDATA, add(CFA_XSP16, literal(-5)))
        CFI ?RET_HIGH load(1, XDATA, add(CFA_XSP16, literal(-4)))
        CFI ?BRET_EXT load(1, XDATA, add(CFA_XSP16, literal(-3)))
        CFI DPL0 load(1, XDATA, add(CFA_XSP16, literal(-2)))
        CFI DPH0 load(1, XDATA, add(CFA_XSP16, literal(-1)))
        CFI CFA_SP SP+0
        CFI CFA_XSP16 add(XSP16, 21)
        CFI Block cfiCond509 Using cfiCommon0
        CFI (cfiCond509) NoFunction
        CFI (cfiCond509) Conditional ??CrossCallReturnLabel_103
        CFI (cfiCond509) R6 load(1, XDATA, add(CFA_XSP16, literal(-24)))
        CFI (cfiCond509) VB load(1, XDATA, add(CFA_XSP16, literal(-23)))
        CFI (cfiCond509) V0 load(1, XDATA, add(CFA_XSP16, literal(-22)))
        CFI (cfiCond509) V1 load(1, XDATA, add(CFA_XSP16, literal(-21)))
        CFI (cfiCond509) V2 load(1, XDATA, add(CFA_XSP16, literal(-20)))
        CFI (cfiCond509) V3 load(1, XDATA, add(CFA_XSP16, literal(-19)))
        CFI (cfiCond509) V4 load(1, XDATA, add(CFA_XSP16, literal(-18)))
        CFI (cfiCond509) V5 load(1, XDATA, add(CFA_XSP16, literal(-17)))
        CFI (cfiCond509) V6 load(1, XDATA, add(CFA_XSP16, literal(-16)))
        CFI (cfiCond509) V7 load(1, XDATA, add(CFA_XSP16, literal(-15)))
        CFI (cfiCond509) V8 load(1, XDATA, add(CFA_XSP16, literal(-14)))
        CFI (cfiCond509) V9 load(1, XDATA, add(CFA_XSP16, literal(-13)))
        CFI (cfiCond509) V10 load(1, XDATA, add(CFA_XSP16, literal(-12)))
        CFI (cfiCond509) V11 load(1, XDATA, add(CFA_XSP16, literal(-11)))
        CFI (cfiCond509) V12 load(1, XDATA, add(CFA_XSP16, literal(-10)))
        CFI (cfiCond509) V13 load(1, XDATA, add(CFA_XSP16, literal(-9)))
        CFI (cfiCond509) V14 load(1, XDATA, add(CFA_XSP16, literal(-8)))
        CFI (cfiCond509) V15 load(1, XDATA, add(CFA_XSP16, literal(-7)))
        CFI (cfiCond509) R7 load(1, XDATA, add(CFA_XSP16, literal(-6)))
        CFI (cfiCond509) ?RET_LOW load(1, XDATA, add(CFA_XSP16, literal(-5)))
        CFI (cfiCond509) ?RET_HIGH load(1, XDATA, add(CFA_XSP16, literal(-4)))
        CFI (cfiCond509) ?BRET_EXT load(1, XDATA, add(CFA_XSP16, literal(-3)))
        CFI (cfiCond509) DPL0 load(1, XDATA, add(CFA_XSP16, literal(-2)))
        CFI (cfiCond509) DPH0 load(1, XDATA, add(CFA_XSP16, literal(-1)))
        CFI (cfiCond509) CFA_SP SP+0
        CFI (cfiCond509) CFA_XSP16 add(XSP16, 27)
        CFI Block cfiPicker510 Using cfiCommon1
        CFI (cfiPicker510) NoFunction
        CFI (cfiPicker510) Picker
        LCALL   ?Subroutine80 & 0xFFFF
??CrossCallReturnLabel_177:
        RET
        CFI EndBlock cfiCond508
        CFI EndBlock cfiCond509
        CFI EndBlock cfiPicker510

        RSEG BANKED_CODE:CODE:NOROOT(0)
?Subroutine80:
        CFI Block cfiCond511 Using cfiCommon0
        CFI NoFunction
        CFI Conditional ??CrossCallReturnLabel_176, ??CrossCallReturnLabel_173
        CFI R6 load(1, XDATA, add(CFA_XSP16, literal(-22)))
        CFI VB load(1, XDATA, add(CFA_XSP16, literal(-21)))
        CFI V0 load(1, XDATA, add(CFA_XSP16, literal(-20)))
        CFI V1 load(1, XDATA, add(CFA_XSP16, literal(-19)))
        CFI V2 load(1, XDATA, add(CFA_XSP16, literal(-18)))
        CFI V3 load(1, XDATA, add(CFA_XSP16, literal(-17)))
        CFI V4 load(1, XDATA, add(CFA_XSP16, literal(-16)))
        CFI V5 load(1, XDATA, add(CFA_XSP16, literal(-15)))
        CFI V6 load(1, XDATA, add(CFA_XSP16, literal(-14)))
        CFI V7 load(1, XDATA, add(CFA_XSP16, literal(-13)))
        CFI V8 load(1, XDATA, add(CFA_XSP16, literal(-12)))
        CFI V9 load(1, XDATA, add(CFA_XSP16, literal(-11)))
        CFI V10 load(1, XDATA, add(CFA_XSP16, literal(-10)))
        CFI V11 load(1, XDATA, add(CFA_XSP16, literal(-9)))
        CFI V12 load(1, XDATA, add(CFA_XSP16, literal(-8)))
        CFI V13 load(1, XDATA, add(CFA_XSP16, literal(-7)))
        CFI R7 load(1, XDATA, add(CFA_XSP16, literal(-6)))
        CFI ?RET_LOW load(1, XDATA, add(CFA_XSP16, literal(-5)))
        CFI ?RET_HIGH load(1, XDATA, add(CFA_XSP16, literal(-4)))
        CFI ?BRET_EXT load(1, XDATA, add(CFA_XSP16, literal(-3)))
        CFI DPL0 load(1, XDATA, add(CFA_XSP16, literal(-2)))
        CFI DPH0 load(1, XDATA, add(CFA_XSP16, literal(-1)))
        CFI CFA_SP SP+0
        CFI CFA_XSP16 add(XSP16, 23)
        CFI Block cfiCond512 Using cfiCommon0
        CFI (cfiCond512) NoFunction
        CFI (cfiCond512) Conditional ??CrossCallReturnLabel_176, ??CrossCallReturnLabel_174
        CFI (cfiCond512) R6 load(1, XDATA, add(CFA_XSP16, literal(-20)))
        CFI (cfiCond512) VB load(1, XDATA, add(CFA_XSP16, literal(-19)))
        CFI (cfiCond512) V0 load(1, XDATA, add(CFA_XSP16, literal(-18)))
        CFI (cfiCond512) V1 load(1, XDATA, add(CFA_XSP16, literal(-17)))
        CFI (cfiCond512) V2 load(1, XDATA, add(CFA_XSP16, literal(-16)))
        CFI (cfiCond512) V3 load(1, XDATA, add(CFA_XSP16, literal(-15)))
        CFI (cfiCond512) V4 load(1, XDATA, add(CFA_XSP16, literal(-14)))
        CFI (cfiCond512) V5 load(1, XDATA, add(CFA_XSP16, literal(-13)))
        CFI (cfiCond512) V6 load(1, XDATA, add(CFA_XSP16, literal(-12)))
        CFI (cfiCond512) V7 load(1, XDATA, add(CFA_XSP16, literal(-11)))
        CFI (cfiCond512) V8 load(1, XDATA, add(CFA_XSP16, literal(-10)))
        CFI (cfiCond512) V9 load(1, XDATA, add(CFA_XSP16, literal(-9)))
        CFI (cfiCond512) V10 load(1, XDATA, add(CFA_XSP16, literal(-8)))
        CFI (cfiCond512) V11 load(1, XDATA, add(CFA_XSP16, literal(-7)))
        CFI (cfiCond512) R7 load(1, XDATA, add(CFA_XSP16, literal(-6)))
        CFI (cfiCond512) ?RET_LOW load(1, XDATA, add(CFA_XSP16, literal(-5)))
        CFI (cfiCond512) ?RET_HIGH load(1, XDATA, add(CFA_XSP16, literal(-4)))
        CFI (cfiCond512) ?BRET_EXT load(1, XDATA, add(CFA_XSP16, literal(-3)))
        CFI (cfiCond512) DPL0 load(1, XDATA, add(CFA_XSP16, literal(-2)))
        CFI (cfiCond512) DPH0 load(1, XDATA, add(CFA_XSP16, literal(-1)))
        CFI (cfiCond512) CFA_SP SP+0
        CFI (cfiCond512) CFA_XSP16 add(XSP16, 21)
        CFI Block cfiCond513 Using cfiCommon0
        CFI (cfiCond513) NoFunction
        CFI (cfiCond513) Conditional ??CrossCallReturnLabel_176, ??CrossCallReturnLabel_175
        CFI (cfiCond513) R6 load(1, XDATA, add(CFA_XSP16, literal(-22)))
        CFI (cfiCond513) VB load(1, XDATA, add(CFA_XSP16, literal(-21)))
        CFI (cfiCond513) V0 load(1, XDATA, add(CFA_XSP16, literal(-20)))
        CFI (cfiCond513) V1 load(1, XDATA, add(CFA_XSP16, literal(-19)))
        CFI (cfiCond513) V2 load(1, XDATA, add(CFA_XSP16, literal(-18)))
        CFI (cfiCond513) V3 load(1, XDATA, add(CFA_XSP16, literal(-17)))
        CFI (cfiCond513) V4 load(1, XDATA, add(CFA_XSP16, literal(-16)))
        CFI (cfiCond513) V5 load(1, XDATA, add(CFA_XSP16, literal(-15)))
        CFI (cfiCond513) V6 load(1, XDATA, add(CFA_XSP16, literal(-14)))
        CFI (cfiCond513) V7 load(1, XDATA, add(CFA_XSP16, literal(-13)))
        CFI (cfiCond513) V8 load(1, XDATA, add(CFA_XSP16, literal(-12)))
        CFI (cfiCond513) V9 load(1, XDATA, add(CFA_XSP16, literal(-11)))
        CFI (cfiCond513) V10 load(1, XDATA, add(CFA_XSP16, literal(-10)))
        CFI (cfiCond513) V11 load(1, XDATA, add(CFA_XSP16, literal(-9)))
        CFI (cfiCond513) V12 load(1, XDATA, add(CFA_XSP16, literal(-8)))
        CFI (cfiCond513) V13 load(1, XDATA, add(CFA_XSP16, literal(-7)))
        CFI (cfiCond513) R7 load(1, XDATA, add(CFA_XSP16, literal(-6)))
        CFI (cfiCond513) ?RET_LOW load(1, XDATA, add(CFA_XSP16, literal(-5)))
        CFI (cfiCond513) ?RET_HIGH load(1, XDATA, add(CFA_XSP16, literal(-4)))
        CFI (cfiCond513) ?BRET_EXT load(1, XDATA, add(CFA_XSP16, literal(-3)))
        CFI (cfiCond513) DPL0 load(1, XDATA, add(CFA_XSP16, literal(-2)))
        CFI (cfiCond513) DPH0 load(1, XDATA, add(CFA_XSP16, literal(-1)))
        CFI (cfiCond513) CFA_SP SP+0
        CFI (cfiCond513) CFA_XSP16 add(XSP16, 23)
        CFI Block cfiCond514 Using cfiCommon0
        CFI (cfiCond514) NoFunction
        CFI (cfiCond514) Conditional ??CrossCallReturnLabel_177, ??CrossCallReturnLabel_102
        CFI (cfiCond514) R6 load(1, XDATA, add(CFA_XSP16, literal(-20)))
        CFI (cfiCond514) VB load(1, XDATA, add(CFA_XSP16, literal(-19)))
        CFI (cfiCond514) V0 load(1, XDATA, add(CFA_XSP16, literal(-18)))
        CFI (cfiCond514) V1 load(1, XDATA, add(CFA_XSP16, literal(-17)))
        CFI (cfiCond514) V2 load(1, XDATA, add(CFA_XSP16, literal(-16)))
        CFI (cfiCond514) V3 load(1, XDATA, add(CFA_XSP16, literal(-15)))
        CFI (cfiCond514) V4 load(1, XDATA, add(CFA_XSP16, literal(-14)))
        CFI (cfiCond514) V5 load(1, XDATA, add(CFA_XSP16, literal(-13)))
        CFI (cfiCond514) V6 load(1, XDATA, add(CFA_XSP16, literal(-12)))
        CFI (cfiCond514) V7 load(1, XDATA, add(CFA_XSP16, literal(-11)))
        CFI (cfiCond514) V8 load(1, XDATA, add(CFA_XSP16, literal(-10)))
        CFI (cfiCond514) V9 load(1, XDATA, add(CFA_XSP16, literal(-9)))
        CFI (cfiCond514) V10 load(1, XDATA, add(CFA_XSP16, literal(-8)))
        CFI (cfiCond514) V11 load(1, XDATA, add(CFA_XSP16, literal(-7)))
        CFI (cfiCond514) R7 load(1, XDATA, add(CFA_XSP16, literal(-6)))
        CFI (cfiCond514) ?RET_LOW load(1, XDATA, add(CFA_XSP16, literal(-5)))
        CFI (cfiCond514) ?RET_HIGH load(1, XDATA, add(CFA_XSP16, literal(-4)))
        CFI (cfiCond514) ?BRET_EXT load(1, XDATA, add(CFA_XSP16, literal(-3)))
        CFI (cfiCond514) DPL0 load(1, XDATA, add(CFA_XSP16, literal(-2)))
        CFI (cfiCond514) DPH0 load(1, XDATA, add(CFA_XSP16, literal(-1)))
        CFI (cfiCond514) CFA_SP SP+0
        CFI (cfiCond514) CFA_XSP16 add(XSP16, 21)
        CFI Block cfiCond515 Using cfiCommon0
        CFI (cfiCond515) NoFunction
        CFI (cfiCond515) Conditional ??CrossCallReturnLabel_177, ??CrossCallReturnLabel_103
        CFI (cfiCond515) R6 load(1, XDATA, add(CFA_XSP16, literal(-24)))
        CFI (cfiCond515) VB load(1, XDATA, add(CFA_XSP16, literal(-23)))
        CFI (cfiCond515) V0 load(1, XDATA, add(CFA_XSP16, literal(-22)))
        CFI (cfiCond515) V1 load(1, XDATA, add(CFA_XSP16, literal(-21)))
        CFI (cfiCond515) V2 load(1, XDATA, add(CFA_XSP16, literal(-20)))
        CFI (cfiCond515) V3 load(1, XDATA, add(CFA_XSP16, literal(-19)))
        CFI (cfiCond515) V4 load(1, XDATA, add(CFA_XSP16, literal(-18)))
        CFI (cfiCond515) V5 load(1, XDATA, add(CFA_XSP16, literal(-17)))
        CFI (cfiCond515) V6 load(1, XDATA, add(CFA_XSP16, literal(-16)))
        CFI (cfiCond515) V7 load(1, XDATA, add(CFA_XSP16, literal(-15)))
        CFI (cfiCond515) V8 load(1, XDATA, add(CFA_XSP16, literal(-14)))
        CFI (cfiCond515) V9 load(1, XDATA, add(CFA_XSP16, literal(-13)))
        CFI (cfiCond515) V10 load(1, XDATA, add(CFA_XSP16, literal(-12)))
        CFI (cfiCond515) V11 load(1, XDATA, add(CFA_XSP16, literal(-11)))
        CFI (cfiCond515) V12 load(1, XDATA, add(CFA_XSP16, literal(-10)))
        CFI (cfiCond515) V13 load(1, XDATA, add(CFA_XSP16, literal(-9)))
        CFI (cfiCond515) V14 load(1, XDATA, add(CFA_XSP16, literal(-8)))
        CFI (cfiCond515) V15 load(1, XDATA, add(CFA_XSP16, literal(-7)))
        CFI (cfiCond515) R7 load(1, XDATA, add(CFA_XSP16, literal(-6)))
        CFI (cfiCond515) ?RET_LOW load(1, XDATA, add(CFA_XSP16, literal(-5)))
        CFI (cfiCond515) ?RET_HIGH load(1, XDATA, add(CFA_XSP16, literal(-4)))
        CFI (cfiCond515) ?BRET_EXT load(1, XDATA, add(CFA_XSP16, literal(-3)))
        CFI (cfiCond515) DPL0 load(1, XDATA, add(CFA_XSP16, literal(-2)))
        CFI (cfiCond515) DPH0 load(1, XDATA, add(CFA_XSP16, literal(-1)))
        CFI (cfiCond515) CFA_SP SP+0
        CFI (cfiCond515) CFA_XSP16 add(XSP16, 27)
        CFI Block cfiPicker516 Using cfiCommon1
        CFI (cfiPicker516) NoFunction
        CFI (cfiPicker516) Picker
        LCALL   ??osal_mem_free?relay
        MOV     DPTR,#ZDP_TmpBuf
        MOV     A,#(ZDP_Buf + 1) & 0xff
        MOVX    @DPTR,A
        INC     DPTR
        MOV     A,#((ZDP_Buf + 1) >> 8) & 0xff
        MOVX    @DPTR,A
        RET
        CFI EndBlock cfiCond511
        CFI EndBlock cfiCond512
        CFI EndBlock cfiCond513
        CFI EndBlock cfiCond514
        CFI EndBlock cfiCond515
        CFI EndBlock cfiPicker516

        RSEG BANKED_CODE:CODE:NOROOT(0)
?Subroutine59:
        CFI Block cfiCond517 Using cfiCommon0
        CFI NoFunction
        CFI Conditional ??CrossCallReturnLabel_234
        CFI R6 load(1, XDATA, add(CFA_XSP16, literal(-10)))
        CFI VB load(1, XDATA, add(CFA_XSP16, literal(-9)))
        CFI V0 load(1, XDATA, add(CFA_XSP16, literal(-8)))
        CFI V1 load(1, XDATA, add(CFA_XSP16, literal(-7)))
        CFI R7 load(1, XDATA, add(CFA_XSP16, literal(-6)))
        CFI ?RET_LOW load(1, XDATA, add(CFA_XSP16, literal(-5)))
        CFI ?RET_HIGH load(1, XDATA, add(CFA_XSP16, literal(-4)))
        CFI ?BRET_EXT load(1, XDATA, add(CFA_XSP16, literal(-3)))
        CFI DPL0 load(1, XDATA, add(CFA_XSP16, literal(-2)))
        CFI DPH0 load(1, XDATA, add(CFA_XSP16, literal(-1)))
        CFI CFA_SP SP+0
        CFI CFA_XSP16 add(XSP16, 19)
        CFI Block cfiCond518 Using cfiCommon0
        CFI (cfiCond518) NoFunction
        CFI (cfiCond518) Conditional ??CrossCallReturnLabel_235
        CFI (cfiCond518) R6 load(1, XDATA, add(CFA_XSP16, literal(-10)))
        CFI (cfiCond518) VB load(1, XDATA, add(CFA_XSP16, literal(-9)))
        CFI (cfiCond518) V0 load(1, XDATA, add(CFA_XSP16, literal(-8)))
        CFI (cfiCond518) V1 load(1, XDATA, add(CFA_XSP16, literal(-7)))
        CFI (cfiCond518) R7 load(1, XDATA, add(CFA_XSP16, literal(-6)))
        CFI (cfiCond518) ?RET_LOW load(1, XDATA, add(CFA_XSP16, literal(-5)))
        CFI (cfiCond518) ?RET_HIGH load(1, XDATA, add(CFA_XSP16, literal(-4)))
        CFI (cfiCond518) ?BRET_EXT load(1, XDATA, add(CFA_XSP16, literal(-3)))
        CFI (cfiCond518) DPL0 load(1, XDATA, add(CFA_XSP16, literal(-2)))
        CFI (cfiCond518) DPH0 load(1, XDATA, add(CFA_XSP16, literal(-1)))
        CFI (cfiCond518) CFA_SP SP+0
        CFI (cfiCond518) CFA_XSP16 add(XSP16, 19)
        CFI Block cfiPicker519 Using cfiCommon1
        CFI (cfiPicker519) NoFunction
        CFI (cfiPicker519) Picker
        MOV     A,R2
        MOV     DPL,R0
        MOV     DPH,R1
        CFI EndBlock cfiCond517
        CFI EndBlock cfiCond518
        CFI EndBlock cfiPicker519
        REQUIRE ??Subroutine109_0
        ; // Fall through to label ??Subroutine109_0

        RSEG BANKED_CODE:CODE:NOROOT(0)
??Subroutine109_0:
        CFI Block cfiCond520 Using cfiCommon0
        CFI NoFunction
        CFI Conditional ??CrossCallReturnLabel_236
        CFI R6 load(1, XDATA, add(CFA_XSP16, literal(-10)))
        CFI VB load(1, XDATA, add(CFA_XSP16, literal(-9)))
        CFI V0 load(1, XDATA, add(CFA_XSP16, literal(-8)))
        CFI V1 load(1, XDATA, add(CFA_XSP16, literal(-7)))
        CFI R7 load(1, XDATA, add(CFA_XSP16, literal(-6)))
        CFI ?RET_LOW load(1, XDATA, add(CFA_XSP16, literal(-5)))
        CFI ?RET_HIGH load(1, XDATA, add(CFA_XSP16, literal(-4)))
        CFI ?BRET_EXT load(1, XDATA, add(CFA_XSP16, literal(-3)))
        CFI DPL0 load(1, XDATA, add(CFA_XSP16, literal(-2)))
        CFI DPH0 load(1, XDATA, add(CFA_XSP16, literal(-1)))
        CFI CFA_SP SP+0
        CFI CFA_XSP16 add(XSP16, 19)
        CFI Block cfiCond521 Using cfiCommon0
        CFI (cfiCond521) NoFunction
        CFI (cfiCond521) Conditional ??CrossCallReturnLabel_237
        CFI (cfiCond521) R6 load(1, XDATA, add(CFA_XSP16, literal(-20)))
        CFI (cfiCond521) VB load(1, XDATA, add(CFA_XSP16, literal(-19)))
        CFI (cfiCond521) V0 load(1, XDATA, add(CFA_XSP16, literal(-18)))
        CFI (cfiCond521) V1 load(1, XDATA, add(CFA_XSP16, literal(-17)))
        CFI (cfiCond521) V2 load(1, XDATA, add(CFA_XSP16, literal(-16)))
        CFI (cfiCond521) V3 load(1, XDATA, add(CFA_XSP16, literal(-15)))
        CFI (cfiCond521) V4 load(1, XDATA, add(CFA_XSP16, literal(-14)))
        CFI (cfiCond521) V5 load(1, XDATA, add(CFA_XSP16, literal(-13)))
        CFI (cfiCond521) V6 load(1, XDATA, add(CFA_XSP16, literal(-12)))
        CFI (cfiCond521) V7 load(1, XDATA, add(CFA_XSP16, literal(-11)))
        CFI (cfiCond521) V8 load(1, XDATA, add(CFA_XSP16, literal(-10)))
        CFI (cfiCond521) V9 load(1, XDATA, add(CFA_XSP16, literal(-9)))
        CFI (cfiCond521) V10 load(1, XDATA, add(CFA_XSP16, literal(-8)))
        CFI (cfiCond521) V11 load(1, XDATA, add(CFA_XSP16, literal(-7)))
        CFI (cfiCond521) R7 load(1, XDATA, add(CFA_XSP16, literal(-6)))
        CFI (cfiCond521) ?RET_LOW load(1, XDATA, add(CFA_XSP16, literal(-5)))
        CFI (cfiCond521) ?RET_HIGH load(1, XDATA, add(CFA_XSP16, literal(-4)))
        CFI (cfiCond521) ?BRET_EXT load(1, XDATA, add(CFA_XSP16, literal(-3)))
        CFI (cfiCond521) DPL0 load(1, XDATA, add(CFA_XSP16, literal(-2)))
        CFI (cfiCond521) DPH0 load(1, XDATA, add(CFA_XSP16, literal(-1)))
        CFI (cfiCond521) CFA_SP SP+0
        CFI (cfiCond521) CFA_XSP16 add(XSP16, 21)
        CFI Block cfiCond522 Using cfiCommon0
        CFI (cfiCond522) NoFunction
        CFI (cfiCond522) Conditional ??CrossCallReturnLabel_238
        CFI (cfiCond522) R6 load(1, XDATA, add(CFA_XSP16, literal(-24)))
        CFI (cfiCond522) VB load(1, XDATA, add(CFA_XSP16, literal(-23)))
        CFI (cfiCond522) V0 load(1, XDATA, add(CFA_XSP16, literal(-22)))
        CFI (cfiCond522) V1 load(1, XDATA, add(CFA_XSP16, literal(-21)))
        CFI (cfiCond522) V2 load(1, XDATA, add(CFA_XSP16, literal(-20)))
        CFI (cfiCond522) V3 load(1, XDATA, add(CFA_XSP16, literal(-19)))
        CFI (cfiCond522) V4 load(1, XDATA, add(CFA_XSP16, literal(-18)))
        CFI (cfiCond522) V5 load(1, XDATA, add(CFA_XSP16, literal(-17)))
        CFI (cfiCond522) V6 load(1, XDATA, add(CFA_XSP16, literal(-16)))
        CFI (cfiCond522) V7 load(1, XDATA, add(CFA_XSP16, literal(-15)))
        CFI (cfiCond522) V8 load(1, XDATA, add(CFA_XSP16, literal(-14)))
        CFI (cfiCond522) V9 load(1, XDATA, add(CFA_XSP16, literal(-13)))
        CFI (cfiCond522) V10 load(1, XDATA, add(CFA_XSP16, literal(-12)))
        CFI (cfiCond522) V11 load(1, XDATA, add(CFA_XSP16, literal(-11)))
        CFI (cfiCond522) V12 load(1, XDATA, add(CFA_XSP16, literal(-10)))
        CFI (cfiCond522) V13 load(1, XDATA, add(CFA_XSP16, literal(-9)))
        CFI (cfiCond522) V14 load(1, XDATA, add(CFA_XSP16, literal(-8)))
        CFI (cfiCond522) V15 load(1, XDATA, add(CFA_XSP16, literal(-7)))
        CFI (cfiCond522) R7 load(1, XDATA, add(CFA_XSP16, literal(-6)))
        CFI (cfiCond522) ?RET_LOW load(1, XDATA, add(CFA_XSP16, literal(-5)))
        CFI (cfiCond522) ?RET_HIGH load(1, XDATA, add(CFA_XSP16, literal(-4)))
        CFI (cfiCond522) ?BRET_EXT load(1, XDATA, add(CFA_XSP16, literal(-3)))
        CFI (cfiCond522) DPL0 load(1, XDATA, add(CFA_XSP16, literal(-2)))
        CFI (cfiCond522) DPH0 load(1, XDATA, add(CFA_XSP16, literal(-1)))
        CFI (cfiCond522) CFA_SP SP+0
        CFI (cfiCond522) CFA_XSP16 add(XSP16, 27)
        CFI Block cfiCond523 Using cfiCommon0
        CFI (cfiCond523) NoFunction
        CFI (cfiCond523) Conditional ??CrossCallReturnLabel_239
        CFI (cfiCond523) R6 load(1, XDATA, add(CFA_XSP16, literal(-24)))
        CFI (cfiCond523) VB load(1, XDATA, add(CFA_XSP16, literal(-23)))
        CFI (cfiCond523) V0 load(1, XDATA, add(CFA_XSP16, literal(-22)))
        CFI (cfiCond523) V1 load(1, XDATA, add(CFA_XSP16, literal(-21)))
        CFI (cfiCond523) V2 load(1, XDATA, add(CFA_XSP16, literal(-20)))
        CFI (cfiCond523) V3 load(1, XDATA, add(CFA_XSP16, literal(-19)))
        CFI (cfiCond523) V4 load(1, XDATA, add(CFA_XSP16, literal(-18)))
        CFI (cfiCond523) V5 load(1, XDATA, add(CFA_XSP16, literal(-17)))
        CFI (cfiCond523) V6 load(1, XDATA, add(CFA_XSP16, literal(-16)))
        CFI (cfiCond523) V7 load(1, XDATA, add(CFA_XSP16, literal(-15)))
        CFI (cfiCond523) V8 load(1, XDATA, add(CFA_XSP16, literal(-14)))
        CFI (cfiCond523) V9 load(1, XDATA, add(CFA_XSP16, literal(-13)))
        CFI (cfiCond523) V10 load(1, XDATA, add(CFA_XSP16, literal(-12)))
        CFI (cfiCond523) V11 load(1, XDATA, add(CFA_XSP16, literal(-11)))
        CFI (cfiCond523) V12 load(1, XDATA, add(CFA_XSP16, literal(-10)))
        CFI (cfiCond523) V13 load(1, XDATA, add(CFA_XSP16, literal(-9)))
        CFI (cfiCond523) V14 load(1, XDATA, add(CFA_XSP16, literal(-8)))
        CFI (cfiCond523) V15 load(1, XDATA, add(CFA_XSP16, literal(-7)))
        CFI (cfiCond523) R7 load(1, XDATA, add(CFA_XSP16, literal(-6)))
        CFI (cfiCond523) ?RET_LOW load(1, XDATA, add(CFA_XSP16, literal(-5)))
        CFI (cfiCond523) ?RET_HIGH load(1, XDATA, add(CFA_XSP16, literal(-4)))
        CFI (cfiCond523) ?BRET_EXT load(1, XDATA, add(CFA_XSP16, literal(-3)))
        CFI (cfiCond523) DPL0 load(1, XDATA, add(CFA_XSP16, literal(-2)))
        CFI (cfiCond523) DPH0 load(1, XDATA, add(CFA_XSP16, literal(-1)))
        CFI (cfiCond523) CFA_SP SP+0
        CFI (cfiCond523) CFA_XSP16 add(XSP16, 24)
        CFI Block cfiCond524 Using cfiCommon0
        CFI (cfiCond524) NoFunction
        CFI (cfiCond524) Conditional ??CrossCallReturnLabel_234
        CFI (cfiCond524) R6 load(1, XDATA, add(CFA_XSP16, literal(-10)))
        CFI (cfiCond524) VB load(1, XDATA, add(CFA_XSP16, literal(-9)))
        CFI (cfiCond524) V0 load(1, XDATA, add(CFA_XSP16, literal(-8)))
        CFI (cfiCond524) V1 load(1, XDATA, add(CFA_XSP16, literal(-7)))
        CFI (cfiCond524) R7 load(1, XDATA, add(CFA_XSP16, literal(-6)))
        CFI (cfiCond524) ?RET_LOW load(1, XDATA, add(CFA_XSP16, literal(-5)))
        CFI (cfiCond524) ?RET_HIGH load(1, XDATA, add(CFA_XSP16, literal(-4)))
        CFI (cfiCond524) ?BRET_EXT load(1, XDATA, add(CFA_XSP16, literal(-3)))
        CFI (cfiCond524) DPL0 load(1, XDATA, add(CFA_XSP16, literal(-2)))
        CFI (cfiCond524) DPH0 load(1, XDATA, add(CFA_XSP16, literal(-1)))
        CFI (cfiCond524) CFA_SP SP+0
        CFI (cfiCond524) CFA_XSP16 add(XSP16, 19)
        CFI Block cfiCond525 Using cfiCommon0
        CFI (cfiCond525) NoFunction
        CFI (cfiCond525) Conditional ??CrossCallReturnLabel_235
        CFI (cfiCond525) R6 load(1, XDATA, add(CFA_XSP16, literal(-10)))
        CFI (cfiCond525) VB load(1, XDATA, add(CFA_XSP16, literal(-9)))
        CFI (cfiCond525) V0 load(1, XDATA, add(CFA_XSP16, literal(-8)))
        CFI (cfiCond525) V1 load(1, XDATA, add(CFA_XSP16, literal(-7)))
        CFI (cfiCond525) R7 load(1, XDATA, add(CFA_XSP16, literal(-6)))
        CFI (cfiCond525) ?RET_LOW load(1, XDATA, add(CFA_XSP16, literal(-5)))
        CFI (cfiCond525) ?RET_HIGH load(1, XDATA, add(CFA_XSP16, literal(-4)))
        CFI (cfiCond525) ?BRET_EXT load(1, XDATA, add(CFA_XSP16, literal(-3)))
        CFI (cfiCond525) DPL0 load(1, XDATA, add(CFA_XSP16, literal(-2)))
        CFI (cfiCond525) DPH0 load(1, XDATA, add(CFA_XSP16, literal(-1)))
        CFI (cfiCond525) CFA_SP SP+0
        CFI (cfiCond525) CFA_XSP16 add(XSP16, 19)
        CFI Block cfiPicker526 Using cfiCommon1
        CFI (cfiPicker526) NoFunction
        CFI (cfiPicker526) Picker
        MOVX    @DPTR,A
        INC     DPTR
        MOV     A,R3
        MOVX    @DPTR,A
        RET
        CFI EndBlock cfiCond520
        CFI EndBlock cfiCond521
        CFI EndBlock cfiCond522
        CFI EndBlock cfiCond523
        CFI EndBlock cfiCond524
        CFI EndBlock cfiCond525
        CFI EndBlock cfiPicker526

        RSEG BANKED_CODE:CODE:NOROOT(0)
?Subroutine48:
        CFI Block cfiCond527 Using cfiCommon0
        CFI NoFunction
        CFI Conditional ??CrossCallReturnLabel_240
        CFI R6 load(1, XDATA, add(CFA_XSP16, literal(-18)))
        CFI VB load(1, XDATA, add(CFA_XSP16, literal(-17)))
        CFI V0 load(1, XDATA, add(CFA_XSP16, literal(-16)))
        CFI V1 load(1, XDATA, add(CFA_XSP16, literal(-15)))
        CFI V2 load(1, XDATA, add(CFA_XSP16, literal(-14)))
        CFI V3 load(1, XDATA, add(CFA_XSP16, literal(-13)))
        CFI V4 load(1, XDATA, add(CFA_XSP16, literal(-12)))
        CFI V5 load(1, XDATA, add(CFA_XSP16, literal(-11)))
        CFI V6 load(1, XDATA, add(CFA_XSP16, literal(-10)))
        CFI V7 load(1, XDATA, add(CFA_XSP16, literal(-9)))
        CFI V8 load(1, XDATA, add(CFA_XSP16, literal(-8)))
        CFI V9 load(1, XDATA, add(CFA_XSP16, literal(-7)))
        CFI R7 load(1, XDATA, add(CFA_XSP16, literal(-6)))
        CFI ?RET_LOW load(1, XDATA, add(CFA_XSP16, literal(-5)))
        CFI ?RET_HIGH load(1, XDATA, add(CFA_XSP16, literal(-4)))
        CFI ?BRET_EXT load(1, XDATA, add(CFA_XSP16, literal(-3)))
        CFI DPL0 load(1, XDATA, add(CFA_XSP16, literal(-2)))
        CFI DPH0 load(1, XDATA, add(CFA_XSP16, literal(-1)))
        CFI CFA_SP SP+0
        CFI CFA_XSP16 add(XSP16, 19)
        CFI Block cfiCond528 Using cfiCommon0
        CFI (cfiCond528) NoFunction
        CFI (cfiCond528) Conditional ??CrossCallReturnLabel_241
        CFI (cfiCond528) R6 load(1, XDATA, add(CFA_XSP16, literal(-20)))
        CFI (cfiCond528) VB load(1, XDATA, add(CFA_XSP16, literal(-19)))
        CFI (cfiCond528) V0 load(1, XDATA, add(CFA_XSP16, literal(-18)))
        CFI (cfiCond528) V1 load(1, XDATA, add(CFA_XSP16, literal(-17)))
        CFI (cfiCond528) V2 load(1, XDATA, add(CFA_XSP16, literal(-16)))
        CFI (cfiCond528) V3 load(1, XDATA, add(CFA_XSP16, literal(-15)))
        CFI (cfiCond528) V4 load(1, XDATA, add(CFA_XSP16, literal(-14)))
        CFI (cfiCond528) V5 load(1, XDATA, add(CFA_XSP16, literal(-13)))
        CFI (cfiCond528) V6 load(1, XDATA, add(CFA_XSP16, literal(-12)))
        CFI (cfiCond528) V7 load(1, XDATA, add(CFA_XSP16, literal(-11)))
        CFI (cfiCond528) V8 load(1, XDATA, add(CFA_XSP16, literal(-10)))
        CFI (cfiCond528) V9 load(1, XDATA, add(CFA_XSP16, literal(-9)))
        CFI (cfiCond528) V10 load(1, XDATA, add(CFA_XSP16, literal(-8)))
        CFI (cfiCond528) V11 load(1, XDATA, add(CFA_XSP16, literal(-7)))
        CFI (cfiCond528) R7 load(1, XDATA, add(CFA_XSP16, literal(-6)))
        CFI (cfiCond528) ?RET_LOW load(1, XDATA, add(CFA_XSP16, literal(-5)))
        CFI (cfiCond528) ?RET_HIGH load(1, XDATA, add(CFA_XSP16, literal(-4)))
        CFI (cfiCond528) ?BRET_EXT load(1, XDATA, add(CFA_XSP16, literal(-3)))
        CFI (cfiCond528) DPL0 load(1, XDATA, add(CFA_XSP16, literal(-2)))
        CFI (cfiCond528) DPH0 load(1, XDATA, add(CFA_XSP16, literal(-1)))
        CFI (cfiCond528) CFA_SP SP+0
        CFI (cfiCond528) CFA_XSP16 add(XSP16, 21)
        CFI Block cfiPicker529 Using cfiCommon1
        CFI (cfiPicker529) NoFunction
        CFI (cfiPicker529) Picker
        MOVX    @DPTR,A
        INC     DPTR
        MOV     A,?V0 + 8
        CFI EndBlock cfiCond527
        CFI EndBlock cfiCond528
        CFI EndBlock cfiPicker529
        REQUIRE ??Subroutine110_0
        ; // Fall through to label ??Subroutine110_0

        RSEG BANKED_CODE:CODE:NOROOT(0)
??Subroutine110_0:
        CFI Block cfiCond530 Using cfiCommon0
        CFI NoFunction
        CFI Conditional ??CrossCallReturnLabel_242
        CFI R6 load(1, XDATA, add(CFA_XSP16, literal(-15)))
        CFI VB load(1, XDATA, add(CFA_XSP16, literal(-14)))
        CFI V0 load(1, XDATA, add(CFA_XSP16, literal(-13)))
        CFI V1 load(1, XDATA, add(CFA_XSP16, literal(-12)))
        CFI V2 load(1, XDATA, add(CFA_XSP16, literal(-11)))
        CFI V3 load(1, XDATA, add(CFA_XSP16, literal(-10)))
        CFI V4 load(1, XDATA, add(CFA_XSP16, literal(-9)))
        CFI V5 load(1, XDATA, add(CFA_XSP16, literal(-8)))
        CFI V6 load(1, XDATA, add(CFA_XSP16, literal(-7)))
        CFI R7 load(1, XDATA, add(CFA_XSP16, literal(-6)))
        CFI ?RET_LOW load(1, XDATA, add(CFA_XSP16, literal(-5)))
        CFI ?RET_HIGH load(1, XDATA, add(CFA_XSP16, literal(-4)))
        CFI ?BRET_EXT load(1, XDATA, add(CFA_XSP16, literal(-3)))
        CFI DPL0 load(1, XDATA, add(CFA_XSP16, literal(-2)))
        CFI DPH0 load(1, XDATA, add(CFA_XSP16, literal(-1)))
        CFI CFA_SP SP+0
        CFI CFA_XSP16 add(XSP16, 15)
        CFI Block cfiCond531 Using cfiCommon0
        CFI (cfiCond531) NoFunction
        CFI (cfiCond531) Conditional ??CrossCallReturnLabel_243
        CFI (cfiCond531) R6 load(1, XDATA, add(CFA_XSP16, literal(-10)))
        CFI (cfiCond531) VB load(1, XDATA, add(CFA_XSP16, literal(-9)))
        CFI (cfiCond531) V0 load(1, XDATA, add(CFA_XSP16, literal(-8)))
        CFI (cfiCond531) V1 load(1, XDATA, add(CFA_XSP16, literal(-7)))
        CFI (cfiCond531) R7 load(1, XDATA, add(CFA_XSP16, literal(-6)))
        CFI (cfiCond531) ?RET_LOW load(1, XDATA, add(CFA_XSP16, literal(-5)))
        CFI (cfiCond531) ?RET_HIGH load(1, XDATA, add(CFA_XSP16, literal(-4)))
        CFI (cfiCond531) ?BRET_EXT load(1, XDATA, add(CFA_XSP16, literal(-3)))
        CFI (cfiCond531) DPL0 load(1, XDATA, add(CFA_XSP16, literal(-2)))
        CFI (cfiCond531) DPH0 load(1, XDATA, add(CFA_XSP16, literal(-1)))
        CFI (cfiCond531) CFA_SP SP+0
        CFI (cfiCond531) CFA_XSP16 add(XSP16, 10)
        CFI Block cfiCond532 Using cfiCommon0
        CFI (cfiCond532) NoFunction
        CFI (cfiCond532) Conditional ??CrossCallReturnLabel_244
        CFI (cfiCond532) R6 load(1, XDATA, add(CFA_XSP16, literal(-22)))
        CFI (cfiCond532) VB load(1, XDATA, add(CFA_XSP16, literal(-21)))
        CFI (cfiCond532) V0 load(1, XDATA, add(CFA_XSP16, literal(-20)))
        CFI (cfiCond532) V1 load(1, XDATA, add(CFA_XSP16, literal(-19)))
        CFI (cfiCond532) V2 load(1, XDATA, add(CFA_XSP16, literal(-18)))
        CFI (cfiCond532) V3 load(1, XDATA, add(CFA_XSP16, literal(-17)))
        CFI (cfiCond532) V4 load(1, XDATA, add(CFA_XSP16, literal(-16)))
        CFI (cfiCond532) V5 load(1, XDATA, add(CFA_XSP16, literal(-15)))
        CFI (cfiCond532) V6 load(1, XDATA, add(CFA_XSP16, literal(-14)))
        CFI (cfiCond532) V7 load(1, XDATA, add(CFA_XSP16, literal(-13)))
        CFI (cfiCond532) V8 load(1, XDATA, add(CFA_XSP16, literal(-12)))
        CFI (cfiCond532) V9 load(1, XDATA, add(CFA_XSP16, literal(-11)))
        CFI (cfiCond532) V10 load(1, XDATA, add(CFA_XSP16, literal(-10)))
        CFI (cfiCond532) V11 load(1, XDATA, add(CFA_XSP16, literal(-9)))
        CFI (cfiCond532) V12 load(1, XDATA, add(CFA_XSP16, literal(-8)))
        CFI (cfiCond532) V13 load(1, XDATA, add(CFA_XSP16, literal(-7)))
        CFI (cfiCond532) R7 load(1, XDATA, add(CFA_XSP16, literal(-6)))
        CFI (cfiCond532) ?RET_LOW load(1, XDATA, add(CFA_XSP16, literal(-5)))
        CFI (cfiCond532) ?RET_HIGH load(1, XDATA, add(CFA_XSP16, literal(-4)))
        CFI (cfiCond532) ?BRET_EXT load(1, XDATA, add(CFA_XSP16, literal(-3)))
        CFI (cfiCond532) DPL0 load(1, XDATA, add(CFA_XSP16, literal(-2)))
        CFI (cfiCond532) DPH0 load(1, XDATA, add(CFA_XSP16, literal(-1)))
        CFI (cfiCond532) CFA_SP SP+0
        CFI (cfiCond532) CFA_XSP16 add(XSP16, 22)
        CFI Block cfiCond533 Using cfiCommon0
        CFI (cfiCond533) NoFunction
        CFI (cfiCond533) Conditional ??CrossCallReturnLabel_245
        CFI (cfiCond533) R6 load(1, XDATA, add(CFA_XSP16, literal(-24)))
        CFI (cfiCond533) VB load(1, XDATA, add(CFA_XSP16, literal(-23)))
        CFI (cfiCond533) V0 load(1, XDATA, add(CFA_XSP16, literal(-22)))
        CFI (cfiCond533) V1 load(1, XDATA, add(CFA_XSP16, literal(-21)))
        CFI (cfiCond533) V2 load(1, XDATA, add(CFA_XSP16, literal(-20)))
        CFI (cfiCond533) V3 load(1, XDATA, add(CFA_XSP16, literal(-19)))
        CFI (cfiCond533) V4 load(1, XDATA, add(CFA_XSP16, literal(-18)))
        CFI (cfiCond533) V5 load(1, XDATA, add(CFA_XSP16, literal(-17)))
        CFI (cfiCond533) V6 load(1, XDATA, add(CFA_XSP16, literal(-16)))
        CFI (cfiCond533) V7 load(1, XDATA, add(CFA_XSP16, literal(-15)))
        CFI (cfiCond533) V8 load(1, XDATA, add(CFA_XSP16, literal(-14)))
        CFI (cfiCond533) V9 load(1, XDATA, add(CFA_XSP16, literal(-13)))
        CFI (cfiCond533) V10 load(1, XDATA, add(CFA_XSP16, literal(-12)))
        CFI (cfiCond533) V11 load(1, XDATA, add(CFA_XSP16, literal(-11)))
        CFI (cfiCond533) V12 load(1, XDATA, add(CFA_XSP16, literal(-10)))
        CFI (cfiCond533) V13 load(1, XDATA, add(CFA_XSP16, literal(-9)))
        CFI (cfiCond533) V14 load(1, XDATA, add(CFA_XSP16, literal(-8)))
        CFI (cfiCond533) V15 load(1, XDATA, add(CFA_XSP16, literal(-7)))
        CFI (cfiCond533) R7 load(1, XDATA, add(CFA_XSP16, literal(-6)))
        CFI (cfiCond533) ?RET_LOW load(1, XDATA, add(CFA_XSP16, literal(-5)))
        CFI (cfiCond533) ?RET_HIGH load(1, XDATA, add(CFA_XSP16, literal(-4)))
        CFI (cfiCond533) ?BRET_EXT load(1, XDATA, add(CFA_XSP16, literal(-3)))
        CFI (cfiCond533) DPL0 load(1, XDATA, add(CFA_XSP16, literal(-2)))
        CFI (cfiCond533) DPH0 load(1, XDATA, add(CFA_XSP16, literal(-1)))
        CFI (cfiCond533) CFA_SP SP+0
        CFI (cfiCond533) CFA_XSP16 add(XSP16, 27)
        CFI Block cfiCond534 Using cfiCommon0
        CFI (cfiCond534) NoFunction
        CFI (cfiCond534) Conditional ??CrossCallReturnLabel_246
        CFI (cfiCond534) R6 load(1, XDATA, add(CFA_XSP16, literal(-24)))
        CFI (cfiCond534) VB load(1, XDATA, add(CFA_XSP16, literal(-23)))
        CFI (cfiCond534) V0 load(1, XDATA, add(CFA_XSP16, literal(-22)))
        CFI (cfiCond534) V1 load(1, XDATA, add(CFA_XSP16, literal(-21)))
        CFI (cfiCond534) V2 load(1, XDATA, add(CFA_XSP16, literal(-20)))
        CFI (cfiCond534) V3 load(1, XDATA, add(CFA_XSP16, literal(-19)))
        CFI (cfiCond534) V4 load(1, XDATA, add(CFA_XSP16, literal(-18)))
        CFI (cfiCond534) V5 load(1, XDATA, add(CFA_XSP16, literal(-17)))
        CFI (cfiCond534) V6 load(1, XDATA, add(CFA_XSP16, literal(-16)))
        CFI (cfiCond534) V7 load(1, XDATA, add(CFA_XSP16, literal(-15)))
        CFI (cfiCond534) V8 load(1, XDATA, add(CFA_XSP16, literal(-14)))
        CFI (cfiCond534) V9 load(1, XDATA, add(CFA_XSP16, literal(-13)))
        CFI (cfiCond534) V10 load(1, XDATA, add(CFA_XSP16, literal(-12)))
        CFI (cfiCond534) V11 load(1, XDATA, add(CFA_XSP16, literal(-11)))
        CFI (cfiCond534) V12 load(1, XDATA, add(CFA_XSP16, literal(-10)))
        CFI (cfiCond534) V13 load(1, XDATA, add(CFA_XSP16, literal(-9)))
        CFI (cfiCond534) V14 load(1, XDATA, add(CFA_XSP16, literal(-8)))
        CFI (cfiCond534) V15 load(1, XDATA, add(CFA_XSP16, literal(-7)))
        CFI (cfiCond534) R7 load(1, XDATA, add(CFA_XSP16, literal(-6)))
        CFI (cfiCond534) ?RET_LOW load(1, XDATA, add(CFA_XSP16, literal(-5)))
        CFI (cfiCond534) ?RET_HIGH load(1, XDATA, add(CFA_XSP16, literal(-4)))
        CFI (cfiCond534) ?BRET_EXT load(1, XDATA, add(CFA_XSP16, literal(-3)))
        CFI (cfiCond534) DPL0 load(1, XDATA, add(CFA_XSP16, literal(-2)))
        CFI (cfiCond534) DPH0 load(1, XDATA, add(CFA_XSP16, literal(-1)))
        CFI (cfiCond534) CFA_SP SP+0
        CFI (cfiCond534) CFA_XSP16 add(XSP16, 27)
        CFI Block cfiCond535 Using cfiCommon0
        CFI (cfiCond535) NoFunction
        CFI (cfiCond535) Conditional ??CrossCallReturnLabel_240
        CFI (cfiCond535) R6 load(1, XDATA, add(CFA_XSP16, literal(-18)))
        CFI (cfiCond535) VB load(1, XDATA, add(CFA_XSP16, literal(-17)))
        CFI (cfiCond535) V0 load(1, XDATA, add(CFA_XSP16, literal(-16)))
        CFI (cfiCond535) V1 load(1, XDATA, add(CFA_XSP16, literal(-15)))
        CFI (cfiCond535) V2 load(1, XDATA, add(CFA_XSP16, literal(-14)))
        CFI (cfiCond535) V3 load(1, XDATA, add(CFA_XSP16, literal(-13)))
        CFI (cfiCond535) V4 load(1, XDATA, add(CFA_XSP16, literal(-12)))
        CFI (cfiCond535) V5 load(1, XDATA, add(CFA_XSP16, literal(-11)))
        CFI (cfiCond535) V6 load(1, XDATA, add(CFA_XSP16, literal(-10)))
        CFI (cfiCond535) V7 load(1, XDATA, add(CFA_XSP16, literal(-9)))
        CFI (cfiCond535) V8 load(1, XDATA, add(CFA_XSP16, literal(-8)))
        CFI (cfiCond535) V9 load(1, XDATA, add(CFA_XSP16, literal(-7)))
        CFI (cfiCond535) R7 load(1, XDATA, add(CFA_XSP16, literal(-6)))
        CFI (cfiCond535) ?RET_LOW load(1, XDATA, add(CFA_XSP16, literal(-5)))
        CFI (cfiCond535) ?RET_HIGH load(1, XDATA, add(CFA_XSP16, literal(-4)))
        CFI (cfiCond535) ?BRET_EXT load(1, XDATA, add(CFA_XSP16, literal(-3)))
        CFI (cfiCond535) DPL0 load(1, XDATA, add(CFA_XSP16, literal(-2)))
        CFI (cfiCond535) DPH0 load(1, XDATA, add(CFA_XSP16, literal(-1)))
        CFI (cfiCond535) CFA_SP SP+0
        CFI (cfiCond535) CFA_XSP16 add(XSP16, 19)
        CFI Block cfiCond536 Using cfiCommon0
        CFI (cfiCond536) NoFunction
        CFI (cfiCond536) Conditional ??CrossCallReturnLabel_241
        CFI (cfiCond536) R6 load(1, XDATA, add(CFA_XSP16, literal(-20)))
        CFI (cfiCond536) VB load(1, XDATA, add(CFA_XSP16, literal(-19)))
        CFI (cfiCond536) V0 load(1, XDATA, add(CFA_XSP16, literal(-18)))
        CFI (cfiCond536) V1 load(1, XDATA, add(CFA_XSP16, literal(-17)))
        CFI (cfiCond536) V2 load(1, XDATA, add(CFA_XSP16, literal(-16)))
        CFI (cfiCond536) V3 load(1, XDATA, add(CFA_XSP16, literal(-15)))
        CFI (cfiCond536) V4 load(1, XDATA, add(CFA_XSP16, literal(-14)))
        CFI (cfiCond536) V5 load(1, XDATA, add(CFA_XSP16, literal(-13)))
        CFI (cfiCond536) V6 load(1, XDATA, add(CFA_XSP16, literal(-12)))
        CFI (cfiCond536) V7 load(1, XDATA, add(CFA_XSP16, literal(-11)))
        CFI (cfiCond536) V8 load(1, XDATA, add(CFA_XSP16, literal(-10)))
        CFI (cfiCond536) V9 load(1, XDATA, add(CFA_XSP16, literal(-9)))
        CFI (cfiCond536) V10 load(1, XDATA, add(CFA_XSP16, literal(-8)))
        CFI (cfiCond536) V11 load(1, XDATA, add(CFA_XSP16, literal(-7)))
        CFI (cfiCond536) R7 load(1, XDATA, add(CFA_XSP16, literal(-6)))
        CFI (cfiCond536) ?RET_LOW load(1, XDATA, add(CFA_XSP16, literal(-5)))
        CFI (cfiCond536) ?RET_HIGH load(1, XDATA, add(CFA_XSP16, literal(-4)))
        CFI (cfiCond536) ?BRET_EXT load(1, XDATA, add(CFA_XSP16, literal(-3)))
        CFI (cfiCond536) DPL0 load(1, XDATA, add(CFA_XSP16, literal(-2)))
        CFI (cfiCond536) DPH0 load(1, XDATA, add(CFA_XSP16, literal(-1)))
        CFI (cfiCond536) CFA_SP SP+0
        CFI (cfiCond536) CFA_XSP16 add(XSP16, 21)
        CFI Block cfiPicker537 Using cfiCommon1
        CFI (cfiPicker537) NoFunction
        CFI (cfiPicker537) Picker
        MOVX    @DPTR,A
        INC     DPTR
        MOV     R2,DPL
        MOV     R3,DPH
        RET
        CFI EndBlock cfiCond530
        CFI EndBlock cfiCond531
        CFI EndBlock cfiCond532
        CFI EndBlock cfiCond533
        CFI EndBlock cfiCond534
        CFI EndBlock cfiCond535
        CFI EndBlock cfiCond536
        CFI EndBlock cfiPicker537

        RSEG BANKED_CODE:CODE:NOROOT(0)
?Subroutine44:
        CFI Block cfiCond538 Using cfiCommon0
        CFI NoFunction
        CFI Conditional ??CrossCallReturnLabel_56
        CFI R6 load(1, XDATA, add(CFA_XSP16, literal(-10)))
        CFI VB load(1, XDATA, add(CFA_XSP16, literal(-9)))
        CFI V0 load(1, XDATA, add(CFA_XSP16, literal(-8)))
        CFI V1 load(1, XDATA, add(CFA_XSP16, literal(-7)))
        CFI R7 load(1, XDATA, add(CFA_XSP16, literal(-6)))
        CFI ?RET_LOW load(1, XDATA, add(CFA_XSP16, literal(-5)))
        CFI ?RET_HIGH load(1, XDATA, add(CFA_XSP16, literal(-4)))
        CFI ?BRET_EXT load(1, XDATA, add(CFA_XSP16, literal(-3)))
        CFI DPL0 load(1, XDATA, add(CFA_XSP16, literal(-2)))
        CFI DPH0 load(1, XDATA, add(CFA_XSP16, literal(-1)))
        CFI CFA_SP SP+0
        CFI CFA_XSP16 add(XSP16, 11)
        CFI Block cfiCond539 Using cfiCommon0
        CFI (cfiCond539) NoFunction
        CFI (cfiCond539) Conditional ??CrossCallReturnLabel_57
        CFI (cfiCond539) R6 load(1, XDATA, add(CFA_XSP16, literal(-22)))
        CFI (cfiCond539) VB load(1, XDATA, add(CFA_XSP16, literal(-21)))
        CFI (cfiCond539) V0 load(1, XDATA, add(CFA_XSP16, literal(-20)))
        CFI (cfiCond539) V1 load(1, XDATA, add(CFA_XSP16, literal(-19)))
        CFI (cfiCond539) V2 load(1, XDATA, add(CFA_XSP16, literal(-18)))
        CFI (cfiCond539) V3 load(1, XDATA, add(CFA_XSP16, literal(-17)))
        CFI (cfiCond539) V4 load(1, XDATA, add(CFA_XSP16, literal(-16)))
        CFI (cfiCond539) V5 load(1, XDATA, add(CFA_XSP16, literal(-15)))
        CFI (cfiCond539) V6 load(1, XDATA, add(CFA_XSP16, literal(-14)))
        CFI (cfiCond539) V7 load(1, XDATA, add(CFA_XSP16, literal(-13)))
        CFI (cfiCond539) V8 load(1, XDATA, add(CFA_XSP16, literal(-12)))
        CFI (cfiCond539) V9 load(1, XDATA, add(CFA_XSP16, literal(-11)))
        CFI (cfiCond539) V10 load(1, XDATA, add(CFA_XSP16, literal(-10)))
        CFI (cfiCond539) V11 load(1, XDATA, add(CFA_XSP16, literal(-9)))
        CFI (cfiCond539) V12 load(1, XDATA, add(CFA_XSP16, literal(-8)))
        CFI (cfiCond539) V13 load(1, XDATA, add(CFA_XSP16, literal(-7)))
        CFI (cfiCond539) R7 load(1, XDATA, add(CFA_XSP16, literal(-6)))
        CFI (cfiCond539) ?RET_LOW load(1, XDATA, add(CFA_XSP16, literal(-5)))
        CFI (cfiCond539) ?RET_HIGH load(1, XDATA, add(CFA_XSP16, literal(-4)))
        CFI (cfiCond539) ?BRET_EXT load(1, XDATA, add(CFA_XSP16, literal(-3)))
        CFI (cfiCond539) DPL0 load(1, XDATA, add(CFA_XSP16, literal(-2)))
        CFI (cfiCond539) DPH0 load(1, XDATA, add(CFA_XSP16, literal(-1)))
        CFI (cfiCond539) CFA_SP SP+0
        CFI (cfiCond539) CFA_XSP16 add(XSP16, 22)
        CFI Block cfiCond540 Using cfiCommon0
        CFI (cfiCond540) NoFunction
        CFI (cfiCond540) Conditional ??CrossCallReturnLabel_58
        CFI (cfiCond540) R6 load(1, XDATA, add(CFA_XSP16, literal(-24)))
        CFI (cfiCond540) VB load(1, XDATA, add(CFA_XSP16, literal(-23)))
        CFI (cfiCond540) V0 load(1, XDATA, add(CFA_XSP16, literal(-22)))
        CFI (cfiCond540) V1 load(1, XDATA, add(CFA_XSP16, literal(-21)))
        CFI (cfiCond540) V2 load(1, XDATA, add(CFA_XSP16, literal(-20)))
        CFI (cfiCond540) V3 load(1, XDATA, add(CFA_XSP16, literal(-19)))
        CFI (cfiCond540) V4 load(1, XDATA, add(CFA_XSP16, literal(-18)))
        CFI (cfiCond540) V5 load(1, XDATA, add(CFA_XSP16, literal(-17)))
        CFI (cfiCond540) V6 load(1, XDATA, add(CFA_XSP16, literal(-16)))
        CFI (cfiCond540) V7 load(1, XDATA, add(CFA_XSP16, literal(-15)))
        CFI (cfiCond540) V8 load(1, XDATA, add(CFA_XSP16, literal(-14)))
        CFI (cfiCond540) V9 load(1, XDATA, add(CFA_XSP16, literal(-13)))
        CFI (cfiCond540) V10 load(1, XDATA, add(CFA_XSP16, literal(-12)))
        CFI (cfiCond540) V11 load(1, XDATA, add(CFA_XSP16, literal(-11)))
        CFI (cfiCond540) V12 load(1, XDATA, add(CFA_XSP16, literal(-10)))
        CFI (cfiCond540) V13 load(1, XDATA, add(CFA_XSP16, literal(-9)))
        CFI (cfiCond540) V14 load(1, XDATA, add(CFA_XSP16, literal(-8)))
        CFI (cfiCond540) V15 load(1, XDATA, add(CFA_XSP16, literal(-7)))
        CFI (cfiCond540) R7 load(1, XDATA, add(CFA_XSP16, literal(-6)))
        CFI (cfiCond540) ?RET_LOW load(1, XDATA, add(CFA_XSP16, literal(-5)))
        CFI (cfiCond540) ?RET_HIGH load(1, XDATA, add(CFA_XSP16, literal(-4)))
        CFI (cfiCond540) ?BRET_EXT load(1, XDATA, add(CFA_XSP16, literal(-3)))
        CFI (cfiCond540) DPL0 load(1, XDATA, add(CFA_XSP16, literal(-2)))
        CFI (cfiCond540) DPH0 load(1, XDATA, add(CFA_XSP16, literal(-1)))
        CFI (cfiCond540) CFA_SP SP+0
        CFI (cfiCond540) CFA_XSP16 add(XSP16, 29)
        CFI Block cfiCond541 Using cfiCommon0
        CFI (cfiCond541) NoFunction
        CFI (cfiCond541) Conditional ??CrossCallReturnLabel_59
        CFI (cfiCond541) R6 load(1, XDATA, add(CFA_XSP16, literal(-10)))
        CFI (cfiCond541) VB load(1, XDATA, add(CFA_XSP16, literal(-9)))
        CFI (cfiCond541) V0 load(1, XDATA, add(CFA_XSP16, literal(-8)))
        CFI (cfiCond541) V1 load(1, XDATA, add(CFA_XSP16, literal(-7)))
        CFI (cfiCond541) R7 load(1, XDATA, add(CFA_XSP16, literal(-6)))
        CFI (cfiCond541) ?RET_LOW load(1, XDATA, add(CFA_XSP16, literal(-5)))
        CFI (cfiCond541) ?RET_HIGH load(1, XDATA, add(CFA_XSP16, literal(-4)))
        CFI (cfiCond541) ?BRET_EXT load(1, XDATA, add(CFA_XSP16, literal(-3)))
        CFI (cfiCond541) DPL0 load(1, XDATA, add(CFA_XSP16, literal(-2)))
        CFI (cfiCond541) DPH0 load(1, XDATA, add(CFA_XSP16, literal(-1)))
        CFI (cfiCond541) CFA_SP SP+0
        CFI (cfiCond541) CFA_XSP16 add(XSP16, 31)
        CFI Block cfiPicker542 Using cfiCommon1
        CFI (cfiPicker542) NoFunction
        CFI (cfiPicker542) Picker
        MOVX    A,@DPTR
        MOV     R4,A
        INC     DPTR
        MOVX    A,@DPTR
        MOV     R5,A
        RET
        CFI EndBlock cfiCond538
        CFI EndBlock cfiCond539
        CFI EndBlock cfiCond540
        CFI EndBlock cfiCond541
        CFI EndBlock cfiPicker542
// 1739 
// 1740 /*********************************************************************
// 1741  * Functions to register for ZDO Over-the-air messages
// 1742  */
// 1743 
// 1744 /*********************************************************************
// 1745  * @fn          ZDO_RegisterForZDOMsg
// 1746  *
// 1747  * @brief       Call this function to register of an incoming over
// 1748  *              the air ZDO message - probably a response message
// 1749  *              but requests can also be received.
// 1750  *              Messages are delivered to the task with ZDO_CB_MSG
// 1751  *              as the message ID.
// 1752  *
// 1753  * @param       taskID - Where you would like the message delivered
// 1754  * @param       clusterID - What message?
// 1755  *
// 1756  * @return      ZSuccess - successful, ZMemError if not
// 1757  */

        RSEG BANKED_CODE:CODE:NOROOT(0)
// 1758 ZStatus_t ZDO_RegisterForZDOMsg( uint8 taskID, uint16 clusterID )
ZDO_RegisterForZDOMsg:
        CFI Block cfiBlock543 Using cfiCommon0
        CFI Function ZDO_RegisterForZDOMsg
        CODE
// 1759 {
        FUNCALL ZDO_RegisterForZDOMsg, osal_mem_alloc
        LOCFRAME ISTACK, 0, STACK
        LOCFRAME PSTACK, 0, STACK
        LOCFRAME XSTACK, 14, STACK
        LOCFRAME IOVERLAY, 0, STATIC
        LOCFRAME DOVERLAY, 0, STATIC
        ARGFRAME ISTACK, 0, STACK
        ARGFRAME PSTACK, 0, STACK
        ARGFRAME XSTACK, 14, STACK
        ARGFRAME IOVERLAY, 0, STATIC
        ARGFRAME DOVERLAY, 0, STATIC
        MOV     A,#-0xe
        LCALL   ?BANKED_ENTER_XDATA
        CFI DPH0 load(1, XDATA, add(CFA_XSP16, literal(-1)))
        CFI DPL0 load(1, XDATA, add(CFA_XSP16, literal(-2)))
        CFI ?BRET_EXT load(1, XDATA, add(CFA_XSP16, literal(-3)))
        CFI ?RET_HIGH load(1, XDATA, add(CFA_XSP16, literal(-4)))
        CFI ?RET_LOW load(1, XDATA, add(CFA_XSP16, literal(-5)))
        CFI R7 load(1, XDATA, add(CFA_XSP16, literal(-6)))
        CFI V5 load(1, XDATA, add(CFA_XSP16, literal(-7)))
        CFI V4 load(1, XDATA, add(CFA_XSP16, literal(-8)))
        CFI V3 load(1, XDATA, add(CFA_XSP16, literal(-9)))
        CFI V2 load(1, XDATA, add(CFA_XSP16, literal(-10)))
        CFI V1 load(1, XDATA, add(CFA_XSP16, literal(-11)))
        CFI V0 load(1, XDATA, add(CFA_XSP16, literal(-12)))
        CFI VB load(1, XDATA, add(CFA_XSP16, literal(-13)))
        CFI R6 load(1, XDATA, add(CFA_XSP16, literal(-14)))
        CFI CFA_SP SP+0
        CFI CFA_XSP16 add(XSP16, 14)
        ; Saved register size: 14
        ; Auto size: 0
        MOV     ?V0 + 2,R1
        MOV     ?V0 + 0,R2
        MOV     ?V0 + 1,R3
// 1760   ZDO_MsgCB_t *pList;
// 1761   ZDO_MsgCB_t *pLast;
// 1762   ZDO_MsgCB_t *pNew;
// 1763 
// 1764   // Look for duplicate
// 1765   pList = pLast = zdoMsgCBs;
        MOV     DPTR,#zdoMsgCBs
        LCALL   ??Subroutine108_0 & 0xFFFF
??CrossCallReturnLabel_229:
        MOV     A,R6
        MOV     R0,A
        MOV     A,R7
        SJMP    ??ZDO_RegisterForZDOMsg_0
// 1766   while ( pList )
// 1767   {
// 1768     if ( pList->taskID == taskID && pList->clusterID == clusterID )
// 1769       return ( ZSuccess );
// 1770     pLast = pList;
??ZDO_RegisterForZDOMsg_1:
        MOV     A,R0
        MOV     R6,A
        MOV     A,R1
        MOV     R7,A
// 1771     pList = (ZDO_MsgCB_t *)pList->next;
        MOV     DPL,R0
        MOV     DPH,R1
        MOVX    A,@DPTR
        MOV     R0,A
        INC     DPTR
        MOVX    A,@DPTR
??ZDO_RegisterForZDOMsg_0:
        MOV     R1,A
        MOV     A,R0
        ORL     A,R1
        JZ      ??ZDO_RegisterForZDOMsg_2
        MOV     DPL,R0
        MOV     DPH,R1
        INC     DPTR
        INC     DPTR
        MOVX    A,@DPTR
        XRL     A,?V0 + 2
        JNZ     ??ZDO_RegisterForZDOMsg_1
        MOV     DPL,R0
        MOV     DPH,R1
        INC     DPTR
        INC     DPTR
        INC     DPTR
        MOVX    A,@DPTR
        XRL     A,?V0 + 0
        JNZ     ??ZDO_RegisterForZDOMsg_3
        INC     DPTR
        MOVX    A,@DPTR
        XRL     A,?V0 + 1
??ZDO_RegisterForZDOMsg_3:
        JNZ     ??ZDO_RegisterForZDOMsg_1
??ZDO_RegisterForZDOMsg_4:
        MOV     R1,#0x0
        SJMP    ??ZDO_RegisterForZDOMsg_5
// 1772   }
// 1773 
// 1774   // Add to the list
// 1775   pNew = (ZDO_MsgCB_t *)osal_mem_alloc( sizeof ( ZDO_MsgCB_t ) );
??ZDO_RegisterForZDOMsg_2:
        ; Setup parameters for call to function osal_mem_alloc
        MOV     R2,#0x5
        MOV     R3,#0x0
        LCALL   ??osal_mem_alloc?relay
        MOV     ?V0 + 4,R2
        MOV     ?V0 + 5,R3
        MOV     R0,?V0 + 4
        MOV     R1,?V0 + 5
// 1776   if ( pNew )
        MOV     A,R0
        ORL     A,R1
        JZ      ??ZDO_RegisterForZDOMsg_6
// 1777   {
// 1778     pNew->taskID = taskID;
        MOV     DPL,R0
        MOV     DPH,R1
        INC     DPTR
        INC     DPTR
        MOV     A,?V0 + 2
        MOVX    @DPTR,A
// 1779     pNew->clusterID = clusterID;
        MOV     DPL,R0
        MOV     DPH,R1
        INC     DPTR
        INC     DPTR
        INC     DPTR
        MOV     A,?V0 + 0
        MOVX    @DPTR,A
        INC     DPTR
        MOV     A,?V0 + 1
        MOVX    @DPTR,A
// 1780     pNew->next = NULL;
        MOV     DPL,R0
        MOV     DPH,R1
        CLR     A
        MOVX    @DPTR,A
        INC     DPTR
        MOVX    @DPTR,A
// 1781     if ( zdoMsgCBs )
        MOV     DPTR,#zdoMsgCBs
        LCALL   ??Subroutine91_0 & 0xFFFF
??CrossCallReturnLabel_129:
        MOV     A,R2
        ORL     A,R3
        JZ      ??ZDO_RegisterForZDOMsg_7
// 1782     {
// 1783       pLast->next = pNew;
        MOV     DPL,R6
        MOV     DPH,R7
??ZDO_RegisterForZDOMsg_8:
        MOV     A,R0
        MOVX    @DPTR,A
        INC     DPTR
        MOV     A,R1
        MOVX    @DPTR,A
        SJMP    ??ZDO_RegisterForZDOMsg_4
// 1784     }
// 1785     else
// 1786       zdoMsgCBs = pNew;
??ZDO_RegisterForZDOMsg_7:
        MOV     DPTR,#zdoMsgCBs
        SJMP    ??ZDO_RegisterForZDOMsg_8
// 1787     return ( ZSuccess );
// 1788   }
// 1789   else
// 1790     return ( ZMemError );
??ZDO_RegisterForZDOMsg_6:
        MOV     R1,#0x10
??ZDO_RegisterForZDOMsg_5:
        LJMP    ?Subroutine1 & 0xFFFF
        CFI EndBlock cfiBlock543
// 1791 }
// 1792 
// 1793 /*********************************************************************
// 1794  * @fn          ZDO_RemoveRegisteredCB
// 1795  *
// 1796  * @brief       Call this function if you don't want to receive the
// 1797  *              incoming message.
// 1798  *
// 1799  * @param       taskID - Where the messages are being delivered.
// 1800  * @param       clusterID - What message?
// 1801  *
// 1802  * @return      ZSuccess - successful, ZFailure if not found
// 1803  */

        RSEG BANKED_CODE:CODE:NOROOT(0)
// 1804 ZStatus_t ZDO_RemoveRegisteredCB( uint8 taskID, uint16 clusterID )
ZDO_RemoveRegisteredCB:
        CFI Block cfiBlock544 Using cfiCommon0
        CFI Function ZDO_RemoveRegisteredCB
        CODE
// 1805 {
        FUNCALL ZDO_RemoveRegisteredCB, osal_mem_free
        LOCFRAME ISTACK, 0, STACK
        LOCFRAME PSTACK, 0, STACK
        LOCFRAME XSTACK, 9, STACK
        LOCFRAME IOVERLAY, 0, STATIC
        LOCFRAME DOVERLAY, 0, STATIC
        ARGFRAME ISTACK, 0, STACK
        ARGFRAME PSTACK, 0, STACK
        ARGFRAME XSTACK, 9, STACK
        ARGFRAME IOVERLAY, 0, STATIC
        ARGFRAME DOVERLAY, 0, STATIC
        MOV     A,#-0x9
        LCALL   ?BANKED_ENTER_XDATA
        CFI DPH0 load(1, XDATA, add(CFA_XSP16, literal(-1)))
        CFI DPL0 load(1, XDATA, add(CFA_XSP16, literal(-2)))
        CFI ?BRET_EXT load(1, XDATA, add(CFA_XSP16, literal(-3)))
        CFI ?RET_HIGH load(1, XDATA, add(CFA_XSP16, literal(-4)))
        CFI ?RET_LOW load(1, XDATA, add(CFA_XSP16, literal(-5)))
        CFI R7 load(1, XDATA, add(CFA_XSP16, literal(-6)))
        CFI V0 load(1, XDATA, add(CFA_XSP16, literal(-7)))
        CFI VB load(1, XDATA, add(CFA_XSP16, literal(-8)))
        CFI R6 load(1, XDATA, add(CFA_XSP16, literal(-9)))
        CFI CFA_SP SP+0
        CFI CFA_XSP16 add(XSP16, 9)
        ; Saved register size: 9
        ; Auto size: 0
        MOV     A,R1
        MOV     R6,A
// 1806   ZDO_MsgCB_t *pList;
// 1807   ZDO_MsgCB_t *pLast = NULL;
        MOV     R4,#0x0
        MOV     R5,#0x0
// 1808 
// 1809   pList = zdoMsgCBs;
        MOV     DPTR,#zdoMsgCBs
        SJMP    ??ZDO_RemoveRegisteredCB_0
// 1810   while ( pList )
// 1811   {
// 1812     if ( pList->taskID == taskID && pList->clusterID == clusterID )
// 1813     {
// 1814       if ( pLast )
// 1815       {
// 1816         // remove this one from the linked list
// 1817         pLast->next = pList->next;
// 1818       }
// 1819       else if ( pList->next )
// 1820       {
// 1821         // remove the first one from the linked list
// 1822         zdoMsgCBs = pList->next;
// 1823       }
// 1824       else
// 1825       {
// 1826         // remove the only item from the list
// 1827         zdoMsgCBs = (ZDO_MsgCB_t *)NULL;
// 1828       }
// 1829       osal_mem_free( pList );
// 1830       return ( ZSuccess );
// 1831     }
// 1832     pLast = pList;
??ZDO_RemoveRegisteredCB_1:
        MOV     A,R0
        MOV     R4,A
        MOV     A,R1
        MOV     R5,A
// 1833     pList = pList->next;
        MOV     DPL,R0
        MOV     DPH,R1
??ZDO_RemoveRegisteredCB_0:
        LCALL   ?Subroutine26 & 0xFFFF
??CrossCallReturnLabel_26:
        ORL     A,R1
        JZ      ??ZDO_RemoveRegisteredCB_2
        MOV     DPL,R0
        MOV     DPH,R1
        INC     DPTR
        INC     DPTR
        MOVX    A,@DPTR
        XRL     A,R6
        JNZ     ??ZDO_RemoveRegisteredCB_1
        MOV     DPL,R0
        MOV     DPH,R1
        INC     DPTR
        INC     DPTR
        INC     DPTR
        MOVX    A,@DPTR
        XRL     A,R2
        JNZ     ??ZDO_RemoveRegisteredCB_3
        INC     DPTR
        MOVX    A,@DPTR
        XRL     A,R3
??ZDO_RemoveRegisteredCB_3:
        JNZ     ??ZDO_RemoveRegisteredCB_1
        MOV     DPL,R0
        MOV     DPH,R1
        LCALL   ??Subroutine91_0 & 0xFFFF
??CrossCallReturnLabel_130:
        MOV     A,R4
        ORL     A,R5
        JZ      ??ZDO_RemoveRegisteredCB_4
        MOV     DPL,R4
        MOV     DPH,R5
??ZDO_RemoveRegisteredCB_5:
        MOV     A,R2
        MOVX    @DPTR,A
        INC     DPTR
        MOV     A,R3
        SJMP    ??ZDO_RemoveRegisteredCB_6
??ZDO_RemoveRegisteredCB_4:
        MOV     A,R2
        ORL     A,R3
        MOV     DPTR,#zdoMsgCBs
        JNZ     ??ZDO_RemoveRegisteredCB_5
        CLR     A
        MOVX    @DPTR,A
        INC     DPTR
??ZDO_RemoveRegisteredCB_6:
        MOVX    @DPTR,A
        ; Setup parameters for call to function osal_mem_free
        MOV     A,R0
        MOV     R2,A
        MOV     A,R1
        MOV     R3,A
        LCALL   ??osal_mem_free?relay
        MOV     R1,#0x0
        SJMP    ??ZDO_RemoveRegisteredCB_7
// 1834   }
// 1835 
// 1836   return ( ZFailure );
??ZDO_RemoveRegisteredCB_2:
        MOV     R1,#0x1
??ZDO_RemoveRegisteredCB_7:
        MOV     R7,#0x1
        LJMP    ?BANKED_LEAVE_XDATA
        CFI EndBlock cfiBlock544
// 1837 }
// 1838 
// 1839 /*********************************************************************
// 1840  * @fn          ZDO_SendMsgCBs
// 1841  *
// 1842  * @brief       This function sends messages to registered tasks.
// 1843  *              Local to ZDO and shouldn't be called outside of ZDO.
// 1844  *
// 1845  * @param       inMsg - incoming message
// 1846  *
// 1847  * @return      TRUE if sent to at least 1 task, FALSE if not
// 1848  */

        RSEG BANKED_CODE:CODE:NOROOT(0)
// 1849 uint8 ZDO_SendMsgCBs( zdoIncomingMsg_t *inMsg )
ZDO_SendMsgCBs:
        CFI Block cfiBlock545 Using cfiCommon0
        CFI Function ZDO_SendMsgCBs
        CODE
// 1850 {
        FUNCALL ZDO_SendMsgCBs, osal_msg_allocate
        LOCFRAME ISTACK, 0, STACK
        LOCFRAME PSTACK, 0, STACK
        LOCFRAME XSTACK, 24, STACK
        LOCFRAME IOVERLAY, 0, STATIC
        LOCFRAME DOVERLAY, 0, STATIC
        ARGFRAME ISTACK, 0, STACK
        ARGFRAME PSTACK, 0, STACK
        ARGFRAME XSTACK, 24, STACK
        ARGFRAME IOVERLAY, 0, STATIC
        ARGFRAME DOVERLAY, 0, STATIC
        FUNCALL ZDO_SendMsgCBs, osal_memcpy
        LOCFRAME ISTACK, 0, STACK
        LOCFRAME PSTACK, 0, STACK
        LOCFRAME XSTACK, 27, STACK
        LOCFRAME IOVERLAY, 0, STATIC
        LOCFRAME DOVERLAY, 0, STATIC
        ARGFRAME ISTACK, 0, STACK
        ARGFRAME PSTACK, 0, STACK
        ARGFRAME XSTACK, 27, STACK
        ARGFRAME IOVERLAY, 0, STATIC
        ARGFRAME DOVERLAY, 0, STATIC
        FUNCALL ZDO_SendMsgCBs, osal_memcpy
        LOCFRAME ISTACK, 0, STACK
        LOCFRAME PSTACK, 0, STACK
        LOCFRAME XSTACK, 27, STACK
        LOCFRAME IOVERLAY, 0, STATIC
        LOCFRAME DOVERLAY, 0, STATIC
        ARGFRAME ISTACK, 0, STACK
        ARGFRAME PSTACK, 0, STACK
        ARGFRAME XSTACK, 27, STACK
        ARGFRAME IOVERLAY, 0, STATIC
        ARGFRAME DOVERLAY, 0, STATIC
        FUNCALL ZDO_SendMsgCBs, osal_msg_send
        LOCFRAME ISTACK, 0, STACK
        LOCFRAME PSTACK, 0, STACK
        LOCFRAME XSTACK, 24, STACK
        LOCFRAME IOVERLAY, 0, STATIC
        LOCFRAME DOVERLAY, 0, STATIC
        ARGFRAME ISTACK, 0, STACK
        ARGFRAME PSTACK, 0, STACK
        ARGFRAME XSTACK, 24, STACK
        ARGFRAME IOVERLAY, 0, STATIC
        ARGFRAME DOVERLAY, 0, STATIC
        MOV     A,#-0x18
        LCALL   ?BANKED_ENTER_XDATA
        CFI DPH0 load(1, XDATA, add(CFA_XSP16, literal(-1)))
        CFI DPL0 load(1, XDATA, add(CFA_XSP16, literal(-2)))
        CFI ?BRET_EXT load(1, XDATA, add(CFA_XSP16, literal(-3)))
        CFI ?RET_HIGH load(1, XDATA, add(CFA_XSP16, literal(-4)))
        CFI ?RET_LOW load(1, XDATA, add(CFA_XSP16, literal(-5)))
        CFI R7 load(1, XDATA, add(CFA_XSP16, literal(-6)))
        CFI V15 load(1, XDATA, add(CFA_XSP16, literal(-7)))
        CFI V14 load(1, XDATA, add(CFA_XSP16, literal(-8)))
        CFI V13 load(1, XDATA, add(CFA_XSP16, literal(-9)))
        CFI V12 load(1, XDATA, add(CFA_XSP16, literal(-10)))
        CFI V11 load(1, XDATA, add(CFA_XSP16, literal(-11)))
        CFI V10 load(1, XDATA, add(CFA_XSP16, literal(-12)))
        CFI V9 load(1, XDATA, add(CFA_XSP16, literal(-13)))
        CFI V8 load(1, XDATA, add(CFA_XSP16, literal(-14)))
        CFI V7 load(1, XDATA, add(CFA_XSP16, literal(-15)))
        CFI V6 load(1, XDATA, add(CFA_XSP16, literal(-16)))
        CFI V5 load(1, XDATA, add(CFA_XSP16, literal(-17)))
        CFI V4 load(1, XDATA, add(CFA_XSP16, literal(-18)))
        CFI V3 load(1, XDATA, add(CFA_XSP16, literal(-19)))
        CFI V2 load(1, XDATA, add(CFA_XSP16, literal(-20)))
        CFI V1 load(1, XDATA, add(CFA_XSP16, literal(-21)))
        CFI V0 load(1, XDATA, add(CFA_XSP16, literal(-22)))
        CFI VB load(1, XDATA, add(CFA_XSP16, literal(-23)))
        CFI R6 load(1, XDATA, add(CFA_XSP16, literal(-24)))
        CFI CFA_SP SP+0
        CFI CFA_XSP16 add(XSP16, 24)
        ; Saved register size: 24
        ; Auto size: 0
// 1851   uint8 ret = FALSE;
        MOV     ?V0 + 3,#0x0
// 1852   ZDO_MsgCB_t *pList = zdoMsgCBs;
        MOV     DPTR,#zdoMsgCBs
        LCALL   ??Subroutine108_0 & 0xFFFF
??CrossCallReturnLabel_230:
        MOV     A,R2
        ADD     A,#0x13
        MOV     ?V0 + 14,A
        MOV     A,R3
        ADDC    A,#0x0
        MOV     ?V0 + 15,A
        MOV     ?V0 + 0,R2
        MOV     ?V0 + 1,R3
        MOV     ?V0 + 2,#0x0
        MOV     A,R2
        ADD     A,#0x10
        MOV     ?V0 + 6,A
        MOV     A,R3
        ADDC    A,#0x0
        MOV     ?V0 + 7,A
        MOV     A,R2
        ADD     A,#0xc
        MOV     ?V0 + 12,A
        MOV     A,R3
        ADDC    A,#0x0
        MOV     ?V0 + 13,A
// 1853   while ( pList )
        MOV     A,R6
        ORL     A,R7
        JNZ     $+5
        LJMP    ??ZDO_SendMsgCBs_0 & 0xFFFF
// 1854   {
// 1855     if ( pList->clusterID == inMsg->clusterID )
??ZDO_SendMsgCBs_1:
        MOV     DPL,R6
        MOV     DPH,R7
        INC     DPTR
        INC     DPTR
        INC     DPTR
        LCALL   ??Subroutine114_0 & 0xFFFF
??CrossCallReturnLabel_269:
        MOV     DPL,?V0 + 12
        MOV     DPH,?V0 + 13
        MOVX    A,@DPTR
        XRL     A,R0
        JNZ     ??ZDO_SendMsgCBs_2
        INC     DPTR
        MOVX    A,@DPTR
        XRL     A,R1
??ZDO_SendMsgCBs_2:
        JZ      $+5
        LJMP    ??ZDO_SendMsgCBs_3 & 0xFFFF
// 1856     {
// 1857       zdoIncomingMsg_t *msgPtr;
// 1858 
// 1859       // Send the address to the task
// 1860       msgPtr = (zdoIncomingMsg_t *)osal_msg_allocate( sizeof( zdoIncomingMsg_t ) + inMsg->asduLen );
        ; Setup parameters for call to function osal_msg_allocate
        MOV     DPL,?V0 + 6
        MOV     DPH,?V0 + 7
        MOVX    A,@DPTR
        ADD     A,#0x15
        MOV     R2,A
        CLR     A
        ADDC    A,#0x0
        MOV     R3,A
        LCALL   ??osal_msg_allocate?relay
        MOV     ?V0 + 4,R2
        MOV     ?V0 + 5,R3
// 1861       if ( msgPtr )
        MOV     A,R2
        ORL     A,?V0 + 5
        JZ      ??ZDO_SendMsgCBs_3
// 1862       {
// 1863         // copy struct
// 1864         osal_memcpy( msgPtr, inMsg, sizeof( zdoIncomingMsg_t ));
        ; Setup parameters for call to function osal_memcpy
        MOV     R0,#?V0 + 0
        LCALL   ?PUSH_XSTACK_I_THREE
        CFI CFA_XSP16 add(XSP16, 27)
        MOV     R4,#0x15
        LCALL   ?Subroutine68 & 0xFFFF
??CrossCallReturnLabel_141:
        LCALL   ?DEALLOC_XSTACK8
        CFI CFA_XSP16 add(XSP16, 24)
// 1865 
// 1866         if ( inMsg->asduLen )
        MOV     DPL,?V0 + 6
        MOV     DPH,?V0 + 7
        MOVX    A,@DPTR
        JZ      ??ZDO_SendMsgCBs_4
// 1867         {
// 1868           msgPtr->asdu = (byte*)(((byte*)msgPtr) + sizeof( zdoIncomingMsg_t ));
        MOV     A,?V0 + 4
        ADD     A,#0x15
        MOV     R2,A
        MOV     A,?V0 + 5
        ADDC    A,#0x0
        MOV     R3,A
        MOV     A,?V0 + 4
        ADD     A,#0x13
        MOV     DPL,A
        MOV     A,?V0 + 5
        LCALL   ??Subroutine111_0 & 0xFFFF
??CrossCallReturnLabel_250:
        MOV     A,R2
        LCALL   ??Subroutine109_0 & 0xFFFF
// 1869           osal_memcpy( msgPtr->asdu, inMsg->asdu, inMsg->asduLen );
??CrossCallReturnLabel_239:
        ; Setup parameters for call to function osal_memcpy
        MOV     DPL,?V0 + 14
        MOV     DPH,?V0 + 15
        MOVX    A,@DPTR
        MOV     ?V0 + 8,A
        INC     DPTR
        MOVX    A,@DPTR
        MOV     ?V0 + 9,A
        MOV     ?V0 + 10,#0x0
        MOV     R0,#?V0 + 8
        LCALL   ?PUSH_XSTACK_I_THREE
        CFI CFA_XSP16 add(XSP16, 27)
        MOV     DPL,?V0 + 6
        MOV     DPH,?V0 + 7
        MOVX    A,@DPTR
        MOV     R4,A
        LCALL   ?Subroutine68 & 0xFFFF
// 1870         }
??CrossCallReturnLabel_142:
        LCALL   ?DEALLOC_XSTACK8
        CFI CFA_XSP16 add(XSP16, 24)
// 1871 
// 1872         msgPtr->hdr.event = ZDO_CB_MSG;
??ZDO_SendMsgCBs_4:
        MOV     DPL,?V0 + 4
        MOV     DPH,?V0 + 5
        MOV     A,#-0x2d
        MOVX    @DPTR,A
// 1873         osal_msg_send( pList->taskID, (uint8 *)msgPtr );
        ; Setup parameters for call to function osal_msg_send
        MOV     R2,?V0 + 4
        MOV     R3,?V0 + 5
        MOV     DPL,R6
        MOV     DPH,R7
        INC     DPTR
        INC     DPTR
        MOVX    A,@DPTR
        MOV     R1,A
        LCALL   ??osal_msg_send?relay
// 1874         ret = TRUE;
        MOV     ?V0 + 3,#0x1
// 1875       }
// 1876     }
// 1877     pList = (ZDO_MsgCB_t *)pList->next;
??ZDO_SendMsgCBs_3:
        MOV     DPL,R6
        MOV     DPH,R7
        LCALL   ??Subroutine108_0 & 0xFFFF
// 1878   }
??CrossCallReturnLabel_231:
        MOV     A,R6
        ORL     A,R7
        JZ      $+5
        LJMP    ??ZDO_SendMsgCBs_1 & 0xFFFF
// 1879   return ( ret );
??ZDO_SendMsgCBs_0:
        MOV     R1,?V0 + 3
        LJMP    ?Subroutine4 & 0xFFFF
        CFI EndBlock cfiBlock545
// 1880 }
// 1881 
// 1882 /*********************************************************************
// 1883  * Incoming message processor
// 1884  */
// 1885 
// 1886 /*********************************************************************
// 1887  * @fn          ZDP_IncomingData
// 1888  *
// 1889  * @brief       This function indicates the transfer of a data PDU (ASDU)
// 1890  *              from the APS sub-layer to the ZDO.
// 1891  *
// 1892  * @param       pData - Incoming Message
// 1893  *
// 1894  * @return      none
// 1895  */

        RSEG BANKED_CODE:CODE:NOROOT(0)
// 1896 void ZDP_IncomingData( afIncomingMSGPacket_t *pData )
ZDP_IncomingData:
        CFI Block cfiBlock546 Using cfiCommon0
        CFI Function ZDP_IncomingData
        CODE
// 1897 {
        FUNCALL ZDP_IncomingData, ZDO_SendMsgCBs
        LOCFRAME ISTACK, 0, STACK
        LOCFRAME PSTACK, 0, STACK
        LOCFRAME XSTACK, 31, STACK
        LOCFRAME IOVERLAY, 0, STATIC
        LOCFRAME DOVERLAY, 0, STATIC
        ARGFRAME ISTACK, 0, STACK
        ARGFRAME PSTACK, 0, STACK
        ARGFRAME XSTACK, 31, STACK
        ARGFRAME IOVERLAY, 0, STATIC
        ARGFRAME DOVERLAY, 0, STATIC
        FUNCALL ZDP_IncomingData, ZDApp_InMsgCB
        LOCFRAME ISTACK, 0, STACK
        LOCFRAME PSTACK, 0, STACK
        LOCFRAME XSTACK, 31, STACK
        LOCFRAME IOVERLAY, 0, STATIC
        LOCFRAME DOVERLAY, 0, STATIC
        ARGFRAME ISTACK, 0, STACK
        ARGFRAME PSTACK, 0, STACK
        ARGFRAME XSTACK, 31, STACK
        ARGFRAME IOVERLAY, 0, STATIC
        ARGFRAME DOVERLAY, 0, STATIC
        MOV     A,#-0xa
        LCALL   ?BANKED_ENTER_XDATA
        CFI DPH0 load(1, XDATA, add(CFA_XSP16, literal(-1)))
        CFI DPL0 load(1, XDATA, add(CFA_XSP16, literal(-2)))
        CFI ?BRET_EXT load(1, XDATA, add(CFA_XSP16, literal(-3)))
        CFI ?RET_HIGH load(1, XDATA, add(CFA_XSP16, literal(-4)))
        CFI ?RET_LOW load(1, XDATA, add(CFA_XSP16, literal(-5)))
        CFI R7 load(1, XDATA, add(CFA_XSP16, literal(-6)))
        CFI V1 load(1, XDATA, add(CFA_XSP16, literal(-7)))
        CFI V0 load(1, XDATA, add(CFA_XSP16, literal(-8)))
        CFI VB load(1, XDATA, add(CFA_XSP16, literal(-9)))
        CFI R6 load(1, XDATA, add(CFA_XSP16, literal(-10)))
        CFI CFA_SP SP+0
        CFI CFA_XSP16 add(XSP16, 10)
        ; Saved register size: 10
        ; Auto size: 21
        MOV     A,#-0x15
        LCALL   ?ALLOC_XSTACK8
        CFI CFA_XSP16 add(XSP16, 31)
// 1898   uint8 x = 0;
        MOV     R6,#0x0
// 1899   uint8 handled;
// 1900   zdoIncomingMsg_t inMsg;
// 1901 
// 1902   inMsg.srcAddr.addrMode = Addr16Bit;
        MOV     A,#0xa
        LCALL   ?XSTACK_DISP0_8
        MOV     A,#0x2
        LCALL   ?Subroutine58 & 0xFFFF
// 1903   inMsg.srcAddr.addr.shortAddr = pData->srcAddr.addr.shortAddr;
??CrossCallReturnLabel_87:
        INC     DPTR
        INC     DPTR
        LCALL   ??Subroutine114_0 & 0xFFFF
??CrossCallReturnLabel_270:
        MOV     A,#0x2
        LCALL   ?XSTACK_DISP0_8
        MOV     A,R0
        MOVX    @DPTR,A
        INC     DPTR
        MOV     A,R1
        MOVX    @DPTR,A
// 1904   inMsg.wasBroadcast = pData->wasBroadcast;
        MOV     A,R2
        ADD     A,#0x15
        MOV     DPL,A
        MOV     A,R3
        LCALL   ??Subroutine112_0 & 0xFFFF
??CrossCallReturnLabel_256:
        PUSH    A
        CFI CFA_SP SP+-1
        MOV     A,#0xb
        LCALL   ?XSTACK_DISP0_8
        POP     A
        CFI CFA_SP SP+0
        LCALL   ?Subroutine58 & 0xFFFF
// 1905   inMsg.clusterID = pData->clusterId;
??CrossCallReturnLabel_88:
        LCALL   ??Subroutine114_0 & 0xFFFF
??CrossCallReturnLabel_271:
        MOV     A,#0xc
        LCALL   ?XSTACK_DISP0_8
        MOV     A,R0
        MOVX    @DPTR,A
        INC     DPTR
        MOV     A,R1
        MOVX    @DPTR,A
// 1906   inMsg.SecurityUse = pData->SecurityUse;
        MOV     A,R2
        ADD     A,#0x19
        MOV     DPL,A
        MOV     A,R3
        LCALL   ??Subroutine112_0 & 0xFFFF
??CrossCallReturnLabel_257:
        PUSH    A
        CFI CFA_SP SP+-1
        MOV     A,#0xe
        LCALL   ?XSTACK_DISP0_8
        POP     A
        CFI CFA_SP SP+0
        MOVX    @DPTR,A
// 1907 
// 1908   inMsg.asduLen = pData->cmd.DataLength-1;
        MOV     A,R2
        ADD     A,#0x20
        MOV     DPL,A
        MOV     A,R3
        LCALL   ??Subroutine112_0 & 0xFFFF
??CrossCallReturnLabel_258:
        DEC     A
        PUSH    A
        CFI CFA_SP SP+-1
        MOV     A,#0x10
        LCALL   ?XSTACK_DISP0_8
        POP     A
        CFI CFA_SP SP+0
        MOVX    @DPTR,A
// 1909   inMsg.asdu = pData->cmd.Data+1;
        MOV     A,R2
        ADD     A,#0x22
        MOV     R0,A
        MOV     A,R3
        LCALL   ?Subroutine63 & 0xFFFF
??CrossCallReturnLabel_92:
        MOVX    A,@DPTR
        ADD     A,#0x1
        MOV     R4,A
        INC     DPTR
        MOVX    A,@DPTR
        ADDC    A,#0x0
        MOV     R5,A
        MOV     A,#0x13
        LCALL   ?XSTACK_DISP0_8
        MOV     A,R4
        MOVX    @DPTR,A
        INC     DPTR
        MOV     A,R5
        MOVX    @DPTR,A
// 1910   inMsg.TransSeq = pData->cmd.Data[0];
        MOV     DPL,R0
        MOV     DPH,R1
        LCALL   ??Subroutine94_0 & 0xFFFF
??CrossCallReturnLabel_145:
        MOVX    A,@DPTR
        PUSH    A
        CFI CFA_SP SP+-1
        MOV     A,#0xf
        LCALL   ?XSTACK_DISP0_8
        POP     A
        CFI CFA_SP SP+0
        MOVX    @DPTR,A
// 1911   inMsg.macDestAddr = pData->macDestAddr;
        MOV     A,R2
        ADD     A,#0x12
        MOV     DPL,A
        MOV     A,R3
        LCALL   ??Subroutine111_0 & 0xFFFF
??CrossCallReturnLabel_251:
        LCALL   ??Subroutine114_0 & 0xFFFF
??CrossCallReturnLabel_272:
        MOV     A,#0x11
        LCALL   ?XSTACK_DISP0_8
        MOV     A,R0
        MOVX    @DPTR,A
        INC     DPTR
        MOV     A,R1
        LCALL   ?Subroutine53 & 0xFFFF
// 1912 
// 1913   handled = ZDO_SendMsgCBs( &inMsg );
??CrossCallReturnLabel_79:
        MOV     R2,DPL
        MOV     R3,DPH
        LCALL   ??ZDO_SendMsgCBs?relay
        MOV     A,R1
        MOV     R7,A
        MOV     A,#0xc
        LCALL   ?XSTACK_DISP0_8
        LCALL   ?Subroutine44 & 0xFFFF
??CrossCallReturnLabel_59:
        SJMP    ??ZDP_IncomingData_0
// 1914 
// 1915 #if (defined MT_ZDO_CB_FUNC)
// 1916 #if !defined MT_TASK
// 1917   if (zgZdoDirectCB)
// 1918 #endif
// 1919   {
// 1920     MT_ZdoDirectCB( pData, &inMsg );
// 1921   }
// 1922 #endif
// 1923 
// 1924   while ( zdpMsgProcs[x].clusterID != 0xFFFF )
// 1925   {
// 1926     if ( zdpMsgProcs[x].clusterID == inMsg.clusterID )
// 1927     {
// 1928       zdpMsgProcs[x].pFn( &inMsg );
// 1929       return;
// 1930     }
// 1931     x++;
??ZDP_IncomingData_1:
        INC     R6
??ZDP_IncomingData_0:
        MOV     ?V0 + 0,R6
        MOV     ?V0 + 1,#0x0
        MOV     A,#0x2
        MOV     R0,#?V0 + 0
        LCALL   ?S_SHL
        MOV     A,#zdpMsgProcs & 0xff
        ADD     A,?V0 + 0
        MOV     R0,A
        MOV     A,#(zdpMsgProcs >> 8) & 0xff
        ADDC    A,?V0 + 1
        MOV     R1,A
        MOV     DPL,R0
        MOV     DPH,R1
        CLR     A
        MOVC    A,@A+DPTR
        PUSH    A
        MOV     A,#0x1
        MOVC    A,@A+DPTR
        MOV     DPH,A
        POP     DPL
        MOV     R2,DPL
        MOV     R3,DPH
        MOV     A,#-0x1
        XRL     A,R2
        JNZ     ??ZDP_IncomingData_2
        MOV     A,#-0x1
        XRL     A,R3
??ZDP_IncomingData_2:
        JZ      ??ZDP_IncomingData_3
        MOV     A,R4
        XRL     A,R2
        JNZ     ??ZDP_IncomingData_4
        MOV     A,R5
        XRL     A,R3
??ZDP_IncomingData_4:
        JNZ     ??ZDP_IncomingData_1
        ; Setup parameters for indirect call
        MOV     DPL,?XSP + 0
        MOV     DPH,?XSP + 1
        MOV     R2,DPL
        MOV     R3,DPH
        MOV     DPL,R0
        MOV     DPH,R1
        INC     DPTR
        INC     DPTR
        CLR     A
        MOVC    A,@A+DPTR
        PUSH    A
        MOV     A,#0x1
        MOVC    A,@A+DPTR
        MOV     DPH,A
        POP     DPL
        LCALL   ?CALL_IND
        SJMP    ??ZDP_IncomingData_5
// 1932   }
// 1933 
// 1934   // Handle unhandled messages
// 1935   if ( !handled )
??ZDP_IncomingData_3:
        MOV     A,R7
        JNZ     ??ZDP_IncomingData_5
// 1936     ZDApp_InMsgCB( &inMsg );
        ; Setup parameters for call to function ZDApp_InMsgCB
        MOV     DPL,?XSP + 0
        MOV     DPH,?XSP + 1
        MOV     R2,DPL
        MOV     R3,DPH
        LCALL   ??ZDApp_InMsgCB?relay
??ZDP_IncomingData_5:
        MOV     A,#0x15
        LJMP    ??Subroutine88_0 & 0xFFFF
        CFI EndBlock cfiBlock546
// 1937 }

        RSEG BANKED_CODE:CODE:NOROOT(0)
?Subroutine66:
        CFI Block cfiCond547 Using cfiCommon0
        CFI NoFunction
        CFI Conditional ??CrossCallReturnLabel_252
        CFI R6 load(1, XDATA, add(CFA_XSP16, literal(-15)))
        CFI VB load(1, XDATA, add(CFA_XSP16, literal(-14)))
        CFI V0 load(1, XDATA, add(CFA_XSP16, literal(-13)))
        CFI V1 load(1, XDATA, add(CFA_XSP16, literal(-12)))
        CFI V2 load(1, XDATA, add(CFA_XSP16, literal(-11)))
        CFI V3 load(1, XDATA, add(CFA_XSP16, literal(-10)))
        CFI V4 load(1, XDATA, add(CFA_XSP16, literal(-9)))
        CFI V5 load(1, XDATA, add(CFA_XSP16, literal(-8)))
        CFI V6 load(1, XDATA, add(CFA_XSP16, literal(-7)))
        CFI R7 load(1, XDATA, add(CFA_XSP16, literal(-6)))
        CFI ?RET_LOW load(1, XDATA, add(CFA_XSP16, literal(-5)))
        CFI ?RET_HIGH load(1, XDATA, add(CFA_XSP16, literal(-4)))
        CFI ?BRET_EXT load(1, XDATA, add(CFA_XSP16, literal(-3)))
        CFI DPL0 load(1, XDATA, add(CFA_XSP16, literal(-2)))
        CFI DPH0 load(1, XDATA, add(CFA_XSP16, literal(-1)))
        CFI CFA_SP SP+0
        CFI CFA_XSP16 add(XSP16, 15)
        CFI Block cfiCond548 Using cfiCommon0
        CFI (cfiCond548) NoFunction
        CFI (cfiCond548) Conditional ??CrossCallReturnLabel_253
        CFI (cfiCond548) R6 load(1, XDATA, add(CFA_XSP16, literal(-22)))
        CFI (cfiCond548) VB load(1, XDATA, add(CFA_XSP16, literal(-21)))
        CFI (cfiCond548) V0 load(1, XDATA, add(CFA_XSP16, literal(-20)))
        CFI (cfiCond548) V1 load(1, XDATA, add(CFA_XSP16, literal(-19)))
        CFI (cfiCond548) V2 load(1, XDATA, add(CFA_XSP16, literal(-18)))
        CFI (cfiCond548) V3 load(1, XDATA, add(CFA_XSP16, literal(-17)))
        CFI (cfiCond548) V4 load(1, XDATA, add(CFA_XSP16, literal(-16)))
        CFI (cfiCond548) V5 load(1, XDATA, add(CFA_XSP16, literal(-15)))
        CFI (cfiCond548) V6 load(1, XDATA, add(CFA_XSP16, literal(-14)))
        CFI (cfiCond548) V7 load(1, XDATA, add(CFA_XSP16, literal(-13)))
        CFI (cfiCond548) V8 load(1, XDATA, add(CFA_XSP16, literal(-12)))
        CFI (cfiCond548) V9 load(1, XDATA, add(CFA_XSP16, literal(-11)))
        CFI (cfiCond548) V10 load(1, XDATA, add(CFA_XSP16, literal(-10)))
        CFI (cfiCond548) V11 load(1, XDATA, add(CFA_XSP16, literal(-9)))
        CFI (cfiCond548) V12 load(1, XDATA, add(CFA_XSP16, literal(-8)))
        CFI (cfiCond548) V13 load(1, XDATA, add(CFA_XSP16, literal(-7)))
        CFI (cfiCond548) R7 load(1, XDATA, add(CFA_XSP16, literal(-6)))
        CFI (cfiCond548) ?RET_LOW load(1, XDATA, add(CFA_XSP16, literal(-5)))
        CFI (cfiCond548) ?RET_HIGH load(1, XDATA, add(CFA_XSP16, literal(-4)))
        CFI (cfiCond548) ?BRET_EXT load(1, XDATA, add(CFA_XSP16, literal(-3)))
        CFI (cfiCond548) DPL0 load(1, XDATA, add(CFA_XSP16, literal(-2)))
        CFI (cfiCond548) DPH0 load(1, XDATA, add(CFA_XSP16, literal(-1)))
        CFI (cfiCond548) CFA_SP SP+0
        CFI (cfiCond548) CFA_XSP16 add(XSP16, 23)
        CFI Block cfiCond549 Using cfiCommon0
        CFI (cfiCond549) NoFunction
        CFI (cfiCond549) Conditional ??CrossCallReturnLabel_254
        CFI (cfiCond549) R6 load(1, XDATA, add(CFA_XSP16, literal(-22)))
        CFI (cfiCond549) VB load(1, XDATA, add(CFA_XSP16, literal(-21)))
        CFI (cfiCond549) V0 load(1, XDATA, add(CFA_XSP16, literal(-20)))
        CFI (cfiCond549) V1 load(1, XDATA, add(CFA_XSP16, literal(-19)))
        CFI (cfiCond549) V2 load(1, XDATA, add(CFA_XSP16, literal(-18)))
        CFI (cfiCond549) V3 load(1, XDATA, add(CFA_XSP16, literal(-17)))
        CFI (cfiCond549) V4 load(1, XDATA, add(CFA_XSP16, literal(-16)))
        CFI (cfiCond549) V5 load(1, XDATA, add(CFA_XSP16, literal(-15)))
        CFI (cfiCond549) V6 load(1, XDATA, add(CFA_XSP16, literal(-14)))
        CFI (cfiCond549) V7 load(1, XDATA, add(CFA_XSP16, literal(-13)))
        CFI (cfiCond549) V8 load(1, XDATA, add(CFA_XSP16, literal(-12)))
        CFI (cfiCond549) V9 load(1, XDATA, add(CFA_XSP16, literal(-11)))
        CFI (cfiCond549) V10 load(1, XDATA, add(CFA_XSP16, literal(-10)))
        CFI (cfiCond549) V11 load(1, XDATA, add(CFA_XSP16, literal(-9)))
        CFI (cfiCond549) V12 load(1, XDATA, add(CFA_XSP16, literal(-8)))
        CFI (cfiCond549) V13 load(1, XDATA, add(CFA_XSP16, literal(-7)))
        CFI (cfiCond549) R7 load(1, XDATA, add(CFA_XSP16, literal(-6)))
        CFI (cfiCond549) ?RET_LOW load(1, XDATA, add(CFA_XSP16, literal(-5)))
        CFI (cfiCond549) ?RET_HIGH load(1, XDATA, add(CFA_XSP16, literal(-4)))
        CFI (cfiCond549) ?BRET_EXT load(1, XDATA, add(CFA_XSP16, literal(-3)))
        CFI (cfiCond549) DPL0 load(1, XDATA, add(CFA_XSP16, literal(-2)))
        CFI (cfiCond549) DPH0 load(1, XDATA, add(CFA_XSP16, literal(-1)))
        CFI (cfiCond549) CFA_SP SP+0
        CFI (cfiCond549) CFA_XSP16 add(XSP16, 23)
        CFI Block cfiPicker550 Using cfiCommon1
        CFI (cfiPicker550) NoFunction
        CFI (cfiPicker550) Picker
        MOV     DPL,A
        MOV     A,?V0 + 1
        CFI EndBlock cfiCond547
        CFI EndBlock cfiCond548
        CFI EndBlock cfiCond549
        CFI EndBlock cfiPicker550
        REQUIRE ??Subroutine111_0
        ; // Fall through to label ??Subroutine111_0

        RSEG BANKED_CODE:CODE:NOROOT(0)
??Subroutine111_0:
        CFI Block cfiCond551 Using cfiCommon0
        CFI NoFunction
        CFI Conditional ??CrossCallReturnLabel_247
        CFI R6 load(1, XDATA, add(CFA_XSP16, literal(-10)))
        CFI VB load(1, XDATA, add(CFA_XSP16, literal(-9)))
        CFI V0 load(1, XDATA, add(CFA_XSP16, literal(-8)))
        CFI V1 load(1, XDATA, add(CFA_XSP16, literal(-7)))
        CFI R7 load(1, XDATA, add(CFA_XSP16, literal(-6)))
        CFI ?RET_LOW load(1, XDATA, add(CFA_XSP16, literal(-5)))
        CFI ?RET_HIGH load(1, XDATA, add(CFA_XSP16, literal(-4)))
        CFI ?BRET_EXT load(1, XDATA, add(CFA_XSP16, literal(-3)))
        CFI DPL0 load(1, XDATA, add(CFA_XSP16, literal(-2)))
        CFI DPH0 load(1, XDATA, add(CFA_XSP16, literal(-1)))
        CFI CFA_SP SP+0
        CFI CFA_XSP16 add(XSP16, 10)
        CFI Block cfiCond552 Using cfiCommon0
        CFI (cfiCond552) NoFunction
        CFI (cfiCond552) Conditional ??CrossCallReturnLabel_248
        CFI (cfiCond552) R6 load(1, XDATA, add(CFA_XSP16, literal(-10)))
        CFI (cfiCond552) VB load(1, XDATA, add(CFA_XSP16, literal(-9)))
        CFI (cfiCond552) V0 load(1, XDATA, add(CFA_XSP16, literal(-8)))
        CFI (cfiCond552) V1 load(1, XDATA, add(CFA_XSP16, literal(-7)))
        CFI (cfiCond552) R7 load(1, XDATA, add(CFA_XSP16, literal(-6)))
        CFI (cfiCond552) ?RET_LOW load(1, XDATA, add(CFA_XSP16, literal(-5)))
        CFI (cfiCond552) ?RET_HIGH load(1, XDATA, add(CFA_XSP16, literal(-4)))
        CFI (cfiCond552) ?BRET_EXT load(1, XDATA, add(CFA_XSP16, literal(-3)))
        CFI (cfiCond552) DPL0 load(1, XDATA, add(CFA_XSP16, literal(-2)))
        CFI (cfiCond552) DPH0 load(1, XDATA, add(CFA_XSP16, literal(-1)))
        CFI (cfiCond552) CFA_SP SP+0
        CFI (cfiCond552) CFA_XSP16 add(XSP16, 10)
        CFI Block cfiCond553 Using cfiCommon0
        CFI (cfiCond553) NoFunction
        CFI (cfiCond553) Conditional ??CrossCallReturnLabel_249
        CFI (cfiCond553) R6 load(1, XDATA, add(CFA_XSP16, literal(-20)))
        CFI (cfiCond553) VB load(1, XDATA, add(CFA_XSP16, literal(-19)))
        CFI (cfiCond553) V0 load(1, XDATA, add(CFA_XSP16, literal(-18)))
        CFI (cfiCond553) V1 load(1, XDATA, add(CFA_XSP16, literal(-17)))
        CFI (cfiCond553) V2 load(1, XDATA, add(CFA_XSP16, literal(-16)))
        CFI (cfiCond553) V3 load(1, XDATA, add(CFA_XSP16, literal(-15)))
        CFI (cfiCond553) V4 load(1, XDATA, add(CFA_XSP16, literal(-14)))
        CFI (cfiCond553) V5 load(1, XDATA, add(CFA_XSP16, literal(-13)))
        CFI (cfiCond553) V6 load(1, XDATA, add(CFA_XSP16, literal(-12)))
        CFI (cfiCond553) V7 load(1, XDATA, add(CFA_XSP16, literal(-11)))
        CFI (cfiCond553) V8 load(1, XDATA, add(CFA_XSP16, literal(-10)))
        CFI (cfiCond553) V9 load(1, XDATA, add(CFA_XSP16, literal(-9)))
        CFI (cfiCond553) V10 load(1, XDATA, add(CFA_XSP16, literal(-8)))
        CFI (cfiCond553) V11 load(1, XDATA, add(CFA_XSP16, literal(-7)))
        CFI (cfiCond553) R7 load(1, XDATA, add(CFA_XSP16, literal(-6)))
        CFI (cfiCond553) ?RET_LOW load(1, XDATA, add(CFA_XSP16, literal(-5)))
        CFI (cfiCond553) ?RET_HIGH load(1, XDATA, add(CFA_XSP16, literal(-4)))
        CFI (cfiCond553) ?BRET_EXT load(1, XDATA, add(CFA_XSP16, literal(-3)))
        CFI (cfiCond553) DPL0 load(1, XDATA, add(CFA_XSP16, literal(-2)))
        CFI (cfiCond553) DPH0 load(1, XDATA, add(CFA_XSP16, literal(-1)))
        CFI (cfiCond553) CFA_SP SP+0
        CFI (cfiCond553) CFA_XSP16 add(XSP16, 21)
        CFI Block cfiCond554 Using cfiCommon0
        CFI (cfiCond554) NoFunction
        CFI (cfiCond554) Conditional ??CrossCallReturnLabel_250
        CFI (cfiCond554) R6 load(1, XDATA, add(CFA_XSP16, literal(-24)))
        CFI (cfiCond554) VB load(1, XDATA, add(CFA_XSP16, literal(-23)))
        CFI (cfiCond554) V0 load(1, XDATA, add(CFA_XSP16, literal(-22)))
        CFI (cfiCond554) V1 load(1, XDATA, add(CFA_XSP16, literal(-21)))
        CFI (cfiCond554) V2 load(1, XDATA, add(CFA_XSP16, literal(-20)))
        CFI (cfiCond554) V3 load(1, XDATA, add(CFA_XSP16, literal(-19)))
        CFI (cfiCond554) V4 load(1, XDATA, add(CFA_XSP16, literal(-18)))
        CFI (cfiCond554) V5 load(1, XDATA, add(CFA_XSP16, literal(-17)))
        CFI (cfiCond554) V6 load(1, XDATA, add(CFA_XSP16, literal(-16)))
        CFI (cfiCond554) V7 load(1, XDATA, add(CFA_XSP16, literal(-15)))
        CFI (cfiCond554) V8 load(1, XDATA, add(CFA_XSP16, literal(-14)))
        CFI (cfiCond554) V9 load(1, XDATA, add(CFA_XSP16, literal(-13)))
        CFI (cfiCond554) V10 load(1, XDATA, add(CFA_XSP16, literal(-12)))
        CFI (cfiCond554) V11 load(1, XDATA, add(CFA_XSP16, literal(-11)))
        CFI (cfiCond554) V12 load(1, XDATA, add(CFA_XSP16, literal(-10)))
        CFI (cfiCond554) V13 load(1, XDATA, add(CFA_XSP16, literal(-9)))
        CFI (cfiCond554) V14 load(1, XDATA, add(CFA_XSP16, literal(-8)))
        CFI (cfiCond554) V15 load(1, XDATA, add(CFA_XSP16, literal(-7)))
        CFI (cfiCond554) R7 load(1, XDATA, add(CFA_XSP16, literal(-6)))
        CFI (cfiCond554) ?RET_LOW load(1, XDATA, add(CFA_XSP16, literal(-5)))
        CFI (cfiCond554) ?RET_HIGH load(1, XDATA, add(CFA_XSP16, literal(-4)))
        CFI (cfiCond554) ?BRET_EXT load(1, XDATA, add(CFA_XSP16, literal(-3)))
        CFI (cfiCond554) DPL0 load(1, XDATA, add(CFA_XSP16, literal(-2)))
        CFI (cfiCond554) DPH0 load(1, XDATA, add(CFA_XSP16, literal(-1)))
        CFI (cfiCond554) CFA_SP SP+0
        CFI (cfiCond554) CFA_XSP16 add(XSP16, 24)
        CFI Block cfiCond555 Using cfiCommon0
        CFI (cfiCond555) NoFunction
        CFI (cfiCond555) Conditional ??CrossCallReturnLabel_251
        CFI (cfiCond555) R6 load(1, XDATA, add(CFA_XSP16, literal(-10)))
        CFI (cfiCond555) VB load(1, XDATA, add(CFA_XSP16, literal(-9)))
        CFI (cfiCond555) V0 load(1, XDATA, add(CFA_XSP16, literal(-8)))
        CFI (cfiCond555) V1 load(1, XDATA, add(CFA_XSP16, literal(-7)))
        CFI (cfiCond555) R7 load(1, XDATA, add(CFA_XSP16, literal(-6)))
        CFI (cfiCond555) ?RET_LOW load(1, XDATA, add(CFA_XSP16, literal(-5)))
        CFI (cfiCond555) ?RET_HIGH load(1, XDATA, add(CFA_XSP16, literal(-4)))
        CFI (cfiCond555) ?BRET_EXT load(1, XDATA, add(CFA_XSP16, literal(-3)))
        CFI (cfiCond555) DPL0 load(1, XDATA, add(CFA_XSP16, literal(-2)))
        CFI (cfiCond555) DPH0 load(1, XDATA, add(CFA_XSP16, literal(-1)))
        CFI (cfiCond555) CFA_SP SP+0
        CFI (cfiCond555) CFA_XSP16 add(XSP16, 31)
        CFI Block cfiCond556 Using cfiCommon0
        CFI (cfiCond556) NoFunction
        CFI (cfiCond556) Conditional ??CrossCallReturnLabel_252
        CFI (cfiCond556) R6 load(1, XDATA, add(CFA_XSP16, literal(-15)))
        CFI (cfiCond556) VB load(1, XDATA, add(CFA_XSP16, literal(-14)))
        CFI (cfiCond556) V0 load(1, XDATA, add(CFA_XSP16, literal(-13)))
        CFI (cfiCond556) V1 load(1, XDATA, add(CFA_XSP16, literal(-12)))
        CFI (cfiCond556) V2 load(1, XDATA, add(CFA_XSP16, literal(-11)))
        CFI (cfiCond556) V3 load(1, XDATA, add(CFA_XSP16, literal(-10)))
        CFI (cfiCond556) V4 load(1, XDATA, add(CFA_XSP16, literal(-9)))
        CFI (cfiCond556) V5 load(1, XDATA, add(CFA_XSP16, literal(-8)))
        CFI (cfiCond556) V6 load(1, XDATA, add(CFA_XSP16, literal(-7)))
        CFI (cfiCond556) R7 load(1, XDATA, add(CFA_XSP16, literal(-6)))
        CFI (cfiCond556) ?RET_LOW load(1, XDATA, add(CFA_XSP16, literal(-5)))
        CFI (cfiCond556) ?RET_HIGH load(1, XDATA, add(CFA_XSP16, literal(-4)))
        CFI (cfiCond556) ?BRET_EXT load(1, XDATA, add(CFA_XSP16, literal(-3)))
        CFI (cfiCond556) DPL0 load(1, XDATA, add(CFA_XSP16, literal(-2)))
        CFI (cfiCond556) DPH0 load(1, XDATA, add(CFA_XSP16, literal(-1)))
        CFI (cfiCond556) CFA_SP SP+0
        CFI (cfiCond556) CFA_XSP16 add(XSP16, 15)
        CFI Block cfiCond557 Using cfiCommon0
        CFI (cfiCond557) NoFunction
        CFI (cfiCond557) Conditional ??CrossCallReturnLabel_253
        CFI (cfiCond557) R6 load(1, XDATA, add(CFA_XSP16, literal(-22)))
        CFI (cfiCond557) VB load(1, XDATA, add(CFA_XSP16, literal(-21)))
        CFI (cfiCond557) V0 load(1, XDATA, add(CFA_XSP16, literal(-20)))
        CFI (cfiCond557) V1 load(1, XDATA, add(CFA_XSP16, literal(-19)))
        CFI (cfiCond557) V2 load(1, XDATA, add(CFA_XSP16, literal(-18)))
        CFI (cfiCond557) V3 load(1, XDATA, add(CFA_XSP16, literal(-17)))
        CFI (cfiCond557) V4 load(1, XDATA, add(CFA_XSP16, literal(-16)))
        CFI (cfiCond557) V5 load(1, XDATA, add(CFA_XSP16, literal(-15)))
        CFI (cfiCond557) V6 load(1, XDATA, add(CFA_XSP16, literal(-14)))
        CFI (cfiCond557) V7 load(1, XDATA, add(CFA_XSP16, literal(-13)))
        CFI (cfiCond557) V8 load(1, XDATA, add(CFA_XSP16, literal(-12)))
        CFI (cfiCond557) V9 load(1, XDATA, add(CFA_XSP16, literal(-11)))
        CFI (cfiCond557) V10 load(1, XDATA, add(CFA_XSP16, literal(-10)))
        CFI (cfiCond557) V11 load(1, XDATA, add(CFA_XSP16, literal(-9)))
        CFI (cfiCond557) V12 load(1, XDATA, add(CFA_XSP16, literal(-8)))
        CFI (cfiCond557) V13 load(1, XDATA, add(CFA_XSP16, literal(-7)))
        CFI (cfiCond557) R7 load(1, XDATA, add(CFA_XSP16, literal(-6)))
        CFI (cfiCond557) ?RET_LOW load(1, XDATA, add(CFA_XSP16, literal(-5)))
        CFI (cfiCond557) ?RET_HIGH load(1, XDATA, add(CFA_XSP16, literal(-4)))
        CFI (cfiCond557) ?BRET_EXT load(1, XDATA, add(CFA_XSP16, literal(-3)))
        CFI (cfiCond557) DPL0 load(1, XDATA, add(CFA_XSP16, literal(-2)))
        CFI (cfiCond557) DPH0 load(1, XDATA, add(CFA_XSP16, literal(-1)))
        CFI (cfiCond557) CFA_SP SP+0
        CFI (cfiCond557) CFA_XSP16 add(XSP16, 23)
        CFI Block cfiCond558 Using cfiCommon0
        CFI (cfiCond558) NoFunction
        CFI (cfiCond558) Conditional ??CrossCallReturnLabel_254
        CFI (cfiCond558) R6 load(1, XDATA, add(CFA_XSP16, literal(-22)))
        CFI (cfiCond558) VB load(1, XDATA, add(CFA_XSP16, literal(-21)))
        CFI (cfiCond558) V0 load(1, XDATA, add(CFA_XSP16, literal(-20)))
        CFI (cfiCond558) V1 load(1, XDATA, add(CFA_XSP16, literal(-19)))
        CFI (cfiCond558) V2 load(1, XDATA, add(CFA_XSP16, literal(-18)))
        CFI (cfiCond558) V3 load(1, XDATA, add(CFA_XSP16, literal(-17)))
        CFI (cfiCond558) V4 load(1, XDATA, add(CFA_XSP16, literal(-16)))
        CFI (cfiCond558) V5 load(1, XDATA, add(CFA_XSP16, literal(-15)))
        CFI (cfiCond558) V6 load(1, XDATA, add(CFA_XSP16, literal(-14)))
        CFI (cfiCond558) V7 load(1, XDATA, add(CFA_XSP16, literal(-13)))
        CFI (cfiCond558) V8 load(1, XDATA, add(CFA_XSP16, literal(-12)))
        CFI (cfiCond558) V9 load(1, XDATA, add(CFA_XSP16, literal(-11)))
        CFI (cfiCond558) V10 load(1, XDATA, add(CFA_XSP16, literal(-10)))
        CFI (cfiCond558) V11 load(1, XDATA, add(CFA_XSP16, literal(-9)))
        CFI (cfiCond558) V12 load(1, XDATA, add(CFA_XSP16, literal(-8)))
        CFI (cfiCond558) V13 load(1, XDATA, add(CFA_XSP16, literal(-7)))
        CFI (cfiCond558) R7 load(1, XDATA, add(CFA_XSP16, literal(-6)))
        CFI (cfiCond558) ?RET_LOW load(1, XDATA, add(CFA_XSP16, literal(-5)))
        CFI (cfiCond558) ?RET_HIGH load(1, XDATA, add(CFA_XSP16, literal(-4)))
        CFI (cfiCond558) ?BRET_EXT load(1, XDATA, add(CFA_XSP16, literal(-3)))
        CFI (cfiCond558) DPL0 load(1, XDATA, add(CFA_XSP16, literal(-2)))
        CFI (cfiCond558) DPH0 load(1, XDATA, add(CFA_XSP16, literal(-1)))
        CFI (cfiCond558) CFA_SP SP+0
        CFI (cfiCond558) CFA_XSP16 add(XSP16, 23)
        CFI Block cfiPicker559 Using cfiCommon1
        CFI (cfiPicker559) NoFunction
        CFI (cfiPicker559) Picker
        ADDC    A,#0x0
        MOV     DPH,A
        RET
        CFI EndBlock cfiCond551
        CFI EndBlock cfiCond552
        CFI EndBlock cfiCond553
        CFI EndBlock cfiCond554
        CFI EndBlock cfiCond555
        CFI EndBlock cfiCond556
        CFI EndBlock cfiCond557
        CFI EndBlock cfiCond558
        CFI EndBlock cfiPicker559

        RSEG BANKED_CODE:CODE:NOROOT(0)
?Subroutine62:
        CFI Block cfiCond560 Using cfiCommon0
        CFI NoFunction
        CFI Conditional ??CrossCallReturnLabel_259
        CFI R6 load(1, XDATA, add(CFA_XSP16, literal(-15)))
        CFI VB load(1, XDATA, add(CFA_XSP16, literal(-14)))
        CFI V0 load(1, XDATA, add(CFA_XSP16, literal(-13)))
        CFI V1 load(1, XDATA, add(CFA_XSP16, literal(-12)))
        CFI V2 load(1, XDATA, add(CFA_XSP16, literal(-11)))
        CFI V3 load(1, XDATA, add(CFA_XSP16, literal(-10)))
        CFI V4 load(1, XDATA, add(CFA_XSP16, literal(-9)))
        CFI V5 load(1, XDATA, add(CFA_XSP16, literal(-8)))
        CFI V6 load(1, XDATA, add(CFA_XSP16, literal(-7)))
        CFI R7 load(1, XDATA, add(CFA_XSP16, literal(-6)))
        CFI ?RET_LOW load(1, XDATA, add(CFA_XSP16, literal(-5)))
        CFI ?RET_HIGH load(1, XDATA, add(CFA_XSP16, literal(-4)))
        CFI ?BRET_EXT load(1, XDATA, add(CFA_XSP16, literal(-3)))
        CFI DPL0 load(1, XDATA, add(CFA_XSP16, literal(-2)))
        CFI DPH0 load(1, XDATA, add(CFA_XSP16, literal(-1)))
        CFI CFA_SP SP+0
        CFI CFA_XSP16 add(XSP16, 15)
        CFI Block cfiCond561 Using cfiCommon0
        CFI (cfiCond561) NoFunction
        CFI (cfiCond561) Conditional ??CrossCallReturnLabel_260
        CFI (cfiCond561) R6 load(1, XDATA, add(CFA_XSP16, literal(-22)))
        CFI (cfiCond561) VB load(1, XDATA, add(CFA_XSP16, literal(-21)))
        CFI (cfiCond561) V0 load(1, XDATA, add(CFA_XSP16, literal(-20)))
        CFI (cfiCond561) V1 load(1, XDATA, add(CFA_XSP16, literal(-19)))
        CFI (cfiCond561) V2 load(1, XDATA, add(CFA_XSP16, literal(-18)))
        CFI (cfiCond561) V3 load(1, XDATA, add(CFA_XSP16, literal(-17)))
        CFI (cfiCond561) V4 load(1, XDATA, add(CFA_XSP16, literal(-16)))
        CFI (cfiCond561) V5 load(1, XDATA, add(CFA_XSP16, literal(-15)))
        CFI (cfiCond561) V6 load(1, XDATA, add(CFA_XSP16, literal(-14)))
        CFI (cfiCond561) V7 load(1, XDATA, add(CFA_XSP16, literal(-13)))
        CFI (cfiCond561) V8 load(1, XDATA, add(CFA_XSP16, literal(-12)))
        CFI (cfiCond561) V9 load(1, XDATA, add(CFA_XSP16, literal(-11)))
        CFI (cfiCond561) V10 load(1, XDATA, add(CFA_XSP16, literal(-10)))
        CFI (cfiCond561) V11 load(1, XDATA, add(CFA_XSP16, literal(-9)))
        CFI (cfiCond561) V12 load(1, XDATA, add(CFA_XSP16, literal(-8)))
        CFI (cfiCond561) V13 load(1, XDATA, add(CFA_XSP16, literal(-7)))
        CFI (cfiCond561) R7 load(1, XDATA, add(CFA_XSP16, literal(-6)))
        CFI (cfiCond561) ?RET_LOW load(1, XDATA, add(CFA_XSP16, literal(-5)))
        CFI (cfiCond561) ?RET_HIGH load(1, XDATA, add(CFA_XSP16, literal(-4)))
        CFI (cfiCond561) ?BRET_EXT load(1, XDATA, add(CFA_XSP16, literal(-3)))
        CFI (cfiCond561) DPL0 load(1, XDATA, add(CFA_XSP16, literal(-2)))
        CFI (cfiCond561) DPH0 load(1, XDATA, add(CFA_XSP16, literal(-1)))
        CFI (cfiCond561) CFA_SP SP+0
        CFI (cfiCond561) CFA_XSP16 add(XSP16, 23)
        CFI Block cfiCond562 Using cfiCommon0
        CFI (cfiCond562) NoFunction
        CFI (cfiCond562) Conditional ??CrossCallReturnLabel_261
        CFI (cfiCond562) R6 load(1, XDATA, add(CFA_XSP16, literal(-22)))
        CFI (cfiCond562) VB load(1, XDATA, add(CFA_XSP16, literal(-21)))
        CFI (cfiCond562) V0 load(1, XDATA, add(CFA_XSP16, literal(-20)))
        CFI (cfiCond562) V1 load(1, XDATA, add(CFA_XSP16, literal(-19)))
        CFI (cfiCond562) V2 load(1, XDATA, add(CFA_XSP16, literal(-18)))
        CFI (cfiCond562) V3 load(1, XDATA, add(CFA_XSP16, literal(-17)))
        CFI (cfiCond562) V4 load(1, XDATA, add(CFA_XSP16, literal(-16)))
        CFI (cfiCond562) V5 load(1, XDATA, add(CFA_XSP16, literal(-15)))
        CFI (cfiCond562) V6 load(1, XDATA, add(CFA_XSP16, literal(-14)))
        CFI (cfiCond562) V7 load(1, XDATA, add(CFA_XSP16, literal(-13)))
        CFI (cfiCond562) V8 load(1, XDATA, add(CFA_XSP16, literal(-12)))
        CFI (cfiCond562) V9 load(1, XDATA, add(CFA_XSP16, literal(-11)))
        CFI (cfiCond562) V10 load(1, XDATA, add(CFA_XSP16, literal(-10)))
        CFI (cfiCond562) V11 load(1, XDATA, add(CFA_XSP16, literal(-9)))
        CFI (cfiCond562) V12 load(1, XDATA, add(CFA_XSP16, literal(-8)))
        CFI (cfiCond562) V13 load(1, XDATA, add(CFA_XSP16, literal(-7)))
        CFI (cfiCond562) R7 load(1, XDATA, add(CFA_XSP16, literal(-6)))
        CFI (cfiCond562) ?RET_LOW load(1, XDATA, add(CFA_XSP16, literal(-5)))
        CFI (cfiCond562) ?RET_HIGH load(1, XDATA, add(CFA_XSP16, literal(-4)))
        CFI (cfiCond562) ?BRET_EXT load(1, XDATA, add(CFA_XSP16, literal(-3)))
        CFI (cfiCond562) DPL0 load(1, XDATA, add(CFA_XSP16, literal(-2)))
        CFI (cfiCond562) DPH0 load(1, XDATA, add(CFA_XSP16, literal(-1)))
        CFI (cfiCond562) CFA_SP SP+0
        CFI (cfiCond562) CFA_XSP16 add(XSP16, 23)
        CFI Block cfiPicker563 Using cfiCommon1
        CFI (cfiPicker563) NoFunction
        CFI (cfiPicker563) Picker
        MOV     DPL,A
        MOV     A,?V0 + 1
        CFI EndBlock cfiCond560
        CFI EndBlock cfiCond561
        CFI EndBlock cfiCond562
        CFI EndBlock cfiPicker563
        REQUIRE ??Subroutine112_0
        ; // Fall through to label ??Subroutine112_0

        RSEG BANKED_CODE:CODE:NOROOT(0)
??Subroutine112_0:
        CFI Block cfiCond564 Using cfiCommon0
        CFI NoFunction
        CFI Conditional ??CrossCallReturnLabel_255
        CFI R6 load(1, XDATA, add(CFA_XSP16, literal(-15)))
        CFI VB load(1, XDATA, add(CFA_XSP16, literal(-14)))
        CFI V0 load(1, XDATA, add(CFA_XSP16, literal(-13)))
        CFI V1 load(1, XDATA, add(CFA_XSP16, literal(-12)))
        CFI V2 load(1, XDATA, add(CFA_XSP16, literal(-11)))
        CFI V3 load(1, XDATA, add(CFA_XSP16, literal(-10)))
        CFI V4 load(1, XDATA, add(CFA_XSP16, literal(-9)))
        CFI V5 load(1, XDATA, add(CFA_XSP16, literal(-8)))
        CFI V6 load(1, XDATA, add(CFA_XSP16, literal(-7)))
        CFI R7 load(1, XDATA, add(CFA_XSP16, literal(-6)))
        CFI ?RET_LOW load(1, XDATA, add(CFA_XSP16, literal(-5)))
        CFI ?RET_HIGH load(1, XDATA, add(CFA_XSP16, literal(-4)))
        CFI ?BRET_EXT load(1, XDATA, add(CFA_XSP16, literal(-3)))
        CFI DPL0 load(1, XDATA, add(CFA_XSP16, literal(-2)))
        CFI DPH0 load(1, XDATA, add(CFA_XSP16, literal(-1)))
        CFI CFA_SP SP+0
        CFI CFA_XSP16 add(XSP16, 15)
        CFI Block cfiCond565 Using cfiCommon0
        CFI (cfiCond565) NoFunction
        CFI (cfiCond565) Conditional ??CrossCallReturnLabel_256
        CFI (cfiCond565) R6 load(1, XDATA, add(CFA_XSP16, literal(-10)))
        CFI (cfiCond565) VB load(1, XDATA, add(CFA_XSP16, literal(-9)))
        CFI (cfiCond565) V0 load(1, XDATA, add(CFA_XSP16, literal(-8)))
        CFI (cfiCond565) V1 load(1, XDATA, add(CFA_XSP16, literal(-7)))
        CFI (cfiCond565) R7 load(1, XDATA, add(CFA_XSP16, literal(-6)))
        CFI (cfiCond565) ?RET_LOW load(1, XDATA, add(CFA_XSP16, literal(-5)))
        CFI (cfiCond565) ?RET_HIGH load(1, XDATA, add(CFA_XSP16, literal(-4)))
        CFI (cfiCond565) ?BRET_EXT load(1, XDATA, add(CFA_XSP16, literal(-3)))
        CFI (cfiCond565) DPL0 load(1, XDATA, add(CFA_XSP16, literal(-2)))
        CFI (cfiCond565) DPH0 load(1, XDATA, add(CFA_XSP16, literal(-1)))
        CFI (cfiCond565) CFA_SP SP+0
        CFI (cfiCond565) CFA_XSP16 add(XSP16, 31)
        CFI Block cfiCond566 Using cfiCommon0
        CFI (cfiCond566) NoFunction
        CFI (cfiCond566) Conditional ??CrossCallReturnLabel_257
        CFI (cfiCond566) R6 load(1, XDATA, add(CFA_XSP16, literal(-10)))
        CFI (cfiCond566) VB load(1, XDATA, add(CFA_XSP16, literal(-9)))
        CFI (cfiCond566) V0 load(1, XDATA, add(CFA_XSP16, literal(-8)))
        CFI (cfiCond566) V1 load(1, XDATA, add(CFA_XSP16, literal(-7)))
        CFI (cfiCond566) R7 load(1, XDATA, add(CFA_XSP16, literal(-6)))
        CFI (cfiCond566) ?RET_LOW load(1, XDATA, add(CFA_XSP16, literal(-5)))
        CFI (cfiCond566) ?RET_HIGH load(1, XDATA, add(CFA_XSP16, literal(-4)))
        CFI (cfiCond566) ?BRET_EXT load(1, XDATA, add(CFA_XSP16, literal(-3)))
        CFI (cfiCond566) DPL0 load(1, XDATA, add(CFA_XSP16, literal(-2)))
        CFI (cfiCond566) DPH0 load(1, XDATA, add(CFA_XSP16, literal(-1)))
        CFI (cfiCond566) CFA_SP SP+0
        CFI (cfiCond566) CFA_XSP16 add(XSP16, 31)
        CFI Block cfiCond567 Using cfiCommon0
        CFI (cfiCond567) NoFunction
        CFI (cfiCond567) Conditional ??CrossCallReturnLabel_258
        CFI (cfiCond567) R6 load(1, XDATA, add(CFA_XSP16, literal(-10)))
        CFI (cfiCond567) VB load(1, XDATA, add(CFA_XSP16, literal(-9)))
        CFI (cfiCond567) V0 load(1, XDATA, add(CFA_XSP16, literal(-8)))
        CFI (cfiCond567) V1 load(1, XDATA, add(CFA_XSP16, literal(-7)))
        CFI (cfiCond567) R7 load(1, XDATA, add(CFA_XSP16, literal(-6)))
        CFI (cfiCond567) ?RET_LOW load(1, XDATA, add(CFA_XSP16, literal(-5)))
        CFI (cfiCond567) ?RET_HIGH load(1, XDATA, add(CFA_XSP16, literal(-4)))
        CFI (cfiCond567) ?BRET_EXT load(1, XDATA, add(CFA_XSP16, literal(-3)))
        CFI (cfiCond567) DPL0 load(1, XDATA, add(CFA_XSP16, literal(-2)))
        CFI (cfiCond567) DPH0 load(1, XDATA, add(CFA_XSP16, literal(-1)))
        CFI (cfiCond567) CFA_SP SP+0
        CFI (cfiCond567) CFA_XSP16 add(XSP16, 31)
        CFI Block cfiCond568 Using cfiCommon0
        CFI (cfiCond568) NoFunction
        CFI (cfiCond568) Conditional ??CrossCallReturnLabel_259
        CFI (cfiCond568) R6 load(1, XDATA, add(CFA_XSP16, literal(-15)))
        CFI (cfiCond568) VB load(1, XDATA, add(CFA_XSP16, literal(-14)))
        CFI (cfiCond568) V0 load(1, XDATA, add(CFA_XSP16, literal(-13)))
        CFI (cfiCond568) V1 load(1, XDATA, add(CFA_XSP16, literal(-12)))
        CFI (cfiCond568) V2 load(1, XDATA, add(CFA_XSP16, literal(-11)))
        CFI (cfiCond568) V3 load(1, XDATA, add(CFA_XSP16, literal(-10)))
        CFI (cfiCond568) V4 load(1, XDATA, add(CFA_XSP16, literal(-9)))
        CFI (cfiCond568) V5 load(1, XDATA, add(CFA_XSP16, literal(-8)))
        CFI (cfiCond568) V6 load(1, XDATA, add(CFA_XSP16, literal(-7)))
        CFI (cfiCond568) R7 load(1, XDATA, add(CFA_XSP16, literal(-6)))
        CFI (cfiCond568) ?RET_LOW load(1, XDATA, add(CFA_XSP16, literal(-5)))
        CFI (cfiCond568) ?RET_HIGH load(1, XDATA, add(CFA_XSP16, literal(-4)))
        CFI (cfiCond568) ?BRET_EXT load(1, XDATA, add(CFA_XSP16, literal(-3)))
        CFI (cfiCond568) DPL0 load(1, XDATA, add(CFA_XSP16, literal(-2)))
        CFI (cfiCond568) DPH0 load(1, XDATA, add(CFA_XSP16, literal(-1)))
        CFI (cfiCond568) CFA_SP SP+0
        CFI (cfiCond568) CFA_XSP16 add(XSP16, 15)
        CFI Block cfiCond569 Using cfiCommon0
        CFI (cfiCond569) NoFunction
        CFI (cfiCond569) Conditional ??CrossCallReturnLabel_260
        CFI (cfiCond569) R6 load(1, XDATA, add(CFA_XSP16, literal(-22)))
        CFI (cfiCond569) VB load(1, XDATA, add(CFA_XSP16, literal(-21)))
        CFI (cfiCond569) V0 load(1, XDATA, add(CFA_XSP16, literal(-20)))
        CFI (cfiCond569) V1 load(1, XDATA, add(CFA_XSP16, literal(-19)))
        CFI (cfiCond569) V2 load(1, XDATA, add(CFA_XSP16, literal(-18)))
        CFI (cfiCond569) V3 load(1, XDATA, add(CFA_XSP16, literal(-17)))
        CFI (cfiCond569) V4 load(1, XDATA, add(CFA_XSP16, literal(-16)))
        CFI (cfiCond569) V5 load(1, XDATA, add(CFA_XSP16, literal(-15)))
        CFI (cfiCond569) V6 load(1, XDATA, add(CFA_XSP16, literal(-14)))
        CFI (cfiCond569) V7 load(1, XDATA, add(CFA_XSP16, literal(-13)))
        CFI (cfiCond569) V8 load(1, XDATA, add(CFA_XSP16, literal(-12)))
        CFI (cfiCond569) V9 load(1, XDATA, add(CFA_XSP16, literal(-11)))
        CFI (cfiCond569) V10 load(1, XDATA, add(CFA_XSP16, literal(-10)))
        CFI (cfiCond569) V11 load(1, XDATA, add(CFA_XSP16, literal(-9)))
        CFI (cfiCond569) V12 load(1, XDATA, add(CFA_XSP16, literal(-8)))
        CFI (cfiCond569) V13 load(1, XDATA, add(CFA_XSP16, literal(-7)))
        CFI (cfiCond569) R7 load(1, XDATA, add(CFA_XSP16, literal(-6)))
        CFI (cfiCond569) ?RET_LOW load(1, XDATA, add(CFA_XSP16, literal(-5)))
        CFI (cfiCond569) ?RET_HIGH load(1, XDATA, add(CFA_XSP16, literal(-4)))
        CFI (cfiCond569) ?BRET_EXT load(1, XDATA, add(CFA_XSP16, literal(-3)))
        CFI (cfiCond569) DPL0 load(1, XDATA, add(CFA_XSP16, literal(-2)))
        CFI (cfiCond569) DPH0 load(1, XDATA, add(CFA_XSP16, literal(-1)))
        CFI (cfiCond569) CFA_SP SP+0
        CFI (cfiCond569) CFA_XSP16 add(XSP16, 23)
        CFI Block cfiCond570 Using cfiCommon0
        CFI (cfiCond570) NoFunction
        CFI (cfiCond570) Conditional ??CrossCallReturnLabel_261
        CFI (cfiCond570) R6 load(1, XDATA, add(CFA_XSP16, literal(-22)))
        CFI (cfiCond570) VB load(1, XDATA, add(CFA_XSP16, literal(-21)))
        CFI (cfiCond570) V0 load(1, XDATA, add(CFA_XSP16, literal(-20)))
        CFI (cfiCond570) V1 load(1, XDATA, add(CFA_XSP16, literal(-19)))
        CFI (cfiCond570) V2 load(1, XDATA, add(CFA_XSP16, literal(-18)))
        CFI (cfiCond570) V3 load(1, XDATA, add(CFA_XSP16, literal(-17)))
        CFI (cfiCond570) V4 load(1, XDATA, add(CFA_XSP16, literal(-16)))
        CFI (cfiCond570) V5 load(1, XDATA, add(CFA_XSP16, literal(-15)))
        CFI (cfiCond570) V6 load(1, XDATA, add(CFA_XSP16, literal(-14)))
        CFI (cfiCond570) V7 load(1, XDATA, add(CFA_XSP16, literal(-13)))
        CFI (cfiCond570) V8 load(1, XDATA, add(CFA_XSP16, literal(-12)))
        CFI (cfiCond570) V9 load(1, XDATA, add(CFA_XSP16, literal(-11)))
        CFI (cfiCond570) V10 load(1, XDATA, add(CFA_XSP16, literal(-10)))
        CFI (cfiCond570) V11 load(1, XDATA, add(CFA_XSP16, literal(-9)))
        CFI (cfiCond570) V12 load(1, XDATA, add(CFA_XSP16, literal(-8)))
        CFI (cfiCond570) V13 load(1, XDATA, add(CFA_XSP16, literal(-7)))
        CFI (cfiCond570) R7 load(1, XDATA, add(CFA_XSP16, literal(-6)))
        CFI (cfiCond570) ?RET_LOW load(1, XDATA, add(CFA_XSP16, literal(-5)))
        CFI (cfiCond570) ?RET_HIGH load(1, XDATA, add(CFA_XSP16, literal(-4)))
        CFI (cfiCond570) ?BRET_EXT load(1, XDATA, add(CFA_XSP16, literal(-3)))
        CFI (cfiCond570) DPL0 load(1, XDATA, add(CFA_XSP16, literal(-2)))
        CFI (cfiCond570) DPH0 load(1, XDATA, add(CFA_XSP16, literal(-1)))
        CFI (cfiCond570) CFA_SP SP+0
        CFI (cfiCond570) CFA_XSP16 add(XSP16, 23)
        CFI Block cfiPicker571 Using cfiCommon1
        CFI (cfiPicker571) NoFunction
        CFI (cfiPicker571) Picker
        ADDC    A,#0x0
        MOV     DPH,A
        MOVX    A,@DPTR
        RET
        CFI EndBlock cfiCond564
        CFI EndBlock cfiCond565
        CFI EndBlock cfiCond566
        CFI EndBlock cfiCond567
        CFI EndBlock cfiCond568
        CFI EndBlock cfiCond569
        CFI EndBlock cfiCond570
        CFI EndBlock cfiPicker571

        RSEG BANKED_CODE:CODE:NOROOT(0)
?Subroutine58:
        CFI Block cfiCond572 Using cfiCommon0
        CFI NoFunction
        CFI Conditional ??CrossCallReturnLabel_87
        CFI R6 load(1, XDATA, add(CFA_XSP16, literal(-10)))
        CFI VB load(1, XDATA, add(CFA_XSP16, literal(-9)))
        CFI V0 load(1, XDATA, add(CFA_XSP16, literal(-8)))
        CFI V1 load(1, XDATA, add(CFA_XSP16, literal(-7)))
        CFI R7 load(1, XDATA, add(CFA_XSP16, literal(-6)))
        CFI ?RET_LOW load(1, XDATA, add(CFA_XSP16, literal(-5)))
        CFI ?RET_HIGH load(1, XDATA, add(CFA_XSP16, literal(-4)))
        CFI ?BRET_EXT load(1, XDATA, add(CFA_XSP16, literal(-3)))
        CFI DPL0 load(1, XDATA, add(CFA_XSP16, literal(-2)))
        CFI DPH0 load(1, XDATA, add(CFA_XSP16, literal(-1)))
        CFI CFA_SP SP+0
        CFI CFA_XSP16 add(XSP16, 31)
        CFI Block cfiCond573 Using cfiCommon0
        CFI (cfiCond573) NoFunction
        CFI (cfiCond573) Conditional ??CrossCallReturnLabel_88
        CFI (cfiCond573) R6 load(1, XDATA, add(CFA_XSP16, literal(-10)))
        CFI (cfiCond573) VB load(1, XDATA, add(CFA_XSP16, literal(-9)))
        CFI (cfiCond573) V0 load(1, XDATA, add(CFA_XSP16, literal(-8)))
        CFI (cfiCond573) V1 load(1, XDATA, add(CFA_XSP16, literal(-7)))
        CFI (cfiCond573) R7 load(1, XDATA, add(CFA_XSP16, literal(-6)))
        CFI (cfiCond573) ?RET_LOW load(1, XDATA, add(CFA_XSP16, literal(-5)))
        CFI (cfiCond573) ?RET_HIGH load(1, XDATA, add(CFA_XSP16, literal(-4)))
        CFI (cfiCond573) ?BRET_EXT load(1, XDATA, add(CFA_XSP16, literal(-3)))
        CFI (cfiCond573) DPL0 load(1, XDATA, add(CFA_XSP16, literal(-2)))
        CFI (cfiCond573) DPH0 load(1, XDATA, add(CFA_XSP16, literal(-1)))
        CFI (cfiCond573) CFA_SP SP+0
        CFI (cfiCond573) CFA_XSP16 add(XSP16, 31)
        CFI Block cfiPicker574 Using cfiCommon1
        CFI (cfiPicker574) NoFunction
        CFI (cfiPicker574) Picker
        MOVX    @DPTR,A
        MOV     DPL,R2
        MOV     DPH,R3
        INC     DPTR
        INC     DPTR
        INC     DPTR
        INC     DPTR
        RET
        CFI EndBlock cfiCond572
        CFI EndBlock cfiCond573
        CFI EndBlock cfiPicker574

        RSEG BANKED_CODE:CODE:NOROOT(0)
?Subroutine40:
        CFI Block cfiCond575 Using cfiCommon0
        CFI NoFunction
        CFI Conditional ??CrossCallReturnLabel_262
        CFI R6 load(1, XDATA, add(CFA_XSP16, literal(-10)))
        CFI VB load(1, XDATA, add(CFA_XSP16, literal(-9)))
        CFI V0 load(1, XDATA, add(CFA_XSP16, literal(-8)))
        CFI V1 load(1, XDATA, add(CFA_XSP16, literal(-7)))
        CFI R7 load(1, XDATA, add(CFA_XSP16, literal(-6)))
        CFI ?RET_LOW load(1, XDATA, add(CFA_XSP16, literal(-5)))
        CFI ?RET_HIGH load(1, XDATA, add(CFA_XSP16, literal(-4)))
        CFI ?BRET_EXT load(1, XDATA, add(CFA_XSP16, literal(-3)))
        CFI DPL0 load(1, XDATA, add(CFA_XSP16, literal(-2)))
        CFI DPH0 load(1, XDATA, add(CFA_XSP16, literal(-1)))
        CFI CFA_SP SP+0
        CFI CFA_XSP16 add(XSP16, 19)
        CFI Block cfiCond576 Using cfiCommon0
        CFI (cfiCond576) NoFunction
        CFI (cfiCond576) Conditional ??CrossCallReturnLabel_263
        CFI (cfiCond576) R6 load(1, XDATA, add(CFA_XSP16, literal(-18)))
        CFI (cfiCond576) VB load(1, XDATA, add(CFA_XSP16, literal(-17)))
        CFI (cfiCond576) V0 load(1, XDATA, add(CFA_XSP16, literal(-16)))
        CFI (cfiCond576) V1 load(1, XDATA, add(CFA_XSP16, literal(-15)))
        CFI (cfiCond576) V2 load(1, XDATA, add(CFA_XSP16, literal(-14)))
        CFI (cfiCond576) V3 load(1, XDATA, add(CFA_XSP16, literal(-13)))
        CFI (cfiCond576) V4 load(1, XDATA, add(CFA_XSP16, literal(-12)))
        CFI (cfiCond576) V5 load(1, XDATA, add(CFA_XSP16, literal(-11)))
        CFI (cfiCond576) V6 load(1, XDATA, add(CFA_XSP16, literal(-10)))
        CFI (cfiCond576) V7 load(1, XDATA, add(CFA_XSP16, literal(-9)))
        CFI (cfiCond576) V8 load(1, XDATA, add(CFA_XSP16, literal(-8)))
        CFI (cfiCond576) V9 load(1, XDATA, add(CFA_XSP16, literal(-7)))
        CFI (cfiCond576) R7 load(1, XDATA, add(CFA_XSP16, literal(-6)))
        CFI (cfiCond576) ?RET_LOW load(1, XDATA, add(CFA_XSP16, literal(-5)))
        CFI (cfiCond576) ?RET_HIGH load(1, XDATA, add(CFA_XSP16, literal(-4)))
        CFI (cfiCond576) ?BRET_EXT load(1, XDATA, add(CFA_XSP16, literal(-3)))
        CFI (cfiCond576) DPL0 load(1, XDATA, add(CFA_XSP16, literal(-2)))
        CFI (cfiCond576) DPH0 load(1, XDATA, add(CFA_XSP16, literal(-1)))
        CFI (cfiCond576) CFA_SP SP+0
        CFI (cfiCond576) CFA_XSP16 add(XSP16, 18)
        CFI Block cfiPicker577 Using cfiCommon1
        CFI (cfiPicker577) NoFunction
        CFI (cfiPicker577) Picker
        MOV     A,R1
        MOV     R6,A
        CFI EndBlock cfiCond575
        CFI EndBlock cfiCond576
        CFI EndBlock cfiPicker577
        REQUIRE ??Subroutine113_0
        ; // Fall through to label ??Subroutine113_0

        RSEG BANKED_CODE:CODE:NOROOT(0)
??Subroutine113_0:
        CFI Block cfiCond578 Using cfiCommon0
        CFI NoFunction
        CFI Conditional ??CrossCallReturnLabel_273
        CFI R6 load(1, XDATA, add(CFA_XSP16, literal(-14)))
        CFI VB load(1, XDATA, add(CFA_XSP16, literal(-13)))
        CFI V0 load(1, XDATA, add(CFA_XSP16, literal(-12)))
        CFI V1 load(1, XDATA, add(CFA_XSP16, literal(-11)))
        CFI V2 load(1, XDATA, add(CFA_XSP16, literal(-10)))
        CFI V3 load(1, XDATA, add(CFA_XSP16, literal(-9)))
        CFI V4 load(1, XDATA, add(CFA_XSP16, literal(-8)))
        CFI V5 load(1, XDATA, add(CFA_XSP16, literal(-7)))
        CFI R7 load(1, XDATA, add(CFA_XSP16, literal(-6)))
        CFI ?RET_LOW load(1, XDATA, add(CFA_XSP16, literal(-5)))
        CFI ?RET_HIGH load(1, XDATA, add(CFA_XSP16, literal(-4)))
        CFI ?BRET_EXT load(1, XDATA, add(CFA_XSP16, literal(-3)))
        CFI DPL0 load(1, XDATA, add(CFA_XSP16, literal(-2)))
        CFI DPH0 load(1, XDATA, add(CFA_XSP16, literal(-1)))
        CFI CFA_SP SP+0
        CFI CFA_XSP16 add(XSP16, 14)
        CFI Block cfiCond579 Using cfiCommon0
        CFI (cfiCond579) NoFunction
        CFI (cfiCond579) Conditional ??CrossCallReturnLabel_274
        CFI (cfiCond579) R6 load(1, XDATA, add(CFA_XSP16, literal(-10)))
        CFI (cfiCond579) VB load(1, XDATA, add(CFA_XSP16, literal(-9)))
        CFI (cfiCond579) V0 load(1, XDATA, add(CFA_XSP16, literal(-8)))
        CFI (cfiCond579) V1 load(1, XDATA, add(CFA_XSP16, literal(-7)))
        CFI (cfiCond579) R7 load(1, XDATA, add(CFA_XSP16, literal(-6)))
        CFI (cfiCond579) ?RET_LOW load(1, XDATA, add(CFA_XSP16, literal(-5)))
        CFI (cfiCond579) ?RET_HIGH load(1, XDATA, add(CFA_XSP16, literal(-4)))
        CFI (cfiCond579) ?BRET_EXT load(1, XDATA, add(CFA_XSP16, literal(-3)))
        CFI (cfiCond579) DPL0 load(1, XDATA, add(CFA_XSP16, literal(-2)))
        CFI (cfiCond579) DPH0 load(1, XDATA, add(CFA_XSP16, literal(-1)))
        CFI (cfiCond579) CFA_SP SP+0
        CFI (cfiCond579) CFA_XSP16 add(XSP16, 19)
        CFI Block cfiCond580 Using cfiCommon0
        CFI (cfiCond580) NoFunction
        CFI (cfiCond580) Conditional ??CrossCallReturnLabel_275
        CFI (cfiCond580) R6 load(1, XDATA, add(CFA_XSP16, literal(-10)))
        CFI (cfiCond580) VB load(1, XDATA, add(CFA_XSP16, literal(-9)))
        CFI (cfiCond580) V0 load(1, XDATA, add(CFA_XSP16, literal(-8)))
        CFI (cfiCond580) V1 load(1, XDATA, add(CFA_XSP16, literal(-7)))
        CFI (cfiCond580) R7 load(1, XDATA, add(CFA_XSP16, literal(-6)))
        CFI (cfiCond580) ?RET_LOW load(1, XDATA, add(CFA_XSP16, literal(-5)))
        CFI (cfiCond580) ?RET_HIGH load(1, XDATA, add(CFA_XSP16, literal(-4)))
        CFI (cfiCond580) ?BRET_EXT load(1, XDATA, add(CFA_XSP16, literal(-3)))
        CFI (cfiCond580) DPL0 load(1, XDATA, add(CFA_XSP16, literal(-2)))
        CFI (cfiCond580) DPH0 load(1, XDATA, add(CFA_XSP16, literal(-1)))
        CFI (cfiCond580) CFA_SP SP+0
        CFI (cfiCond580) CFA_XSP16 add(XSP16, 10)
        CFI Block cfiCond581 Using cfiCommon0
        CFI (cfiCond581) NoFunction
        CFI (cfiCond581) Conditional ??CrossCallReturnLabel_262
        CFI (cfiCond581) R6 load(1, XDATA, add(CFA_XSP16, literal(-10)))
        CFI (cfiCond581) VB load(1, XDATA, add(CFA_XSP16, literal(-9)))
        CFI (cfiCond581) V0 load(1, XDATA, add(CFA_XSP16, literal(-8)))
        CFI (cfiCond581) V1 load(1, XDATA, add(CFA_XSP16, literal(-7)))
        CFI (cfiCond581) R7 load(1, XDATA, add(CFA_XSP16, literal(-6)))
        CFI (cfiCond581) ?RET_LOW load(1, XDATA, add(CFA_XSP16, literal(-5)))
        CFI (cfiCond581) ?RET_HIGH load(1, XDATA, add(CFA_XSP16, literal(-4)))
        CFI (cfiCond581) ?BRET_EXT load(1, XDATA, add(CFA_XSP16, literal(-3)))
        CFI (cfiCond581) DPL0 load(1, XDATA, add(CFA_XSP16, literal(-2)))
        CFI (cfiCond581) DPH0 load(1, XDATA, add(CFA_XSP16, literal(-1)))
        CFI (cfiCond581) CFA_SP SP+0
        CFI (cfiCond581) CFA_XSP16 add(XSP16, 19)
        CFI Block cfiCond582 Using cfiCommon0
        CFI (cfiCond582) NoFunction
        CFI (cfiCond582) Conditional ??CrossCallReturnLabel_263
        CFI (cfiCond582) R6 load(1, XDATA, add(CFA_XSP16, literal(-18)))
        CFI (cfiCond582) VB load(1, XDATA, add(CFA_XSP16, literal(-17)))
        CFI (cfiCond582) V0 load(1, XDATA, add(CFA_XSP16, literal(-16)))
        CFI (cfiCond582) V1 load(1, XDATA, add(CFA_XSP16, literal(-15)))
        CFI (cfiCond582) V2 load(1, XDATA, add(CFA_XSP16, literal(-14)))
        CFI (cfiCond582) V3 load(1, XDATA, add(CFA_XSP16, literal(-13)))
        CFI (cfiCond582) V4 load(1, XDATA, add(CFA_XSP16, literal(-12)))
        CFI (cfiCond582) V5 load(1, XDATA, add(CFA_XSP16, literal(-11)))
        CFI (cfiCond582) V6 load(1, XDATA, add(CFA_XSP16, literal(-10)))
        CFI (cfiCond582) V7 load(1, XDATA, add(CFA_XSP16, literal(-9)))
        CFI (cfiCond582) V8 load(1, XDATA, add(CFA_XSP16, literal(-8)))
        CFI (cfiCond582) V9 load(1, XDATA, add(CFA_XSP16, literal(-7)))
        CFI (cfiCond582) R7 load(1, XDATA, add(CFA_XSP16, literal(-6)))
        CFI (cfiCond582) ?RET_LOW load(1, XDATA, add(CFA_XSP16, literal(-5)))
        CFI (cfiCond582) ?RET_HIGH load(1, XDATA, add(CFA_XSP16, literal(-4)))
        CFI (cfiCond582) ?BRET_EXT load(1, XDATA, add(CFA_XSP16, literal(-3)))
        CFI (cfiCond582) DPL0 load(1, XDATA, add(CFA_XSP16, literal(-2)))
        CFI (cfiCond582) DPH0 load(1, XDATA, add(CFA_XSP16, literal(-1)))
        CFI (cfiCond582) CFA_SP SP+0
        CFI (cfiCond582) CFA_XSP16 add(XSP16, 18)
        CFI Block cfiPicker583 Using cfiCommon1
        CFI (cfiPicker583) NoFunction
        CFI (cfiPicker583) Picker
        MOV     DPTR,#ZDP_TmpBuf
        CFI EndBlock cfiCond578
        CFI EndBlock cfiCond579
        CFI EndBlock cfiCond580
        CFI EndBlock cfiCond581
        CFI EndBlock cfiCond582
        CFI EndBlock cfiPicker583
        REQUIRE ??Subroutine114_0
        ; // Fall through to label ??Subroutine114_0

        RSEG BANKED_CODE:CODE:NOROOT(0)
??Subroutine114_0:
        CFI Block cfiCond584 Using cfiCommon0
        CFI NoFunction
        CFI Conditional ??CrossCallReturnLabel_264
        CFI R6 load(1, XDATA, add(CFA_XSP16, literal(-10)))
        CFI VB load(1, XDATA, add(CFA_XSP16, literal(-9)))
        CFI V0 load(1, XDATA, add(CFA_XSP16, literal(-8)))
        CFI V1 load(1, XDATA, add(CFA_XSP16, literal(-7)))
        CFI R7 load(1, XDATA, add(CFA_XSP16, literal(-6)))
        CFI ?RET_LOW load(1, XDATA, add(CFA_XSP16, literal(-5)))
        CFI ?RET_HIGH load(1, XDATA, add(CFA_XSP16, literal(-4)))
        CFI ?BRET_EXT load(1, XDATA, add(CFA_XSP16, literal(-3)))
        CFI DPL0 load(1, XDATA, add(CFA_XSP16, literal(-2)))
        CFI DPH0 load(1, XDATA, add(CFA_XSP16, literal(-1)))
        CFI CFA_SP SP+0
        CFI CFA_XSP16 add(XSP16, 10)
        CFI Block cfiCond585 Using cfiCommon0
        CFI (cfiCond585) NoFunction
        CFI (cfiCond585) Conditional ??CrossCallReturnLabel_265
        CFI (cfiCond585) R6 load(1, XDATA, add(CFA_XSP16, literal(-18)))
        CFI (cfiCond585) VB load(1, XDATA, add(CFA_XSP16, literal(-17)))
        CFI (cfiCond585) V0 load(1, XDATA, add(CFA_XSP16, literal(-16)))
        CFI (cfiCond585) V1 load(1, XDATA, add(CFA_XSP16, literal(-15)))
        CFI (cfiCond585) V2 load(1, XDATA, add(CFA_XSP16, literal(-14)))
        CFI (cfiCond585) V3 load(1, XDATA, add(CFA_XSP16, literal(-13)))
        CFI (cfiCond585) V4 load(1, XDATA, add(CFA_XSP16, literal(-12)))
        CFI (cfiCond585) V5 load(1, XDATA, add(CFA_XSP16, literal(-11)))
        CFI (cfiCond585) V6 load(1, XDATA, add(CFA_XSP16, literal(-10)))
        CFI (cfiCond585) V7 load(1, XDATA, add(CFA_XSP16, literal(-9)))
        CFI (cfiCond585) V8 load(1, XDATA, add(CFA_XSP16, literal(-8)))
        CFI (cfiCond585) V9 load(1, XDATA, add(CFA_XSP16, literal(-7)))
        CFI (cfiCond585) R7 load(1, XDATA, add(CFA_XSP16, literal(-6)))
        CFI (cfiCond585) ?RET_LOW load(1, XDATA, add(CFA_XSP16, literal(-5)))
        CFI (cfiCond585) ?RET_HIGH load(1, XDATA, add(CFA_XSP16, literal(-4)))
        CFI (cfiCond585) ?BRET_EXT load(1, XDATA, add(CFA_XSP16, literal(-3)))
        CFI (cfiCond585) DPL0 load(1, XDATA, add(CFA_XSP16, literal(-2)))
        CFI (cfiCond585) DPH0 load(1, XDATA, add(CFA_XSP16, literal(-1)))
        CFI (cfiCond585) CFA_SP SP+0
        CFI (cfiCond585) CFA_XSP16 add(XSP16, 19)
        CFI Block cfiCond586 Using cfiCommon0
        CFI (cfiCond586) NoFunction
        CFI (cfiCond586) Conditional ??CrossCallReturnLabel_266
        CFI (cfiCond586) R6 load(1, XDATA, add(CFA_XSP16, literal(-18)))
        CFI (cfiCond586) VB load(1, XDATA, add(CFA_XSP16, literal(-17)))
        CFI (cfiCond586) V0 load(1, XDATA, add(CFA_XSP16, literal(-16)))
        CFI (cfiCond586) V1 load(1, XDATA, add(CFA_XSP16, literal(-15)))
        CFI (cfiCond586) V2 load(1, XDATA, add(CFA_XSP16, literal(-14)))
        CFI (cfiCond586) V3 load(1, XDATA, add(CFA_XSP16, literal(-13)))
        CFI (cfiCond586) V4 load(1, XDATA, add(CFA_XSP16, literal(-12)))
        CFI (cfiCond586) V5 load(1, XDATA, add(CFA_XSP16, literal(-11)))
        CFI (cfiCond586) V6 load(1, XDATA, add(CFA_XSP16, literal(-10)))
        CFI (cfiCond586) V7 load(1, XDATA, add(CFA_XSP16, literal(-9)))
        CFI (cfiCond586) V8 load(1, XDATA, add(CFA_XSP16, literal(-8)))
        CFI (cfiCond586) V9 load(1, XDATA, add(CFA_XSP16, literal(-7)))
        CFI (cfiCond586) R7 load(1, XDATA, add(CFA_XSP16, literal(-6)))
        CFI (cfiCond586) ?RET_LOW load(1, XDATA, add(CFA_XSP16, literal(-5)))
        CFI (cfiCond586) ?RET_HIGH load(1, XDATA, add(CFA_XSP16, literal(-4)))
        CFI (cfiCond586) ?BRET_EXT load(1, XDATA, add(CFA_XSP16, literal(-3)))
        CFI (cfiCond586) DPL0 load(1, XDATA, add(CFA_XSP16, literal(-2)))
        CFI (cfiCond586) DPH0 load(1, XDATA, add(CFA_XSP16, literal(-1)))
        CFI (cfiCond586) CFA_SP SP+0
        CFI (cfiCond586) CFA_XSP16 add(XSP16, 19)
        CFI Block cfiCond587 Using cfiCommon0
        CFI (cfiCond587) NoFunction
        CFI (cfiCond587) Conditional ??CrossCallReturnLabel_267
        CFI (cfiCond587) R6 load(1, XDATA, add(CFA_XSP16, literal(-10)))
        CFI (cfiCond587) VB load(1, XDATA, add(CFA_XSP16, literal(-9)))
        CFI (cfiCond587) V0 load(1, XDATA, add(CFA_XSP16, literal(-8)))
        CFI (cfiCond587) V1 load(1, XDATA, add(CFA_XSP16, literal(-7)))
        CFI (cfiCond587) R7 load(1, XDATA, add(CFA_XSP16, literal(-6)))
        CFI (cfiCond587) ?RET_LOW load(1, XDATA, add(CFA_XSP16, literal(-5)))
        CFI (cfiCond587) ?RET_HIGH load(1, XDATA, add(CFA_XSP16, literal(-4)))
        CFI (cfiCond587) ?BRET_EXT load(1, XDATA, add(CFA_XSP16, literal(-3)))
        CFI (cfiCond587) DPL0 load(1, XDATA, add(CFA_XSP16, literal(-2)))
        CFI (cfiCond587) DPH0 load(1, XDATA, add(CFA_XSP16, literal(-1)))
        CFI (cfiCond587) CFA_SP SP+0
        CFI (cfiCond587) CFA_XSP16 add(XSP16, 11)
        CFI Block cfiCond588 Using cfiCommon0
        CFI (cfiCond588) NoFunction
        CFI (cfiCond588) Conditional ??CrossCallReturnLabel_268
        CFI (cfiCond588) R6 load(1, XDATA, add(CFA_XSP16, literal(-10)))
        CFI (cfiCond588) VB load(1, XDATA, add(CFA_XSP16, literal(-9)))
        CFI (cfiCond588) V0 load(1, XDATA, add(CFA_XSP16, literal(-8)))
        CFI (cfiCond588) V1 load(1, XDATA, add(CFA_XSP16, literal(-7)))
        CFI (cfiCond588) R7 load(1, XDATA, add(CFA_XSP16, literal(-6)))
        CFI (cfiCond588) ?RET_LOW load(1, XDATA, add(CFA_XSP16, literal(-5)))
        CFI (cfiCond588) ?RET_HIGH load(1, XDATA, add(CFA_XSP16, literal(-4)))
        CFI (cfiCond588) ?BRET_EXT load(1, XDATA, add(CFA_XSP16, literal(-3)))
        CFI (cfiCond588) DPL0 load(1, XDATA, add(CFA_XSP16, literal(-2)))
        CFI (cfiCond588) DPH0 load(1, XDATA, add(CFA_XSP16, literal(-1)))
        CFI (cfiCond588) CFA_SP SP+0
        CFI (cfiCond588) CFA_XSP16 add(XSP16, 11)
        CFI Block cfiCond589 Using cfiCommon0
        CFI (cfiCond589) NoFunction
        CFI (cfiCond589) Conditional ??CrossCallReturnLabel_269
        CFI (cfiCond589) R6 load(1, XDATA, add(CFA_XSP16, literal(-24)))
        CFI (cfiCond589) VB load(1, XDATA, add(CFA_XSP16, literal(-23)))
        CFI (cfiCond589) V0 load(1, XDATA, add(CFA_XSP16, literal(-22)))
        CFI (cfiCond589) V1 load(1, XDATA, add(CFA_XSP16, literal(-21)))
        CFI (cfiCond589) V2 load(1, XDATA, add(CFA_XSP16, literal(-20)))
        CFI (cfiCond589) V3 load(1, XDATA, add(CFA_XSP16, literal(-19)))
        CFI (cfiCond589) V4 load(1, XDATA, add(CFA_XSP16, literal(-18)))
        CFI (cfiCond589) V5 load(1, XDATA, add(CFA_XSP16, literal(-17)))
        CFI (cfiCond589) V6 load(1, XDATA, add(CFA_XSP16, literal(-16)))
        CFI (cfiCond589) V7 load(1, XDATA, add(CFA_XSP16, literal(-15)))
        CFI (cfiCond589) V8 load(1, XDATA, add(CFA_XSP16, literal(-14)))
        CFI (cfiCond589) V9 load(1, XDATA, add(CFA_XSP16, literal(-13)))
        CFI (cfiCond589) V10 load(1, XDATA, add(CFA_XSP16, literal(-12)))
        CFI (cfiCond589) V11 load(1, XDATA, add(CFA_XSP16, literal(-11)))
        CFI (cfiCond589) V12 load(1, XDATA, add(CFA_XSP16, literal(-10)))
        CFI (cfiCond589) V13 load(1, XDATA, add(CFA_XSP16, literal(-9)))
        CFI (cfiCond589) V14 load(1, XDATA, add(CFA_XSP16, literal(-8)))
        CFI (cfiCond589) V15 load(1, XDATA, add(CFA_XSP16, literal(-7)))
        CFI (cfiCond589) R7 load(1, XDATA, add(CFA_XSP16, literal(-6)))
        CFI (cfiCond589) ?RET_LOW load(1, XDATA, add(CFA_XSP16, literal(-5)))
        CFI (cfiCond589) ?RET_HIGH load(1, XDATA, add(CFA_XSP16, literal(-4)))
        CFI (cfiCond589) ?BRET_EXT load(1, XDATA, add(CFA_XSP16, literal(-3)))
        CFI (cfiCond589) DPL0 load(1, XDATA, add(CFA_XSP16, literal(-2)))
        CFI (cfiCond589) DPH0 load(1, XDATA, add(CFA_XSP16, literal(-1)))
        CFI (cfiCond589) CFA_SP SP+0
        CFI (cfiCond589) CFA_XSP16 add(XSP16, 24)
        CFI Block cfiCond590 Using cfiCommon0
        CFI (cfiCond590) NoFunction
        CFI (cfiCond590) Conditional ??CrossCallReturnLabel_270
        CFI (cfiCond590) R6 load(1, XDATA, add(CFA_XSP16, literal(-10)))
        CFI (cfiCond590) VB load(1, XDATA, add(CFA_XSP16, literal(-9)))
        CFI (cfiCond590) V0 load(1, XDATA, add(CFA_XSP16, literal(-8)))
        CFI (cfiCond590) V1 load(1, XDATA, add(CFA_XSP16, literal(-7)))
        CFI (cfiCond590) R7 load(1, XDATA, add(CFA_XSP16, literal(-6)))
        CFI (cfiCond590) ?RET_LOW load(1, XDATA, add(CFA_XSP16, literal(-5)))
        CFI (cfiCond590) ?RET_HIGH load(1, XDATA, add(CFA_XSP16, literal(-4)))
        CFI (cfiCond590) ?BRET_EXT load(1, XDATA, add(CFA_XSP16, literal(-3)))
        CFI (cfiCond590) DPL0 load(1, XDATA, add(CFA_XSP16, literal(-2)))
        CFI (cfiCond590) DPH0 load(1, XDATA, add(CFA_XSP16, literal(-1)))
        CFI (cfiCond590) CFA_SP SP+0
        CFI (cfiCond590) CFA_XSP16 add(XSP16, 31)
        CFI Block cfiCond591 Using cfiCommon0
        CFI (cfiCond591) NoFunction
        CFI (cfiCond591) Conditional ??CrossCallReturnLabel_271
        CFI (cfiCond591) R6 load(1, XDATA, add(CFA_XSP16, literal(-10)))
        CFI (cfiCond591) VB load(1, XDATA, add(CFA_XSP16, literal(-9)))
        CFI (cfiCond591) V0 load(1, XDATA, add(CFA_XSP16, literal(-8)))
        CFI (cfiCond591) V1 load(1, XDATA, add(CFA_XSP16, literal(-7)))
        CFI (cfiCond591) R7 load(1, XDATA, add(CFA_XSP16, literal(-6)))
        CFI (cfiCond591) ?RET_LOW load(1, XDATA, add(CFA_XSP16, literal(-5)))
        CFI (cfiCond591) ?RET_HIGH load(1, XDATA, add(CFA_XSP16, literal(-4)))
        CFI (cfiCond591) ?BRET_EXT load(1, XDATA, add(CFA_XSP16, literal(-3)))
        CFI (cfiCond591) DPL0 load(1, XDATA, add(CFA_XSP16, literal(-2)))
        CFI (cfiCond591) DPH0 load(1, XDATA, add(CFA_XSP16, literal(-1)))
        CFI (cfiCond591) CFA_SP SP+0
        CFI (cfiCond591) CFA_XSP16 add(XSP16, 31)
        CFI Block cfiCond592 Using cfiCommon0
        CFI (cfiCond592) NoFunction
        CFI (cfiCond592) Conditional ??CrossCallReturnLabel_272
        CFI (cfiCond592) R6 load(1, XDATA, add(CFA_XSP16, literal(-10)))
        CFI (cfiCond592) VB load(1, XDATA, add(CFA_XSP16, literal(-9)))
        CFI (cfiCond592) V0 load(1, XDATA, add(CFA_XSP16, literal(-8)))
        CFI (cfiCond592) V1 load(1, XDATA, add(CFA_XSP16, literal(-7)))
        CFI (cfiCond592) R7 load(1, XDATA, add(CFA_XSP16, literal(-6)))
        CFI (cfiCond592) ?RET_LOW load(1, XDATA, add(CFA_XSP16, literal(-5)))
        CFI (cfiCond592) ?RET_HIGH load(1, XDATA, add(CFA_XSP16, literal(-4)))
        CFI (cfiCond592) ?BRET_EXT load(1, XDATA, add(CFA_XSP16, literal(-3)))
        CFI (cfiCond592) DPL0 load(1, XDATA, add(CFA_XSP16, literal(-2)))
        CFI (cfiCond592) DPH0 load(1, XDATA, add(CFA_XSP16, literal(-1)))
        CFI (cfiCond592) CFA_SP SP+0
        CFI (cfiCond592) CFA_XSP16 add(XSP16, 31)
        CFI Block cfiCond593 Using cfiCommon0
        CFI (cfiCond593) NoFunction
        CFI (cfiCond593) Conditional ??CrossCallReturnLabel_273
        CFI (cfiCond593) R6 load(1, XDATA, add(CFA_XSP16, literal(-14)))
        CFI (cfiCond593) VB load(1, XDATA, add(CFA_XSP16, literal(-13)))
        CFI (cfiCond593) V0 load(1, XDATA, add(CFA_XSP16, literal(-12)))
        CFI (cfiCond593) V1 load(1, XDATA, add(CFA_XSP16, literal(-11)))
        CFI (cfiCond593) V2 load(1, XDATA, add(CFA_XSP16, literal(-10)))
        CFI (cfiCond593) V3 load(1, XDATA, add(CFA_XSP16, literal(-9)))
        CFI (cfiCond593) V4 load(1, XDATA, add(CFA_XSP16, literal(-8)))
        CFI (cfiCond593) V5 load(1, XDATA, add(CFA_XSP16, literal(-7)))
        CFI (cfiCond593) R7 load(1, XDATA, add(CFA_XSP16, literal(-6)))
        CFI (cfiCond593) ?RET_LOW load(1, XDATA, add(CFA_XSP16, literal(-5)))
        CFI (cfiCond593) ?RET_HIGH load(1, XDATA, add(CFA_XSP16, literal(-4)))
        CFI (cfiCond593) ?BRET_EXT load(1, XDATA, add(CFA_XSP16, literal(-3)))
        CFI (cfiCond593) DPL0 load(1, XDATA, add(CFA_XSP16, literal(-2)))
        CFI (cfiCond593) DPH0 load(1, XDATA, add(CFA_XSP16, literal(-1)))
        CFI (cfiCond593) CFA_SP SP+0
        CFI (cfiCond593) CFA_XSP16 add(XSP16, 14)
        CFI Block cfiCond594 Using cfiCommon0
        CFI (cfiCond594) NoFunction
        CFI (cfiCond594) Conditional ??CrossCallReturnLabel_274
        CFI (cfiCond594) R6 load(1, XDATA, add(CFA_XSP16, literal(-10)))
        CFI (cfiCond594) VB load(1, XDATA, add(CFA_XSP16, literal(-9)))
        CFI (cfiCond594) V0 load(1, XDATA, add(CFA_XSP16, literal(-8)))
        CFI (cfiCond594) V1 load(1, XDATA, add(CFA_XSP16, literal(-7)))
        CFI (cfiCond594) R7 load(1, XDATA, add(CFA_XSP16, literal(-6)))
        CFI (cfiCond594) ?RET_LOW load(1, XDATA, add(CFA_XSP16, literal(-5)))
        CFI (cfiCond594) ?RET_HIGH load(1, XDATA, add(CFA_XSP16, literal(-4)))
        CFI (cfiCond594) ?BRET_EXT load(1, XDATA, add(CFA_XSP16, literal(-3)))
        CFI (cfiCond594) DPL0 load(1, XDATA, add(CFA_XSP16, literal(-2)))
        CFI (cfiCond594) DPH0 load(1, XDATA, add(CFA_XSP16, literal(-1)))
        CFI (cfiCond594) CFA_SP SP+0
        CFI (cfiCond594) CFA_XSP16 add(XSP16, 19)
        CFI Block cfiCond595 Using cfiCommon0
        CFI (cfiCond595) NoFunction
        CFI (cfiCond595) Conditional ??CrossCallReturnLabel_275
        CFI (cfiCond595) R6 load(1, XDATA, add(CFA_XSP16, literal(-10)))
        CFI (cfiCond595) VB load(1, XDATA, add(CFA_XSP16, literal(-9)))
        CFI (cfiCond595) V0 load(1, XDATA, add(CFA_XSP16, literal(-8)))
        CFI (cfiCond595) V1 load(1, XDATA, add(CFA_XSP16, literal(-7)))
        CFI (cfiCond595) R7 load(1, XDATA, add(CFA_XSP16, literal(-6)))
        CFI (cfiCond595) ?RET_LOW load(1, XDATA, add(CFA_XSP16, literal(-5)))
        CFI (cfiCond595) ?RET_HIGH load(1, XDATA, add(CFA_XSP16, literal(-4)))
        CFI (cfiCond595) ?BRET_EXT load(1, XDATA, add(CFA_XSP16, literal(-3)))
        CFI (cfiCond595) DPL0 load(1, XDATA, add(CFA_XSP16, literal(-2)))
        CFI (cfiCond595) DPH0 load(1, XDATA, add(CFA_XSP16, literal(-1)))
        CFI (cfiCond595) CFA_SP SP+0
        CFI (cfiCond595) CFA_XSP16 add(XSP16, 10)
        CFI Block cfiCond596 Using cfiCommon0
        CFI (cfiCond596) NoFunction
        CFI (cfiCond596) Conditional ??CrossCallReturnLabel_262
        CFI (cfiCond596) R6 load(1, XDATA, add(CFA_XSP16, literal(-10)))
        CFI (cfiCond596) VB load(1, XDATA, add(CFA_XSP16, literal(-9)))
        CFI (cfiCond596) V0 load(1, XDATA, add(CFA_XSP16, literal(-8)))
        CFI (cfiCond596) V1 load(1, XDATA, add(CFA_XSP16, literal(-7)))
        CFI (cfiCond596) R7 load(1, XDATA, add(CFA_XSP16, literal(-6)))
        CFI (cfiCond596) ?RET_LOW load(1, XDATA, add(CFA_XSP16, literal(-5)))
        CFI (cfiCond596) ?RET_HIGH load(1, XDATA, add(CFA_XSP16, literal(-4)))
        CFI (cfiCond596) ?BRET_EXT load(1, XDATA, add(CFA_XSP16, literal(-3)))
        CFI (cfiCond596) DPL0 load(1, XDATA, add(CFA_XSP16, literal(-2)))
        CFI (cfiCond596) DPH0 load(1, XDATA, add(CFA_XSP16, literal(-1)))
        CFI (cfiCond596) CFA_SP SP+0
        CFI (cfiCond596) CFA_XSP16 add(XSP16, 19)
        CFI Block cfiCond597 Using cfiCommon0
        CFI (cfiCond597) NoFunction
        CFI (cfiCond597) Conditional ??CrossCallReturnLabel_263
        CFI (cfiCond597) R6 load(1, XDATA, add(CFA_XSP16, literal(-18)))
        CFI (cfiCond597) VB load(1, XDATA, add(CFA_XSP16, literal(-17)))
        CFI (cfiCond597) V0 load(1, XDATA, add(CFA_XSP16, literal(-16)))
        CFI (cfiCond597) V1 load(1, XDATA, add(CFA_XSP16, literal(-15)))
        CFI (cfiCond597) V2 load(1, XDATA, add(CFA_XSP16, literal(-14)))
        CFI (cfiCond597) V3 load(1, XDATA, add(CFA_XSP16, literal(-13)))
        CFI (cfiCond597) V4 load(1, XDATA, add(CFA_XSP16, literal(-12)))
        CFI (cfiCond597) V5 load(1, XDATA, add(CFA_XSP16, literal(-11)))
        CFI (cfiCond597) V6 load(1, XDATA, add(CFA_XSP16, literal(-10)))
        CFI (cfiCond597) V7 load(1, XDATA, add(CFA_XSP16, literal(-9)))
        CFI (cfiCond597) V8 load(1, XDATA, add(CFA_XSP16, literal(-8)))
        CFI (cfiCond597) V9 load(1, XDATA, add(CFA_XSP16, literal(-7)))
        CFI (cfiCond597) R7 load(1, XDATA, add(CFA_XSP16, literal(-6)))
        CFI (cfiCond597) ?RET_LOW load(1, XDATA, add(CFA_XSP16, literal(-5)))
        CFI (cfiCond597) ?RET_HIGH load(1, XDATA, add(CFA_XSP16, literal(-4)))
        CFI (cfiCond597) ?BRET_EXT load(1, XDATA, add(CFA_XSP16, literal(-3)))
        CFI (cfiCond597) DPL0 load(1, XDATA, add(CFA_XSP16, literal(-2)))
        CFI (cfiCond597) DPH0 load(1, XDATA, add(CFA_XSP16, literal(-1)))
        CFI (cfiCond597) CFA_SP SP+0
        CFI (cfiCond597) CFA_XSP16 add(XSP16, 18)
        CFI Block cfiPicker598 Using cfiCommon1
        CFI (cfiPicker598) NoFunction
        CFI (cfiPicker598) Picker
        MOVX    A,@DPTR
        MOV     R0,A
        INC     DPTR
        MOVX    A,@DPTR
        MOV     R1,A
        RET
        CFI EndBlock cfiCond584
        CFI EndBlock cfiCond585
        CFI EndBlock cfiCond586
        CFI EndBlock cfiCond587
        CFI EndBlock cfiCond588
        CFI EndBlock cfiCond589
        CFI EndBlock cfiCond590
        CFI EndBlock cfiCond591
        CFI EndBlock cfiCond592
        CFI EndBlock cfiCond593
        CFI EndBlock cfiCond594
        CFI EndBlock cfiCond595
        CFI EndBlock cfiCond596
        CFI EndBlock cfiCond597
        CFI EndBlock cfiPicker598

        RSEG XDATA_ID:CODE:NOROOT(0)
`?<Initializer for ZDP_TmpBuf>`:
        DATA16
        DW ZDP_Buf + 1H

        RSEG BANK_RELAYS:CODE:REORDER:NOROOT(0)
??fillAndSend?relay:
        LCALL   ?BDISPATCH
        DATA
        DC24    fillAndSend

        RSEG BANK_RELAYS:CODE:REORDER:NOROOT(0)
??ZDP_SendData?relay:
        LCALL   ?BDISPATCH
        DATA
        DC24    ZDP_SendData

        RSEG BANK_RELAYS:CODE:REORDER:NOROOT(0)
??ZDP_NWKAddrOfInterestReq?relay:
        LCALL   ?BDISPATCH
        DATA
        DC24    ZDP_NWKAddrOfInterestReq

        RSEG BANK_RELAYS:CODE:REORDER:NOROOT(0)
??ZDP_NwkAddrReq?relay:
        LCALL   ?BDISPATCH
        DATA
        DC24    ZDP_NwkAddrReq

        RSEG BANK_RELAYS:CODE:REORDER:NOROOT(0)
??ZDP_IEEEAddrReq?relay:
        LCALL   ?BDISPATCH
        DATA
        DC24    ZDP_IEEEAddrReq

        RSEG BANK_RELAYS:CODE:REORDER:NOROOT(0)
??ZDP_MatchDescReq?relay:
        LCALL   ?BDISPATCH
        DATA
        DC24    ZDP_MatchDescReq

        RSEG BANK_RELAYS:CODE:REORDER:NOROOT(0)
??ZDP_SimpleDescReq?relay:
        LCALL   ?BDISPATCH
        DATA
        DC24    ZDP_SimpleDescReq

        RSEG BANK_RELAYS:CODE:REORDER:NOROOT(0)
??ZDP_UserDescSet?relay:
        LCALL   ?BDISPATCH
        DATA
        DC24    ZDP_UserDescSet

        RSEG BANK_RELAYS:CODE:REORDER:NOROOT(0)
??ZDP_ServerDiscReq?relay:
        LCALL   ?BDISPATCH
        DATA
        DC24    ZDP_ServerDiscReq

        RSEG BANK_RELAYS:CODE:REORDER:NOROOT(0)
??ZDP_DeviceAnnce?relay:
        LCALL   ?BDISPATCH
        DATA
        DC24    ZDP_DeviceAnnce

        RSEG BANK_RELAYS:CODE:REORDER:NOROOT(0)
??zdpProcessAddrReq?relay:
        LCALL   ?BDISPATCH
        DATA
        DC24    zdpProcessAddrReq

        RSEG BANK_RELAYS:CODE:REORDER:NOROOT(0)
??ZDP_NodeDescMsg?relay:
        LCALL   ?BDISPATCH
        DATA
        DC24    ZDP_NodeDescMsg

        RSEG BANK_RELAYS:CODE:REORDER:NOROOT(0)
??ZDP_PowerDescMsg?relay:
        LCALL   ?BDISPATCH
        DATA
        DC24    ZDP_PowerDescMsg

        RSEG BANK_RELAYS:CODE:REORDER:NOROOT(0)
??ZDP_SimpleDescMsg?relay:
        LCALL   ?BDISPATCH
        DATA
        DC24    ZDP_SimpleDescMsg

        RSEG BANK_RELAYS:CODE:REORDER:NOROOT(0)
??ZDP_EPRsp?relay:
        LCALL   ?BDISPATCH
        DATA
        DC24    ZDP_EPRsp

        RSEG BANK_RELAYS:CODE:REORDER:NOROOT(0)
??ZDP_UserDescRsp?relay:
        LCALL   ?BDISPATCH
        DATA
        DC24    ZDP_UserDescRsp

        RSEG BANK_RELAYS:CODE:REORDER:NOROOT(0)
??ZDP_ServerDiscRsp?relay:
        LCALL   ?BDISPATCH
        DATA
        DC24    ZDP_ServerDiscRsp

        RSEG BANK_RELAYS:CODE:REORDER:NOROOT(0)
??ZDP_GenericRsp?relay:
        LCALL   ?BDISPATCH
        DATA
        DC24    ZDP_GenericRsp

        RSEG BANK_RELAYS:CODE:REORDER:NOROOT(0)
??ZDP_EndDeviceBindReq?relay:
        LCALL   ?BDISPATCH
        DATA
        DC24    ZDP_EndDeviceBindReq

        RSEG BANK_RELAYS:CODE:REORDER:NOROOT(0)
??ZDP_BindUnbindReq?relay:
        LCALL   ?BDISPATCH
        DATA
        DC24    ZDP_BindUnbindReq

        RSEG BANK_RELAYS:CODE:REORDER:NOROOT(0)
??ZDP_MgmtNwkDiscReq?relay:
        LCALL   ?BDISPATCH
        DATA
        DC24    ZDP_MgmtNwkDiscReq

        RSEG BANK_RELAYS:CODE:REORDER:NOROOT(0)
??ZDP_MgmtDirectJoinReq?relay:
        LCALL   ?BDISPATCH
        DATA
        DC24    ZDP_MgmtDirectJoinReq

        RSEG BANK_RELAYS:CODE:REORDER:NOROOT(0)
??ZDP_MgmtPermitJoinReq?relay:
        LCALL   ?BDISPATCH
        DATA
        DC24    ZDP_MgmtPermitJoinReq

        RSEG BANK_RELAYS:CODE:REORDER:NOROOT(0)
??ZDP_MgmtLeaveReq?relay:
        LCALL   ?BDISPATCH
        DATA
        DC24    ZDP_MgmtLeaveReq

        RSEG BANK_RELAYS:CODE:REORDER:NOROOT(0)
??ZDP_MgmtNwkUpdateReq?relay:
        LCALL   ?BDISPATCH
        DATA
        DC24    ZDP_MgmtNwkUpdateReq

        RSEG BANK_RELAYS:CODE:REORDER:NOROOT(0)
??ZDP_MgmtNwkDiscRsp?relay:
        LCALL   ?BDISPATCH
        DATA
        DC24    ZDP_MgmtNwkDiscRsp

        RSEG BANK_RELAYS:CODE:REORDER:NOROOT(0)
??ZDP_MgmtLqiRsp?relay:
        LCALL   ?BDISPATCH
        DATA
        DC24    ZDP_MgmtLqiRsp

        RSEG BANK_RELAYS:CODE:REORDER:NOROOT(0)
??ZDP_MgmtRtgRsp?relay:
        LCALL   ?BDISPATCH
        DATA
        DC24    ZDP_MgmtRtgRsp

        RSEG BANK_RELAYS:CODE:REORDER:NOROOT(0)
??ZDP_MgmtBindRsp?relay:
        LCALL   ?BDISPATCH
        DATA
        DC24    ZDP_MgmtBindRsp

        RSEG BANK_RELAYS:CODE:REORDER:NOROOT(0)
??ZDP_MgmtNwkUpdateNotify?relay:
        LCALL   ?BDISPATCH
        DATA
        DC24    ZDP_MgmtNwkUpdateNotify

        RSEG BANK_RELAYS:CODE:REORDER:NOROOT(0)
??ZDO_RegisterForZDOMsg?relay:
        LCALL   ?BDISPATCH
        DATA
        DC24    ZDO_RegisterForZDOMsg

        RSEG BANK_RELAYS:CODE:REORDER:NOROOT(0)
??ZDO_RemoveRegisteredCB?relay:
        LCALL   ?BDISPATCH
        DATA
        DC24    ZDO_RemoveRegisteredCB

        RSEG BANK_RELAYS:CODE:REORDER:NOROOT(0)
??ZDO_SendMsgCBs?relay:
        LCALL   ?BDISPATCH
        DATA
        DC24    ZDO_SendMsgCBs

        RSEG BANK_RELAYS:CODE:REORDER:NOROOT(0)
??ZDP_IncomingData?relay:
        LCALL   ?BDISPATCH
        DATA
        DC24    ZDP_IncomingData

        END
// 1938 
// 1939 /*********************************************************************
// 1940 *********************************************************************/
// 1941 
// 
// 6 112 bytes in segment BANKED_CODE
//   204 bytes in segment BANK_RELAYS
//    29 bytes in segment CODE_C
//     2 bytes in segment XDATA_I
//     2 bytes in segment XDATA_ID
//    84 bytes in segment XDATA_Z
// 
// 6 347 bytes of CODE  memory
//    86 bytes of XDATA memory
//
//Errors: none
//Warnings: none
