###############################################################################
#                                                                             #
# IAR C/C++ Compiler V8.10.1.10194/W32 for 8051         08/Aug/2017  09:24:58 #
# Copyright 2004-2011 IAR Systems AB.                                         #
#                                                                             #
#    Core               =  plain                                              #
#    Code model         =  banked                                             #
#    Data model         =  large                                              #
#    Calling convention =  xdata reentrant                                    #
#    Constant location  =  data_rom                                           #
#    Dptr setup         =  1,16                                               #
#    Source file        =  D:\work space\Smart Product\Two YHY\Door\v1.03.0   #
#                          Green\ZStack-CC2530-2.5.1a\Components\zmac\f8w\zma #
#                          c_cb.c                                             #
#    Command line       =  -f "D:\work space\Smart Product\Two                #
#                          YHY\Door\v1.03.0  Green\ZStack-CC2530-2.5.1a\Proje #
#                          cts\zstack\HomeAutomation\SmartDoor\CC2530DB\..\To #
#                          ols\CC2530DB\f8wEndev.cfg" (-DCPU32MHZ             #
#                          -DROOT=__near_func -DMAC_CFG_TX_DATA_MAX=3         #
#                          -DMAC_CFG_TX_MAX=6 -DMAC_CFG_RX_MAX=3              #
#                          -DHAL_KEY=FALSE -DHAL_LED=FALSE -DHAL_LCD=FALSE    #
#                          -DHAL_ADC=FALSE -DNV_RESTORE -DNV_INIT             #
#                          -DPOWER_SAVING -DTC_LINKKEY_JOIN) -f "D:\work      #
#                          space\Smart Product\Two YHY\Door\v1.03.0           #
#                          Green\ZStack-CC2530-2.5.1a\Projects\zstack\HomeAut #
#                          omation\SmartDoor\CC2530DB\..\Tools\CC2530DB\f8wCo #
#                          nfig.cfg" (-DZIGBEEPRO -DSECURE=1                  #
#                          -DZG_SECURE_DYNAMIC=0 -DREFLECTOR                  #
#                          -DDEFAULT_CHANLIST=0x06108800                      #
#                          -DZDAPP_CONFIG_PAN_ID=0xFFFF                       #
#                          -DNWK_START_DELAY=100 -DEXTENDED_JOINING_RANDOM_MA #
#                          SK=0x007F -DBEACON_REQUEST_DELAY=100               #
#                          -DBEACON_REQ_DELAY_MASK=0x00FF                     #
#                          -DLINK_STATUS_JITTER_MASK=0x007F                   #
#                          -DROUTE_EXPIRY_TIME=30 -DAPSC_ACK_WAIT_DURATION_PO #
#                          LLED=3000 -DNWK_INDIRECT_MSG_TIMEOUT=7             #
#                          -DMAX_RREQ_ENTRIES=8 -DAPSC_MAX_FRAME_RETRIES=3    #
#                          -DNWK_MAX_DATA_RETRIES=2                           #
#                          -DMAX_POLL_FAILURE_RETRIES=2 -DMAX_BCAST=9         #
#                          -DAPS_MAX_GROUPS=16 -DMAX_RTG_ENTRIES=40           #
#                          -DNWK_MAX_BINDING_ENTRIES=4                        #
#                          -DMAX_BINDING_CLUSTER_IDS=4                        #
#                          -DDEFAULT_KEY={0x58,0x69,0x6E,0x67,0x48,0x75,0x6F, #
#                          0x59,0x75,0x61,0x6E,0x53,0x6D,0x61,0x72,0x74}      #
#                          -DMAC_MAX_FRAME_SIZE=116                           #
#                          -DZDNWKMGR_MIN_TRANSMISSIONS=20 "-DCONST=const     #
#                          __code" -DGENERIC=__generic                        #
#                          -DRFD_RCVC_ALWAYS_ON=FALSE -DPOLL_RATE=0           #
#                          -DQUEUED_POLL_RATE=0 -DRESPONSE_POLL_RATE=0        #
#                          -DREJOIN_POLL_RATE=440) -f "D:\work space\Smart    #
#                          Product\Two YHY\Door\v1.03.0                       #
#                          Green\ZStack-CC2530-2.5.1a\Projects\zstack\HomeAut #
#                          omation\SmartDoor\CC2530DB\..\Tools\CC2530DB\f8wZC #
#                          L.cfg" (-DZCL_READ -DZCL_WRITE -DZCL_REPORT        #
#                          -DZCL_BASIC -DZCL_IDENTIFY -DZCL_ON_OFF            #
#                          -DZCL_KEY_ESTABLISH -DZCL_KEY_ESTABLISHMENT_KEY_GE #
#                          NERATE_TIMEOUT=4 -DZCL_KEY_ESTABLISHMENT_MAC_GENER #
#                          ATE_TIMEOUT=10 -DZCL_KEY_ESTABLISHMENT_EKEY_GENERA #
#                          TE_TIMEOUT=10 -DZCL_LOAD_CONTROL                   #
#                          -DZCL_SIMPLE_METERING -DZCL_PRICING -DZCL_MESSAGE  #
#                          -DZCL_TUNNELING -DZCL_TOU) -DZCL_DEVICE_MGMT       #
#                          "D:\work space\Smart Product\Two YHY\Door\v1.03.0  #
#                           Green\ZStack-CC2530-2.5.1a\Components\zmac\f8w\zm #
#                          ac_cb.c" -lC "D:\work space\Smart Product\Two      #
#                          YHY\Door\v1.03.0  Green\ZStack-CC2530-2.5.1a\Proje #
#                          cts\zstack\HomeAutomation\SmartDoor\CC2530DB\EndDe #
#                          viceEB\List\" -lA "D:\work space\Smart             #
#                          Product\Two YHY\Door\v1.03.0                       #
#                          Green\ZStack-CC2530-2.5.1a\Projects\zstack\HomeAut #
#                          omation\SmartDoor\CC2530DB\EndDeviceEB\List\"      #
#                          --diag_suppress Pe001,Pa010 -o "D:\work            #
#                          space\Smart Product\Two YHY\Door\v1.03.0           #
#                          Green\ZStack-CC2530-2.5.1a\Projects\zstack\HomeAut #
#                          omation\SmartDoor\CC2530DB\EndDeviceEB\Obj\" -e    #
#                          --debug --core=plain --dptr=16,1                   #
#                          --data_model=large --code_model=banked             #
#                          --calling_convention=xdata_reentrant               #
#                          --place_constants=data_rom --nr_virtual_regs 16    #
#                          -I "D:\work space\Smart Product\Two                #
#                          YHY\Door\v1.03.0  Green\ZStack-CC2530-2.5.1a\Proje #
#                          cts\zstack\HomeAutomation\SmartDoor\CC2530DB\" -I  #
#                          "D:\work space\Smart Product\Two YHY\Door\v1.03.0  #
#                           Green\ZStack-CC2530-2.5.1a\Projects\zstack\HomeAu #
#                          tomation\SmartDoor\CC2530DB\..\Source\" -I         #
#                          "D:\work space\Smart Product\Two YHY\Door\v1.03.0  #
#                           Green\ZStack-CC2530-2.5.1a\Projects\zstack\HomeAu #
#                          tomation\SmartDoor\CC2530DB\..\..\Source\" -I      #
#                          "D:\work space\Smart Product\Two YHY\Door\v1.03.0  #
#                           Green\ZStack-CC2530-2.5.1a\Projects\zstack\HomeAu #
#                          tomation\SmartDoor\CC2530DB\..\..\..\ZMain\TI2530D #
#                          B\" -I "D:\work space\Smart Product\Two            #
#                          YHY\Door\v1.03.0  Green\ZStack-CC2530-2.5.1a\Proje #
#                          cts\zstack\HomeAutomation\SmartDoor\CC2530DB\..\.. #
#                          \..\..\..\Components\hal\include\" -I "D:\work     #
#                          space\Smart Product\Two YHY\Door\v1.03.0           #
#                          Green\ZStack-CC2530-2.5.1a\Projects\zstack\HomeAut #
#                          omation\SmartDoor\CC2530DB\..\..\..\..\..\Componen #
#                          ts\hal\target\CC2530EB\" -I "D:\work space\Smart   #
#                          Product\Two YHY\Door\v1.03.0                       #
#                          Green\ZStack-CC2530-2.5.1a\Projects\zstack\HomeAut #
#                          omation\SmartDoor\CC2530DB\..\..\..\..\..\Componen #
#                          ts\mac\include\" -I "D:\work space\Smart           #
#                          Product\Two YHY\Door\v1.03.0                       #
#                          Green\ZStack-CC2530-2.5.1a\Projects\zstack\HomeAut #
#                          omation\SmartDoor\CC2530DB\..\..\..\..\..\Componen #
#                          ts\mac\high_level\" -I "D:\work space\Smart        #
#                          Product\Two YHY\Door\v1.03.0                       #
#                          Green\ZStack-CC2530-2.5.1a\Projects\zstack\HomeAut #
#                          omation\SmartDoor\CC2530DB\..\..\..\..\..\Componen #
#                          ts\mac\low_level\srf04\" -I "D:\work space\Smart   #
#                          Product\Two YHY\Door\v1.03.0                       #
#                          Green\ZStack-CC2530-2.5.1a\Projects\zstack\HomeAut #
#                          omation\SmartDoor\CC2530DB\..\..\..\..\..\Componen #
#                          ts\mac\low_level\srf04\single_chip\" -I "D:\work   #
#                          space\Smart Product\Two YHY\Door\v1.03.0           #
#                          Green\ZStack-CC2530-2.5.1a\Projects\zstack\HomeAut #
#                          omation\SmartDoor\CC2530DB\..\..\..\..\..\Componen #
#                          ts\mt\" -I "D:\work space\Smart Product\Two        #
#                          YHY\Door\v1.03.0  Green\ZStack-CC2530-2.5.1a\Proje #
#                          cts\zstack\HomeAutomation\SmartDoor\CC2530DB\..\.. #
#                          \..\..\..\Components\osal\include\" -I "D:\work    #
#                          space\Smart Product\Two YHY\Door\v1.03.0           #
#                          Green\ZStack-CC2530-2.5.1a\Projects\zstack\HomeAut #
#                          omation\SmartDoor\CC2530DB\..\..\..\..\..\Componen #
#                          ts\services\saddr\" -I "D:\work space\Smart        #
#                          Product\Two YHY\Door\v1.03.0                       #
#                          Green\ZStack-CC2530-2.5.1a\Projects\zstack\HomeAut #
#                          omation\SmartDoor\CC2530DB\..\..\..\..\..\Componen #
#                          ts\services\sdata\" -I "D:\work space\Smart        #
#                          Product\Two YHY\Door\v1.03.0                       #
#                          Green\ZStack-CC2530-2.5.1a\Projects\zstack\HomeAut #
#                          omation\SmartDoor\CC2530DB\..\..\..\..\..\Componen #
#                          ts\stack\af\" -I "D:\work space\Smart Product\Two  #
#                          YHY\Door\v1.03.0  Green\ZStack-CC2530-2.5.1a\Proje #
#                          cts\zstack\HomeAutomation\SmartDoor\CC2530DB\..\.. #
#                          \..\..\..\Components\stack\nwk\" -I "D:\work       #
#                          space\Smart Product\Two YHY\Door\v1.03.0           #
#                          Green\ZStack-CC2530-2.5.1a\Projects\zstack\HomeAut #
#                          omation\SmartDoor\CC2530DB\..\..\..\..\..\Componen #
#                          ts\stack\sapi\" -I "D:\work space\Smart            #
#                          Product\Two YHY\Door\v1.03.0                       #
#                          Green\ZStack-CC2530-2.5.1a\Projects\zstack\HomeAut #
#                          omation\SmartDoor\CC2530DB\..\..\..\..\..\Componen #
#                          ts\stack\sec\" -I "D:\work space\Smart             #
#                          Product\Two YHY\Door\v1.03.0                       #
#                          Green\ZStack-CC2530-2.5.1a\Projects\zstack\HomeAut #
#                          omation\SmartDoor\CC2530DB\..\..\..\..\..\Componen #
#                          ts\stack\sys\" -I "D:\work space\Smart             #
#                          Product\Two YHY\Door\v1.03.0                       #
#                          Green\ZStack-CC2530-2.5.1a\Projects\zstack\HomeAut #
#                          omation\SmartDoor\CC2530DB\..\..\..\..\..\Componen #
#                          ts\stack\zcl\" -I "D:\work space\Smart             #
#                          Product\Two YHY\Door\v1.03.0                       #
#                          Green\ZStack-CC2530-2.5.1a\Projects\zstack\HomeAut #
#                          omation\SmartDoor\CC2530DB\..\..\..\..\..\Componen #
#                          ts\stack\zdo\" -I "D:\work space\Smart             #
#                          Product\Two YHY\Door\v1.03.0                       #
#                          Green\ZStack-CC2530-2.5.1a\Projects\zstack\HomeAut #
#                          omation\SmartDoor\CC2530DB\..\..\..\..\..\Componen #
#                          ts\zmac\" -I "D:\work space\Smart Product\Two      #
#                          YHY\Door\v1.03.0  Green\ZStack-CC2530-2.5.1a\Proje #
#                          cts\zstack\HomeAutomation\SmartDoor\CC2530DB\..\.. #
#                          \..\..\..\Components\zmac\f8w\" -Oh                #
#                          --require_prototypes                               #
#    List file          =  D:\work space\Smart Product\Two YHY\Door\v1.03.0   #
#                          Green\ZStack-CC2530-2.5.1a\Projects\zstack\HomeAut #
#                          omation\SmartDoor\CC2530DB\EndDeviceEB\List\zmac_c #
#                          b.lst                                              #
#    Object file        =  D:\work space\Smart Product\Two YHY\Door\v1.03.0   #
#                          Green\ZStack-CC2530-2.5.1a\Projects\zstack\HomeAut #
#                          omation\SmartDoor\CC2530DB\EndDeviceEB\Obj\zmac_cb #
#                          .r51                                               #
#                                                                             #
#                                                                             #
###############################################################################

D:\work space\Smart Product\Two YHY\Door\v1.03.0  Green\ZStack-CC2530-2.5.1a\Components\zmac\f8w\zmac_cb.c
      1          /**************************************************************************************************
      2            Filename:       zmac_cb.c
      3            Revised:        $Date: 2012-03-08 17:10:16 -0800 (Thu, 08 Mar 2012) $
      4            Revision:       $Revision: 29685 $
      5          
      6            Description:    This file contains the NWK functions that the ZMAC calls
      7          
      8          
      9            Copyright 2005-2012 Texas Instruments Incorporated. All rights reserved.
     10          
     11            IMPORTANT: Your use of this Software is limited to those specific rights
     12            granted under the terms of a software license agreement between the user
     13            who downloaded the software, his/her employer (which must be your employer)
     14            and Texas Instruments Incorporated (the "License").  You may not use this
     15            Software unless you agree to abide by the terms of the License. The License
     16            limits your use, and you acknowledge, that the Software may not be modified,
     17            copied or distributed unless embedded on a Texas Instruments microcontroller
     18            or used solely and exclusively in conjunction with a Texas Instruments radio
     19            frequency transceiver, which is integrated into your product.  Other than for
     20            the foregoing purpose, you may not use, reproduce, copy, prepare derivative
     21            works of, modify, distribute, perform, display or sell this Software and/or
     22            its documentation for any purpose.
     23          
     24            YOU FURTHER ACKNOWLEDGE AND AGREE THAT THE SOFTWARE AND DOCUMENTATION ARE
     25            PROVIDED “AS IS” WITHOUT WARRANTY OF ANY KIND, EITHER EXPRESS OR IMPLIED,
     26            INCLUDING WITHOUT LIMITATION, ANY WARRANTY OF MERCHANTABILITY, TITLE,
     27            NON-INFRINGEMENT AND FITNESS FOR A PARTICULAR PURPOSE. IN NO EVENT SHALL
     28            TEXAS INSTRUMENTS OR ITS LICENSORS BE LIABLE OR OBLIGATED UNDER CONTRACT,
     29            NEGLIGENCE, STRICT LIABILITY, CONTRIBUTION, BREACH OF WARRANTY, OR OTHER
     30            LEGAL EQUITABLE THEORY ANY DIRECT OR INDIRECT DAMAGES OR EXPENSES
     31            INCLUDING BUT NOT LIMITED TO ANY INCIDENTAL, SPECIAL, INDIRECT, PUNITIVE
     32            OR CONSEQUENTIAL DAMAGES, LOST PROFITS OR LOST DATA, COST OF PROCUREMENT
     33            OF SUBSTITUTE GOODS, TECHNOLOGY, SERVICES, OR ANY CLAIMS BY THIRD PARTIES
     34            (INCLUDING BUT NOT LIMITED TO ANY DEFENSE THEREOF), OR OTHER SIMILAR COSTS.
     35          
     36            Should you have any questions regarding your right to use this Software,
     37            contact Texas Instruments Incorporated at www.TI.com.
     38          **************************************************************************************************/
     39          
     40          /********************************************************************************************************
     41           *                                               INCLUDES
     42           ********************************************************************************************************/
     43          
     44          #include "ZComDef.h"
     45          #include "OSAL.h"
     46          #include "ZMAC.h"
     47          #include "MT_MAC.h"
     48          #include "hal_mcu.h"

   \                                 In  segment SFR_AN, at 0xa8
   \   union <unnamed> volatile __sfr _A_IEN0
   \                     _A_IEN0:
   \   000000                DS 1
     49          
     50          #if !defined NONWK
     51          #include "nwk.h"
     52          #include "nwk_bufs.h"
     53          #include "ZGlobals.h"
     54          #endif
     55          
     56          #if defined( MACSIM )
     57            #include "mac_sim.h"
     58          #endif
     59          
     60          #include "mac_security.h"
     61          
     62          #include "mac_main.h"
     63          extern void *ZMac_ScanBuf;
     64          
     65          /********************************************************************************************************
     66           *                                               CONSTANTS
     67           ********************************************************************************************************/
     68          
     69          #if !defined NONWK
     70          /* Lookup table for size of structures. Must match with the order of MAC callback events */

   \                                 In  segment CODE_C, align 1
     71          const uint8 CODE zmacCBSizeTable [] = {
   \                     zmacCBSizeTable:
   \   000000   00           DB 0
   \   000001   16           DB 22
   \   000002   0F           DB 15
   \   000003   00           DB 0
   \   000004   00           DB 0
   \   000005   0B           DB 11
   \   000006   15           DB 21
   \   000007   0B           DB 11
   \   000008   02           DB 2
   \   000009   00           DB 0
   \   00000A   02           DB 2
   \   00000B   22           DB 34
   \   00000C   0F           DB 15
   \   00000D   32           DB 50
   \   00000E   00           DB 0
   \   00000F   00           DB 0
   \   000010   06           DB 6
     72            0,
     73            sizeof(ZMacAssociateInd_t),       // MAC_MLME_ASSOCIATE_IND      1   Associate indication
     74            sizeof(ZMacAssociateCnf_t),       // MAC_MLME_ASSOCIATE_CNF      2   Associate confirm
     75            0,                                // MAC_MLME_DISASSOCIATE_IND   3   Disassociate indication
     76            0,                                // MAC_MLME_DISASSOCIATE_CNF   4   Disassociate confirm
     77            sizeof(macMlmeBeaconNotifyInd_t), // MAC_MLME_BEACON_NOTIFY_IND  5   con notify indication
     78            sizeof(ZMacOrphanInd_t),          // MAC_MLME_ORPHAN_IND         6   Orphan indication
     79            sizeof(ZMacScanCnf_t),            // MAC_MLME_SCAN_CNF           7   Scan confirm
     80            sizeof(ZMacStartCnf_t),           // MAC_MLME_START_CNF          8   Start confirm
     81            0,                                // MAC_MLME_SYNC_LOSS_IND      9   Sync loss indication
     82            sizeof(ZMacPollCnf_t),            // MAC_MLME_POLL_CNF           10  Poll confirm
     83            sizeof(ZMacCommStatusInd_t),      // MAC_MLME_COMM_STATUS_IND    11  Comm status indication
     84            sizeof(ZMacDataCnf_t),            // MAC_MCPS_DATA_CNF           12  Data confirm
     85            sizeof(macMcpsDataInd_t),         // MAC_MCPS_DATA_IND           13  Data indication
     86            0,                                // MAC_MCPS_PURGE_CNF          14  Purge confirm
     87            0,                                // MAC_PWR_ON_CNF              15  Power on confirm
     88            sizeof(ZMacPollInd_t)             // MAC_MLME_POLL_IND           16  Poll indication
     89          };
     90          #endif /* !defined NONWK */
     91          
     92          /********************************************************************************************************
     93           *                                               LOCALS
     94           ********************************************************************************************************/
     95          
     96          /* LQI Adjustment Mode */

   \                                 In  segment XDATA_Z, align 1, keep-with-next
     97          static ZMacLqiAdjust_t lqiAdjMode = LQI_ADJ_OFF;
   \                     lqiAdjMode:
   \   000000                DS 1
   \   000001                REQUIRE __INIT_XDATA_Z
     98          
     99          #if !defined NONWK
    100          /* LQI Adjustment Function */
    101          static void ZMacLqiAdjust( uint8 corr, uint8* lqi );
    102          #endif
    103          
    104          /*********************************************************************
    105           * ZMAC Function Pointers
    106           */
    107          
    108          /*
    109           * ZMac Application callback function. This function will be called
    110           * for every MAC message that is received over-the-air or generated
    111           * locally by MAC for the application.
    112           *
    113           * The callback function should return TRUE if it has handled the
    114           * MAC message and no further action should be taken with it. It
    115           * should return FALSE if it has not handled the MAC message and
    116           * normal processing should take place.
    117           *
    118           * NOTE: The processing in this function should be kept to the
    119           *       minimum.
    120           */

   \                                 In  segment XDATA_Z, align 1, keep-with-next
    121          uint8 (*pZMac_AppCallback)( uint8 *msgPtr ) = (void*)NULL;
   \                     pZMac_AppCallback:
   \   000000                DS 2
   \   000002                REQUIRE __INIT_XDATA_Z
    122          
    123          
    124          /*********************************************************************
    125           * ZMAC Functions
    126           */
    127          
    128          /**************************************************************************************************
    129           * @fn       MAC_CbackEvent()
    130           *
    131           * @brief    convert MAC data confirm and indication to ZMac and send to NWK
    132           *
    133           * @param    pData - pointer to macCbackEvent_t
    134           *
    135           * @return   none
    136           *************************************************************************************************/

   \                                 In  segment BANKED_CODE, align 1, keep-with-next
    137          void MAC_CbackEvent(macCbackEvent_t *pData)
   \                     MAC_CbackEvent:
    138          #ifndef MT_MAC_CB_FUNC
    139          {
   \   000000   74ED         MOV     A,#-0x13
   \   000002   12....       LCALL   ?BANKED_ENTER_XDATA
   \   000005                ; Saved register size: 19
   \   000005                ; Auto size: 4
   \   000005   74FC         MOV     A,#-0x4
   \   000007   12....       LCALL   ?ALLOC_XSTACK8
   \   00000A   85..82       MOV     DPL,?XSP + 0
   \   00000D   85..83       MOV     DPH,?XSP + 1
   \   000010   EA           MOV     A,R2
   \   000011   F0           MOVX    @DPTR,A
   \   000012   A3           INC     DPTR
   \   000013   EB           MOV     A,R3
   \   000014   F0           MOVX    @DPTR,A
    140          #if !defined NONWK
    141            uint8 event = pData->hdr.event;
   \   000015   12....       LCALL   ?Subroutine6 & 0xFFFF
   \                     ??CrossCallReturnLabel_34:
   \   000018   E0           MOVX    A,@DPTR
   \   000019   F5..         MOV     ?V0 + 4,A
    142            uint16 tmp = zmacCBSizeTable[event];
   \   00001B   F5..         MOV     ?V0 + 0,A
   \   00001D   74..         MOV     A,#zmacCBSizeTable & 0xff
   \   00001F   25..         ADD     A,?V0 + 0
   \   000021   F582         MOV     DPL,A
   \   000023   74..         MOV     A,#(zmacCBSizeTable >> 8) & 0xff
   \   000025   3400         ADDC    A,#0x0
   \   000027   F583         MOV     DPH,A
   \   000029   E4           CLR     A
   \   00002A   93           MOVC    A,@A+DPTR
   \   00002B   F5..         MOV     ?V0 + 0,A
   \   00002D   7402         MOV     A,#0x2
   \   00002F   12....       LCALL   ?XSTACK_DISP0_8
   \   000032   E5..         MOV     A,?V0 + 0
   \   000034   F0           MOVX    @DPTR,A
   \   000035   A3           INC     DPTR
   \   000036   E4           CLR     A
   \   000037   F0           MOVX    @DPTR,A
    143            macCbackEvent_t *msgPtr;
    144          
    145            /* If the Network layer will handle a new MAC callback, a non-zero value must be entered in the
    146             * corresponding location in the zmacCBSizeTable[] - thus the table acts as "should handle"?
    147             */
    148            if (tmp == 0)
   \   000038   7402         MOV     A,#0x2
   \   00003A   12....       LCALL   ?XSTACK_DISP0_8
   \   00003D   E0           MOVX    A,@DPTR
   \   00003E   7003         JNZ     $+5
   \   000040   02....       LJMP    ??MAC_CbackEvent_0 & 0xFFFF
    149            {
    150              return;
    151            }
    152          
    153            // MAC_MCPS_DATA_IND is very special - it is the only event where the MAC does not free *pData.
    154            if ( event == MAC_MCPS_DATA_IND )
   \   000043   740D         MOV     A,#0xd
   \   000045   65..         XRL     A,?V0 + 4
   \   000047   7049         JNZ     ??MAC_CbackEvent_1
    155            {
    156              MAC_MlmeGetReq( MAC_SHORT_ADDRESS, &tmp );
   \   000049                ; Setup parameters for call to function MAC_MlmeGetReq
   \   000049   AA82         MOV     R2,DPL
   \   00004B   AB83         MOV     R3,DPH
   \   00004D   7953         MOV     R1,#0x53
   \   00004F   12....       LCALL   ??MAC_MlmeGetReq?relay
    157              if ((tmp == INVALID_NODE_ADDR) || (tmp == NWK_BROADCAST_SHORTADDR_DEVALL) ||
    158                  (pData->dataInd.msdu.len == 0))
   \   000052   7402         MOV     A,#0x2
   \   000054   12....       LCALL   ?XSTACK_DISP0_8
   \   000057   E0           MOVX    A,@DPTR
   \   000058   64FE         XRL     A,#0xfe
   \   00005A   7003         JNZ     ??MAC_CbackEvent_2
   \   00005C   A3           INC     DPTR
   \   00005D   E0           MOVX    A,@DPTR
   \   00005E   F4           CPL     A
   \                     ??MAC_CbackEvent_2:
   \   00005F   6016         JZ      ??MAC_CbackEvent_3
   \   000061   7402         MOV     A,#0x2
   \   000063   12....       LCALL   ?XSTACK_DISP0_8
   \   000066   E0           MOVX    A,@DPTR
   \   000067   F4           CPL     A
   \   000068   7003         JNZ     ??MAC_CbackEvent_4
   \   00006A   A3           INC     DPTR
   \   00006B   E0           MOVX    A,@DPTR
   \   00006C   F4           CPL     A
   \                     ??MAC_CbackEvent_4:
   \   00006D   6008         JZ      ??MAC_CbackEvent_3
   \   00006F   12....       LCALL   ?Subroutine4 & 0xFFFF
   \                     ??CrossCallReturnLabel_9:
   \   000072   A3           INC     DPTR
   \   000073   A3           INC     DPTR
   \   000074   E0           MOVX    A,@DPTR
   \   000075   700D         JNZ     ??MAC_CbackEvent_5
    159              {
    160                mac_msg_deallocate( (uint8 **)&pData );
   \                     ??MAC_CbackEvent_3:
   \   000077                ; Setup parameters for call to function mac_msg_deallocate
   \   000077   85..82       MOV     DPL,?XSP + 0
   \   00007A   85..83       MOV     DPH,?XSP + 1
   \   00007D   AA82         MOV     R2,DPL
   \   00007F   AB83         MOV     R3,DPH
   \   000081   02....       LJMP    ??MAC_CbackEvent_6 & 0xFFFF
    161                return;
    162              }
    163              msgPtr = pData;
   \                     ??MAC_CbackEvent_5:
   \   000084   85..82       MOV     DPL,?XSP + 0
   \   000087   85..83       MOV     DPH,?XSP + 1
   \   00008A   E0           MOVX    A,@DPTR
   \   00008B   FE           MOV     R6,A
   \   00008C   A3           INC     DPTR
   \   00008D   E0           MOVX    A,@DPTR
   \   00008E   FF           MOV     R7,A
   \   00008F   02....       LJMP    ??MAC_CbackEvent_7 & 0xFFFF
    164            }
    165            else
    166            {
    167              if (event == MAC_MLME_BEACON_NOTIFY_IND )
   \                     ??MAC_CbackEvent_1:
   \   000092   7405         MOV     A,#0x5
   \   000094   65..         XRL     A,?V0 + 4
   \   000096   7015         JNZ     ??MAC_CbackEvent_8
    168              {
    169                tmp += sizeof(macPanDesc_t) + pData->beaconNotifyInd.sduLength;
   \   000098   85..82       MOV     DPL,?XSP + 0
   \   00009B   85..83       MOV     DPH,?XSP + 1
   \   00009E   12....       LCALL   ?Subroutine2 & 0xFFFF
    170              }
   \                     ??CrossCallReturnLabel_5:
   \   0000A1   A3           INC     DPTR
   \   0000A2   A3           INC     DPTR
   \   0000A3   E0           MOVX    A,@DPTR
   \   0000A4   2421         ADD     A,#0x21
   \   0000A6   F8           MOV     R0,A
   \   0000A7   E4           CLR     A
   \   0000A8   3400         ADDC    A,#0x0
   \   0000AA   F9           MOV     R1,A
   \   0000AB   8033         SJMP    ??MAC_CbackEvent_9
    171              else if (event == MAC_MLME_SCAN_CNF)
   \                     ??MAC_CbackEvent_8:
   \   0000AD   7407         MOV     A,#0x7
   \   0000AF   65..         XRL     A,?V0 + 4
   \   0000B1   7039         JNZ     ??MAC_CbackEvent_10
    172              {
    173                if (pData->scanCnf.scanType == ZMAC_ED_SCAN)
   \   0000B3   12....       LCALL   ?Subroutine3 & 0xFFFF
   \                     ??CrossCallReturnLabel_7:
   \   0000B6   700F         JNZ     ??MAC_CbackEvent_11
    174                {
    175                  tmp += ZMAC_ED_SCAN_MAXCHANNELS;
   \   0000B8   7402         MOV     A,#0x2
   \   0000BA   12....       LCALL   ?XSTACK_DISP0_8
   \   0000BD   E0           MOVX    A,@DPTR
   \   0000BE   241B         ADD     A,#0x1b
   \   0000C0   F0           MOVX    @DPTR,A
   \   0000C1   A3           INC     DPTR
   \   0000C2   E0           MOVX    A,@DPTR
   \   0000C3   3400         ADDC    A,#0x0
   \   0000C5   8024         SJMP    ??MAC_CbackEvent_12
    176                }
    177                else
    178                {
    179                  tmp += sizeof( ZMacPanDesc_t ) * pData->scanCnf.resultListSize;
   \                     ??MAC_CbackEvent_11:
   \   0000C7   85..82       MOV     DPL,?XSP + 0
   \   0000CA   85..83       MOV     DPH,?XSP + 1
   \   0000CD   12....       LCALL   ??Subroutine17_0 & 0xFFFF
    180                }
    181              }
   \                     ??CrossCallReturnLabel_33:
   \   0000D0   A3           INC     DPTR
   \   0000D1   A3           INC     DPTR
   \   0000D2   A3           INC     DPTR
   \   0000D3   A3           INC     DPTR
   \   0000D4   A3           INC     DPTR
   \   0000D5   A3           INC     DPTR
   \   0000D6   A3           INC     DPTR
   \   0000D7   A3           INC     DPTR
   \   0000D8   E0           MOVX    A,@DPTR
   \   0000D9   75F021       MOV     B,#0x21
   \   0000DC   A4           MUL     AB
   \   0000DD   F8           MOV     R0,A
   \   0000DE   A9F0         MOV     R1,B
   \                     ??MAC_CbackEvent_9:
   \   0000E0   7402         MOV     A,#0x2
   \   0000E2   12....       LCALL   ?XSTACK_DISP0_8
   \   0000E5   E0           MOVX    A,@DPTR
   \   0000E6   28           ADD     A,R0
   \   0000E7   F0           MOVX    @DPTR,A
   \   0000E8   A3           INC     DPTR
   \   0000E9   E0           MOVX    A,@DPTR
   \   0000EA   39           ADDC    A,R1
   \                     ??MAC_CbackEvent_12:
   \   0000EB   F0           MOVX    @DPTR,A
    182          
    183              if ( !(msgPtr = (macCbackEvent_t *)osal_msg_allocate(tmp)) )
   \                     ??MAC_CbackEvent_10:
   \   0000EC                ; Setup parameters for call to function osal_msg_allocate
   \   0000EC   7402         MOV     A,#0x2
   \   0000EE   12....       LCALL   ?XSTACK_DISP0_8
   \   0000F1   12....       LCALL   ?Subroutine7 & 0xFFFF
   \                     ??CrossCallReturnLabel_13:
   \   0000F4   8A..         MOV     ?V0 + 2,R2
   \   0000F6   8B..         MOV     ?V0 + 3,R3
   \   0000F8   AE..         MOV     R6,?V0 + 2
   \   0000FA   AF..         MOV     R7,?V0 + 3
   \   0000FC   EE           MOV     A,R6
   \   0000FD   4F           ORL     A,R7
   \   0000FE   703F         JNZ     ??MAC_CbackEvent_13
    184              {
    185                // Not enough memory. If data confirm - try again
    186                if ((event == MAC_MCPS_DATA_CNF) && (pData->dataCnf.pDataReq != NULL))
   \   000100   740C         MOV     A,#0xc
   \   000102   65..         XRL     A,?V0 + 4
   \   000104   6003         JZ      $+5
   \   000106   02....       LJMP    ??MAC_CbackEvent_0 & 0xFFFF
   \   000109   12....       LCALL   ?Subroutine0 & 0xFFFF
   \                     ??CrossCallReturnLabel_0:
   \   00010C   7003         JNZ     $+5
   \   00010E   02....       LJMP    ??MAC_CbackEvent_0 & 0xFFFF
    187                {
    188                  halIntState_t intState;
    189          
    190                  // This is not normally deallocated here because the pZMac_AppCallback()
    191                  // application may need it.
    192                  HAL_ENTER_CRITICAL_SECTION( intState );  // Hold off interrupts.
   \   000111   A2AF         MOV     C,0xa8.7
   \   000113   E4           CLR     A
   \   000114   33           RLC     A
   \   000115   F5..         MOV     ?V0 + 2,A
   \   000117   C2AF         CLR     0xa8.7
    193          
    194                  mac_msg_deallocate( (uint8**)&(pData->dataCnf.pDataReq) );
   \   000119                ; Setup parameters for call to function mac_msg_deallocate
   \   000119   12....       LCALL   ??mac_msg_deallocate?relay
    195                  if ( !(msgPtr = (macCbackEvent_t *)osal_msg_allocate(tmp)) )
   \   00011C                ; Setup parameters for call to function osal_msg_allocate
   \   00011C   7402         MOV     A,#0x2
   \   00011E   12....       LCALL   ?XSTACK_DISP0_8
   \   000121   12....       LCALL   ?Subroutine7 & 0xFFFF
   \                     ??CrossCallReturnLabel_14:
   \   000124   8A..         MOV     ?V0 + 6,R2
   \   000126   8B..         MOV     ?V0 + 7,R3
   \   000128   AE..         MOV     R6,?V0 + 6
   \   00012A   AF..         MOV     R7,?V0 + 7
   \   00012C   EE           MOV     A,R6
   \   00012D   4F           ORL     A,R7
   \   00012E   7009         JNZ     ??MAC_CbackEvent_14
    196                  {
    197                    // Still no allocation, something is wrong
    198                    HAL_EXIT_CRITICAL_SECTION( intState );   // Re-enable interrupts.
   \   000130   E5..         MOV     A,?V0 + 2
   \   000132   A2E0         MOV     C,0xE0 /* A   */.0
   \   000134   92AF         MOV     0xa8.7,C
    199                    return;
   \   000136   02....       LJMP    ??MAC_CbackEvent_0 & 0xFFFF
    200                  }
    201                  HAL_EXIT_CRITICAL_SECTION( intState );   // Re-enable interrupts.
   \                     ??MAC_CbackEvent_14:
   \   000139   E5..         MOV     A,?V0 + 2
   \   00013B   A2E0         MOV     C,0xE0 /* A   */.0
   \   00013D   92AF         MOV     0xa8.7,C
    202                }
    203                else
    204                {
    205                  // This message is dropped
    206                  return;
    207                }
    208              }
    209              osal_memcpy(msgPtr, pData, zmacCBSizeTable[event]);
   \                     ??MAC_CbackEvent_13:
   \   00013F                ; Setup parameters for call to function osal_memcpy
   \   00013F   85..82       MOV     DPL,?XSP + 0
   \   000142   85..83       MOV     DPH,?XSP + 1
   \   000145   E0           MOVX    A,@DPTR
   \   000146   F5..         MOV     ?V0 + 8,A
   \   000148   A3           INC     DPTR
   \   000149   E0           MOVX    A,@DPTR
   \   00014A   F5..         MOV     ?V0 + 9,A
   \   00014C   75..00       MOV     ?V0 + 10,#0x0
   \   00014F   78..         MOV     R0,#?V0 + 8
   \   000151   12....       LCALL   ?PUSH_XSTACK_I_THREE
   \   000154   AC..         MOV     R4,?V0 + 0
   \   000156   7D00         MOV     R5,#0x0
   \   000158   EE           MOV     A,R6
   \   000159   FA           MOV     R2,A
   \   00015A   EF           MOV     A,R7
   \   00015B   12....       LCALL   ?Subroutine11 & 0xFFFF
    210            }
   \                     ??CrossCallReturnLabel_28:
   \   00015E   12....       LCALL   ?DEALLOC_XSTACK8
    211          
    212            if ( event == MAC_MLME_BEACON_NOTIFY_IND )
   \   000161   7405         MOV     A,#0x5
   \   000163   65..         XRL     A,?V0 + 4
   \   000165   707E         JNZ     ??MAC_CbackEvent_15
    213            {
    214              macMlmeBeaconNotifyInd_t *pBeacon = (macMlmeBeaconNotifyInd_t*)msgPtr;
    215          
    216              osal_memcpy(pBeacon+1, pBeacon->pPanDesc, sizeof(macPanDesc_t));
   \   000167   12....       LCALL   ?Subroutine12 & 0xFFFF
   \                     ??CrossCallReturnLabel_21:
   \   00016A   EE           MOV     A,R6
   \   00016B   2403         ADD     A,#0x3
   \   00016D   F5..         MOV     ?V0 + 6,A
   \   00016F   EF           MOV     A,R7
   \   000170   3400         ADDC    A,#0x0
   \   000172   F5..         MOV     ?V0 + 7,A
   \   000174                ; Setup parameters for call to function osal_memcpy
   \   000174   85..82       MOV     DPL,?V0 + 6
   \   000177   12....       LCALL   ?Subroutine8 & 0xFFFF
   \                     ??CrossCallReturnLabel_15:
   \   00017A   12....       LCALL   ?PUSH_XSTACK_I_THREE
   \   00017D   7C21         MOV     R4,#0x21
   \   00017F   7D00         MOV     R5,#0x0
   \   000181   AA..         MOV     R2,?V0 + 0
   \   000183   AB..         MOV     R3,?V0 + 1
   \   000185   12....       LCALL   ??Subroutine16_0 & 0xFFFF
   \                     ??CrossCallReturnLabel_30:
   \   000188   12....       LCALL   ?DEALLOC_XSTACK8
    217              pBeacon->pPanDesc = (macPanDesc_t *)(pBeacon+1);
   \   00018B   85..82       MOV     DPL,?V0 + 6
   \   00018E   85..83       MOV     DPH,?V0 + 7
   \   000191   E5..         MOV     A,?V0 + 0
   \   000193   F0           MOVX    @DPTR,A
   \   000194   A3           INC     DPTR
   \   000195   E5..         MOV     A,?V0 + 1
   \   000197   F0           MOVX    @DPTR,A
    218              osal_memcpy(pBeacon->pPanDesc+1, pBeacon->pSdu, pBeacon->sduLength);
   \   000198   12....       LCALL   ?Subroutine13 & 0xFFFF
   \                     ??CrossCallReturnLabel_23:
   \   00019B                ; Setup parameters for call to function osal_memcpy
   \   00019B   85..82       MOV     DPL,?V0 + 2
   \   00019E   12....       LCALL   ?Subroutine8 & 0xFFFF
   \                     ??CrossCallReturnLabel_16:
   \   0001A1   12....       LCALL   ?PUSH_XSTACK_I_THREE
   \   0001A4   8E82         MOV     DPL,R6
   \   0001A6   8F83         MOV     DPH,R7
   \   0001A8   A3           INC     DPTR
   \   0001A9   A3           INC     DPTR
   \   0001AA   A3           INC     DPTR
   \   0001AB   A3           INC     DPTR
   \   0001AC   A3           INC     DPTR
   \   0001AD   A3           INC     DPTR
   \   0001AE   A3           INC     DPTR
   \   0001AF   A3           INC     DPTR
   \   0001B0   E0           MOVX    A,@DPTR
   \   0001B1   FC           MOV     R4,A
   \   0001B2   7D00         MOV     R5,#0x0
   \   0001B4   85..82       MOV     DPL,?V0 + 6
   \   0001B7   85..83       MOV     DPH,?V0 + 7
   \   0001BA   E0           MOVX    A,@DPTR
   \   0001BB   2421         ADD     A,#0x21
   \   0001BD   FA           MOV     R2,A
   \   0001BE   A3           INC     DPTR
   \   0001BF   E0           MOVX    A,@DPTR
   \   0001C0   3400         ADDC    A,#0x0
   \   0001C2   12....       LCALL   ?Subroutine11 & 0xFFFF
   \                     ??CrossCallReturnLabel_29:
   \   0001C5   12....       LCALL   ?DEALLOC_XSTACK8
    219              pBeacon->pSdu = (uint8 *)(pBeacon->pPanDesc+1);
   \   0001C8   85..82       MOV     DPL,?V0 + 6
   \   0001CB   85..83       MOV     DPH,?V0 + 7
   \   0001CE   E0           MOVX    A,@DPTR
   \   0001CF   2421         ADD     A,#0x21
   \   0001D1   F8           MOV     R0,A
   \   0001D2   A3           INC     DPTR
   \   0001D3   E0           MOVX    A,@DPTR
   \   0001D4   3400         ADDC    A,#0x0
   \   0001D6   F9           MOV     R1,A
   \   0001D7   85..82       MOV     DPL,?V0 + 2
   \   0001DA   85..83       MOV     DPH,?V0 + 3
   \   0001DD   E8           MOV     A,R0
   \   0001DE   F0           MOVX    @DPTR,A
   \   0001DF   A3           INC     DPTR
   \   0001E0   E9           MOV     A,R1
   \   0001E1   F0           MOVX    @DPTR,A
   \   0001E2   02....       LJMP    ??MAC_CbackEvent_7 & 0xFFFF
    220            }
    221            else if (event == MAC_MLME_SCAN_CNF)
   \                     ??MAC_CbackEvent_15:
   \   0001E5   7407         MOV     A,#0x7
   \   0001E7   65..         XRL     A,?V0 + 4
   \   0001E9   6003         JZ      $+5
   \   0001EB   02....       LJMP    ??MAC_CbackEvent_7 & 0xFFFF
    222            {
    223              macMlmeScanCnf_t *pScan = (macMlmeScanCnf_t*)msgPtr;
    224          
    225              if (ZMac_ScanBuf != NULL)
   \   0001EE   90....       MOV     DPTR,#ZMac_ScanBuf
   \   0001F1   12....       LCALL   ?Subroutine15 & 0xFFFF
   \                     ??CrossCallReturnLabel_25:
   \   0001F4   6078         JZ      ??MAC_CbackEvent_7
    226              {
    227                void *pTmp = ZMac_ScanBuf;
   \   0001F6   90....       MOV     DPTR,#ZMac_ScanBuf
   \   0001F9   E0           MOVX    A,@DPTR
   \   0001FA   F5..         MOV     ?V0 + 6,A
   \   0001FC   A3           INC     DPTR
   \   0001FD   E0           MOVX    A,@DPTR
   \   0001FE   F5..         MOV     ?V0 + 7,A
    228                ZMac_ScanBuf = NULL;
   \   000200   90....       MOV     DPTR,#ZMac_ScanBuf
   \   000203   E4           CLR     A
   \   000204   F0           MOVX    @DPTR,A
   \   000205   A3           INC     DPTR
   \   000206   F0           MOVX    @DPTR,A
    229          
    230                if (pScan->scanType == ZMAC_ED_SCAN)
   \   000207   88..         MOV     ?V0 + 8,R0
   \   000209   89..         MOV     ?V0 + 9,R1
   \   00020B   12....       LCALL   ?Subroutine13 & 0xFFFF
   \                     ??CrossCallReturnLabel_24:
   \   00020E   12....       LCALL   ?Subroutine12 & 0xFFFF
   \                     ??CrossCallReturnLabel_22:
   \   000211   8E82         MOV     DPL,R6
   \   000213   8F83         MOV     DPH,R7
   \   000215   A3           INC     DPTR
   \   000216   A3           INC     DPTR
   \   000217   E0           MOVX    A,@DPTR
   \   000218   85..82       MOV     DPL,?V0 + 2
   \   00021B   85..83       MOV     DPH,?V0 + 3
   \   00021E   701D         JNZ     ??MAC_CbackEvent_16
    231                {
    232                  pScan->result.pEnergyDetect = (uint8*) (pScan + 1);
   \   000220   E5..         MOV     A,?V0 + 0
   \   000222   F0           MOVX    @DPTR,A
   \   000223   A3           INC     DPTR
   \   000224   E5..         MOV     A,?V0 + 1
   \   000226   F0           MOVX    @DPTR,A
    233                  osal_memcpy(pScan->result.pEnergyDetect, pTmp, ZMAC_ED_SCAN_MAXCHANNELS);
   \   000227                ; Setup parameters for call to function osal_memcpy
   \   000227   78..         MOV     R0,#?V0 + 8
   \   000229   12....       LCALL   ?PUSH_XSTACK_I_THREE
   \   00022C   7C1B         MOV     R4,#0x1b
   \   00022E   7D00         MOV     R5,#0x0
   \   000230   85..82       MOV     DPL,?V0 + 2
   \   000233   85..83       MOV     DPH,?V0 + 3
   \   000236   E0           MOVX    A,@DPTR
   \   000237   FA           MOV     R2,A
   \   000238   A3           INC     DPTR
   \   000239   E0           MOVX    A,@DPTR
   \   00023A   FB           MOV     R3,A
   \   00023B   8024         SJMP    ??MAC_CbackEvent_17
    234                }
    235                else
    236                {
    237                  pScan->result.pPanDescriptor = (macPanDesc_t*) (pScan + 1);
   \                     ??MAC_CbackEvent_16:
   \   00023D   E5..         MOV     A,?V0 + 0
   \   00023F   F0           MOVX    @DPTR,A
   \   000240   A3           INC     DPTR
   \   000241   E5..         MOV     A,?V0 + 1
   \   000243   F0           MOVX    @DPTR,A
    238                  osal_memcpy(pScan + 1, pTmp, sizeof( ZMacPanDesc_t ) * pScan->resultListSize);
   \   000244                ; Setup parameters for call to function osal_memcpy
   \   000244   78..         MOV     R0,#?V0 + 8
   \   000246   12....       LCALL   ?PUSH_XSTACK_I_THREE
   \   000249   8E82         MOV     DPL,R6
   \   00024B   8F83         MOV     DPH,R7
   \   00024D   A3           INC     DPTR
   \   00024E   A3           INC     DPTR
   \   00024F   A3           INC     DPTR
   \   000250   A3           INC     DPTR
   \   000251   A3           INC     DPTR
   \   000252   A3           INC     DPTR
   \   000253   A3           INC     DPTR
   \   000254   A3           INC     DPTR
   \   000255   E0           MOVX    A,@DPTR
   \   000256   75F021       MOV     B,#0x21
   \   000259   A4           MUL     AB
   \   00025A   FC           MOV     R4,A
   \   00025B   ADF0         MOV     R5,B
   \   00025D   AA..         MOV     R2,?V0 + 0
   \   00025F   AB..         MOV     R3,?V0 + 1
    239                }
   \                     ??MAC_CbackEvent_17:
   \   000261   12....       LCALL   ??Subroutine16_0 & 0xFFFF
   \                     ??CrossCallReturnLabel_31:
   \   000264   12....       LCALL   ?DEALLOC_XSTACK8
    240          
    241                osal_mem_free(pTmp);
   \   000267                ; Setup parameters for call to function osal_mem_free
   \   000267   AA..         MOV     R2,?V0 + 6
   \   000269   AB..         MOV     R3,?V0 + 7
   \   00026B   12....       LCALL   ??osal_mem_free?relay
    242              }
    243            }
    244          
    245            if ( ( pZMac_AppCallback == NULL ) || ( pZMac_AppCallback( (uint8 *)msgPtr ) == FALSE ) )
   \                     ??MAC_CbackEvent_7:
   \   00026E   90....       MOV     DPTR,#pZMac_AppCallback
   \   000271   12....       LCALL   ?Subroutine15 & 0xFFFF
   \                     ??CrossCallReturnLabel_26:
   \   000274   6010         JZ      ??MAC_CbackEvent_18
   \   000276                ; Setup parameters for indirect call
   \   000276   EE           MOV     A,R6
   \   000277   FA           MOV     R2,A
   \   000278   EF           MOV     A,R7
   \   000279   FB           MOV     R3,A
   \   00027A   12....       LCALL   ??Subroutine18_0 & 0xFFFF
   \                     ??CrossCallReturnLabel_32:
   \   00027D   12....       LCALL   ?CALL_IND
   \   000280   E9           MOV     A,R1
   \   000281   6003         JZ      $+5
   \   000283   02....       LJMP    ??MAC_CbackEvent_19 & 0xFFFF
    246            {
    247              // Filter out non-zigbee packets
    248              if ( event == MAC_MCPS_DATA_IND )
   \                     ??MAC_CbackEvent_18:
   \   000286   740D         MOV     A,#0xd
   \   000288   65..         XRL     A,?V0 + 4
   \   00028A   6003         JZ      $+5
   \   00028C   02....       LJMP    ??MAC_CbackEvent_20 & 0xFFFF
    249              {
    250                uint8 fcFrameType = (pData->dataInd.msdu.p[0] & 0x03);
    251                uint8 fcProtoVer = ((pData->dataInd.msdu.p[0] >> 2) & 0x0F);
    252                uint8 fcReserve = (pData->dataInd.msdu.p[1] & 0xE0);
   \   00028F   12....       LCALL   ?Subroutine3 & 0xFFFF
   \                     ??CrossCallReturnLabel_8:
   \   000292   F8           MOV     R0,A
   \   000293   A3           INC     DPTR
   \   000294   E0           MOVX    A,@DPTR
   \   000295   F9           MOV     R1,A
   \   000296   8882         MOV     DPL,R0
   \   000298   8983         MOV     DPH,R1
   \   00029A   A3           INC     DPTR
   \   00029B   E0           MOVX    A,@DPTR
   \   00029C   54E0         ANL     A,#0xe0
   \   00029E   FA           MOV     R2,A
    253                if ( (fcFrameType > 0x01) || (fcProtoVer != _NIB.nwkProtocolVersion) || (fcReserve != 0)
    254                    || (pData->dataInd.mac.srcAddr.addrMode != SADDR_MODE_SHORT) )
   \   00029F   8882         MOV     DPL,R0
   \   0002A1   8983         MOV     DPH,R1
   \   0002A3   E0           MOVX    A,@DPTR
   \   0002A4   5403         ANL     A,#0x3
   \   0002A6   C3           CLR     C
   \   0002A7   9402         SUBB    A,#0x2
   \   0002A9   4003         JC      $+5
   \   0002AB   02....       LJMP    ??MAC_CbackEvent_3 & 0xFFFF
   \   0002AE   E0           MOVX    A,@DPTR
   \   0002AF   13           RRC     A
   \   0002B0   13           RRC     A
   \   0002B1   543F         ANL     A,#0x3f
   \   0002B3   540F         ANL     A,#0xf
   \   0002B5   F8           MOV     R0,A
   \   0002B6   90....       MOV     DPTR,#_NIB + 17
   \   0002B9   E0           MOVX    A,@DPTR
   \   0002BA   68           XRL     A,R0
   \   0002BB   6003         JZ      $+5
   \   0002BD   02....       LJMP    ??MAC_CbackEvent_3 & 0xFFFF
   \   0002C0   EA           MOV     A,R2
   \   0002C1   6003         JZ      $+5
   \   0002C3   02....       LJMP    ??MAC_CbackEvent_3 & 0xFFFF
   \   0002C6   85..82       MOV     DPL,?XSP + 0
   \   0002C9   85..83       MOV     DPH,?XSP + 1
   \   0002CC   E0           MOVX    A,@DPTR
   \   0002CD   241A         ADD     A,#0x1a
   \   0002CF   12....       LCALL   ?Subroutine1 & 0xFFFF
   \                     ??CrossCallReturnLabel_2:
   \   0002D2   6402         XRL     A,#0x2
   \   0002D4   6003         JZ      $+5
   \   0002D6   02....       LJMP    ??MAC_CbackEvent_3 & 0xFFFF
    255                {
    256                  // Drop the message
    257                  mac_msg_deallocate( (uint8 **)&pData );
    258                  return;
    259                }
    260                else
    261                {
    262                  macDataInd_t *pInd = &msgPtr->dataInd.mac;
   \   0002D9   EE           MOV     A,R6
   \   0002DA   2412         ADD     A,#0x12
   \   0002DC   F8           MOV     R0,A
   \   0002DD   EF           MOV     A,R7
   \   0002DE   3400         ADDC    A,#0x0
   \   0002E0   F9           MOV     R1,A
    263                  // See if LQI needs adjustment due to frame correlation
    264                  ZMacLqiAdjust( pInd->correlation, &pInd->mpduLinkQuality );
   \   0002E1   E8           MOV     A,R0
   \   0002E2   241C         ADD     A,#0x1c
   \   0002E4   FA           MOV     R2,A
   \   0002E5   E9           MOV     A,R1
   \   0002E6   3400         ADDC    A,#0x0
   \   0002E8   FB           MOV     R3,A
   \   0002E9   EA           MOV     A,R2
   \   0002EA   FC           MOV     R4,A
   \   0002EB   EB           MOV     A,R3
   \   0002EC   FD           MOV     R5,A
   \   0002ED   E8           MOV     A,R0
   \   0002EE   241D         ADD     A,#0x1d
   \   0002F0   F582         MOV     DPL,A
   \   0002F2   E9           MOV     A,R1
   \   0002F3   12....       LCALL   ?Subroutine10 & 0xFFFF
   \                     ??CrossCallReturnLabel_19:
   \   0002F6   6032         JZ      ??MAC_CbackEvent_21
   \   0002F8   12....       LCALL   ?Subroutine5 & 0xFFFF
   \                     ??CrossCallReturnLabel_11:
   \   0002FB   5005         JNC     ??MAC_CbackEvent_22
   \   0002FD   75..32       MOV     ?V0 + 0,#0x32
   \   000300   800A         SJMP    ??MAC_CbackEvent_23
   \                     ??MAC_CbackEvent_22:
   \   000302   E5..         MOV     A,?V0 + 0
   \   000304   C3           CLR     C
   \   000305   946F         SUBB    A,#0x6f
   \   000307   4003         JC      ??MAC_CbackEvent_23
   \   000309   75..6E       MOV     ?V0 + 0,#0x6e
   \                     ??MAC_CbackEvent_23:
   \   00030C   90....       MOV     DPTR,#lqiAdjMode
   \   00030F   E0           MOVX    A,@DPTR
   \   000310   6401         XRL     A,#0x1
   \   000312   7006         JNZ     ??MAC_CbackEvent_24
   \   000314   12....       LCALL   ?Subroutine9 & 0xFFFF
   \                     ??CrossCallReturnLabel_17:
   \   000317   12....       LCALL   ?US_DIV_MOD
   \                     ??MAC_CbackEvent_24:
   \   00031A   C3           CLR     C
   \   00031B   E9           MOV     A,R1
   \   00031C   9401         SUBB    A,#0x1
   \   00031E   4004         JC      ??MAC_CbackEvent_25
   \   000320   74FF         MOV     A,#-0x1
   \   000322   8001         SJMP    ??MAC_CbackEvent_26
   \                     ??MAC_CbackEvent_25:
   \   000324   E8           MOV     A,R0
   \                     ??MAC_CbackEvent_26:
   \   000325   8C82         MOV     DPL,R4
   \   000327   8D83         MOV     DPH,R5
   \   000329   F0           MOVX    @DPTR,A
    265          
    266                  // Look for broadcast message that has a radius of greater 1
    267                  if ( (pData->dataInd.mac.dstAddr.addr.shortAddr == 0xFFFF)
    268                         && (pData->dataInd.msdu.p[6] > 1) )
   \                     ??MAC_CbackEvent_21:
   \   00032A   85..82       MOV     DPL,?XSP + 0
   \   00032D   85..83       MOV     DPH,?XSP + 1
   \   000330   E0           MOVX    A,@DPTR
   \   000331   241B         ADD     A,#0x1b
   \   000333   12....       LCALL   ?Subroutine1 & 0xFFFF
   \                     ??CrossCallReturnLabel_3:
   \   000336   F4           CPL     A
   \   000337   7003         JNZ     ??MAC_CbackEvent_27
   \   000339   A3           INC     DPTR
   \   00033A   E0           MOVX    A,@DPTR
   \   00033B   F4           CPL     A
   \                     ??MAC_CbackEvent_27:
   \   00033C   6003         JZ      $+5
   \   00033E   02....       LJMP    ??MAC_CbackEvent_28 & 0xFFFF
   \   000341   12....       LCALL   ?Subroutine4 & 0xFFFF
   \                     ??CrossCallReturnLabel_10:
   \   000344   12....       LCALL   ?Subroutine2 & 0xFFFF
   \                     ??CrossCallReturnLabel_6:
   \   000347   E0           MOVX    A,@DPTR
   \   000348   C3           CLR     C
   \   000349   9402         SUBB    A,#0x2
   \   00034B   4079         JC      ??MAC_CbackEvent_28
    269                  {
    270                    // Send the messsage to a special broadcast queue
    271                    if ( nwk_broadcastSend( (uint8 *)msgPtr ) != SUCCESS )
   \   00034D                ; Setup parameters for call to function nwk_broadcastSend
   \   00034D   EE           MOV     A,R6
   \   00034E   FA           MOV     R2,A
   \   00034F   EF           MOV     A,R7
   \   000350   FB           MOV     R3,A
   \   000351   12....       LCALL   ??nwk_broadcastSend?relay
   \   000354   E9           MOV     A,R1
   \   000355   6003         JZ      $+5
   \   000357   02....       LJMP    ??MAC_CbackEvent_3 & 0xFFFF
   \   00035A   02....       LJMP    ??MAC_CbackEvent_0 & 0xFFFF
    272                    {
    273                      // Drop the message, too many broadcast messages to process
    274                      mac_msg_deallocate( (uint8 **)&pData );
    275                    }
    276                    return;
    277                  }
    278                }
    279              }
    280              else if ((event == MAC_MCPS_DATA_CNF) && (pData->hdr.status != MAC_NO_RESOURCES))
   \                     ??MAC_CbackEvent_20:
   \   00035D   740C         MOV     A,#0xc
   \   00035F   65..         XRL     A,?V0 + 4
   \   000361   7063         JNZ     ??MAC_CbackEvent_28
   \   000363   12....       LCALL   ?Subroutine6 & 0xFFFF
   \                     ??CrossCallReturnLabel_35:
   \   000366   A3           INC     DPTR
   \   000367   E0           MOVX    A,@DPTR
   \   000368   641A         XRL     A,#0x1a
   \   00036A   605A         JZ      ??MAC_CbackEvent_28
    281              {
    282                macMcpsDataCnf_t *pCnf = &msgPtr->dataCnf;
    283                
    284                if (pCnf->pDataReq->internal.txOptions & MAC_TXOPTION_ACK)
   \   00036C   8E82         MOV     DPL,R6
   \   00036E   8F83         MOV     DPH,R7
   \   000370   A3           INC     DPTR
   \   000371   A3           INC     DPTR
   \   000372   A3           INC     DPTR
   \   000373   E0           MOVX    A,@DPTR
   \   000374   240E         ADD     A,#0xe
   \   000376   12....       LCALL   ?Subroutine1 & 0xFFFF
   \                     ??CrossCallReturnLabel_4:
   \   000379   A2E0         MOV     C,0xE0 /* A   */.0
   \   00037B   5049         JNC     ??MAC_CbackEvent_28
    285                {
    286                  // See if LQI needs adjustment due to frame correlation
    287                  ZMacLqiAdjust( pCnf->correlation, &pCnf->mpduLinkQuality );
   \   00037D   EE           MOV     A,R6
   \   00037E   240C         ADD     A,#0xc
   \   000380   F8           MOV     R0,A
   \   000381   EF           MOV     A,R7
   \   000382   3400         ADDC    A,#0x0
   \   000384   F9           MOV     R1,A
   \   000385   E8           MOV     A,R0
   \   000386   FC           MOV     R4,A
   \   000387   E9           MOV     A,R1
   \   000388   FD           MOV     R5,A
   \   000389   EE           MOV     A,R6
   \   00038A   240D         ADD     A,#0xd
   \   00038C   F582         MOV     DPL,A
   \   00038E   EF           MOV     A,R7
   \   00038F   12....       LCALL   ?Subroutine10 & 0xFFFF
    288                }
    289              }
   \                     ??CrossCallReturnLabel_20:
   \   000392   6032         JZ      ??MAC_CbackEvent_28
   \   000394   12....       LCALL   ?Subroutine5 & 0xFFFF
   \                     ??CrossCallReturnLabel_12:
   \   000397   5005         JNC     ??MAC_CbackEvent_29
   \   000399   75..32       MOV     ?V0 + 0,#0x32
   \   00039C   800A         SJMP    ??MAC_CbackEvent_30
   \                     ??MAC_CbackEvent_29:
   \   00039E   E5..         MOV     A,?V0 + 0
   \   0003A0   C3           CLR     C
   \   0003A1   946F         SUBB    A,#0x6f
   \   0003A3   4003         JC      ??MAC_CbackEvent_30
   \   0003A5   75..6E       MOV     ?V0 + 0,#0x6e
   \                     ??MAC_CbackEvent_30:
   \   0003A8   90....       MOV     DPTR,#lqiAdjMode
   \   0003AB   E0           MOVX    A,@DPTR
   \   0003AC   6401         XRL     A,#0x1
   \   0003AE   7006         JNZ     ??MAC_CbackEvent_31
   \   0003B0   12....       LCALL   ?Subroutine9 & 0xFFFF
   \                     ??CrossCallReturnLabel_18:
   \   0003B3   12....       LCALL   ?US_DIV_MOD
   \                     ??MAC_CbackEvent_31:
   \   0003B6   C3           CLR     C
   \   0003B7   E9           MOV     A,R1
   \   0003B8   9401         SUBB    A,#0x1
   \   0003BA   4004         JC      ??MAC_CbackEvent_32
   \   0003BC   74FF         MOV     A,#-0x1
   \   0003BE   8001         SJMP    ??MAC_CbackEvent_33
   \                     ??MAC_CbackEvent_32:
   \   0003C0   E8           MOV     A,R0
   \                     ??MAC_CbackEvent_33:
   \   0003C1   8C82         MOV     DPL,R4
   \   0003C3   8D83         MOV     DPH,R5
   \   0003C5   F0           MOVX    @DPTR,A
    290          
    291              // Application hasn't already processed this message. Send it to NWK task.
    292              osal_msg_send( NWK_TaskID, (uint8 *)msgPtr );
   \                     ??MAC_CbackEvent_28:
   \   0003C6                ; Setup parameters for call to function osal_msg_send
   \   0003C6   EE           MOV     A,R6
   \   0003C7   FA           MOV     R2,A
   \   0003C8   EF           MOV     A,R7
   \   0003C9   FB           MOV     R3,A
   \   0003CA   90....       MOV     DPTR,#NWK_TaskID
   \   0003CD   E0           MOVX    A,@DPTR
   \   0003CE   F9           MOV     R1,A
   \   0003CF   12....       LCALL   ??osal_msg_send?relay
    293            }
    294          
    295            if ((event == MAC_MCPS_DATA_CNF) && (pData->dataCnf.pDataReq != NULL))
   \                     ??MAC_CbackEvent_19:
   \   0003D2   740C         MOV     A,#0xc
   \   0003D4   65..         XRL     A,?V0 + 4
   \   0003D6   7008         JNZ     ??MAC_CbackEvent_0
   \   0003D8   12....       LCALL   ?Subroutine0 & 0xFFFF
   \                     ??CrossCallReturnLabel_1:
   \   0003DB   6003         JZ      ??MAC_CbackEvent_0
    296            {
    297              // If the application needs 'pDataReq' then we cannot free it here.
    298              // The application must free it after using it. Note that 'pDataReq'
    299              // is of macMcpsDataReq_t (and not ZMacDataReq_t) type.
    300          
    301              mac_msg_deallocate( (uint8**)&(pData->dataCnf.pDataReq) );
   \   0003DD                ; Setup parameters for call to function mac_msg_deallocate
   \                     ??MAC_CbackEvent_6:
   \   0003DD   12....       LCALL   ??mac_msg_deallocate?relay
   \                     ??MAC_CbackEvent_0:
   \   0003E0   7404         MOV     A,#0x4
   \   0003E2   12....       LCALL   ?DEALLOC_XSTACK8
   \   0003E5   7F0B         MOV     R7,#0xb
   \   0003E7   02....       LJMP    ?BANKED_LEAVE_XDATA
   \   0003EA                REQUIRE _A_IEN0
    302            }
    303          #endif
    304          }

   \                                 In  segment BANKED_CODE, align 1, keep-with-next
   \                     ?Subroutine13:
   \   000000   EE           MOV     A,R6
   \   000001   2409         ADD     A,#0x9
   \   000003   F5..         MOV     ?V0 + 2,A
   \   000005   EF           MOV     A,R7
   \   000006   3400         ADDC    A,#0x0
   \   000008   F5..         MOV     ?V0 + 3,A
   \   00000A   22           RET

   \                                 In  segment BANKED_CODE, align 1, keep-with-next
   \                     ?Subroutine12:
   \   000000   EE           MOV     A,R6
   \   000001   240B         ADD     A,#0xb
   \   000003   F5..         MOV     ?V0 + 0,A
   \   000005   EF           MOV     A,R7
   \   000006   3400         ADDC    A,#0x0
   \   000008   F5..         MOV     ?V0 + 1,A
   \   00000A   22           RET

   \                                 In  segment BANKED_CODE, align 1, keep-with-next
   \                     ?Subroutine11:
   \   000000   FB           MOV     R3,A
   \   000001                REQUIRE ??Subroutine16_0
   \   000001                ; // Fall through to label ??Subroutine16_0

   \                                 In  segment BANKED_CODE, align 1, keep-with-next
   \                     ??Subroutine16_0:
   \   000000   12....       LCALL   ??osal_memcpy?relay
   \   000003   7403         MOV     A,#0x3
   \   000005   22           RET

   \                                 In  segment BANKED_CODE, align 1, keep-with-next
   \                     ?Subroutine10:
   \   000000   3400         ADDC    A,#0x0
   \   000002   F583         MOV     DPH,A
   \   000004   E0           MOVX    A,@DPTR
   \   000005   F5..         MOV     ?V0 + 0,A
   \   000007   90....       MOV     DPTR,#lqiAdjMode
   \   00000A   E0           MOVX    A,@DPTR
   \   00000B   22           RET

   \                                 In  segment BANKED_CODE, align 1, keep-with-next
   \                     ?Subroutine9:
   \   000000   E5..         MOV     A,?V0 + 0
   \   000002   24CE         ADD     A,#-0x32
   \   000004   F5..         MOV     ?V0 + 0,A
   \   000006   E4           CLR     A
   \   000007   34FF         ADDC    A,#-0x1
   \   000009   F5..         MOV     ?V0 + 1,A
   \   00000B   E8           MOV     A,R0
   \   00000C   85..F0       MOV     B,?V0 + 0
   \   00000F   A4           MUL     AB
   \   000010   C8           XCH     A,R0
   \   000011   AAF0         MOV     R2,B
   \   000013   85..F0       MOV     B,?V0 + 1
   \   000016   A4           MUL     AB
   \   000017   2A           ADD     A,R2
   \   000018   F9           MOV     R1,A
   \   000019   7A3C         MOV     R2,#0x3c
   \   00001B   7B00         MOV     R3,#0x0
   \   00001D   22           RET

   \                                 In  segment BANKED_CODE, align 1, keep-with-next
   \                     ?Subroutine8:
   \   000000   F583         MOV     DPH,A
   \   000002   E0           MOVX    A,@DPTR
   \   000003   F5..         MOV     ?V0 + 8,A
   \   000005   A3           INC     DPTR
   \   000006   E0           MOVX    A,@DPTR
   \   000007   F5..         MOV     ?V0 + 9,A
   \   000009   78..         MOV     R0,#?V0 + 8
   \   00000B   22           RET

   \                                 In  segment BANKED_CODE, align 1, keep-with-next
   \                     ?Subroutine7:
   \   000000   E0           MOVX    A,@DPTR
   \   000001   FA           MOV     R2,A
   \   000002   A3           INC     DPTR
   \   000003   E0           MOVX    A,@DPTR
   \   000004   FB           MOV     R3,A
   \   000005   12....       LCALL   ??osal_msg_allocate?relay
   \   000008   22           RET

   \                                 In  segment BANKED_CODE, align 1, keep-with-next
   \                     ?Subroutine6:
   \   000000   85..82       MOV     DPL,?XSP + 0
   \   000003   85..83       MOV     DPH,?XSP + 1
   \   000006   E0           MOVX    A,@DPTR
   \   000007   F8           MOV     R0,A
   \   000008                REQUIRE ??Subroutine17_0
   \   000008                ; // Fall through to label ??Subroutine17_0

   \                                 In  segment BANKED_CODE, align 1, keep-with-next
   \                     ??Subroutine17_0:
   \   000000   A3           INC     DPTR
   \   000001                REQUIRE ??Subroutine18_0
   \   000001                ; // Fall through to label ??Subroutine18_0

   \                                 In  segment BANKED_CODE, align 1, keep-with-next
   \                     ??Subroutine18_0:
   \   000000   E0           MOVX    A,@DPTR
   \   000001   F583         MOV     DPH,A
   \   000003   8882         MOV     DPL,R0
   \   000005   22           RET

   \                                 In  segment BANKED_CODE, align 1, keep-with-next
   \                     ?Subroutine5:
   \   000000   8C82         MOV     DPL,R4
   \   000002   8D83         MOV     DPH,R5
   \   000004   E0           MOVX    A,@DPTR
   \   000005   F8           MOV     R0,A
   \   000006   7900         MOV     R1,#0x0
   \   000008   E5..         MOV     A,?V0 + 0
   \   00000A   C3           CLR     C
   \   00000B   9432         SUBB    A,#0x32
   \   00000D   22           RET

   \                                 In  segment BANKED_CODE, align 1, keep-with-next
   \                     ?Subroutine4:
   \   000000   12....       LCALL   ?Subroutine14 & 0xFFFF
   \                     ??CrossCallReturnLabel_38:
   \   000003   22           RET

   \                                 In  segment BANKED_CODE, align 1, keep-with-next
   \                     ?Subroutine14:
   \   000000   85..82       MOV     DPL,?XSP + 0
   \   000003   85..83       MOV     DPH,?XSP + 1
   \   000006                REQUIRE ??Subroutine19_0
   \   000006                ; // Fall through to label ??Subroutine19_0

   \                                 In  segment BANKED_CODE, align 1, keep-with-next
   \                     ??Subroutine19_0:
   \   000000   E0           MOVX    A,@DPTR
   \   000001   F8           MOV     R0,A
   \   000002   A3           INC     DPTR
   \   000003   E0           MOVX    A,@DPTR
   \   000004   F583         MOV     DPH,A
   \   000006   8882         MOV     DPL,R0
   \   000008   A3           INC     DPTR
   \   000009   A3           INC     DPTR
   \   00000A   22           RET

   \                                 In  segment BANKED_CODE, align 1, keep-with-next
   \                     ?Subroutine3:
   \   000000   12....       LCALL   ?Subroutine14 & 0xFFFF
   \                     ??CrossCallReturnLabel_37:
   \   000003   E0           MOVX    A,@DPTR
   \   000004   22           RET

   \                                 In  segment BANKED_CODE, align 1, keep-with-next
   \                     ?Subroutine2:
   \   000000   12....       LCALL   ??Subroutine19_0 & 0xFFFF
   \                     ??CrossCallReturnLabel_36:
   \   000003   A3           INC     DPTR
   \   000004   A3           INC     DPTR
   \   000005   A3           INC     DPTR
   \   000006   A3           INC     DPTR
   \   000007   22           RET

   \                                 In  segment BANKED_CODE, align 1, keep-with-next
   \                     ?Subroutine1:
   \   000000   F8           MOV     R0,A
   \   000001   A3           INC     DPTR
   \   000002   E0           MOVX    A,@DPTR
   \   000003   3400         ADDC    A,#0x0
   \   000005   F9           MOV     R1,A
   \   000006   8882         MOV     DPL,R0
   \   000008   8983         MOV     DPH,R1
   \   00000A   E0           MOVX    A,@DPTR
   \   00000B   22           RET

   \                                 In  segment BANKED_CODE, align 1, keep-with-next
   \                     ?Subroutine0:
   \   000000   85..82       MOV     DPL,?XSP + 0
   \   000003   85..83       MOV     DPH,?XSP + 1
   \   000006   E0           MOVX    A,@DPTR
   \   000007   2403         ADD     A,#0x3
   \   000009   FA           MOV     R2,A
   \   00000A   A3           INC     DPTR
   \   00000B   E0           MOVX    A,@DPTR
   \   00000C   3400         ADDC    A,#0x0
   \   00000E   FB           MOV     R3,A
   \   00000F   8A82         MOV     DPL,R2
   \   000011   8B83         MOV     DPH,R3
   \   000013   12....       LCALL   ?Subroutine15 & 0xFFFF
   \                     ??CrossCallReturnLabel_27:
   \   000016   22           RET

   \                                 In  segment BANKED_CODE, align 1, keep-with-next
   \                     ?Subroutine15:
   \   000000   E0           MOVX    A,@DPTR
   \   000001   F8           MOV     R0,A
   \   000002   A3           INC     DPTR
   \   000003   E0           MOVX    A,@DPTR
   \   000004   F9           MOV     R1,A
   \   000005   E8           MOV     A,R0
   \   000006   49           ORL     A,R1
   \   000007   22           RET
    305          #else  // ifdef MT_MAC_CB_FUNC
    306          {
    307            /* Check if MT has subscribed for this callback If so, pass it as an event to MonitorTest */
    308            switch (pData->hdr.event)
    309            {
    310              case MAC_MLME_ASSOCIATE_IND:
    311                if ( _macCallbackSub & CB_ID_NWK_ASSOCIATE_IND )
    312                  nwk_MTCallbackSubNwkAssociateInd ( (ZMacAssociateInd_t *)pData );
    313                break;
    314          
    315              case MAC_MLME_ASSOCIATE_CNF:
    316                if ( _macCallbackSub & CB_ID_NWK_ASSOCIATE_CNF )
    317                  nwk_MTCallbackSubNwkAssociateCnf ( (ZMacAssociateCnf_t *)pData );
    318                break;
    319          
    320              case MAC_MLME_DISASSOCIATE_IND:
    321                if ( _macCallbackSub & CB_ID_NWK_DISASSOCIATE_IND )
    322                  nwk_MTCallbackSubNwkDisassociateInd ( (ZMacDisassociateInd_t *)pData );
    323                break;
    324          
    325              case MAC_MLME_DISASSOCIATE_CNF:
    326                if ( _macCallbackSub & CB_ID_NWK_DISASSOCIATE_CNF )
    327                  nwk_MTCallbackSubNwkDisassociateCnf ( (ZMacDisassociateCnf_t *)pData );
    328                break;
    329          
    330              case MAC_MLME_BEACON_NOTIFY_IND:
    331                if ( _macCallbackSub & CB_ID_NWK_BEACON_NOTIFY_IND )
    332                  nwk_MTCallbackSubNwkBeaconNotifyInd( (ZMacBeaconNotifyInd_t *)pData );
    333                break;
    334          
    335              case MAC_MLME_ORPHAN_IND:
    336                if ( _macCallbackSub & CB_ID_NWK_ORPHAN_IND )
    337                  nwk_MTCallbackSubNwkOrphanInd( (ZMacOrphanInd_t *) pData );
    338                break;
    339          
    340              case MAC_MLME_SCAN_CNF:
    341                if ( _macCallbackSub & CB_ID_NWK_SCAN_CNF )
    342                {
    343                  pData->scanCnf.result.pEnergyDetect = ZMac_ScanBuf;
    344                  nwk_MTCallbackSubNwkScanCnf ( (ZMacScanCnf_t *) pData );
    345                }
    346          
    347                if (ZMac_ScanBuf != NULL)
    348                {
    349                  void *pTmp = ZMac_ScanBuf;
    350                  ZMac_ScanBuf = NULL;
    351                  osal_mem_free(pTmp);
    352                }
    353                break;
    354          
    355              case MAC_MLME_START_CNF:
    356                if ( _macCallbackSub & CB_ID_NWK_START_CNF )
    357                  nwk_MTCallbackSubNwkStartCnf ( pData->hdr.status );
    358                break;
    359          
    360              case MAC_MLME_SYNC_LOSS_IND:
    361                if ( _macCallbackSub & CB_ID_NWK_SYNC_LOSS_IND )
    362                 nwk_MTCallbackSubNwkSyncLossInd( (ZMacSyncLossInd_t *) pData );
    363                break;
    364          
    365              case MAC_MLME_POLL_CNF:
    366                if ( _macCallbackSub & CB_ID_NWK_POLL_CNF )
    367                   nwk_MTCallbackSubNwkPollCnf( pData->hdr.status );
    368                break;
    369          
    370              case MAC_MLME_COMM_STATUS_IND:
    371                if ( _macCallbackSub & CB_ID_NWK_COMM_STATUS_IND )
    372                  nwk_MTCallbackSubCommStatusInd ( (ZMacCommStatusInd_t *) pData );
    373                break;
    374          
    375              case MAC_MCPS_DATA_CNF:
    376                if (pData->dataCnf.pDataReq != NULL)
    377                  mac_msg_deallocate((uint8**)&pData->dataCnf.pDataReq);
    378          
    379                if ( _macCallbackSub & CB_ID_NWK_DATA_CNF )
    380                  nwk_MTCallbackSubNwkDataCnf( (ZMacDataCnf_t *) pData );
    381                break;
    382          
    383              case MAC_MCPS_DATA_IND:
    384                {
    385                  /*
    386                     Data Ind is unconventional: to save an alloc/copy, reuse the MAC
    387                     buffer and re-organize the contents into ZMAC format.
    388                  */
    389                  ZMacDataInd_t *pDataInd = (ZMacDataInd_t *) pData;
    390                  uint8 event, status, len, *msdu;
    391          
    392                  /* Store parameters */
    393                  event = pData->hdr.event;
    394                  status = pData->hdr.status;
    395                  len = pData->dataInd.msdu.len;
    396                  msdu = pData->dataInd.msdu.p;
    397          
    398                  /* Copy security fields */
    399                  osal_memcpy(&pDataInd->Sec, &pData->dataInd.sec, sizeof(ZMacSec_t));
    400                  
    401                  /* Copy mac fields one by one since the two buffers overlap. */
    402                  osal_memcpy(&pDataInd->SrcAddr, &pData->dataInd.mac.srcAddr, sizeof(zAddrType_t));
    403                  osal_memcpy(&pDataInd->DstAddr, &pData->dataInd.mac.dstAddr, sizeof(zAddrType_t));
    404                  pDataInd->Timestamp = pData->dataInd.mac.timestamp;
    405                  pDataInd->Timestamp2 = pData->dataInd.mac.timestamp2;
    406                  pDataInd->SrcPANId = pData->dataInd.mac.srcPanId;
    407                  pDataInd->DstPANId = pData->dataInd.mac.dstPanId;
    408                  pDataInd->mpduLinkQuality = pData->dataInd.mac.mpduLinkQuality;
    409                  pDataInd->Correlation = pData->dataInd.mac.correlation;
    410                  pDataInd->Rssi = pData->dataInd.mac.rssi;
    411                  pDataInd->Dsn = pData->dataInd.mac.dsn;
    412          
    413                  /* Restore parameters */
    414                  pDataInd->hdr.Status = status;
    415                  pDataInd->hdr.Event = event;
    416                  pDataInd->msduLength = len;
    417          
    418                  if (len)
    419                    pDataInd->msdu = msdu;
    420                  else
    421                    pDataInd->msdu = NULL;
    422          
    423                  if ( _macCallbackSub & CB_ID_NWK_DATA_IND )
    424                    nwk_MTCallbackSubNwkDataInd ( pDataInd );
    425                }
    426          
    427                /* free buffer */
    428                mac_msg_deallocate( (uint8 **)&pData );
    429                break;
    430          
    431              case MAC_MCPS_PURGE_CNF:
    432                if ( _macCallbackSub & CB_ID_NWK_PURGE_CNF )
    433                  nwk_MTCallbackSubNwkPurgeCnf( (ZMacPurgeCnf_t *) pData);
    434                break;
    435          
    436              default:
    437                break;
    438            }
    439          }
    440          #endif
    441          
    442          /********************************************************************************************************
    443           * @fn      MAC_CbackCheckPending
    444           *
    445           * @brief   Return number of pending indirect msg
    446           *
    447           * @param   None
    448           *
    449           * @return  Number of indirect msg holding
    450           ********************************************************************************************************/

   \                                 In  segment BANKED_CODE, align 1, keep-with-next
    451          uint8 MAC_CbackCheckPending(void)
   \                     MAC_CbackCheckPending:
    452          {
   \   000000                ; Saved register size: 0
   \   000000                ; Auto size: 0
    453          #if !defined (NONWK)
    454            if ( ZSTACK_ROUTER_BUILD )
    455            {
    456              return (nwkDB_ReturnIndirectHoldingCnt());
    457            }
    458            else
    459            {
    460              return (0);
   \   000000   7900         MOV     R1,#0x0
   \   000002   02....       LJMP    ?BRET
    461            }
    462          #else
    463            return (0);
    464          #endif
    465          }
    466          
    467          /********************************************************************************************************
    468           * @fn      ZMacLqiAdjustMode
    469           *
    470           * @brief   Sets/return LQI adjust mode
    471           *
    472           * @param   mode - LQI_ADJ_GET = return current mode only
    473           *                 LQI_ADJ_OFF = disable LQI adjusts
    474           *                 LQI_ADJ_MODEx = set to LQI adjust MODEx
    475           *
    476           * @return  current LQI adjust mode
    477           ********************************************************************************************************/

   \                                 In  segment BANKED_CODE, align 1, keep-with-next
    478          ZMacLqiAdjust_t ZMacLqiAdjustMode( ZMacLqiAdjust_t mode )
   \                     ZMacLqiAdjustMode:
    479          {
   \   000000   C082         PUSH    DPL
   \   000002   C083         PUSH    DPH
   \   000004                ; Saved register size: 2
   \   000004                ; Auto size: 0
   \   000004   E9           MOV     A,R1
   \   000005   F8           MOV     R0,A
    480            if ( mode != LQI_ADJ_GET )
   \   000006   74FF         MOV     A,#-0x1
   \   000008   68           XRL     A,R0
   \   000009   6005         JZ      ??ZMacLqiAdjustMode_0
    481            {
    482              lqiAdjMode = mode;
   \   00000B   E8           MOV     A,R0
   \   00000C   90....       MOV     DPTR,#lqiAdjMode
   \   00000F   F0           MOVX    @DPTR,A
    483            }
    484            return ( lqiAdjMode );
   \                     ??ZMacLqiAdjustMode_0:
   \   000010   90....       MOV     DPTR,#lqiAdjMode
   \   000013   E0           MOVX    A,@DPTR
   \   000014   F9           MOV     R1,A
   \   000015   D083         POP     DPH
   \   000017   D082         POP     DPL
   \   000019   02....       LJMP    ?BRET
    485          }

   \                                 In  segment BANK_RELAYS, align 1
   \                     ??MAC_CbackEvent?relay:
   \   000000   12....       LCALL   ?BDISPATCH
   \   000003   ......       DC24    MAC_CbackEvent

   \                                 In  segment BANK_RELAYS, align 1
   \                     ??MAC_CbackCheckPending?relay:
   \   000000   12....       LCALL   ?BDISPATCH
   \   000003   ......       DC24    MAC_CbackCheckPending

   \                                 In  segment BANK_RELAYS, align 1
   \                     ??ZMacLqiAdjustMode?relay:
   \   000000   12....       LCALL   ?BDISPATCH
   \   000003   ......       DC24    ZMacLqiAdjustMode
    486          
    487          #if !defined NONWK
    488          /********************************************************************************************************
    489           * @fn      ZMacLqiAdjust
    490           *
    491           * @brief   Adjust LQI according to correlation value
    492           *
    493           * @notes - the IEEE 802.15.4 specification provides some general statements on
    494           *          the subject of LQI. Section 6.7.8: "The minimum and maximum LQI values
    495           *          (0x00 and 0xFF) should be associated with the lowest and highest IEEE
    496           *          802.15.4 signals detectable by the receiver, and LQ values should be
    497           *          uniformly distributed between these two limits." Section E.2.3: "The
    498           *          LQI (see 6.7.8) measures the received energy and/or SNR for each
    499           *          received packet. When energy level and SNR information are combined,
    500           *          they can indicate whether a corrupt packet resulted from low signal
    501           *          strength or from high signal strength plus interference."
    502           *        - LQI Adjustment Mode1 provided below is a simple algorithm to use the
    503           *          packet correlation value (related to SNR) to scale incoming LQI value
    504           *          (related to signal strength) to 'derate' noisy packets.
    505           *        - LQI Adjustment Mode2 provided below is a location for a developer to
    506           *          implement their own proprietary LQI adjustment algorithm.
    507           *
    508           * @param   corr - packet correlation value
    509           * @param   lqi  - ptr to link quality (scaled rssi)
    510           *
    511           * @return  *lqi - adjusted link quality
    512           ********************************************************************************************************/
    513          static void ZMacLqiAdjust( uint8 corr, uint8 *lqi )
    514          {
    515            if ( lqiAdjMode != LQI_ADJ_OFF )
    516            {
    517              uint16 adjLqi = *lqi;
    518          
    519              // Keep correlation within theoretical limits
    520              if ( corr < LQI_CORR_MIN )
    521              {
    522                 corr = LQI_CORR_MIN;
    523              }
    524              else if ( corr > LQI_CORR_MAX )
    525              {
    526                 corr = LQI_CORR_MAX;
    527              }
    528          
    529              if ( lqiAdjMode == LQI_ADJ_MODE1 )
    530              {
    531                /* MODE1 - linear scaling of incoming LQI with a "correlation percentage"
    532                           which is computed from the incoming correlation value between
    533                           theorectical minimum/maximum values. This is a very simple way
    534                           of 'derating' the incoming LQI as correlation value drops. */
    535                adjLqi = (adjLqi * (corr - LQI_CORR_MIN)) / (LQI_CORR_MAX - LQI_CORR_MIN);
    536              }
    537              else if ( lqiAdjMode == LQI_ADJ_MODE2 )
    538              {
    539                /* MODE2 - location for developer to implement a proprietary algorithm */
    540              }
    541          
    542              // Replace incoming LQI with scaled value
    543              *lqi = (adjLqi > 255) ? 255 : (uint8)adjLqi;
    544            }
    545          }
    546          #endif

   Maximum stack usage in bytes:

     Function                ISTACK PSTACK XSTACK
     --------                ------ ------ ------
     MAC_CbackCheckPending       0      0      0
     MAC_CbackEvent              1      0     26
       -> MAC_MlmeGetReq         0      0     46
       -> mac_msg_deallocate     0      0     46
       -> osal_msg_allocate      0      0     46
       -> mac_msg_deallocate     0      0     46
       -> osal_msg_allocate      0      0     46
       -> osal_memcpy            0      0     52
       -> osal_memcpy            0      0     52
       -> osal_memcpy            0      0     52
       -> osal_memcpy            0      0     52
       -> osal_memcpy            0      0     52
       -> osal_mem_free          0      0     46
       -> nwk_broadcastSend      0      0     46
       -> osal_msg_send          0      0     46
       -> mac_msg_deallocate     0      0     46
     ZMacLqiAdjustMode           2      0      0


   Segment part sizes:

     Function/Label                Bytes
     --------------                -----
     _A_IEN0                          1
     zmacCBSizeTable                 17
     lqiAdjMode                       1
     pZMac_AppCallback                2
     MAC_CbackEvent                1002
     ?Subroutine13                   11
     ?Subroutine12                   11
     ?Subroutine11                    1
     ??Subroutine16_0                 6
     ?Subroutine10                   12
     ?Subroutine9                    30
     ?Subroutine8                    12
     ?Subroutine7                     9
     ?Subroutine6                     8
     ??Subroutine17_0                 1
     ??Subroutine18_0                 6
     ?Subroutine5                    14
     ?Subroutine4                     4
     ?Subroutine14                    6
     ??Subroutine19_0                11
     ?Subroutine3                     5
     ?Subroutine2                     8
     ?Subroutine1                    12
     ?Subroutine0                    23
     ?Subroutine15                    8
     MAC_CbackCheckPending            5
     ZMacLqiAdjustMode               28
     ??MAC_CbackEvent?relay           6
     ??MAC_CbackCheckPending?relay    6
     ??ZMacLqiAdjustMode?relay        6

 
 1 233 bytes in segment BANKED_CODE
    18 bytes in segment BANK_RELAYS
    17 bytes in segment CODE_C
     1 byte  in segment SFR_AN
     3 bytes in segment XDATA_Z
 
 1 268 bytes of CODE  memory
     0 bytes of DATA  memory (+ 1 byte shared)
     3 bytes of XDATA memory

Errors: none
Warnings: none
