///////////////////////////////////////////////////////////////////////////////
//                                                                            /
// IAR C/C++ Compiler V8.10.1.10194/W32 for 8051        08/Aug/2017  09:24:58 /
// Copyright 2004-2011 IAR Systems AB.                                        /
//                                                                            /
//    Core               =  plain                                             /
//    Code model         =  banked                                            /
//    Data model         =  large                                             /
//    Calling convention =  xdata reentrant                                   /
//    Constant location  =  data_rom                                          /
//    Dptr setup         =  1,16                                              /
//    Source file        =  D:\work space\Smart Product\Two YHY\Door\v1.03.0  /
//                           Green\ZStack-CC2530-2.5.1a\Components\zmac\f8w\z /
//                          mac_cb.c                                          /
//    Command line       =  -f "D:\work space\Smart Product\Two               /
//                          YHY\Door\v1.03.0  Green\ZStack-CC2530-2.5.1a\Proj /
//                          ects\zstack\HomeAutomation\SmartDoor\CC2530DB\..\ /
//                          Tools\CC2530DB\f8wEndev.cfg" (-DCPU32MHZ          /
//                          -DROOT=__near_func -DMAC_CFG_TX_DATA_MAX=3        /
//                          -DMAC_CFG_TX_MAX=6 -DMAC_CFG_RX_MAX=3             /
//                          -DHAL_KEY=FALSE -DHAL_LED=FALSE -DHAL_LCD=FALSE   /
//                          -DHAL_ADC=FALSE -DNV_RESTORE -DNV_INIT            /
//                          -DPOWER_SAVING -DTC_LINKKEY_JOIN) -f "D:\work     /
//                          space\Smart Product\Two YHY\Door\v1.03.0          /
//                          Green\ZStack-CC2530-2.5.1a\Projects\zstack\HomeAu /
//                          tomation\SmartDoor\CC2530DB\..\Tools\CC2530DB\f8w /
//                          Config.cfg" (-DZIGBEEPRO -DSECURE=1               /
//                          -DZG_SECURE_DYNAMIC=0 -DREFLECTOR                 /
//                          -DDEFAULT_CHANLIST=0x06108800                     /
//                          -DZDAPP_CONFIG_PAN_ID=0xFFFF                      /
//                          -DNWK_START_DELAY=100 -DEXTENDED_JOINING_RANDOM_M /
//                          ASK=0x007F -DBEACON_REQUEST_DELAY=100             /
//                          -DBEACON_REQ_DELAY_MASK=0x00FF                    /
//                          -DLINK_STATUS_JITTER_MASK=0x007F                  /
//                          -DROUTE_EXPIRY_TIME=30 -DAPSC_ACK_WAIT_DURATION_P /
//                          OLLED=3000 -DNWK_INDIRECT_MSG_TIMEOUT=7           /
//                          -DMAX_RREQ_ENTRIES=8 -DAPSC_MAX_FRAME_RETRIES=3   /
//                          -DNWK_MAX_DATA_RETRIES=2                          /
//                          -DMAX_POLL_FAILURE_RETRIES=2 -DMAX_BCAST=9        /
//                          -DAPS_MAX_GROUPS=16 -DMAX_RTG_ENTRIES=40          /
//                          -DNWK_MAX_BINDING_ENTRIES=4                       /
//                          -DMAX_BINDING_CLUSTER_IDS=4                       /
//                          -DDEFAULT_KEY={0x58,0x69,0x6E,0x67,0x48,0x75,     /
//                          0x6F,0x59,0x75,0x61,0x6E,0x53,0x6D,0x61,0x72,     /
//                          0x74} -DMAC_MAX_FRAME_SIZE=116                    /
//                          -DZDNWKMGR_MIN_TRANSMISSIONS=20 "-DCONST=const    /
//                          __code" -DGENERIC=__generic                       /
//                          -DRFD_RCVC_ALWAYS_ON=FALSE -DPOLL_RATE=0          /
//                          -DQUEUED_POLL_RATE=0 -DRESPONSE_POLL_RATE=0       /
//                          -DREJOIN_POLL_RATE=440) -f "D:\work space\Smart   /
//                          Product\Two YHY\Door\v1.03.0                      /
//                          Green\ZStack-CC2530-2.5.1a\Projects\zstack\HomeAu /
//                          tomation\SmartDoor\CC2530DB\..\Tools\CC2530DB\f8w /
//                          ZCL.cfg" (-DZCL_READ -DZCL_WRITE -DZCL_REPORT     /
//                          -DZCL_BASIC -DZCL_IDENTIFY -DZCL_ON_OFF           /
//                          -DZCL_KEY_ESTABLISH -DZCL_KEY_ESTABLISHMENT_KEY_G /
//                          ENERATE_TIMEOUT=4 -DZCL_KEY_ESTABLISHMENT_MAC_GEN /
//                          ERATE_TIMEOUT=10 -DZCL_KEY_ESTABLISHMENT_EKEY_GEN /
//                          ERATE_TIMEOUT=10 -DZCL_LOAD_CONTROL               /
//                          -DZCL_SIMPLE_METERING -DZCL_PRICING               /
//                          -DZCL_MESSAGE -DZCL_TUNNELING -DZCL_TOU)          /
//                          -DZCL_DEVICE_MGMT "D:\work space\Smart            /
//                          Product\Two YHY\Door\v1.03.0                      /
//                          Green\ZStack-CC2530-2.5.1a\Components\zmac\f8w\zm /
//                          ac_cb.c" -lC "D:\work space\Smart Product\Two     /
//                          YHY\Door\v1.03.0  Green\ZStack-CC2530-2.5.1a\Proj /
//                          ects\zstack\HomeAutomation\SmartDoor\CC2530DB\End /
//                          DeviceEB\List\" -lA "D:\work space\Smart          /
//                          Product\Two YHY\Door\v1.03.0                      /
//                          Green\ZStack-CC2530-2.5.1a\Projects\zstack\HomeAu /
//                          tomation\SmartDoor\CC2530DB\EndDeviceEB\List\"    /
//                          --diag_suppress Pe001,Pa010 -o "D:\work           /
//                          space\Smart Product\Two YHY\Door\v1.03.0          /
//                          Green\ZStack-CC2530-2.5.1a\Projects\zstack\HomeAu /
//                          tomation\SmartDoor\CC2530DB\EndDeviceEB\Obj\" -e  /
//                          --debug --core=plain --dptr=16,1                  /
//                          --data_model=large --code_model=banked            /
//                          --calling_convention=xdata_reentrant              /
//                          --place_constants=data_rom --nr_virtual_regs 16   /
//                          -I "D:\work space\Smart Product\Two               /
//                          YHY\Door\v1.03.0  Green\ZStack-CC2530-2.5.1a\Proj /
//                          ects\zstack\HomeAutomation\SmartDoor\CC2530DB\"   /
//                          -I "D:\work space\Smart Product\Two               /
//                          YHY\Door\v1.03.0  Green\ZStack-CC2530-2.5.1a\Proj /
//                          ects\zstack\HomeAutomation\SmartDoor\CC2530DB\..\ /
//                          Source\" -I "D:\work space\Smart Product\Two      /
//                          YHY\Door\v1.03.0  Green\ZStack-CC2530-2.5.1a\Proj /
//                          ects\zstack\HomeAutomation\SmartDoor\CC2530DB\..\ /
//                          ..\Source\" -I "D:\work space\Smart Product\Two   /
//                          YHY\Door\v1.03.0  Green\ZStack-CC2530-2.5.1a\Proj /
//                          ects\zstack\HomeAutomation\SmartDoor\CC2530DB\..\ /
//                          ..\..\ZMain\TI2530DB\" -I "D:\work space\Smart    /
//                          Product\Two YHY\Door\v1.03.0                      /
//                          Green\ZStack-CC2530-2.5.1a\Projects\zstack\HomeAu /
//                          tomation\SmartDoor\CC2530DB\..\..\..\..\..\Compon /
//                          ents\hal\include\" -I "D:\work space\Smart        /
//                          Product\Two YHY\Door\v1.03.0                      /
//                          Green\ZStack-CC2530-2.5.1a\Projects\zstack\HomeAu /
//                          tomation\SmartDoor\CC2530DB\..\..\..\..\..\Compon /
//                          ents\hal\target\CC2530EB\" -I "D:\work            /
//                          space\Smart Product\Two YHY\Door\v1.03.0          /
//                          Green\ZStack-CC2530-2.5.1a\Projects\zstack\HomeAu /
//                          tomation\SmartDoor\CC2530DB\..\..\..\..\..\Compon /
//                          ents\mac\include\" -I "D:\work space\Smart        /
//                          Product\Two YHY\Door\v1.03.0                      /
//                          Green\ZStack-CC2530-2.5.1a\Projects\zstack\HomeAu /
//                          tomation\SmartDoor\CC2530DB\..\..\..\..\..\Compon /
//                          ents\mac\high_level\" -I "D:\work space\Smart     /
//                          Product\Two YHY\Door\v1.03.0                      /
//                          Green\ZStack-CC2530-2.5.1a\Projects\zstack\HomeAu /
//                          tomation\SmartDoor\CC2530DB\..\..\..\..\..\Compon /
//                          ents\mac\low_level\srf04\" -I "D:\work            /
//                          space\Smart Product\Two YHY\Door\v1.03.0          /
//                          Green\ZStack-CC2530-2.5.1a\Projects\zstack\HomeAu /
//                          tomation\SmartDoor\CC2530DB\..\..\..\..\..\Compon /
//                          ents\mac\low_level\srf04\single_chip\" -I         /
//                          "D:\work space\Smart Product\Two                  /
//                          YHY\Door\v1.03.0  Green\ZStack-CC2530-2.5.1a\Proj /
//                          ects\zstack\HomeAutomation\SmartDoor\CC2530DB\..\ /
//                          ..\..\..\..\Components\mt\" -I "D:\work           /
//                          space\Smart Product\Two YHY\Door\v1.03.0          /
//                          Green\ZStack-CC2530-2.5.1a\Projects\zstack\HomeAu /
//                          tomation\SmartDoor\CC2530DB\..\..\..\..\..\Compon /
//                          ents\osal\include\" -I "D:\work space\Smart       /
//                          Product\Two YHY\Door\v1.03.0                      /
//                          Green\ZStack-CC2530-2.5.1a\Projects\zstack\HomeAu /
//                          tomation\SmartDoor\CC2530DB\..\..\..\..\..\Compon /
//                          ents\services\saddr\" -I "D:\work space\Smart     /
//                          Product\Two YHY\Door\v1.03.0                      /
//                          Green\ZStack-CC2530-2.5.1a\Projects\zstack\HomeAu /
//                          tomation\SmartDoor\CC2530DB\..\..\..\..\..\Compon /
//                          ents\services\sdata\" -I "D:\work space\Smart     /
//                          Product\Two YHY\Door\v1.03.0                      /
//                          Green\ZStack-CC2530-2.5.1a\Projects\zstack\HomeAu /
//                          tomation\SmartDoor\CC2530DB\..\..\..\..\..\Compon /
//                          ents\stack\af\" -I "D:\work space\Smart           /
//                          Product\Two YHY\Door\v1.03.0                      /
//                          Green\ZStack-CC2530-2.5.1a\Projects\zstack\HomeAu /
//                          tomation\SmartDoor\CC2530DB\..\..\..\..\..\Compon /
//                          ents\stack\nwk\" -I "D:\work space\Smart          /
//                          Product\Two YHY\Door\v1.03.0                      /
//                          Green\ZStack-CC2530-2.5.1a\Projects\zstack\HomeAu /
//                          tomation\SmartDoor\CC2530DB\..\..\..\..\..\Compon /
//                          ents\stack\sapi\" -I "D:\work space\Smart         /
//                          Product\Two YHY\Door\v1.03.0                      /
//                          Green\ZStack-CC2530-2.5.1a\Projects\zstack\HomeAu /
//                          tomation\SmartDoor\CC2530DB\..\..\..\..\..\Compon /
//                          ents\stack\sec\" -I "D:\work space\Smart          /
//                          Product\Two YHY\Door\v1.03.0                      /
//                          Green\ZStack-CC2530-2.5.1a\Projects\zstack\HomeAu /
//                          tomation\SmartDoor\CC2530DB\..\..\..\..\..\Compon /
//                          ents\stack\sys\" -I "D:\work space\Smart          /
//                          Product\Two YHY\Door\v1.03.0                      /
//                          Green\ZStack-CC2530-2.5.1a\Projects\zstack\HomeAu /
//                          tomation\SmartDoor\CC2530DB\..\..\..\..\..\Compon /
//                          ents\stack\zcl\" -I "D:\work space\Smart          /
//                          Product\Two YHY\Door\v1.03.0                      /
//                          Green\ZStack-CC2530-2.5.1a\Projects\zstack\HomeAu /
//                          tomation\SmartDoor\CC2530DB\..\..\..\..\..\Compon /
//                          ents\stack\zdo\" -I "D:\work space\Smart          /
//                          Product\Two YHY\Door\v1.03.0                      /
//                          Green\ZStack-CC2530-2.5.1a\Projects\zstack\HomeAu /
//                          tomation\SmartDoor\CC2530DB\..\..\..\..\..\Compon /
//                          ents\zmac\" -I "D:\work space\Smart Product\Two   /
//                          YHY\Door\v1.03.0  Green\ZStack-CC2530-2.5.1a\Proj /
//                          ects\zstack\HomeAutomation\SmartDoor\CC2530DB\..\ /
//                          ..\..\..\..\Components\zmac\f8w\" -Oh             /
//                          --require_prototypes                              /
//    List file          =  D:\work space\Smart Product\Two YHY\Door\v1.03.0  /
//                           Green\ZStack-CC2530-2.5.1a\Projects\zstack\HomeA /
//                          utomation\SmartDoor\CC2530DB\EndDeviceEB\List\zma /
//                          c_cb.s51                                          /
//                                                                            /
//                                                                            /
///////////////////////////////////////////////////////////////////////////////

        NAME zmac_cb

        RTMODEL "__SystemLibrary", "CLib"
        RTMODEL "__calling_convention", "xdata_reentrant"
        RTMODEL "__code_model", "banked"
        RTMODEL "__core", "plain"
        RTMODEL "__data_model", "large"
        RTMODEL "__dptr_size", "16"
        RTMODEL "__extended_stack", "disabled"
        RTMODEL "__location_for_constants", "data"
        RTMODEL "__number_of_dptrs", "1"
        RTMODEL "__rt_version", "1"

        RSEG DOVERLAY:DATA:NOROOT(0)
        RSEG IOVERLAY:IDATA:NOROOT(0)
        RSEG ISTACK:IDATA:NOROOT(0)
        RSEG PSTACK:XDATA:NOROOT(0)
        RSEG XSTACK:XDATA:NOROOT(0)

        EXTERN ?ALLOC_XSTACK8
        EXTERN ?BANKED_ENTER_XDATA
        EXTERN ?BANKED_LEAVE_XDATA
        EXTERN ?BDISPATCH
        EXTERN ?BRET
        EXTERN ?CALL_IND
        EXTERN ?DEALLOC_XSTACK8
        EXTERN ?PUSH_XSTACK_I_THREE
        EXTERN ?US_DIV_MOD
        EXTERN ?V0
        EXTERN ?XSP
        EXTERN ?XSTACK_DISP0_8
        EXTERN __INIT_XDATA_Z

        PUBLIC ??MAC_CbackCheckPending?relay
        FUNCTION ??MAC_CbackCheckPending?relay,0203H
        PUBLIC ??MAC_CbackEvent?relay
        FUNCTION ??MAC_CbackEvent?relay,0203H
        PUBLIC ??ZMacLqiAdjustMode?relay
        FUNCTION ??ZMacLqiAdjustMode?relay,0203H
        PUBLIC MAC_CbackCheckPending
        FUNCTION MAC_CbackCheckPending,0203H
        ARGFRAME XSTACK, 0, STACK
        PUBLIC MAC_CbackEvent
        FUNCTION MAC_CbackEvent,021203H
        ARGFRAME XSTACK, 0, STACK
        LOCFRAME ISTACK, 1, STACK
        LOCFRAME XSTACK, 26, STACK
        PUBLIC ZMacLqiAdjustMode
        FUNCTION ZMacLqiAdjustMode,0203H
        ARGFRAME XSTACK, 0, STACK
        LOCFRAME ISTACK, 2, STACK
        PUBWEAK _A_IEN0
        PUBLIC pZMac_AppCallback
        PUBLIC zmacCBSizeTable
        
        CFI Names cfiNames0
        CFI StackFrame CFA_SP SP IDATA
        CFI StackFrame CFA_PSP16 PSP16 XDATA
        CFI StackFrame CFA_XSP16 XSP16 XDATA
        CFI StaticOverlayFrame CFA_IOVERLAY IOVERLAY
        CFI StaticOverlayFrame CFA_DOVERLAY DOVERLAY
        CFI Resource `PSW.CY`:1, `B.BR0`:1, `B.BR1`:1, `B.BR2`:1, `B.BR3`:1
        CFI Resource `B.BR4`:1, `B.BR5`:1, `B.BR6`:1, `B.BR7`:1, `VB.BR8`:1
        CFI Resource `VB.BR9`:1, `VB.BR10`:1, `VB.BR11`:1, `VB.BR12`:1
        CFI Resource `VB.BR13`:1, `VB.BR14`:1, `VB.BR15`:1, VB:8, B:8, A:8
        CFI Resource PSW:8, DPL0:8, DPH0:8, R0:8, R1:8, R2:8, R3:8, R4:8, R5:8
        CFI Resource R6:8, R7:8, V0:8, V1:8, V2:8, V3:8, V4:8, V5:8, V6:8, V7:8
        CFI Resource V8:8, V9:8, V10:8, V11:8, V12:8, V13:8, V14:8, V15:8, SP:8
        CFI Resource PSPH:8, PSPL:8, PSP16:16, XSPH:8, XSPL:8, XSP16:16
        CFI VirtualResource ?RET:24
        CFI Resource ?BRET_EXT:8
        CFI VirtualResource ?RET_HIGH:8, ?RET_LOW:8
        CFI ResourceParts PSP16 PSPH, PSPL
        CFI ResourceParts XSP16 XSPH, XSPL
        CFI ResourceParts ?RET ?BRET_EXT, ?RET_HIGH, ?RET_LOW
        CFI EndNames cfiNames0
        
        CFI Common cfiCommon0 Using cfiNames0
        CFI CodeAlign 1
        CFI DataAlign -1
        CFI ReturnAddress ?RET CODE
        CFI CFA_DOVERLAY Used
        CFI CFA_IOVERLAY Used
        CFI CFA_SP SP+-3
        CFI CFA_PSP16 PSP16+0
        CFI CFA_XSP16 XSP16+0
        CFI `PSW.CY` SameValue
        CFI `B.BR0` SameValue
        CFI `B.BR1` SameValue
        CFI `B.BR2` SameValue
        CFI `B.BR3` SameValue
        CFI `B.BR4` SameValue
        CFI `B.BR5` SameValue
        CFI `B.BR6` SameValue
        CFI `B.BR7` SameValue
        CFI `VB.BR8` SameValue
        CFI `VB.BR9` SameValue
        CFI `VB.BR10` SameValue
        CFI `VB.BR11` SameValue
        CFI `VB.BR12` SameValue
        CFI `VB.BR13` SameValue
        CFI `VB.BR14` SameValue
        CFI `VB.BR15` SameValue
        CFI VB SameValue
        CFI B Undefined
        CFI A Undefined
        CFI PSW SameValue
        CFI DPL0 SameValue
        CFI DPH0 SameValue
        CFI R0 Undefined
        CFI R1 Undefined
        CFI R2 Undefined
        CFI R3 Undefined
        CFI R4 Undefined
        CFI R5 Undefined
        CFI R6 SameValue
        CFI R7 SameValue
        CFI V0 SameValue
        CFI V1 SameValue
        CFI V2 SameValue
        CFI V3 SameValue
        CFI V4 SameValue
        CFI V5 SameValue
        CFI V6 SameValue
        CFI V7 SameValue
        CFI V8 SameValue
        CFI V9 SameValue
        CFI V10 SameValue
        CFI V11 SameValue
        CFI V12 SameValue
        CFI V13 SameValue
        CFI V14 SameValue
        CFI V15 SameValue
        CFI PSPH Undefined
        CFI PSPL Undefined
        CFI XSPH Undefined
        CFI XSPL Undefined
        CFI ?RET Concat
        CFI ?BRET_EXT Frame(CFA_SP, 3)
        CFI ?RET_HIGH Frame(CFA_SP, 2)
        CFI ?RET_LOW Frame(CFA_SP, 1)
        CFI EndCommon cfiCommon0
        
        
        CFI Common cfiCommon1 Using cfiNames0
        CFI CodeAlign 1
        CFI DataAlign -1
        CFI ReturnAddress ?RET CODE
        CFI CFA_DOVERLAY Used
        CFI CFA_IOVERLAY Used
        CFI CFA_SP SP+-2
        CFI CFA_PSP16 PSP16+0
        CFI CFA_XSP16 XSP16+0
        CFI `PSW.CY` SameValue
        CFI `B.BR0` SameValue
        CFI `B.BR1` SameValue
        CFI `B.BR2` SameValue
        CFI `B.BR3` SameValue
        CFI `B.BR4` SameValue
        CFI `B.BR5` SameValue
        CFI `B.BR6` SameValue
        CFI `B.BR7` SameValue
        CFI `VB.BR8` SameValue
        CFI `VB.BR9` SameValue
        CFI `VB.BR10` SameValue
        CFI `VB.BR11` SameValue
        CFI `VB.BR12` SameValue
        CFI `VB.BR13` SameValue
        CFI `VB.BR14` SameValue
        CFI `VB.BR15` SameValue
        CFI VB SameValue
        CFI B SameValue
        CFI A SameValue
        CFI PSW SameValue
        CFI DPL0 SameValue
        CFI DPH0 SameValue
        CFI R0 SameValue
        CFI R1 SameValue
        CFI R2 SameValue
        CFI R3 SameValue
        CFI R4 SameValue
        CFI R5 SameValue
        CFI R6 SameValue
        CFI R7 SameValue
        CFI V0 SameValue
        CFI V1 SameValue
        CFI V2 SameValue
        CFI V3 SameValue
        CFI V4 SameValue
        CFI V5 SameValue
        CFI V6 SameValue
        CFI V7 SameValue
        CFI V8 SameValue
        CFI V9 SameValue
        CFI V10 SameValue
        CFI V11 SameValue
        CFI V12 SameValue
        CFI V13 SameValue
        CFI V14 SameValue
        CFI V15 SameValue
        CFI PSPH Undefined
        CFI PSPL Undefined
        CFI XSPH Undefined
        CFI XSPL Undefined
        CFI ?RET Concat
        CFI ?BRET_EXT SameValue
        CFI ?RET_HIGH Frame(CFA_SP, 2)
        CFI ?RET_LOW Frame(CFA_SP, 1)
        CFI EndCommon cfiCommon1
        
MAC_MlmeGetReq      SYMBOL "MAC_MlmeGetReq"
mac_msg_deallocate  SYMBOL "mac_msg_deallocate"
osal_msg_allocate   SYMBOL "osal_msg_allocate"
osal_memcpy         SYMBOL "osal_memcpy"
osal_mem_free       SYMBOL "osal_mem_free"
nwk_broadcastSend   SYMBOL "nwk_broadcastSend"
osal_msg_send       SYMBOL "osal_msg_send"
??MAC_MlmeGetReq?relay SYMBOL "?relay", MAC_MlmeGetReq
??mac_msg_deallocate?relay SYMBOL "?relay", mac_msg_deallocate
??nwk_broadcastSend?relay SYMBOL "?relay", nwk_broadcastSend
??osal_mem_free?relay SYMBOL "?relay", osal_mem_free
??osal_memcpy?relay SYMBOL "?relay", osal_memcpy
??osal_msg_allocate?relay SYMBOL "?relay", osal_msg_allocate
??osal_msg_send?relay SYMBOL "?relay", osal_msg_send
MAC_CbackCheckPending SYMBOL "MAC_CbackCheckPending"
??MAC_CbackCheckPending?relay SYMBOL "?relay", MAC_CbackCheckPending
MAC_CbackEvent      SYMBOL "MAC_CbackEvent"
??MAC_CbackEvent?relay SYMBOL "?relay", MAC_CbackEvent
ZMacLqiAdjustMode   SYMBOL "ZMacLqiAdjustMode"
??ZMacLqiAdjustMode?relay SYMBOL "?relay", ZMacLqiAdjustMode

        EXTERN MAC_MlmeGetReq
        FUNCTION MAC_MlmeGetReq,0202H
        ARGFRAME ISTACK, 0, STACK
        ARGFRAME PSTACK, 0, STACK
        ARGFRAME XSTACK, 23, STACK
        ARGFRAME IOVERLAY, 0, STATIC
        ARGFRAME DOVERLAY, 0, STATIC
        EXTERN mac_msg_deallocate
        FUNCTION mac_msg_deallocate,0202H
        ARGFRAME ISTACK, 0, STACK
        ARGFRAME PSTACK, 0, STACK
        ARGFRAME XSTACK, 23, STACK
        ARGFRAME IOVERLAY, 0, STATIC
        ARGFRAME DOVERLAY, 0, STATIC
        EXTERN osal_msg_allocate
        FUNCTION osal_msg_allocate,0202H
        ARGFRAME ISTACK, 0, STACK
        ARGFRAME PSTACK, 0, STACK
        ARGFRAME XSTACK, 23, STACK
        ARGFRAME IOVERLAY, 0, STATIC
        ARGFRAME DOVERLAY, 0, STATIC
        EXTERN osal_memcpy
        FUNCTION osal_memcpy,0202H
        ARGFRAME ISTACK, 0, STACK
        ARGFRAME PSTACK, 0, STACK
        ARGFRAME XSTACK, 26, STACK
        ARGFRAME IOVERLAY, 0, STATIC
        ARGFRAME DOVERLAY, 0, STATIC
        EXTERN osal_mem_free
        FUNCTION osal_mem_free,0202H
        ARGFRAME ISTACK, 0, STACK
        ARGFRAME PSTACK, 0, STACK
        ARGFRAME XSTACK, 23, STACK
        ARGFRAME IOVERLAY, 0, STATIC
        ARGFRAME DOVERLAY, 0, STATIC
        EXTERN nwk_broadcastSend
        FUNCTION nwk_broadcastSend,0202H
        ARGFRAME ISTACK, 0, STACK
        ARGFRAME PSTACK, 0, STACK
        ARGFRAME XSTACK, 23, STACK
        ARGFRAME IOVERLAY, 0, STATIC
        ARGFRAME DOVERLAY, 0, STATIC
        EXTERN osal_msg_send
        FUNCTION osal_msg_send,0202H
        ARGFRAME ISTACK, 0, STACK
        ARGFRAME PSTACK, 0, STACK
        ARGFRAME XSTACK, 23, STACK
        ARGFRAME IOVERLAY, 0, STATIC
        ARGFRAME DOVERLAY, 0, STATIC
        EXTERN ??MAC_MlmeGetReq?relay
        FUNCTION ??MAC_MlmeGetReq?relay,00H
        EXTERN ??mac_msg_deallocate?relay
        FUNCTION ??mac_msg_deallocate?relay,00H
        EXTERN ??nwk_broadcastSend?relay
        FUNCTION ??nwk_broadcastSend?relay,00H
        EXTERN ??osal_mem_free?relay
        FUNCTION ??osal_mem_free?relay,00H
        EXTERN ??osal_memcpy?relay
        FUNCTION ??osal_memcpy?relay,00H
        EXTERN ??osal_msg_allocate?relay
        FUNCTION ??osal_msg_allocate?relay,00H
        EXTERN ??osal_msg_send?relay
        FUNCTION ??osal_msg_send?relay,00H
        EXTERN NWK_TaskID
        EXTERN ZMac_ScanBuf
        EXTERN _NIB

// D:\work space\Smart Product\Two YHY\Door\v1.03.0  Green\ZStack-CC2530-2.5.1a\Components\zmac\f8w\zmac_cb.c
//    1 /**************************************************************************************************
//    2   Filename:       zmac_cb.c
//    3   Revised:        $Date: 2012-03-08 17:10:16 -0800 (Thu, 08 Mar 2012) $
//    4   Revision:       $Revision: 29685 $
//    5 
//    6   Description:    This file contains the NWK functions that the ZMAC calls
//    7 
//    8 
//    9   Copyright 2005-2012 Texas Instruments Incorporated. All rights reserved.
//   10 
//   11   IMPORTANT: Your use of this Software is limited to those specific rights
//   12   granted under the terms of a software license agreement between the user
//   13   who downloaded the software, his/her employer (which must be your employer)
//   14   and Texas Instruments Incorporated (the "License").  You may not use this
//   15   Software unless you agree to abide by the terms of the License. The License
//   16   limits your use, and you acknowledge, that the Software may not be modified,
//   17   copied or distributed unless embedded on a Texas Instruments microcontroller
//   18   or used solely and exclusively in conjunction with a Texas Instruments radio
//   19   frequency transceiver, which is integrated into your product.  Other than for
//   20   the foregoing purpose, you may not use, reproduce, copy, prepare derivative
//   21   works of, modify, distribute, perform, display or sell this Software and/or
//   22   its documentation for any purpose.
//   23 
//   24   YOU FURTHER ACKNOWLEDGE AND AGREE THAT THE SOFTWARE AND DOCUMENTATION ARE
//   25   PROVIDED “AS IS” WITHOUT WARRANTY OF ANY KIND, EITHER EXPRESS OR IMPLIED,
//   26   INCLUDING WITHOUT LIMITATION, ANY WARRANTY OF MERCHANTABILITY, TITLE,
//   27   NON-INFRINGEMENT AND FITNESS FOR A PARTICULAR PURPOSE. IN NO EVENT SHALL
//   28   TEXAS INSTRUMENTS OR ITS LICENSORS BE LIABLE OR OBLIGATED UNDER CONTRACT,
//   29   NEGLIGENCE, STRICT LIABILITY, CONTRIBUTION, BREACH OF WARRANTY, OR OTHER
//   30   LEGAL EQUITABLE THEORY ANY DIRECT OR INDIRECT DAMAGES OR EXPENSES
//   31   INCLUDING BUT NOT LIMITED TO ANY INCIDENTAL, SPECIAL, INDIRECT, PUNITIVE
//   32   OR CONSEQUENTIAL DAMAGES, LOST PROFITS OR LOST DATA, COST OF PROCUREMENT
//   33   OF SUBSTITUTE GOODS, TECHNOLOGY, SERVICES, OR ANY CLAIMS BY THIRD PARTIES
//   34   (INCLUDING BUT NOT LIMITED TO ANY DEFENSE THEREOF), OR OTHER SIMILAR COSTS.
//   35 
//   36   Should you have any questions regarding your right to use this Software,
//   37   contact Texas Instruments Incorporated at www.TI.com.
//   38 **************************************************************************************************/
//   39 
//   40 /********************************************************************************************************
//   41  *                                               INCLUDES
//   42  ********************************************************************************************************/
//   43 
//   44 #include "ZComDef.h"
//   45 #include "OSAL.h"
//   46 #include "ZMAC.h"
//   47 #include "MT_MAC.h"
//   48 #include "hal_mcu.h"

        ASEGN SFR_AN:DATA:NOROOT,0a8H
// union <unnamed> volatile __sfr _A_IEN0
_A_IEN0:
        DATA8
        DS 1
//   49 
//   50 #if !defined NONWK
//   51 #include "nwk.h"
//   52 #include "nwk_bufs.h"
//   53 #include "ZGlobals.h"
//   54 #endif
//   55 
//   56 #if defined( MACSIM )
//   57   #include "mac_sim.h"
//   58 #endif
//   59 
//   60 #include "mac_security.h"
//   61 
//   62 #include "mac_main.h"
//   63 extern void *ZMac_ScanBuf;
//   64 
//   65 /********************************************************************************************************
//   66  *                                               CONSTANTS
//   67  ********************************************************************************************************/
//   68 
//   69 #if !defined NONWK
//   70 /* Lookup table for size of structures. Must match with the order of MAC callback events */

        RSEG CODE_C:CODE:REORDER:NOROOT(0)
        DATA8
//   71 const uint8 CODE zmacCBSizeTable [] = {
zmacCBSizeTable:
        DB 0
        DB 22
        DB 15
        DB 0
        DB 0
        DB 11
        DB 21
        DB 11
        DB 2
        DB 0
        DB 2
        DB 34
        DB 15
        DB 50
        DB 0
        DB 0
        DB 6
//   72   0,
//   73   sizeof(ZMacAssociateInd_t),       // MAC_MLME_ASSOCIATE_IND      1   Associate indication
//   74   sizeof(ZMacAssociateCnf_t),       // MAC_MLME_ASSOCIATE_CNF      2   Associate confirm
//   75   0,                                // MAC_MLME_DISASSOCIATE_IND   3   Disassociate indication
//   76   0,                                // MAC_MLME_DISASSOCIATE_CNF   4   Disassociate confirm
//   77   sizeof(macMlmeBeaconNotifyInd_t), // MAC_MLME_BEACON_NOTIFY_IND  5   con notify indication
//   78   sizeof(ZMacOrphanInd_t),          // MAC_MLME_ORPHAN_IND         6   Orphan indication
//   79   sizeof(ZMacScanCnf_t),            // MAC_MLME_SCAN_CNF           7   Scan confirm
//   80   sizeof(ZMacStartCnf_t),           // MAC_MLME_START_CNF          8   Start confirm
//   81   0,                                // MAC_MLME_SYNC_LOSS_IND      9   Sync loss indication
//   82   sizeof(ZMacPollCnf_t),            // MAC_MLME_POLL_CNF           10  Poll confirm
//   83   sizeof(ZMacCommStatusInd_t),      // MAC_MLME_COMM_STATUS_IND    11  Comm status indication
//   84   sizeof(ZMacDataCnf_t),            // MAC_MCPS_DATA_CNF           12  Data confirm
//   85   sizeof(macMcpsDataInd_t),         // MAC_MCPS_DATA_IND           13  Data indication
//   86   0,                                // MAC_MCPS_PURGE_CNF          14  Purge confirm
//   87   0,                                // MAC_PWR_ON_CNF              15  Power on confirm
//   88   sizeof(ZMacPollInd_t)             // MAC_MLME_POLL_IND           16  Poll indication
//   89 };
//   90 #endif /* !defined NONWK */
//   91 
//   92 /********************************************************************************************************
//   93  *                                               LOCALS
//   94  ********************************************************************************************************/
//   95 
//   96 /* LQI Adjustment Mode */

        RSEG XDATA_Z:XDATA:NOROOT(0)
        DATA8
//   97 static ZMacLqiAdjust_t lqiAdjMode = LQI_ADJ_OFF;
lqiAdjMode:
        DS 1
        REQUIRE __INIT_XDATA_Z
//   98 
//   99 #if !defined NONWK
//  100 /* LQI Adjustment Function */
//  101 static void ZMacLqiAdjust( uint8 corr, uint8* lqi );
//  102 #endif
//  103 
//  104 /*********************************************************************
//  105  * ZMAC Function Pointers
//  106  */
//  107 
//  108 /*
//  109  * ZMac Application callback function. This function will be called
//  110  * for every MAC message that is received over-the-air or generated
//  111  * locally by MAC for the application.
//  112  *
//  113  * The callback function should return TRUE if it has handled the
//  114  * MAC message and no further action should be taken with it. It
//  115  * should return FALSE if it has not handled the MAC message and
//  116  * normal processing should take place.
//  117  *
//  118  * NOTE: The processing in this function should be kept to the
//  119  *       minimum.
//  120  */

        RSEG XDATA_Z:XDATA:NOROOT(0)
        DATA16
//  121 uint8 (*pZMac_AppCallback)( uint8 *msgPtr ) = (void*)NULL;
pZMac_AppCallback:
        DS 2
        REQUIRE __INIT_XDATA_Z
//  122 
//  123 
//  124 /*********************************************************************
//  125  * ZMAC Functions
//  126  */
//  127 
//  128 /**************************************************************************************************
//  129  * @fn       MAC_CbackEvent()
//  130  *
//  131  * @brief    convert MAC data confirm and indication to ZMac and send to NWK
//  132  *
//  133  * @param    pData - pointer to macCbackEvent_t
//  134  *
//  135  * @return   none
//  136  *************************************************************************************************/

        RSEG BANKED_CODE:CODE:NOROOT(0)
//  137 void MAC_CbackEvent(macCbackEvent_t *pData)
MAC_CbackEvent:
        CFI Block cfiBlock0 Using cfiCommon0
        CFI Function MAC_CbackEvent
        CODE
//  138 #ifndef MT_MAC_CB_FUNC
//  139 {
        FUNCALL MAC_CbackEvent, MAC_MlmeGetReq
        LOCFRAME ISTACK, 0, STACK
        LOCFRAME PSTACK, 0, STACK
        LOCFRAME XSTACK, 23, STACK
        LOCFRAME IOVERLAY, 0, STATIC
        LOCFRAME DOVERLAY, 0, STATIC
        ARGFRAME ISTACK, 0, STACK
        ARGFRAME PSTACK, 0, STACK
        ARGFRAME XSTACK, 23, STACK
        ARGFRAME IOVERLAY, 0, STATIC
        ARGFRAME DOVERLAY, 0, STATIC
        FUNCALL MAC_CbackEvent, mac_msg_deallocate
        LOCFRAME ISTACK, 0, STACK
        LOCFRAME PSTACK, 0, STACK
        LOCFRAME XSTACK, 23, STACK
        LOCFRAME IOVERLAY, 0, STATIC
        LOCFRAME DOVERLAY, 0, STATIC
        ARGFRAME ISTACK, 0, STACK
        ARGFRAME PSTACK, 0, STACK
        ARGFRAME XSTACK, 23, STACK
        ARGFRAME IOVERLAY, 0, STATIC
        ARGFRAME DOVERLAY, 0, STATIC
        FUNCALL MAC_CbackEvent, osal_msg_allocate
        LOCFRAME ISTACK, 0, STACK
        LOCFRAME PSTACK, 0, STACK
        LOCFRAME XSTACK, 23, STACK
        LOCFRAME IOVERLAY, 0, STATIC
        LOCFRAME DOVERLAY, 0, STATIC
        ARGFRAME ISTACK, 0, STACK
        ARGFRAME PSTACK, 0, STACK
        ARGFRAME XSTACK, 23, STACK
        ARGFRAME IOVERLAY, 0, STATIC
        ARGFRAME DOVERLAY, 0, STATIC
        FUNCALL MAC_CbackEvent, mac_msg_deallocate
        LOCFRAME ISTACK, 0, STACK
        LOCFRAME PSTACK, 0, STACK
        LOCFRAME XSTACK, 23, STACK
        LOCFRAME IOVERLAY, 0, STATIC
        LOCFRAME DOVERLAY, 0, STATIC
        ARGFRAME ISTACK, 0, STACK
        ARGFRAME PSTACK, 0, STACK
        ARGFRAME XSTACK, 23, STACK
        ARGFRAME IOVERLAY, 0, STATIC
        ARGFRAME DOVERLAY, 0, STATIC
        FUNCALL MAC_CbackEvent, osal_msg_allocate
        LOCFRAME ISTACK, 0, STACK
        LOCFRAME PSTACK, 0, STACK
        LOCFRAME XSTACK, 23, STACK
        LOCFRAME IOVERLAY, 0, STATIC
        LOCFRAME DOVERLAY, 0, STATIC
        ARGFRAME ISTACK, 0, STACK
        ARGFRAME PSTACK, 0, STACK
        ARGFRAME XSTACK, 23, STACK
        ARGFRAME IOVERLAY, 0, STATIC
        ARGFRAME DOVERLAY, 0, STATIC
        FUNCALL MAC_CbackEvent, osal_memcpy
        LOCFRAME ISTACK, 0, STACK
        LOCFRAME PSTACK, 0, STACK
        LOCFRAME XSTACK, 26, STACK
        LOCFRAME IOVERLAY, 0, STATIC
        LOCFRAME DOVERLAY, 0, STATIC
        ARGFRAME ISTACK, 0, STACK
        ARGFRAME PSTACK, 0, STACK
        ARGFRAME XSTACK, 26, STACK
        ARGFRAME IOVERLAY, 0, STATIC
        ARGFRAME DOVERLAY, 0, STATIC
        FUNCALL MAC_CbackEvent, osal_memcpy
        LOCFRAME ISTACK, 0, STACK
        LOCFRAME PSTACK, 0, STACK
        LOCFRAME XSTACK, 26, STACK
        LOCFRAME IOVERLAY, 0, STATIC
        LOCFRAME DOVERLAY, 0, STATIC
        ARGFRAME ISTACK, 0, STACK
        ARGFRAME PSTACK, 0, STACK
        ARGFRAME XSTACK, 26, STACK
        ARGFRAME IOVERLAY, 0, STATIC
        ARGFRAME DOVERLAY, 0, STATIC
        FUNCALL MAC_CbackEvent, osal_memcpy
        LOCFRAME ISTACK, 0, STACK
        LOCFRAME PSTACK, 0, STACK
        LOCFRAME XSTACK, 26, STACK
        LOCFRAME IOVERLAY, 0, STATIC
        LOCFRAME DOVERLAY, 0, STATIC
        ARGFRAME ISTACK, 0, STACK
        ARGFRAME PSTACK, 0, STACK
        ARGFRAME XSTACK, 26, STACK
        ARGFRAME IOVERLAY, 0, STATIC
        ARGFRAME DOVERLAY, 0, STATIC
        FUNCALL MAC_CbackEvent, osal_memcpy
        LOCFRAME ISTACK, 0, STACK
        LOCFRAME PSTACK, 0, STACK
        LOCFRAME XSTACK, 26, STACK
        LOCFRAME IOVERLAY, 0, STATIC
        LOCFRAME DOVERLAY, 0, STATIC
        ARGFRAME ISTACK, 0, STACK
        ARGFRAME PSTACK, 0, STACK
        ARGFRAME XSTACK, 26, STACK
        ARGFRAME IOVERLAY, 0, STATIC
        ARGFRAME DOVERLAY, 0, STATIC
        FUNCALL MAC_CbackEvent, osal_memcpy
        LOCFRAME ISTACK, 0, STACK
        LOCFRAME PSTACK, 0, STACK
        LOCFRAME XSTACK, 26, STACK
        LOCFRAME IOVERLAY, 0, STATIC
        LOCFRAME DOVERLAY, 0, STATIC
        ARGFRAME ISTACK, 0, STACK
        ARGFRAME PSTACK, 0, STACK
        ARGFRAME XSTACK, 26, STACK
        ARGFRAME IOVERLAY, 0, STATIC
        ARGFRAME DOVERLAY, 0, STATIC
        FUNCALL MAC_CbackEvent, osal_mem_free
        LOCFRAME ISTACK, 0, STACK
        LOCFRAME PSTACK, 0, STACK
        LOCFRAME XSTACK, 23, STACK
        LOCFRAME IOVERLAY, 0, STATIC
        LOCFRAME DOVERLAY, 0, STATIC
        ARGFRAME ISTACK, 0, STACK
        ARGFRAME PSTACK, 0, STACK
        ARGFRAME XSTACK, 23, STACK
        ARGFRAME IOVERLAY, 0, STATIC
        ARGFRAME DOVERLAY, 0, STATIC
        FUNCALL MAC_CbackEvent, nwk_broadcastSend
        LOCFRAME ISTACK, 0, STACK
        LOCFRAME PSTACK, 0, STACK
        LOCFRAME XSTACK, 23, STACK
        LOCFRAME IOVERLAY, 0, STATIC
        LOCFRAME DOVERLAY, 0, STATIC
        ARGFRAME ISTACK, 0, STACK
        ARGFRAME PSTACK, 0, STACK
        ARGFRAME XSTACK, 23, STACK
        ARGFRAME IOVERLAY, 0, STATIC
        ARGFRAME DOVERLAY, 0, STATIC
        FUNCALL MAC_CbackEvent, osal_msg_send
        LOCFRAME ISTACK, 0, STACK
        LOCFRAME PSTACK, 0, STACK
        LOCFRAME XSTACK, 23, STACK
        LOCFRAME IOVERLAY, 0, STATIC
        LOCFRAME DOVERLAY, 0, STATIC
        ARGFRAME ISTACK, 0, STACK
        ARGFRAME PSTACK, 0, STACK
        ARGFRAME XSTACK, 23, STACK
        ARGFRAME IOVERLAY, 0, STATIC
        ARGFRAME DOVERLAY, 0, STATIC
        FUNCALL MAC_CbackEvent, mac_msg_deallocate
        LOCFRAME ISTACK, 0, STACK
        LOCFRAME PSTACK, 0, STACK
        LOCFRAME XSTACK, 23, STACK
        LOCFRAME IOVERLAY, 0, STATIC
        LOCFRAME DOVERLAY, 0, STATIC
        ARGFRAME ISTACK, 0, STACK
        ARGFRAME PSTACK, 0, STACK
        ARGFRAME XSTACK, 23, STACK
        ARGFRAME IOVERLAY, 0, STATIC
        ARGFRAME DOVERLAY, 0, STATIC
        MOV     A,#-0x13
        LCALL   ?BANKED_ENTER_XDATA
        CFI DPH0 load(1, XDATA, add(CFA_XSP16, literal(-1)))
        CFI DPL0 load(1, XDATA, add(CFA_XSP16, literal(-2)))
        CFI ?BRET_EXT load(1, XDATA, add(CFA_XSP16, literal(-3)))
        CFI ?RET_HIGH load(1, XDATA, add(CFA_XSP16, literal(-4)))
        CFI ?RET_LOW load(1, XDATA, add(CFA_XSP16, literal(-5)))
        CFI R7 load(1, XDATA, add(CFA_XSP16, literal(-6)))
        CFI V10 load(1, XDATA, add(CFA_XSP16, literal(-7)))
        CFI V9 load(1, XDATA, add(CFA_XSP16, literal(-8)))
        CFI V8 load(1, XDATA, add(CFA_XSP16, literal(-9)))
        CFI V7 load(1, XDATA, add(CFA_XSP16, literal(-10)))
        CFI V6 load(1, XDATA, add(CFA_XSP16, literal(-11)))
        CFI V5 load(1, XDATA, add(CFA_XSP16, literal(-12)))
        CFI V4 load(1, XDATA, add(CFA_XSP16, literal(-13)))
        CFI V3 load(1, XDATA, add(CFA_XSP16, literal(-14)))
        CFI V2 load(1, XDATA, add(CFA_XSP16, literal(-15)))
        CFI V1 load(1, XDATA, add(CFA_XSP16, literal(-16)))
        CFI V0 load(1, XDATA, add(CFA_XSP16, literal(-17)))
        CFI VB load(1, XDATA, add(CFA_XSP16, literal(-18)))
        CFI R6 load(1, XDATA, add(CFA_XSP16, literal(-19)))
        CFI CFA_SP SP+0
        CFI CFA_XSP16 add(XSP16, 19)
        ; Saved register size: 19
        ; Auto size: 4
        MOV     A,#-0x4
        LCALL   ?ALLOC_XSTACK8
        CFI CFA_XSP16 add(XSP16, 23)
        MOV     DPL,?XSP + 0
        MOV     DPH,?XSP + 1
        MOV     A,R2
        MOVX    @DPTR,A
        INC     DPTR
        MOV     A,R3
        MOVX    @DPTR,A
//  140 #if !defined NONWK
//  141   uint8 event = pData->hdr.event;
        LCALL   ?Subroutine6 & 0xFFFF
??CrossCallReturnLabel_34:
        MOVX    A,@DPTR
        MOV     ?V0 + 4,A
//  142   uint16 tmp = zmacCBSizeTable[event];
        MOV     ?V0 + 0,A
        MOV     A,#zmacCBSizeTable & 0xff
        ADD     A,?V0 + 0
        MOV     DPL,A
        MOV     A,#(zmacCBSizeTable >> 8) & 0xff
        ADDC    A,#0x0
        MOV     DPH,A
        CLR     A
        MOVC    A,@A+DPTR
        MOV     ?V0 + 0,A
        MOV     A,#0x2
        LCALL   ?XSTACK_DISP0_8
        MOV     A,?V0 + 0
        MOVX    @DPTR,A
        INC     DPTR
        CLR     A
        MOVX    @DPTR,A
//  143   macCbackEvent_t *msgPtr;
//  144 
//  145   /* If the Network layer will handle a new MAC callback, a non-zero value must be entered in the
//  146    * corresponding location in the zmacCBSizeTable[] - thus the table acts as "should handle"?
//  147    */
//  148   if (tmp == 0)
        MOV     A,#0x2
        LCALL   ?XSTACK_DISP0_8
        MOVX    A,@DPTR
        JNZ     $+5
        LJMP    ??MAC_CbackEvent_0 & 0xFFFF
//  149   {
//  150     return;
//  151   }
//  152 
//  153   // MAC_MCPS_DATA_IND is very special - it is the only event where the MAC does not free *pData.
//  154   if ( event == MAC_MCPS_DATA_IND )
        MOV     A,#0xd
        XRL     A,?V0 + 4
        JNZ     ??MAC_CbackEvent_1
//  155   {
//  156     MAC_MlmeGetReq( MAC_SHORT_ADDRESS, &tmp );
        ; Setup parameters for call to function MAC_MlmeGetReq
        MOV     R2,DPL
        MOV     R3,DPH
        MOV     R1,#0x53
        LCALL   ??MAC_MlmeGetReq?relay
//  157     if ((tmp == INVALID_NODE_ADDR) || (tmp == NWK_BROADCAST_SHORTADDR_DEVALL) ||
//  158         (pData->dataInd.msdu.len == 0))
        MOV     A,#0x2
        LCALL   ?XSTACK_DISP0_8
        MOVX    A,@DPTR
        XRL     A,#0xfe
        JNZ     ??MAC_CbackEvent_2
        INC     DPTR
        MOVX    A,@DPTR
        CPL     A
??MAC_CbackEvent_2:
        JZ      ??MAC_CbackEvent_3
        MOV     A,#0x2
        LCALL   ?XSTACK_DISP0_8
        MOVX    A,@DPTR
        CPL     A
        JNZ     ??MAC_CbackEvent_4
        INC     DPTR
        MOVX    A,@DPTR
        CPL     A
??MAC_CbackEvent_4:
        JZ      ??MAC_CbackEvent_3
        LCALL   ?Subroutine4 & 0xFFFF
??CrossCallReturnLabel_9:
        INC     DPTR
        INC     DPTR
        MOVX    A,@DPTR
        JNZ     ??MAC_CbackEvent_5
//  159     {
//  160       mac_msg_deallocate( (uint8 **)&pData );
??MAC_CbackEvent_3:
        ; Setup parameters for call to function mac_msg_deallocate
        MOV     DPL,?XSP + 0
        MOV     DPH,?XSP + 1
        MOV     R2,DPL
        MOV     R3,DPH
        LJMP    ??MAC_CbackEvent_6 & 0xFFFF
//  161       return;
//  162     }
//  163     msgPtr = pData;
??MAC_CbackEvent_5:
        MOV     DPL,?XSP + 0
        MOV     DPH,?XSP + 1
        MOVX    A,@DPTR
        MOV     R6,A
        INC     DPTR
        MOVX    A,@DPTR
        MOV     R7,A
        LJMP    ??MAC_CbackEvent_7 & 0xFFFF
//  164   }
//  165   else
//  166   {
//  167     if (event == MAC_MLME_BEACON_NOTIFY_IND )
??MAC_CbackEvent_1:
        MOV     A,#0x5
        XRL     A,?V0 + 4
        JNZ     ??MAC_CbackEvent_8
//  168     {
//  169       tmp += sizeof(macPanDesc_t) + pData->beaconNotifyInd.sduLength;
        MOV     DPL,?XSP + 0
        MOV     DPH,?XSP + 1
        LCALL   ?Subroutine2 & 0xFFFF
//  170     }
??CrossCallReturnLabel_5:
        INC     DPTR
        INC     DPTR
        MOVX    A,@DPTR
        ADD     A,#0x21
        MOV     R0,A
        CLR     A
        ADDC    A,#0x0
        MOV     R1,A
        SJMP    ??MAC_CbackEvent_9
//  171     else if (event == MAC_MLME_SCAN_CNF)
??MAC_CbackEvent_8:
        MOV     A,#0x7
        XRL     A,?V0 + 4
        JNZ     ??MAC_CbackEvent_10
//  172     {
//  173       if (pData->scanCnf.scanType == ZMAC_ED_SCAN)
        LCALL   ?Subroutine3 & 0xFFFF
??CrossCallReturnLabel_7:
        JNZ     ??MAC_CbackEvent_11
//  174       {
//  175         tmp += ZMAC_ED_SCAN_MAXCHANNELS;
        MOV     A,#0x2
        LCALL   ?XSTACK_DISP0_8
        MOVX    A,@DPTR
        ADD     A,#0x1b
        MOVX    @DPTR,A
        INC     DPTR
        MOVX    A,@DPTR
        ADDC    A,#0x0
        SJMP    ??MAC_CbackEvent_12
//  176       }
//  177       else
//  178       {
//  179         tmp += sizeof( ZMacPanDesc_t ) * pData->scanCnf.resultListSize;
??MAC_CbackEvent_11:
        MOV     DPL,?XSP + 0
        MOV     DPH,?XSP + 1
        LCALL   ??Subroutine17_0 & 0xFFFF
//  180       }
//  181     }
??CrossCallReturnLabel_33:
        INC     DPTR
        INC     DPTR
        INC     DPTR
        INC     DPTR
        INC     DPTR
        INC     DPTR
        INC     DPTR
        INC     DPTR
        MOVX    A,@DPTR
        MOV     B,#0x21
        MUL     AB
        MOV     R0,A
        MOV     R1,B
??MAC_CbackEvent_9:
        MOV     A,#0x2
        LCALL   ?XSTACK_DISP0_8
        MOVX    A,@DPTR
        ADD     A,R0
        MOVX    @DPTR,A
        INC     DPTR
        MOVX    A,@DPTR
        ADDC    A,R1
??MAC_CbackEvent_12:
        MOVX    @DPTR,A
//  182 
//  183     if ( !(msgPtr = (macCbackEvent_t *)osal_msg_allocate(tmp)) )
??MAC_CbackEvent_10:
        ; Setup parameters for call to function osal_msg_allocate
        MOV     A,#0x2
        LCALL   ?XSTACK_DISP0_8
        LCALL   ?Subroutine7 & 0xFFFF
??CrossCallReturnLabel_13:
        MOV     ?V0 + 2,R2
        MOV     ?V0 + 3,R3
        MOV     R6,?V0 + 2
        MOV     R7,?V0 + 3
        MOV     A,R6
        ORL     A,R7
        JNZ     ??MAC_CbackEvent_13
//  184     {
//  185       // Not enough memory. If data confirm - try again
//  186       if ((event == MAC_MCPS_DATA_CNF) && (pData->dataCnf.pDataReq != NULL))
        MOV     A,#0xc
        XRL     A,?V0 + 4
        JZ      $+5
        LJMP    ??MAC_CbackEvent_0 & 0xFFFF
        LCALL   ?Subroutine0 & 0xFFFF
??CrossCallReturnLabel_0:
        JNZ     $+5
        LJMP    ??MAC_CbackEvent_0 & 0xFFFF
//  187       {
//  188         halIntState_t intState;
//  189 
//  190         // This is not normally deallocated here because the pZMac_AppCallback()
//  191         // application may need it.
//  192         HAL_ENTER_CRITICAL_SECTION( intState );  // Hold off interrupts.
        MOV     C,0xa8.7
        CLR     A
        RLC     A
        MOV     ?V0 + 2,A
        CLR     0xa8.7
//  193 
//  194         mac_msg_deallocate( (uint8**)&(pData->dataCnf.pDataReq) );
        ; Setup parameters for call to function mac_msg_deallocate
        LCALL   ??mac_msg_deallocate?relay
//  195         if ( !(msgPtr = (macCbackEvent_t *)osal_msg_allocate(tmp)) )
        ; Setup parameters for call to function osal_msg_allocate
        MOV     A,#0x2
        LCALL   ?XSTACK_DISP0_8
        LCALL   ?Subroutine7 & 0xFFFF
??CrossCallReturnLabel_14:
        MOV     ?V0 + 6,R2
        MOV     ?V0 + 7,R3
        MOV     R6,?V0 + 6
        MOV     R7,?V0 + 7
        MOV     A,R6
        ORL     A,R7
        JNZ     ??MAC_CbackEvent_14
//  196         {
//  197           // Still no allocation, something is wrong
//  198           HAL_EXIT_CRITICAL_SECTION( intState );   // Re-enable interrupts.
        MOV     A,?V0 + 2
        MOV     C,0xE0 /* A   */.0
        MOV     0xa8.7,C
//  199           return;
        LJMP    ??MAC_CbackEvent_0 & 0xFFFF
//  200         }
//  201         HAL_EXIT_CRITICAL_SECTION( intState );   // Re-enable interrupts.
??MAC_CbackEvent_14:
        MOV     A,?V0 + 2
        MOV     C,0xE0 /* A   */.0
        MOV     0xa8.7,C
//  202       }
//  203       else
//  204       {
//  205         // This message is dropped
//  206         return;
//  207       }
//  208     }
//  209     osal_memcpy(msgPtr, pData, zmacCBSizeTable[event]);
??MAC_CbackEvent_13:
        ; Setup parameters for call to function osal_memcpy
        MOV     DPL,?XSP + 0
        MOV     DPH,?XSP + 1
        MOVX    A,@DPTR
        MOV     ?V0 + 8,A
        INC     DPTR
        MOVX    A,@DPTR
        MOV     ?V0 + 9,A
        MOV     ?V0 + 10,#0x0
        MOV     R0,#?V0 + 8
        LCALL   ?PUSH_XSTACK_I_THREE
        CFI CFA_XSP16 add(XSP16, 26)
        MOV     R4,?V0 + 0
        MOV     R5,#0x0
        MOV     A,R6
        MOV     R2,A
        MOV     A,R7
        LCALL   ?Subroutine11 & 0xFFFF
//  210   }
??CrossCallReturnLabel_28:
        LCALL   ?DEALLOC_XSTACK8
        CFI CFA_XSP16 add(XSP16, 23)
//  211 
//  212   if ( event == MAC_MLME_BEACON_NOTIFY_IND )
        MOV     A,#0x5
        XRL     A,?V0 + 4
        JNZ     ??MAC_CbackEvent_15
//  213   {
//  214     macMlmeBeaconNotifyInd_t *pBeacon = (macMlmeBeaconNotifyInd_t*)msgPtr;
//  215 
//  216     osal_memcpy(pBeacon+1, pBeacon->pPanDesc, sizeof(macPanDesc_t));
        LCALL   ?Subroutine12 & 0xFFFF
??CrossCallReturnLabel_21:
        MOV     A,R6
        ADD     A,#0x3
        MOV     ?V0 + 6,A
        MOV     A,R7
        ADDC    A,#0x0
        MOV     ?V0 + 7,A
        ; Setup parameters for call to function osal_memcpy
        MOV     DPL,?V0 + 6
        LCALL   ?Subroutine8 & 0xFFFF
??CrossCallReturnLabel_15:
        LCALL   ?PUSH_XSTACK_I_THREE
        CFI CFA_XSP16 add(XSP16, 26)
        MOV     R4,#0x21
        MOV     R5,#0x0
        MOV     R2,?V0 + 0
        MOV     R3,?V0 + 1
        LCALL   ??Subroutine16_0 & 0xFFFF
??CrossCallReturnLabel_30:
        LCALL   ?DEALLOC_XSTACK8
        CFI CFA_XSP16 add(XSP16, 23)
//  217     pBeacon->pPanDesc = (macPanDesc_t *)(pBeacon+1);
        MOV     DPL,?V0 + 6
        MOV     DPH,?V0 + 7
        MOV     A,?V0 + 0
        MOVX    @DPTR,A
        INC     DPTR
        MOV     A,?V0 + 1
        MOVX    @DPTR,A
//  218     osal_memcpy(pBeacon->pPanDesc+1, pBeacon->pSdu, pBeacon->sduLength);
        LCALL   ?Subroutine13 & 0xFFFF
??CrossCallReturnLabel_23:
        ; Setup parameters for call to function osal_memcpy
        MOV     DPL,?V0 + 2
        LCALL   ?Subroutine8 & 0xFFFF
??CrossCallReturnLabel_16:
        LCALL   ?PUSH_XSTACK_I_THREE
        CFI CFA_XSP16 add(XSP16, 26)
        MOV     DPL,R6
        MOV     DPH,R7
        INC     DPTR
        INC     DPTR
        INC     DPTR
        INC     DPTR
        INC     DPTR
        INC     DPTR
        INC     DPTR
        INC     DPTR
        MOVX    A,@DPTR
        MOV     R4,A
        MOV     R5,#0x0
        MOV     DPL,?V0 + 6
        MOV     DPH,?V0 + 7
        MOVX    A,@DPTR
        ADD     A,#0x21
        MOV     R2,A
        INC     DPTR
        MOVX    A,@DPTR
        ADDC    A,#0x0
        LCALL   ?Subroutine11 & 0xFFFF
??CrossCallReturnLabel_29:
        LCALL   ?DEALLOC_XSTACK8
        CFI CFA_XSP16 add(XSP16, 23)
//  219     pBeacon->pSdu = (uint8 *)(pBeacon->pPanDesc+1);
        MOV     DPL,?V0 + 6
        MOV     DPH,?V0 + 7
        MOVX    A,@DPTR
        ADD     A,#0x21
        MOV     R0,A
        INC     DPTR
        MOVX    A,@DPTR
        ADDC    A,#0x0
        MOV     R1,A
        MOV     DPL,?V0 + 2
        MOV     DPH,?V0 + 3
        MOV     A,R0
        MOVX    @DPTR,A
        INC     DPTR
        MOV     A,R1
        MOVX    @DPTR,A
        LJMP    ??MAC_CbackEvent_7 & 0xFFFF
//  220   }
//  221   else if (event == MAC_MLME_SCAN_CNF)
??MAC_CbackEvent_15:
        MOV     A,#0x7
        XRL     A,?V0 + 4
        JZ      $+5
        LJMP    ??MAC_CbackEvent_7 & 0xFFFF
//  222   {
//  223     macMlmeScanCnf_t *pScan = (macMlmeScanCnf_t*)msgPtr;
//  224 
//  225     if (ZMac_ScanBuf != NULL)
        MOV     DPTR,#ZMac_ScanBuf
        LCALL   ?Subroutine15 & 0xFFFF
??CrossCallReturnLabel_25:
        JZ      ??MAC_CbackEvent_7
//  226     {
//  227       void *pTmp = ZMac_ScanBuf;
        MOV     DPTR,#ZMac_ScanBuf
        MOVX    A,@DPTR
        MOV     ?V0 + 6,A
        INC     DPTR
        MOVX    A,@DPTR
        MOV     ?V0 + 7,A
//  228       ZMac_ScanBuf = NULL;
        MOV     DPTR,#ZMac_ScanBuf
        CLR     A
        MOVX    @DPTR,A
        INC     DPTR
        MOVX    @DPTR,A
//  229 
//  230       if (pScan->scanType == ZMAC_ED_SCAN)
        MOV     ?V0 + 8,R0
        MOV     ?V0 + 9,R1
        LCALL   ?Subroutine13 & 0xFFFF
??CrossCallReturnLabel_24:
        LCALL   ?Subroutine12 & 0xFFFF
??CrossCallReturnLabel_22:
        MOV     DPL,R6
        MOV     DPH,R7
        INC     DPTR
        INC     DPTR
        MOVX    A,@DPTR
        MOV     DPL,?V0 + 2
        MOV     DPH,?V0 + 3
        JNZ     ??MAC_CbackEvent_16
//  231       {
//  232         pScan->result.pEnergyDetect = (uint8*) (pScan + 1);
        MOV     A,?V0 + 0
        MOVX    @DPTR,A
        INC     DPTR
        MOV     A,?V0 + 1
        MOVX    @DPTR,A
//  233         osal_memcpy(pScan->result.pEnergyDetect, pTmp, ZMAC_ED_SCAN_MAXCHANNELS);
        ; Setup parameters for call to function osal_memcpy
        MOV     R0,#?V0 + 8
        LCALL   ?PUSH_XSTACK_I_THREE
        CFI CFA_XSP16 add(XSP16, 26)
        MOV     R4,#0x1b
        MOV     R5,#0x0
        MOV     DPL,?V0 + 2
        MOV     DPH,?V0 + 3
        MOVX    A,@DPTR
        MOV     R2,A
        INC     DPTR
        MOVX    A,@DPTR
        MOV     R3,A
        SJMP    ??MAC_CbackEvent_17
        CFI CFA_XSP16 add(XSP16, 23)
//  234       }
//  235       else
//  236       {
//  237         pScan->result.pPanDescriptor = (macPanDesc_t*) (pScan + 1);
??MAC_CbackEvent_16:
        MOV     A,?V0 + 0
        MOVX    @DPTR,A
        INC     DPTR
        MOV     A,?V0 + 1
        MOVX    @DPTR,A
//  238         osal_memcpy(pScan + 1, pTmp, sizeof( ZMacPanDesc_t ) * pScan->resultListSize);
        ; Setup parameters for call to function osal_memcpy
        MOV     R0,#?V0 + 8
        LCALL   ?PUSH_XSTACK_I_THREE
        CFI CFA_XSP16 add(XSP16, 26)
        MOV     DPL,R6
        MOV     DPH,R7
        INC     DPTR
        INC     DPTR
        INC     DPTR
        INC     DPTR
        INC     DPTR
        INC     DPTR
        INC     DPTR
        INC     DPTR
        MOVX    A,@DPTR
        MOV     B,#0x21
        MUL     AB
        MOV     R4,A
        MOV     R5,B
        MOV     R2,?V0 + 0
        MOV     R3,?V0 + 1
//  239       }
??MAC_CbackEvent_17:
        LCALL   ??Subroutine16_0 & 0xFFFF
??CrossCallReturnLabel_31:
        LCALL   ?DEALLOC_XSTACK8
        CFI CFA_XSP16 add(XSP16, 23)
//  240 
//  241       osal_mem_free(pTmp);
        ; Setup parameters for call to function osal_mem_free
        MOV     R2,?V0 + 6
        MOV     R3,?V0 + 7
        LCALL   ??osal_mem_free?relay
//  242     }
//  243   }
//  244 
//  245   if ( ( pZMac_AppCallback == NULL ) || ( pZMac_AppCallback( (uint8 *)msgPtr ) == FALSE ) )
??MAC_CbackEvent_7:
        MOV     DPTR,#pZMac_AppCallback
        LCALL   ?Subroutine15 & 0xFFFF
??CrossCallReturnLabel_26:
        JZ      ??MAC_CbackEvent_18
        ; Setup parameters for indirect call
        MOV     A,R6
        MOV     R2,A
        MOV     A,R7
        MOV     R3,A
        LCALL   ??Subroutine18_0 & 0xFFFF
??CrossCallReturnLabel_32:
        LCALL   ?CALL_IND
        MOV     A,R1
        JZ      $+5
        LJMP    ??MAC_CbackEvent_19 & 0xFFFF
//  246   {
//  247     // Filter out non-zigbee packets
//  248     if ( event == MAC_MCPS_DATA_IND )
??MAC_CbackEvent_18:
        MOV     A,#0xd
        XRL     A,?V0 + 4
        JZ      $+5
        LJMP    ??MAC_CbackEvent_20 & 0xFFFF
//  249     {
//  250       uint8 fcFrameType = (pData->dataInd.msdu.p[0] & 0x03);
//  251       uint8 fcProtoVer = ((pData->dataInd.msdu.p[0] >> 2) & 0x0F);
//  252       uint8 fcReserve = (pData->dataInd.msdu.p[1] & 0xE0);
        LCALL   ?Subroutine3 & 0xFFFF
??CrossCallReturnLabel_8:
        MOV     R0,A
        INC     DPTR
        MOVX    A,@DPTR
        MOV     R1,A
        MOV     DPL,R0
        MOV     DPH,R1
        INC     DPTR
        MOVX    A,@DPTR
        ANL     A,#0xe0
        MOV     R2,A
//  253       if ( (fcFrameType > 0x01) || (fcProtoVer != _NIB.nwkProtocolVersion) || (fcReserve != 0)
//  254           || (pData->dataInd.mac.srcAddr.addrMode != SADDR_MODE_SHORT) )
        MOV     DPL,R0
        MOV     DPH,R1
        MOVX    A,@DPTR
        ANL     A,#0x3
        CLR     C
        SUBB    A,#0x2
        JC      $+5
        LJMP    ??MAC_CbackEvent_3 & 0xFFFF
        MOVX    A,@DPTR
        RRC     A
        RRC     A
        ANL     A,#0x3f
        ANL     A,#0xf
        MOV     R0,A
        MOV     DPTR,#_NIB + 17
        MOVX    A,@DPTR
        XRL     A,R0
        JZ      $+5
        LJMP    ??MAC_CbackEvent_3 & 0xFFFF
        MOV     A,R2
        JZ      $+5
        LJMP    ??MAC_CbackEvent_3 & 0xFFFF
        MOV     DPL,?XSP + 0
        MOV     DPH,?XSP + 1
        MOVX    A,@DPTR
        ADD     A,#0x1a
        LCALL   ?Subroutine1 & 0xFFFF
??CrossCallReturnLabel_2:
        XRL     A,#0x2
        JZ      $+5
        LJMP    ??MAC_CbackEvent_3 & 0xFFFF
//  255       {
//  256         // Drop the message
//  257         mac_msg_deallocate( (uint8 **)&pData );
//  258         return;
//  259       }
//  260       else
//  261       {
//  262         macDataInd_t *pInd = &msgPtr->dataInd.mac;
        MOV     A,R6
        ADD     A,#0x12
        MOV     R0,A
        MOV     A,R7
        ADDC    A,#0x0
        MOV     R1,A
//  263         // See if LQI needs adjustment due to frame correlation
//  264         ZMacLqiAdjust( pInd->correlation, &pInd->mpduLinkQuality );
        MOV     A,R0
        ADD     A,#0x1c
        MOV     R2,A
        MOV     A,R1
        ADDC    A,#0x0
        MOV     R3,A
        MOV     A,R2
        MOV     R4,A
        MOV     A,R3
        MOV     R5,A
        MOV     A,R0
        ADD     A,#0x1d
        MOV     DPL,A
        MOV     A,R1
        LCALL   ?Subroutine10 & 0xFFFF
??CrossCallReturnLabel_19:
        JZ      ??MAC_CbackEvent_21
        LCALL   ?Subroutine5 & 0xFFFF
??CrossCallReturnLabel_11:
        JNC     ??MAC_CbackEvent_22
        MOV     ?V0 + 0,#0x32
        SJMP    ??MAC_CbackEvent_23
??MAC_CbackEvent_22:
        MOV     A,?V0 + 0
        CLR     C
        SUBB    A,#0x6f
        JC      ??MAC_CbackEvent_23
        MOV     ?V0 + 0,#0x6e
??MAC_CbackEvent_23:
        MOV     DPTR,#lqiAdjMode
        MOVX    A,@DPTR
        XRL     A,#0x1
        JNZ     ??MAC_CbackEvent_24
        LCALL   ?Subroutine9 & 0xFFFF
??CrossCallReturnLabel_17:
        LCALL   ?US_DIV_MOD
??MAC_CbackEvent_24:
        CLR     C
        MOV     A,R1
        SUBB    A,#0x1
        JC      ??MAC_CbackEvent_25
        MOV     A,#-0x1
        SJMP    ??MAC_CbackEvent_26
??MAC_CbackEvent_25:
        MOV     A,R0
??MAC_CbackEvent_26:
        MOV     DPL,R4
        MOV     DPH,R5
        MOVX    @DPTR,A
//  265 
//  266         // Look for broadcast message that has a radius of greater 1
//  267         if ( (pData->dataInd.mac.dstAddr.addr.shortAddr == 0xFFFF)
//  268                && (pData->dataInd.msdu.p[6] > 1) )
??MAC_CbackEvent_21:
        MOV     DPL,?XSP + 0
        MOV     DPH,?XSP + 1
        MOVX    A,@DPTR
        ADD     A,#0x1b
        LCALL   ?Subroutine1 & 0xFFFF
??CrossCallReturnLabel_3:
        CPL     A
        JNZ     ??MAC_CbackEvent_27
        INC     DPTR
        MOVX    A,@DPTR
        CPL     A
??MAC_CbackEvent_27:
        JZ      $+5
        LJMP    ??MAC_CbackEvent_28 & 0xFFFF
        LCALL   ?Subroutine4 & 0xFFFF
??CrossCallReturnLabel_10:
        LCALL   ?Subroutine2 & 0xFFFF
??CrossCallReturnLabel_6:
        MOVX    A,@DPTR
        CLR     C
        SUBB    A,#0x2
        JC      ??MAC_CbackEvent_28
//  269         {
//  270           // Send the messsage to a special broadcast queue
//  271           if ( nwk_broadcastSend( (uint8 *)msgPtr ) != SUCCESS )
        ; Setup parameters for call to function nwk_broadcastSend
        MOV     A,R6
        MOV     R2,A
        MOV     A,R7
        MOV     R3,A
        LCALL   ??nwk_broadcastSend?relay
        MOV     A,R1
        JZ      $+5
        LJMP    ??MAC_CbackEvent_3 & 0xFFFF
        LJMP    ??MAC_CbackEvent_0 & 0xFFFF
//  272           {
//  273             // Drop the message, too many broadcast messages to process
//  274             mac_msg_deallocate( (uint8 **)&pData );
//  275           }
//  276           return;
//  277         }
//  278       }
//  279     }
//  280     else if ((event == MAC_MCPS_DATA_CNF) && (pData->hdr.status != MAC_NO_RESOURCES))
??MAC_CbackEvent_20:
        MOV     A,#0xc
        XRL     A,?V0 + 4
        JNZ     ??MAC_CbackEvent_28
        LCALL   ?Subroutine6 & 0xFFFF
??CrossCallReturnLabel_35:
        INC     DPTR
        MOVX    A,@DPTR
        XRL     A,#0x1a
        JZ      ??MAC_CbackEvent_28
//  281     {
//  282       macMcpsDataCnf_t *pCnf = &msgPtr->dataCnf;
//  283       
//  284       if (pCnf->pDataReq->internal.txOptions & MAC_TXOPTION_ACK)
        MOV     DPL,R6
        MOV     DPH,R7
        INC     DPTR
        INC     DPTR
        INC     DPTR
        MOVX    A,@DPTR
        ADD     A,#0xe
        LCALL   ?Subroutine1 & 0xFFFF
??CrossCallReturnLabel_4:
        MOV     C,0xE0 /* A   */.0
        JNC     ??MAC_CbackEvent_28
//  285       {
//  286         // See if LQI needs adjustment due to frame correlation
//  287         ZMacLqiAdjust( pCnf->correlation, &pCnf->mpduLinkQuality );
        MOV     A,R6
        ADD     A,#0xc
        MOV     R0,A
        MOV     A,R7
        ADDC    A,#0x0
        MOV     R1,A
        MOV     A,R0
        MOV     R4,A
        MOV     A,R1
        MOV     R5,A
        MOV     A,R6
        ADD     A,#0xd
        MOV     DPL,A
        MOV     A,R7
        LCALL   ?Subroutine10 & 0xFFFF
//  288       }
//  289     }
??CrossCallReturnLabel_20:
        JZ      ??MAC_CbackEvent_28
        LCALL   ?Subroutine5 & 0xFFFF
??CrossCallReturnLabel_12:
        JNC     ??MAC_CbackEvent_29
        MOV     ?V0 + 0,#0x32
        SJMP    ??MAC_CbackEvent_30
??MAC_CbackEvent_29:
        MOV     A,?V0 + 0
        CLR     C
        SUBB    A,#0x6f
        JC      ??MAC_CbackEvent_30
        MOV     ?V0 + 0,#0x6e
??MAC_CbackEvent_30:
        MOV     DPTR,#lqiAdjMode
        MOVX    A,@DPTR
        XRL     A,#0x1
        JNZ     ??MAC_CbackEvent_31
        LCALL   ?Subroutine9 & 0xFFFF
??CrossCallReturnLabel_18:
        LCALL   ?US_DIV_MOD
??MAC_CbackEvent_31:
        CLR     C
        MOV     A,R1
        SUBB    A,#0x1
        JC      ??MAC_CbackEvent_32
        MOV     A,#-0x1
        SJMP    ??MAC_CbackEvent_33
??MAC_CbackEvent_32:
        MOV     A,R0
??MAC_CbackEvent_33:
        MOV     DPL,R4
        MOV     DPH,R5
        MOVX    @DPTR,A
//  290 
//  291     // Application hasn't already processed this message. Send it to NWK task.
//  292     osal_msg_send( NWK_TaskID, (uint8 *)msgPtr );
??MAC_CbackEvent_28:
        ; Setup parameters for call to function osal_msg_send
        MOV     A,R6
        MOV     R2,A
        MOV     A,R7
        MOV     R3,A
        MOV     DPTR,#NWK_TaskID
        MOVX    A,@DPTR
        MOV     R1,A
        LCALL   ??osal_msg_send?relay
//  293   }
//  294 
//  295   if ((event == MAC_MCPS_DATA_CNF) && (pData->dataCnf.pDataReq != NULL))
??MAC_CbackEvent_19:
        MOV     A,#0xc
        XRL     A,?V0 + 4
        JNZ     ??MAC_CbackEvent_0
        LCALL   ?Subroutine0 & 0xFFFF
??CrossCallReturnLabel_1:
        JZ      ??MAC_CbackEvent_0
//  296   {
//  297     // If the application needs 'pDataReq' then we cannot free it here.
//  298     // The application must free it after using it. Note that 'pDataReq'
//  299     // is of macMcpsDataReq_t (and not ZMacDataReq_t) type.
//  300 
//  301     mac_msg_deallocate( (uint8**)&(pData->dataCnf.pDataReq) );
        ; Setup parameters for call to function mac_msg_deallocate
??MAC_CbackEvent_6:
        LCALL   ??mac_msg_deallocate?relay
??MAC_CbackEvent_0:
        MOV     A,#0x4
        LCALL   ?DEALLOC_XSTACK8
        CFI CFA_XSP16 add(XSP16, 19)
        MOV     R7,#0xb
        LJMP    ?BANKED_LEAVE_XDATA
        CFI EndBlock cfiBlock0
        REQUIRE _A_IEN0
//  302   }
//  303 #endif
//  304 }

        RSEG BANKED_CODE:CODE:NOROOT(0)
?Subroutine13:
        CFI Block cfiCond1 Using cfiCommon0
        CFI NoFunction
        CFI Conditional ??CrossCallReturnLabel_23
        CFI R6 load(1, XDATA, add(CFA_XSP16, literal(-19)))
        CFI VB load(1, XDATA, add(CFA_XSP16, literal(-18)))
        CFI V0 load(1, XDATA, add(CFA_XSP16, literal(-17)))
        CFI V1 load(1, XDATA, add(CFA_XSP16, literal(-16)))
        CFI V2 load(1, XDATA, add(CFA_XSP16, literal(-15)))
        CFI V3 load(1, XDATA, add(CFA_XSP16, literal(-14)))
        CFI V4 load(1, XDATA, add(CFA_XSP16, literal(-13)))
        CFI V5 load(1, XDATA, add(CFA_XSP16, literal(-12)))
        CFI V6 load(1, XDATA, add(CFA_XSP16, literal(-11)))
        CFI V7 load(1, XDATA, add(CFA_XSP16, literal(-10)))
        CFI V8 load(1, XDATA, add(CFA_XSP16, literal(-9)))
        CFI V9 load(1, XDATA, add(CFA_XSP16, literal(-8)))
        CFI V10 load(1, XDATA, add(CFA_XSP16, literal(-7)))
        CFI R7 load(1, XDATA, add(CFA_XSP16, literal(-6)))
        CFI ?RET_LOW load(1, XDATA, add(CFA_XSP16, literal(-5)))
        CFI ?RET_HIGH load(1, XDATA, add(CFA_XSP16, literal(-4)))
        CFI ?BRET_EXT load(1, XDATA, add(CFA_XSP16, literal(-3)))
        CFI DPL0 load(1, XDATA, add(CFA_XSP16, literal(-2)))
        CFI DPH0 load(1, XDATA, add(CFA_XSP16, literal(-1)))
        CFI CFA_SP SP+0
        CFI CFA_XSP16 add(XSP16, 23)
        CFI Block cfiCond2 Using cfiCommon0
        CFI (cfiCond2) NoFunction
        CFI (cfiCond2) Conditional ??CrossCallReturnLabel_24
        CFI (cfiCond2) R6 load(1, XDATA, add(CFA_XSP16, literal(-19)))
        CFI (cfiCond2) VB load(1, XDATA, add(CFA_XSP16, literal(-18)))
        CFI (cfiCond2) V0 load(1, XDATA, add(CFA_XSP16, literal(-17)))
        CFI (cfiCond2) V1 load(1, XDATA, add(CFA_XSP16, literal(-16)))
        CFI (cfiCond2) V2 load(1, XDATA, add(CFA_XSP16, literal(-15)))
        CFI (cfiCond2) V3 load(1, XDATA, add(CFA_XSP16, literal(-14)))
        CFI (cfiCond2) V4 load(1, XDATA, add(CFA_XSP16, literal(-13)))
        CFI (cfiCond2) V5 load(1, XDATA, add(CFA_XSP16, literal(-12)))
        CFI (cfiCond2) V6 load(1, XDATA, add(CFA_XSP16, literal(-11)))
        CFI (cfiCond2) V7 load(1, XDATA, add(CFA_XSP16, literal(-10)))
        CFI (cfiCond2) V8 load(1, XDATA, add(CFA_XSP16, literal(-9)))
        CFI (cfiCond2) V9 load(1, XDATA, add(CFA_XSP16, literal(-8)))
        CFI (cfiCond2) V10 load(1, XDATA, add(CFA_XSP16, literal(-7)))
        CFI (cfiCond2) R7 load(1, XDATA, add(CFA_XSP16, literal(-6)))
        CFI (cfiCond2) ?RET_LOW load(1, XDATA, add(CFA_XSP16, literal(-5)))
        CFI (cfiCond2) ?RET_HIGH load(1, XDATA, add(CFA_XSP16, literal(-4)))
        CFI (cfiCond2) ?BRET_EXT load(1, XDATA, add(CFA_XSP16, literal(-3)))
        CFI (cfiCond2) DPL0 load(1, XDATA, add(CFA_XSP16, literal(-2)))
        CFI (cfiCond2) DPH0 load(1, XDATA, add(CFA_XSP16, literal(-1)))
        CFI (cfiCond2) CFA_SP SP+0
        CFI (cfiCond2) CFA_XSP16 add(XSP16, 23)
        CFI Block cfiPicker3 Using cfiCommon1
        CFI (cfiPicker3) NoFunction
        CFI (cfiPicker3) Picker
        MOV     A,R6
        ADD     A,#0x9
        MOV     ?V0 + 2,A
        MOV     A,R7
        ADDC    A,#0x0
        MOV     ?V0 + 3,A
        RET
        CFI EndBlock cfiCond1
        CFI EndBlock cfiCond2
        CFI EndBlock cfiPicker3

        RSEG BANKED_CODE:CODE:NOROOT(0)
?Subroutine12:
        CFI Block cfiCond4 Using cfiCommon0
        CFI NoFunction
        CFI Conditional ??CrossCallReturnLabel_21
        CFI R6 load(1, XDATA, add(CFA_XSP16, literal(-19)))
        CFI VB load(1, XDATA, add(CFA_XSP16, literal(-18)))
        CFI V0 load(1, XDATA, add(CFA_XSP16, literal(-17)))
        CFI V1 load(1, XDATA, add(CFA_XSP16, literal(-16)))
        CFI V2 load(1, XDATA, add(CFA_XSP16, literal(-15)))
        CFI V3 load(1, XDATA, add(CFA_XSP16, literal(-14)))
        CFI V4 load(1, XDATA, add(CFA_XSP16, literal(-13)))
        CFI V5 load(1, XDATA, add(CFA_XSP16, literal(-12)))
        CFI V6 load(1, XDATA, add(CFA_XSP16, literal(-11)))
        CFI V7 load(1, XDATA, add(CFA_XSP16, literal(-10)))
        CFI V8 load(1, XDATA, add(CFA_XSP16, literal(-9)))
        CFI V9 load(1, XDATA, add(CFA_XSP16, literal(-8)))
        CFI V10 load(1, XDATA, add(CFA_XSP16, literal(-7)))
        CFI R7 load(1, XDATA, add(CFA_XSP16, literal(-6)))
        CFI ?RET_LOW load(1, XDATA, add(CFA_XSP16, literal(-5)))
        CFI ?RET_HIGH load(1, XDATA, add(CFA_XSP16, literal(-4)))
        CFI ?BRET_EXT load(1, XDATA, add(CFA_XSP16, literal(-3)))
        CFI DPL0 load(1, XDATA, add(CFA_XSP16, literal(-2)))
        CFI DPH0 load(1, XDATA, add(CFA_XSP16, literal(-1)))
        CFI CFA_SP SP+0
        CFI CFA_XSP16 add(XSP16, 23)
        CFI Block cfiCond5 Using cfiCommon0
        CFI (cfiCond5) NoFunction
        CFI (cfiCond5) Conditional ??CrossCallReturnLabel_22
        CFI (cfiCond5) R6 load(1, XDATA, add(CFA_XSP16, literal(-19)))
        CFI (cfiCond5) VB load(1, XDATA, add(CFA_XSP16, literal(-18)))
        CFI (cfiCond5) V0 load(1, XDATA, add(CFA_XSP16, literal(-17)))
        CFI (cfiCond5) V1 load(1, XDATA, add(CFA_XSP16, literal(-16)))
        CFI (cfiCond5) V2 load(1, XDATA, add(CFA_XSP16, literal(-15)))
        CFI (cfiCond5) V3 load(1, XDATA, add(CFA_XSP16, literal(-14)))
        CFI (cfiCond5) V4 load(1, XDATA, add(CFA_XSP16, literal(-13)))
        CFI (cfiCond5) V5 load(1, XDATA, add(CFA_XSP16, literal(-12)))
        CFI (cfiCond5) V6 load(1, XDATA, add(CFA_XSP16, literal(-11)))
        CFI (cfiCond5) V7 load(1, XDATA, add(CFA_XSP16, literal(-10)))
        CFI (cfiCond5) V8 load(1, XDATA, add(CFA_XSP16, literal(-9)))
        CFI (cfiCond5) V9 load(1, XDATA, add(CFA_XSP16, literal(-8)))
        CFI (cfiCond5) V10 load(1, XDATA, add(CFA_XSP16, literal(-7)))
        CFI (cfiCond5) R7 load(1, XDATA, add(CFA_XSP16, literal(-6)))
        CFI (cfiCond5) ?RET_LOW load(1, XDATA, add(CFA_XSP16, literal(-5)))
        CFI (cfiCond5) ?RET_HIGH load(1, XDATA, add(CFA_XSP16, literal(-4)))
        CFI (cfiCond5) ?BRET_EXT load(1, XDATA, add(CFA_XSP16, literal(-3)))
        CFI (cfiCond5) DPL0 load(1, XDATA, add(CFA_XSP16, literal(-2)))
        CFI (cfiCond5) DPH0 load(1, XDATA, add(CFA_XSP16, literal(-1)))
        CFI (cfiCond5) CFA_SP SP+0
        CFI (cfiCond5) CFA_XSP16 add(XSP16, 23)
        CFI Block cfiPicker6 Using cfiCommon1
        CFI (cfiPicker6) NoFunction
        CFI (cfiPicker6) Picker
        MOV     A,R6
        ADD     A,#0xb
        MOV     ?V0 + 0,A
        MOV     A,R7
        ADDC    A,#0x0
        MOV     ?V0 + 1,A
        RET
        CFI EndBlock cfiCond4
        CFI EndBlock cfiCond5
        CFI EndBlock cfiPicker6

        RSEG BANKED_CODE:CODE:NOROOT(0)
?Subroutine11:
        CFI Block cfiCond7 Using cfiCommon0
        CFI NoFunction
        CFI Conditional ??CrossCallReturnLabel_28
        CFI R6 load(1, XDATA, add(CFA_XSP16, literal(-19)))
        CFI VB load(1, XDATA, add(CFA_XSP16, literal(-18)))
        CFI V0 load(1, XDATA, add(CFA_XSP16, literal(-17)))
        CFI V1 load(1, XDATA, add(CFA_XSP16, literal(-16)))
        CFI V2 load(1, XDATA, add(CFA_XSP16, literal(-15)))
        CFI V3 load(1, XDATA, add(CFA_XSP16, literal(-14)))
        CFI V4 load(1, XDATA, add(CFA_XSP16, literal(-13)))
        CFI V5 load(1, XDATA, add(CFA_XSP16, literal(-12)))
        CFI V6 load(1, XDATA, add(CFA_XSP16, literal(-11)))
        CFI V7 load(1, XDATA, add(CFA_XSP16, literal(-10)))
        CFI V8 load(1, XDATA, add(CFA_XSP16, literal(-9)))
        CFI V9 load(1, XDATA, add(CFA_XSP16, literal(-8)))
        CFI V10 load(1, XDATA, add(CFA_XSP16, literal(-7)))
        CFI R7 load(1, XDATA, add(CFA_XSP16, literal(-6)))
        CFI ?RET_LOW load(1, XDATA, add(CFA_XSP16, literal(-5)))
        CFI ?RET_HIGH load(1, XDATA, add(CFA_XSP16, literal(-4)))
        CFI ?BRET_EXT load(1, XDATA, add(CFA_XSP16, literal(-3)))
        CFI DPL0 load(1, XDATA, add(CFA_XSP16, literal(-2)))
        CFI DPH0 load(1, XDATA, add(CFA_XSP16, literal(-1)))
        CFI CFA_SP SP+0
        CFI CFA_XSP16 add(XSP16, 26)
        CFI Block cfiCond8 Using cfiCommon0
        CFI (cfiCond8) NoFunction
        CFI (cfiCond8) Conditional ??CrossCallReturnLabel_29
        CFI (cfiCond8) R6 load(1, XDATA, add(CFA_XSP16, literal(-19)))
        CFI (cfiCond8) VB load(1, XDATA, add(CFA_XSP16, literal(-18)))
        CFI (cfiCond8) V0 load(1, XDATA, add(CFA_XSP16, literal(-17)))
        CFI (cfiCond8) V1 load(1, XDATA, add(CFA_XSP16, literal(-16)))
        CFI (cfiCond8) V2 load(1, XDATA, add(CFA_XSP16, literal(-15)))
        CFI (cfiCond8) V3 load(1, XDATA, add(CFA_XSP16, literal(-14)))
        CFI (cfiCond8) V4 load(1, XDATA, add(CFA_XSP16, literal(-13)))
        CFI (cfiCond8) V5 load(1, XDATA, add(CFA_XSP16, literal(-12)))
        CFI (cfiCond8) V6 load(1, XDATA, add(CFA_XSP16, literal(-11)))
        CFI (cfiCond8) V7 load(1, XDATA, add(CFA_XSP16, literal(-10)))
        CFI (cfiCond8) V8 load(1, XDATA, add(CFA_XSP16, literal(-9)))
        CFI (cfiCond8) V9 load(1, XDATA, add(CFA_XSP16, literal(-8)))
        CFI (cfiCond8) V10 load(1, XDATA, add(CFA_XSP16, literal(-7)))
        CFI (cfiCond8) R7 load(1, XDATA, add(CFA_XSP16, literal(-6)))
        CFI (cfiCond8) ?RET_LOW load(1, XDATA, add(CFA_XSP16, literal(-5)))
        CFI (cfiCond8) ?RET_HIGH load(1, XDATA, add(CFA_XSP16, literal(-4)))
        CFI (cfiCond8) ?BRET_EXT load(1, XDATA, add(CFA_XSP16, literal(-3)))
        CFI (cfiCond8) DPL0 load(1, XDATA, add(CFA_XSP16, literal(-2)))
        CFI (cfiCond8) DPH0 load(1, XDATA, add(CFA_XSP16, literal(-1)))
        CFI (cfiCond8) CFA_SP SP+0
        CFI (cfiCond8) CFA_XSP16 add(XSP16, 26)
        CFI Block cfiPicker9 Using cfiCommon1
        CFI (cfiPicker9) NoFunction
        CFI (cfiPicker9) Picker
        MOV     R3,A
        CFI EndBlock cfiCond7
        CFI EndBlock cfiCond8
        CFI EndBlock cfiPicker9
        REQUIRE ??Subroutine16_0
        ; // Fall through to label ??Subroutine16_0

        RSEG BANKED_CODE:CODE:NOROOT(0)
??Subroutine16_0:
        CFI Block cfiCond10 Using cfiCommon0
        CFI NoFunction
        CFI Conditional ??CrossCallReturnLabel_30
        CFI R6 load(1, XDATA, add(CFA_XSP16, literal(-19)))
        CFI VB load(1, XDATA, add(CFA_XSP16, literal(-18)))
        CFI V0 load(1, XDATA, add(CFA_XSP16, literal(-17)))
        CFI V1 load(1, XDATA, add(CFA_XSP16, literal(-16)))
        CFI V2 load(1, XDATA, add(CFA_XSP16, literal(-15)))
        CFI V3 load(1, XDATA, add(CFA_XSP16, literal(-14)))
        CFI V4 load(1, XDATA, add(CFA_XSP16, literal(-13)))
        CFI V5 load(1, XDATA, add(CFA_XSP16, literal(-12)))
        CFI V6 load(1, XDATA, add(CFA_XSP16, literal(-11)))
        CFI V7 load(1, XDATA, add(CFA_XSP16, literal(-10)))
        CFI V8 load(1, XDATA, add(CFA_XSP16, literal(-9)))
        CFI V9 load(1, XDATA, add(CFA_XSP16, literal(-8)))
        CFI V10 load(1, XDATA, add(CFA_XSP16, literal(-7)))
        CFI R7 load(1, XDATA, add(CFA_XSP16, literal(-6)))
        CFI ?RET_LOW load(1, XDATA, add(CFA_XSP16, literal(-5)))
        CFI ?RET_HIGH load(1, XDATA, add(CFA_XSP16, literal(-4)))
        CFI ?BRET_EXT load(1, XDATA, add(CFA_XSP16, literal(-3)))
        CFI DPL0 load(1, XDATA, add(CFA_XSP16, literal(-2)))
        CFI DPH0 load(1, XDATA, add(CFA_XSP16, literal(-1)))
        CFI CFA_SP SP+0
        CFI CFA_XSP16 add(XSP16, 26)
        CFI Block cfiCond11 Using cfiCommon0
        CFI (cfiCond11) NoFunction
        CFI (cfiCond11) Conditional ??CrossCallReturnLabel_31
        CFI (cfiCond11) R6 load(1, XDATA, add(CFA_XSP16, literal(-19)))
        CFI (cfiCond11) VB load(1, XDATA, add(CFA_XSP16, literal(-18)))
        CFI (cfiCond11) V0 load(1, XDATA, add(CFA_XSP16, literal(-17)))
        CFI (cfiCond11) V1 load(1, XDATA, add(CFA_XSP16, literal(-16)))
        CFI (cfiCond11) V2 load(1, XDATA, add(CFA_XSP16, literal(-15)))
        CFI (cfiCond11) V3 load(1, XDATA, add(CFA_XSP16, literal(-14)))
        CFI (cfiCond11) V4 load(1, XDATA, add(CFA_XSP16, literal(-13)))
        CFI (cfiCond11) V5 load(1, XDATA, add(CFA_XSP16, literal(-12)))
        CFI (cfiCond11) V6 load(1, XDATA, add(CFA_XSP16, literal(-11)))
        CFI (cfiCond11) V7 load(1, XDATA, add(CFA_XSP16, literal(-10)))
        CFI (cfiCond11) V8 load(1, XDATA, add(CFA_XSP16, literal(-9)))
        CFI (cfiCond11) V9 load(1, XDATA, add(CFA_XSP16, literal(-8)))
        CFI (cfiCond11) V10 load(1, XDATA, add(CFA_XSP16, literal(-7)))
        CFI (cfiCond11) R7 load(1, XDATA, add(CFA_XSP16, literal(-6)))
        CFI (cfiCond11) ?RET_LOW load(1, XDATA, add(CFA_XSP16, literal(-5)))
        CFI (cfiCond11) ?RET_HIGH load(1, XDATA, add(CFA_XSP16, literal(-4)))
        CFI (cfiCond11) ?BRET_EXT load(1, XDATA, add(CFA_XSP16, literal(-3)))
        CFI (cfiCond11) DPL0 load(1, XDATA, add(CFA_XSP16, literal(-2)))
        CFI (cfiCond11) DPH0 load(1, XDATA, add(CFA_XSP16, literal(-1)))
        CFI (cfiCond11) CFA_SP SP+0
        CFI (cfiCond11) CFA_XSP16 add(XSP16, 26)
        CFI Block cfiCond12 Using cfiCommon0
        CFI (cfiCond12) NoFunction
        CFI (cfiCond12) Conditional ??CrossCallReturnLabel_28
        CFI (cfiCond12) R6 load(1, XDATA, add(CFA_XSP16, literal(-19)))
        CFI (cfiCond12) VB load(1, XDATA, add(CFA_XSP16, literal(-18)))
        CFI (cfiCond12) V0 load(1, XDATA, add(CFA_XSP16, literal(-17)))
        CFI (cfiCond12) V1 load(1, XDATA, add(CFA_XSP16, literal(-16)))
        CFI (cfiCond12) V2 load(1, XDATA, add(CFA_XSP16, literal(-15)))
        CFI (cfiCond12) V3 load(1, XDATA, add(CFA_XSP16, literal(-14)))
        CFI (cfiCond12) V4 load(1, XDATA, add(CFA_XSP16, literal(-13)))
        CFI (cfiCond12) V5 load(1, XDATA, add(CFA_XSP16, literal(-12)))
        CFI (cfiCond12) V6 load(1, XDATA, add(CFA_XSP16, literal(-11)))
        CFI (cfiCond12) V7 load(1, XDATA, add(CFA_XSP16, literal(-10)))
        CFI (cfiCond12) V8 load(1, XDATA, add(CFA_XSP16, literal(-9)))
        CFI (cfiCond12) V9 load(1, XDATA, add(CFA_XSP16, literal(-8)))
        CFI (cfiCond12) V10 load(1, XDATA, add(CFA_XSP16, literal(-7)))
        CFI (cfiCond12) R7 load(1, XDATA, add(CFA_XSP16, literal(-6)))
        CFI (cfiCond12) ?RET_LOW load(1, XDATA, add(CFA_XSP16, literal(-5)))
        CFI (cfiCond12) ?RET_HIGH load(1, XDATA, add(CFA_XSP16, literal(-4)))
        CFI (cfiCond12) ?BRET_EXT load(1, XDATA, add(CFA_XSP16, literal(-3)))
        CFI (cfiCond12) DPL0 load(1, XDATA, add(CFA_XSP16, literal(-2)))
        CFI (cfiCond12) DPH0 load(1, XDATA, add(CFA_XSP16, literal(-1)))
        CFI (cfiCond12) CFA_SP SP+0
        CFI (cfiCond12) CFA_XSP16 add(XSP16, 26)
        CFI Block cfiCond13 Using cfiCommon0
        CFI (cfiCond13) NoFunction
        CFI (cfiCond13) Conditional ??CrossCallReturnLabel_29
        CFI (cfiCond13) R6 load(1, XDATA, add(CFA_XSP16, literal(-19)))
        CFI (cfiCond13) VB load(1, XDATA, add(CFA_XSP16, literal(-18)))
        CFI (cfiCond13) V0 load(1, XDATA, add(CFA_XSP16, literal(-17)))
        CFI (cfiCond13) V1 load(1, XDATA, add(CFA_XSP16, literal(-16)))
        CFI (cfiCond13) V2 load(1, XDATA, add(CFA_XSP16, literal(-15)))
        CFI (cfiCond13) V3 load(1, XDATA, add(CFA_XSP16, literal(-14)))
        CFI (cfiCond13) V4 load(1, XDATA, add(CFA_XSP16, literal(-13)))
        CFI (cfiCond13) V5 load(1, XDATA, add(CFA_XSP16, literal(-12)))
        CFI (cfiCond13) V6 load(1, XDATA, add(CFA_XSP16, literal(-11)))
        CFI (cfiCond13) V7 load(1, XDATA, add(CFA_XSP16, literal(-10)))
        CFI (cfiCond13) V8 load(1, XDATA, add(CFA_XSP16, literal(-9)))
        CFI (cfiCond13) V9 load(1, XDATA, add(CFA_XSP16, literal(-8)))
        CFI (cfiCond13) V10 load(1, XDATA, add(CFA_XSP16, literal(-7)))
        CFI (cfiCond13) R7 load(1, XDATA, add(CFA_XSP16, literal(-6)))
        CFI (cfiCond13) ?RET_LOW load(1, XDATA, add(CFA_XSP16, literal(-5)))
        CFI (cfiCond13) ?RET_HIGH load(1, XDATA, add(CFA_XSP16, literal(-4)))
        CFI (cfiCond13) ?BRET_EXT load(1, XDATA, add(CFA_XSP16, literal(-3)))
        CFI (cfiCond13) DPL0 load(1, XDATA, add(CFA_XSP16, literal(-2)))
        CFI (cfiCond13) DPH0 load(1, XDATA, add(CFA_XSP16, literal(-1)))
        CFI (cfiCond13) CFA_SP SP+0
        CFI (cfiCond13) CFA_XSP16 add(XSP16, 26)
        CFI Block cfiPicker14 Using cfiCommon1
        CFI (cfiPicker14) NoFunction
        CFI (cfiPicker14) Picker
        LCALL   ??osal_memcpy?relay
        MOV     A,#0x3
        RET
        CFI EndBlock cfiCond10
        CFI EndBlock cfiCond11
        CFI EndBlock cfiCond12
        CFI EndBlock cfiCond13
        CFI EndBlock cfiPicker14

        RSEG BANKED_CODE:CODE:NOROOT(0)
?Subroutine10:
        CFI Block cfiCond15 Using cfiCommon0
        CFI NoFunction
        CFI Conditional ??CrossCallReturnLabel_19
        CFI R6 load(1, XDATA, add(CFA_XSP16, literal(-19)))
        CFI VB load(1, XDATA, add(CFA_XSP16, literal(-18)))
        CFI V0 load(1, XDATA, add(CFA_XSP16, literal(-17)))
        CFI V1 load(1, XDATA, add(CFA_XSP16, literal(-16)))
        CFI V2 load(1, XDATA, add(CFA_XSP16, literal(-15)))
        CFI V3 load(1, XDATA, add(CFA_XSP16, literal(-14)))
        CFI V4 load(1, XDATA, add(CFA_XSP16, literal(-13)))
        CFI V5 load(1, XDATA, add(CFA_XSP16, literal(-12)))
        CFI V6 load(1, XDATA, add(CFA_XSP16, literal(-11)))
        CFI V7 load(1, XDATA, add(CFA_XSP16, literal(-10)))
        CFI V8 load(1, XDATA, add(CFA_XSP16, literal(-9)))
        CFI V9 load(1, XDATA, add(CFA_XSP16, literal(-8)))
        CFI V10 load(1, XDATA, add(CFA_XSP16, literal(-7)))
        CFI R7 load(1, XDATA, add(CFA_XSP16, literal(-6)))
        CFI ?RET_LOW load(1, XDATA, add(CFA_XSP16, literal(-5)))
        CFI ?RET_HIGH load(1, XDATA, add(CFA_XSP16, literal(-4)))
        CFI ?BRET_EXT load(1, XDATA, add(CFA_XSP16, literal(-3)))
        CFI DPL0 load(1, XDATA, add(CFA_XSP16, literal(-2)))
        CFI DPH0 load(1, XDATA, add(CFA_XSP16, literal(-1)))
        CFI CFA_SP SP+0
        CFI CFA_XSP16 add(XSP16, 23)
        CFI Block cfiCond16 Using cfiCommon0
        CFI (cfiCond16) NoFunction
        CFI (cfiCond16) Conditional ??CrossCallReturnLabel_20
        CFI (cfiCond16) R6 load(1, XDATA, add(CFA_XSP16, literal(-19)))
        CFI (cfiCond16) VB load(1, XDATA, add(CFA_XSP16, literal(-18)))
        CFI (cfiCond16) V0 load(1, XDATA, add(CFA_XSP16, literal(-17)))
        CFI (cfiCond16) V1 load(1, XDATA, add(CFA_XSP16, literal(-16)))
        CFI (cfiCond16) V2 load(1, XDATA, add(CFA_XSP16, literal(-15)))
        CFI (cfiCond16) V3 load(1, XDATA, add(CFA_XSP16, literal(-14)))
        CFI (cfiCond16) V4 load(1, XDATA, add(CFA_XSP16, literal(-13)))
        CFI (cfiCond16) V5 load(1, XDATA, add(CFA_XSP16, literal(-12)))
        CFI (cfiCond16) V6 load(1, XDATA, add(CFA_XSP16, literal(-11)))
        CFI (cfiCond16) V7 load(1, XDATA, add(CFA_XSP16, literal(-10)))
        CFI (cfiCond16) V8 load(1, XDATA, add(CFA_XSP16, literal(-9)))
        CFI (cfiCond16) V9 load(1, XDATA, add(CFA_XSP16, literal(-8)))
        CFI (cfiCond16) V10 load(1, XDATA, add(CFA_XSP16, literal(-7)))
        CFI (cfiCond16) R7 load(1, XDATA, add(CFA_XSP16, literal(-6)))
        CFI (cfiCond16) ?RET_LOW load(1, XDATA, add(CFA_XSP16, literal(-5)))
        CFI (cfiCond16) ?RET_HIGH load(1, XDATA, add(CFA_XSP16, literal(-4)))
        CFI (cfiCond16) ?BRET_EXT load(1, XDATA, add(CFA_XSP16, literal(-3)))
        CFI (cfiCond16) DPL0 load(1, XDATA, add(CFA_XSP16, literal(-2)))
        CFI (cfiCond16) DPH0 load(1, XDATA, add(CFA_XSP16, literal(-1)))
        CFI (cfiCond16) CFA_SP SP+0
        CFI (cfiCond16) CFA_XSP16 add(XSP16, 23)
        CFI Block cfiPicker17 Using cfiCommon1
        CFI (cfiPicker17) NoFunction
        CFI (cfiPicker17) Picker
        ADDC    A,#0x0
        MOV     DPH,A
        MOVX    A,@DPTR
        MOV     ?V0 + 0,A
        MOV     DPTR,#lqiAdjMode
        MOVX    A,@DPTR
        RET
        CFI EndBlock cfiCond15
        CFI EndBlock cfiCond16
        CFI EndBlock cfiPicker17

        RSEG BANKED_CODE:CODE:NOROOT(0)
?Subroutine9:
        CFI Block cfiCond18 Using cfiCommon0
        CFI NoFunction
        CFI Conditional ??CrossCallReturnLabel_17
        CFI R6 load(1, XDATA, add(CFA_XSP16, literal(-19)))
        CFI VB load(1, XDATA, add(CFA_XSP16, literal(-18)))
        CFI V0 load(1, XDATA, add(CFA_XSP16, literal(-17)))
        CFI V1 load(1, XDATA, add(CFA_XSP16, literal(-16)))
        CFI V2 load(1, XDATA, add(CFA_XSP16, literal(-15)))
        CFI V3 load(1, XDATA, add(CFA_XSP16, literal(-14)))
        CFI V4 load(1, XDATA, add(CFA_XSP16, literal(-13)))
        CFI V5 load(1, XDATA, add(CFA_XSP16, literal(-12)))
        CFI V6 load(1, XDATA, add(CFA_XSP16, literal(-11)))
        CFI V7 load(1, XDATA, add(CFA_XSP16, literal(-10)))
        CFI V8 load(1, XDATA, add(CFA_XSP16, literal(-9)))
        CFI V9 load(1, XDATA, add(CFA_XSP16, literal(-8)))
        CFI V10 load(1, XDATA, add(CFA_XSP16, literal(-7)))
        CFI R7 load(1, XDATA, add(CFA_XSP16, literal(-6)))
        CFI ?RET_LOW load(1, XDATA, add(CFA_XSP16, literal(-5)))
        CFI ?RET_HIGH load(1, XDATA, add(CFA_XSP16, literal(-4)))
        CFI ?BRET_EXT load(1, XDATA, add(CFA_XSP16, literal(-3)))
        CFI DPL0 load(1, XDATA, add(CFA_XSP16, literal(-2)))
        CFI DPH0 load(1, XDATA, add(CFA_XSP16, literal(-1)))
        CFI CFA_SP SP+0
        CFI CFA_XSP16 add(XSP16, 23)
        CFI Block cfiCond19 Using cfiCommon0
        CFI (cfiCond19) NoFunction
        CFI (cfiCond19) Conditional ??CrossCallReturnLabel_18
        CFI (cfiCond19) R6 load(1, XDATA, add(CFA_XSP16, literal(-19)))
        CFI (cfiCond19) VB load(1, XDATA, add(CFA_XSP16, literal(-18)))
        CFI (cfiCond19) V0 load(1, XDATA, add(CFA_XSP16, literal(-17)))
        CFI (cfiCond19) V1 load(1, XDATA, add(CFA_XSP16, literal(-16)))
        CFI (cfiCond19) V2 load(1, XDATA, add(CFA_XSP16, literal(-15)))
        CFI (cfiCond19) V3 load(1, XDATA, add(CFA_XSP16, literal(-14)))
        CFI (cfiCond19) V4 load(1, XDATA, add(CFA_XSP16, literal(-13)))
        CFI (cfiCond19) V5 load(1, XDATA, add(CFA_XSP16, literal(-12)))
        CFI (cfiCond19) V6 load(1, XDATA, add(CFA_XSP16, literal(-11)))
        CFI (cfiCond19) V7 load(1, XDATA, add(CFA_XSP16, literal(-10)))
        CFI (cfiCond19) V8 load(1, XDATA, add(CFA_XSP16, literal(-9)))
        CFI (cfiCond19) V9 load(1, XDATA, add(CFA_XSP16, literal(-8)))
        CFI (cfiCond19) V10 load(1, XDATA, add(CFA_XSP16, literal(-7)))
        CFI (cfiCond19) R7 load(1, XDATA, add(CFA_XSP16, literal(-6)))
        CFI (cfiCond19) ?RET_LOW load(1, XDATA, add(CFA_XSP16, literal(-5)))
        CFI (cfiCond19) ?RET_HIGH load(1, XDATA, add(CFA_XSP16, literal(-4)))
        CFI (cfiCond19) ?BRET_EXT load(1, XDATA, add(CFA_XSP16, literal(-3)))
        CFI (cfiCond19) DPL0 load(1, XDATA, add(CFA_XSP16, literal(-2)))
        CFI (cfiCond19) DPH0 load(1, XDATA, add(CFA_XSP16, literal(-1)))
        CFI (cfiCond19) CFA_SP SP+0
        CFI (cfiCond19) CFA_XSP16 add(XSP16, 23)
        CFI Block cfiPicker20 Using cfiCommon1
        CFI (cfiPicker20) NoFunction
        CFI (cfiPicker20) Picker
        MOV     A,?V0 + 0
        ADD     A,#-0x32
        MOV     ?V0 + 0,A
        CLR     A
        ADDC    A,#-0x1
        MOV     ?V0 + 1,A
        MOV     A,R0
        MOV     B,?V0 + 0
        MUL     AB
        XCH     A,R0
        MOV     R2,B
        MOV     B,?V0 + 1
        MUL     AB
        ADD     A,R2
        MOV     R1,A
        MOV     R2,#0x3c
        MOV     R3,#0x0
        RET
        CFI EndBlock cfiCond18
        CFI EndBlock cfiCond19
        CFI EndBlock cfiPicker20

        RSEG BANKED_CODE:CODE:NOROOT(0)
?Subroutine8:
        CFI Block cfiCond21 Using cfiCommon0
        CFI NoFunction
        CFI Conditional ??CrossCallReturnLabel_15
        CFI R6 load(1, XDATA, add(CFA_XSP16, literal(-19)))
        CFI VB load(1, XDATA, add(CFA_XSP16, literal(-18)))
        CFI V0 load(1, XDATA, add(CFA_XSP16, literal(-17)))
        CFI V1 load(1, XDATA, add(CFA_XSP16, literal(-16)))
        CFI V2 load(1, XDATA, add(CFA_XSP16, literal(-15)))
        CFI V3 load(1, XDATA, add(CFA_XSP16, literal(-14)))
        CFI V4 load(1, XDATA, add(CFA_XSP16, literal(-13)))
        CFI V5 load(1, XDATA, add(CFA_XSP16, literal(-12)))
        CFI V6 load(1, XDATA, add(CFA_XSP16, literal(-11)))
        CFI V7 load(1, XDATA, add(CFA_XSP16, literal(-10)))
        CFI V8 load(1, XDATA, add(CFA_XSP16, literal(-9)))
        CFI V9 load(1, XDATA, add(CFA_XSP16, literal(-8)))
        CFI V10 load(1, XDATA, add(CFA_XSP16, literal(-7)))
        CFI R7 load(1, XDATA, add(CFA_XSP16, literal(-6)))
        CFI ?RET_LOW load(1, XDATA, add(CFA_XSP16, literal(-5)))
        CFI ?RET_HIGH load(1, XDATA, add(CFA_XSP16, literal(-4)))
        CFI ?BRET_EXT load(1, XDATA, add(CFA_XSP16, literal(-3)))
        CFI DPL0 load(1, XDATA, add(CFA_XSP16, literal(-2)))
        CFI DPH0 load(1, XDATA, add(CFA_XSP16, literal(-1)))
        CFI CFA_SP SP+0
        CFI CFA_XSP16 add(XSP16, 23)
        CFI Block cfiCond22 Using cfiCommon0
        CFI (cfiCond22) NoFunction
        CFI (cfiCond22) Conditional ??CrossCallReturnLabel_16
        CFI (cfiCond22) R6 load(1, XDATA, add(CFA_XSP16, literal(-19)))
        CFI (cfiCond22) VB load(1, XDATA, add(CFA_XSP16, literal(-18)))
        CFI (cfiCond22) V0 load(1, XDATA, add(CFA_XSP16, literal(-17)))
        CFI (cfiCond22) V1 load(1, XDATA, add(CFA_XSP16, literal(-16)))
        CFI (cfiCond22) V2 load(1, XDATA, add(CFA_XSP16, literal(-15)))
        CFI (cfiCond22) V3 load(1, XDATA, add(CFA_XSP16, literal(-14)))
        CFI (cfiCond22) V4 load(1, XDATA, add(CFA_XSP16, literal(-13)))
        CFI (cfiCond22) V5 load(1, XDATA, add(CFA_XSP16, literal(-12)))
        CFI (cfiCond22) V6 load(1, XDATA, add(CFA_XSP16, literal(-11)))
        CFI (cfiCond22) V7 load(1, XDATA, add(CFA_XSP16, literal(-10)))
        CFI (cfiCond22) V8 load(1, XDATA, add(CFA_XSP16, literal(-9)))
        CFI (cfiCond22) V9 load(1, XDATA, add(CFA_XSP16, literal(-8)))
        CFI (cfiCond22) V10 load(1, XDATA, add(CFA_XSP16, literal(-7)))
        CFI (cfiCond22) R7 load(1, XDATA, add(CFA_XSP16, literal(-6)))
        CFI (cfiCond22) ?RET_LOW load(1, XDATA, add(CFA_XSP16, literal(-5)))
        CFI (cfiCond22) ?RET_HIGH load(1, XDATA, add(CFA_XSP16, literal(-4)))
        CFI (cfiCond22) ?BRET_EXT load(1, XDATA, add(CFA_XSP16, literal(-3)))
        CFI (cfiCond22) DPL0 load(1, XDATA, add(CFA_XSP16, literal(-2)))
        CFI (cfiCond22) DPH0 load(1, XDATA, add(CFA_XSP16, literal(-1)))
        CFI (cfiCond22) CFA_SP SP+0
        CFI (cfiCond22) CFA_XSP16 add(XSP16, 23)
        CFI Block cfiPicker23 Using cfiCommon1
        CFI (cfiPicker23) NoFunction
        CFI (cfiPicker23) Picker
        MOV     DPH,A
        MOVX    A,@DPTR
        MOV     ?V0 + 8,A
        INC     DPTR
        MOVX    A,@DPTR
        MOV     ?V0 + 9,A
        MOV     R0,#?V0 + 8
        RET
        CFI EndBlock cfiCond21
        CFI EndBlock cfiCond22
        CFI EndBlock cfiPicker23

        RSEG BANKED_CODE:CODE:NOROOT(0)
?Subroutine7:
        CFI Block cfiCond24 Using cfiCommon0
        CFI NoFunction
        CFI Conditional ??CrossCallReturnLabel_13
        CFI R6 load(1, XDATA, add(CFA_XSP16, literal(-19)))
        CFI VB load(1, XDATA, add(CFA_XSP16, literal(-18)))
        CFI V0 load(1, XDATA, add(CFA_XSP16, literal(-17)))
        CFI V1 load(1, XDATA, add(CFA_XSP16, literal(-16)))
        CFI V2 load(1, XDATA, add(CFA_XSP16, literal(-15)))
        CFI V3 load(1, XDATA, add(CFA_XSP16, literal(-14)))
        CFI V4 load(1, XDATA, add(CFA_XSP16, literal(-13)))
        CFI V5 load(1, XDATA, add(CFA_XSP16, literal(-12)))
        CFI V6 load(1, XDATA, add(CFA_XSP16, literal(-11)))
        CFI V7 load(1, XDATA, add(CFA_XSP16, literal(-10)))
        CFI V8 load(1, XDATA, add(CFA_XSP16, literal(-9)))
        CFI V9 load(1, XDATA, add(CFA_XSP16, literal(-8)))
        CFI V10 load(1, XDATA, add(CFA_XSP16, literal(-7)))
        CFI R7 load(1, XDATA, add(CFA_XSP16, literal(-6)))
        CFI ?RET_LOW load(1, XDATA, add(CFA_XSP16, literal(-5)))
        CFI ?RET_HIGH load(1, XDATA, add(CFA_XSP16, literal(-4)))
        CFI ?BRET_EXT load(1, XDATA, add(CFA_XSP16, literal(-3)))
        CFI DPL0 load(1, XDATA, add(CFA_XSP16, literal(-2)))
        CFI DPH0 load(1, XDATA, add(CFA_XSP16, literal(-1)))
        CFI CFA_SP SP+0
        CFI CFA_XSP16 add(XSP16, 23)
        CFI Block cfiCond25 Using cfiCommon0
        CFI (cfiCond25) NoFunction
        CFI (cfiCond25) Conditional ??CrossCallReturnLabel_14
        CFI (cfiCond25) R6 load(1, XDATA, add(CFA_XSP16, literal(-19)))
        CFI (cfiCond25) VB load(1, XDATA, add(CFA_XSP16, literal(-18)))
        CFI (cfiCond25) V0 load(1, XDATA, add(CFA_XSP16, literal(-17)))
        CFI (cfiCond25) V1 load(1, XDATA, add(CFA_XSP16, literal(-16)))
        CFI (cfiCond25) V2 load(1, XDATA, add(CFA_XSP16, literal(-15)))
        CFI (cfiCond25) V3 load(1, XDATA, add(CFA_XSP16, literal(-14)))
        CFI (cfiCond25) V4 load(1, XDATA, add(CFA_XSP16, literal(-13)))
        CFI (cfiCond25) V5 load(1, XDATA, add(CFA_XSP16, literal(-12)))
        CFI (cfiCond25) V6 load(1, XDATA, add(CFA_XSP16, literal(-11)))
        CFI (cfiCond25) V7 load(1, XDATA, add(CFA_XSP16, literal(-10)))
        CFI (cfiCond25) V8 load(1, XDATA, add(CFA_XSP16, literal(-9)))
        CFI (cfiCond25) V9 load(1, XDATA, add(CFA_XSP16, literal(-8)))
        CFI (cfiCond25) V10 load(1, XDATA, add(CFA_XSP16, literal(-7)))
        CFI (cfiCond25) R7 load(1, XDATA, add(CFA_XSP16, literal(-6)))
        CFI (cfiCond25) ?RET_LOW load(1, XDATA, add(CFA_XSP16, literal(-5)))
        CFI (cfiCond25) ?RET_HIGH load(1, XDATA, add(CFA_XSP16, literal(-4)))
        CFI (cfiCond25) ?BRET_EXT load(1, XDATA, add(CFA_XSP16, literal(-3)))
        CFI (cfiCond25) DPL0 load(1, XDATA, add(CFA_XSP16, literal(-2)))
        CFI (cfiCond25) DPH0 load(1, XDATA, add(CFA_XSP16, literal(-1)))
        CFI (cfiCond25) CFA_SP SP+0
        CFI (cfiCond25) CFA_XSP16 add(XSP16, 23)
        CFI Block cfiPicker26 Using cfiCommon1
        CFI (cfiPicker26) NoFunction
        CFI (cfiPicker26) Picker
        MOVX    A,@DPTR
        MOV     R2,A
        INC     DPTR
        MOVX    A,@DPTR
        MOV     R3,A
        LCALL   ??osal_msg_allocate?relay
        RET
        CFI EndBlock cfiCond24
        CFI EndBlock cfiCond25
        CFI EndBlock cfiPicker26

        RSEG BANKED_CODE:CODE:NOROOT(0)
?Subroutine6:
        CFI Block cfiCond27 Using cfiCommon0
        CFI NoFunction
        CFI Conditional ??CrossCallReturnLabel_34
        CFI R6 load(1, XDATA, add(CFA_XSP16, literal(-19)))
        CFI VB load(1, XDATA, add(CFA_XSP16, literal(-18)))
        CFI V0 load(1, XDATA, add(CFA_XSP16, literal(-17)))
        CFI V1 load(1, XDATA, add(CFA_XSP16, literal(-16)))
        CFI V2 load(1, XDATA, add(CFA_XSP16, literal(-15)))
        CFI V3 load(1, XDATA, add(CFA_XSP16, literal(-14)))
        CFI V4 load(1, XDATA, add(CFA_XSP16, literal(-13)))
        CFI V5 load(1, XDATA, add(CFA_XSP16, literal(-12)))
        CFI V6 load(1, XDATA, add(CFA_XSP16, literal(-11)))
        CFI V7 load(1, XDATA, add(CFA_XSP16, literal(-10)))
        CFI V8 load(1, XDATA, add(CFA_XSP16, literal(-9)))
        CFI V9 load(1, XDATA, add(CFA_XSP16, literal(-8)))
        CFI V10 load(1, XDATA, add(CFA_XSP16, literal(-7)))
        CFI R7 load(1, XDATA, add(CFA_XSP16, literal(-6)))
        CFI ?RET_LOW load(1, XDATA, add(CFA_XSP16, literal(-5)))
        CFI ?RET_HIGH load(1, XDATA, add(CFA_XSP16, literal(-4)))
        CFI ?BRET_EXT load(1, XDATA, add(CFA_XSP16, literal(-3)))
        CFI DPL0 load(1, XDATA, add(CFA_XSP16, literal(-2)))
        CFI DPH0 load(1, XDATA, add(CFA_XSP16, literal(-1)))
        CFI CFA_SP SP+0
        CFI CFA_XSP16 add(XSP16, 23)
        CFI Block cfiCond28 Using cfiCommon0
        CFI (cfiCond28) NoFunction
        CFI (cfiCond28) Conditional ??CrossCallReturnLabel_35
        CFI (cfiCond28) R6 load(1, XDATA, add(CFA_XSP16, literal(-19)))
        CFI (cfiCond28) VB load(1, XDATA, add(CFA_XSP16, literal(-18)))
        CFI (cfiCond28) V0 load(1, XDATA, add(CFA_XSP16, literal(-17)))
        CFI (cfiCond28) V1 load(1, XDATA, add(CFA_XSP16, literal(-16)))
        CFI (cfiCond28) V2 load(1, XDATA, add(CFA_XSP16, literal(-15)))
        CFI (cfiCond28) V3 load(1, XDATA, add(CFA_XSP16, literal(-14)))
        CFI (cfiCond28) V4 load(1, XDATA, add(CFA_XSP16, literal(-13)))
        CFI (cfiCond28) V5 load(1, XDATA, add(CFA_XSP16, literal(-12)))
        CFI (cfiCond28) V6 load(1, XDATA, add(CFA_XSP16, literal(-11)))
        CFI (cfiCond28) V7 load(1, XDATA, add(CFA_XSP16, literal(-10)))
        CFI (cfiCond28) V8 load(1, XDATA, add(CFA_XSP16, literal(-9)))
        CFI (cfiCond28) V9 load(1, XDATA, add(CFA_XSP16, literal(-8)))
        CFI (cfiCond28) V10 load(1, XDATA, add(CFA_XSP16, literal(-7)))
        CFI (cfiCond28) R7 load(1, XDATA, add(CFA_XSP16, literal(-6)))
        CFI (cfiCond28) ?RET_LOW load(1, XDATA, add(CFA_XSP16, literal(-5)))
        CFI (cfiCond28) ?RET_HIGH load(1, XDATA, add(CFA_XSP16, literal(-4)))
        CFI (cfiCond28) ?BRET_EXT load(1, XDATA, add(CFA_XSP16, literal(-3)))
        CFI (cfiCond28) DPL0 load(1, XDATA, add(CFA_XSP16, literal(-2)))
        CFI (cfiCond28) DPH0 load(1, XDATA, add(CFA_XSP16, literal(-1)))
        CFI (cfiCond28) CFA_SP SP+0
        CFI (cfiCond28) CFA_XSP16 add(XSP16, 23)
        CFI Block cfiPicker29 Using cfiCommon1
        CFI (cfiPicker29) NoFunction
        CFI (cfiPicker29) Picker
        MOV     DPL,?XSP + 0
        MOV     DPH,?XSP + 1
        MOVX    A,@DPTR
        MOV     R0,A
        CFI EndBlock cfiCond27
        CFI EndBlock cfiCond28
        CFI EndBlock cfiPicker29
        REQUIRE ??Subroutine17_0
        ; // Fall through to label ??Subroutine17_0

        RSEG BANKED_CODE:CODE:NOROOT(0)
??Subroutine17_0:
        CFI Block cfiCond30 Using cfiCommon0
        CFI NoFunction
        CFI Conditional ??CrossCallReturnLabel_33
        CFI R6 load(1, XDATA, add(CFA_XSP16, literal(-19)))
        CFI VB load(1, XDATA, add(CFA_XSP16, literal(-18)))
        CFI V0 load(1, XDATA, add(CFA_XSP16, literal(-17)))
        CFI V1 load(1, XDATA, add(CFA_XSP16, literal(-16)))
        CFI V2 load(1, XDATA, add(CFA_XSP16, literal(-15)))
        CFI V3 load(1, XDATA, add(CFA_XSP16, literal(-14)))
        CFI V4 load(1, XDATA, add(CFA_XSP16, literal(-13)))
        CFI V5 load(1, XDATA, add(CFA_XSP16, literal(-12)))
        CFI V6 load(1, XDATA, add(CFA_XSP16, literal(-11)))
        CFI V7 load(1, XDATA, add(CFA_XSP16, literal(-10)))
        CFI V8 load(1, XDATA, add(CFA_XSP16, literal(-9)))
        CFI V9 load(1, XDATA, add(CFA_XSP16, literal(-8)))
        CFI V10 load(1, XDATA, add(CFA_XSP16, literal(-7)))
        CFI R7 load(1, XDATA, add(CFA_XSP16, literal(-6)))
        CFI ?RET_LOW load(1, XDATA, add(CFA_XSP16, literal(-5)))
        CFI ?RET_HIGH load(1, XDATA, add(CFA_XSP16, literal(-4)))
        CFI ?BRET_EXT load(1, XDATA, add(CFA_XSP16, literal(-3)))
        CFI DPL0 load(1, XDATA, add(CFA_XSP16, literal(-2)))
        CFI DPH0 load(1, XDATA, add(CFA_XSP16, literal(-1)))
        CFI CFA_SP SP+0
        CFI CFA_XSP16 add(XSP16, 23)
        CFI Block cfiCond31 Using cfiCommon0
        CFI (cfiCond31) NoFunction
        CFI (cfiCond31) Conditional ??CrossCallReturnLabel_34
        CFI (cfiCond31) R6 load(1, XDATA, add(CFA_XSP16, literal(-19)))
        CFI (cfiCond31) VB load(1, XDATA, add(CFA_XSP16, literal(-18)))
        CFI (cfiCond31) V0 load(1, XDATA, add(CFA_XSP16, literal(-17)))
        CFI (cfiCond31) V1 load(1, XDATA, add(CFA_XSP16, literal(-16)))
        CFI (cfiCond31) V2 load(1, XDATA, add(CFA_XSP16, literal(-15)))
        CFI (cfiCond31) V3 load(1, XDATA, add(CFA_XSP16, literal(-14)))
        CFI (cfiCond31) V4 load(1, XDATA, add(CFA_XSP16, literal(-13)))
        CFI (cfiCond31) V5 load(1, XDATA, add(CFA_XSP16, literal(-12)))
        CFI (cfiCond31) V6 load(1, XDATA, add(CFA_XSP16, literal(-11)))
        CFI (cfiCond31) V7 load(1, XDATA, add(CFA_XSP16, literal(-10)))
        CFI (cfiCond31) V8 load(1, XDATA, add(CFA_XSP16, literal(-9)))
        CFI (cfiCond31) V9 load(1, XDATA, add(CFA_XSP16, literal(-8)))
        CFI (cfiCond31) V10 load(1, XDATA, add(CFA_XSP16, literal(-7)))
        CFI (cfiCond31) R7 load(1, XDATA, add(CFA_XSP16, literal(-6)))
        CFI (cfiCond31) ?RET_LOW load(1, XDATA, add(CFA_XSP16, literal(-5)))
        CFI (cfiCond31) ?RET_HIGH load(1, XDATA, add(CFA_XSP16, literal(-4)))
        CFI (cfiCond31) ?BRET_EXT load(1, XDATA, add(CFA_XSP16, literal(-3)))
        CFI (cfiCond31) DPL0 load(1, XDATA, add(CFA_XSP16, literal(-2)))
        CFI (cfiCond31) DPH0 load(1, XDATA, add(CFA_XSP16, literal(-1)))
        CFI (cfiCond31) CFA_SP SP+0
        CFI (cfiCond31) CFA_XSP16 add(XSP16, 23)
        CFI Block cfiCond32 Using cfiCommon0
        CFI (cfiCond32) NoFunction
        CFI (cfiCond32) Conditional ??CrossCallReturnLabel_35
        CFI (cfiCond32) R6 load(1, XDATA, add(CFA_XSP16, literal(-19)))
        CFI (cfiCond32) VB load(1, XDATA, add(CFA_XSP16, literal(-18)))
        CFI (cfiCond32) V0 load(1, XDATA, add(CFA_XSP16, literal(-17)))
        CFI (cfiCond32) V1 load(1, XDATA, add(CFA_XSP16, literal(-16)))
        CFI (cfiCond32) V2 load(1, XDATA, add(CFA_XSP16, literal(-15)))
        CFI (cfiCond32) V3 load(1, XDATA, add(CFA_XSP16, literal(-14)))
        CFI (cfiCond32) V4 load(1, XDATA, add(CFA_XSP16, literal(-13)))
        CFI (cfiCond32) V5 load(1, XDATA, add(CFA_XSP16, literal(-12)))
        CFI (cfiCond32) V6 load(1, XDATA, add(CFA_XSP16, literal(-11)))
        CFI (cfiCond32) V7 load(1, XDATA, add(CFA_XSP16, literal(-10)))
        CFI (cfiCond32) V8 load(1, XDATA, add(CFA_XSP16, literal(-9)))
        CFI (cfiCond32) V9 load(1, XDATA, add(CFA_XSP16, literal(-8)))
        CFI (cfiCond32) V10 load(1, XDATA, add(CFA_XSP16, literal(-7)))
        CFI (cfiCond32) R7 load(1, XDATA, add(CFA_XSP16, literal(-6)))
        CFI (cfiCond32) ?RET_LOW load(1, XDATA, add(CFA_XSP16, literal(-5)))
        CFI (cfiCond32) ?RET_HIGH load(1, XDATA, add(CFA_XSP16, literal(-4)))
        CFI (cfiCond32) ?BRET_EXT load(1, XDATA, add(CFA_XSP16, literal(-3)))
        CFI (cfiCond32) DPL0 load(1, XDATA, add(CFA_XSP16, literal(-2)))
        CFI (cfiCond32) DPH0 load(1, XDATA, add(CFA_XSP16, literal(-1)))
        CFI (cfiCond32) CFA_SP SP+0
        CFI (cfiCond32) CFA_XSP16 add(XSP16, 23)
        CFI Block cfiPicker33 Using cfiCommon1
        CFI (cfiPicker33) NoFunction
        CFI (cfiPicker33) Picker
        INC     DPTR
        CFI EndBlock cfiCond30
        CFI EndBlock cfiCond31
        CFI EndBlock cfiCond32
        CFI EndBlock cfiPicker33
        REQUIRE ??Subroutine18_0
        ; // Fall through to label ??Subroutine18_0

        RSEG BANKED_CODE:CODE:NOROOT(0)
??Subroutine18_0:
        CFI Block cfiCond34 Using cfiCommon0
        CFI NoFunction
        CFI Conditional ??CrossCallReturnLabel_32
        CFI R6 load(1, XDATA, add(CFA_XSP16, literal(-19)))
        CFI VB load(1, XDATA, add(CFA_XSP16, literal(-18)))
        CFI V0 load(1, XDATA, add(CFA_XSP16, literal(-17)))
        CFI V1 load(1, XDATA, add(CFA_XSP16, literal(-16)))
        CFI V2 load(1, XDATA, add(CFA_XSP16, literal(-15)))
        CFI V3 load(1, XDATA, add(CFA_XSP16, literal(-14)))
        CFI V4 load(1, XDATA, add(CFA_XSP16, literal(-13)))
        CFI V5 load(1, XDATA, add(CFA_XSP16, literal(-12)))
        CFI V6 load(1, XDATA, add(CFA_XSP16, literal(-11)))
        CFI V7 load(1, XDATA, add(CFA_XSP16, literal(-10)))
        CFI V8 load(1, XDATA, add(CFA_XSP16, literal(-9)))
        CFI V9 load(1, XDATA, add(CFA_XSP16, literal(-8)))
        CFI V10 load(1, XDATA, add(CFA_XSP16, literal(-7)))
        CFI R7 load(1, XDATA, add(CFA_XSP16, literal(-6)))
        CFI ?RET_LOW load(1, XDATA, add(CFA_XSP16, literal(-5)))
        CFI ?RET_HIGH load(1, XDATA, add(CFA_XSP16, literal(-4)))
        CFI ?BRET_EXT load(1, XDATA, add(CFA_XSP16, literal(-3)))
        CFI DPL0 load(1, XDATA, add(CFA_XSP16, literal(-2)))
        CFI DPH0 load(1, XDATA, add(CFA_XSP16, literal(-1)))
        CFI CFA_SP SP+0
        CFI CFA_XSP16 add(XSP16, 23)
        CFI Block cfiCond35 Using cfiCommon0
        CFI (cfiCond35) NoFunction
        CFI (cfiCond35) Conditional ??CrossCallReturnLabel_33
        CFI (cfiCond35) R6 load(1, XDATA, add(CFA_XSP16, literal(-19)))
        CFI (cfiCond35) VB load(1, XDATA, add(CFA_XSP16, literal(-18)))
        CFI (cfiCond35) V0 load(1, XDATA, add(CFA_XSP16, literal(-17)))
        CFI (cfiCond35) V1 load(1, XDATA, add(CFA_XSP16, literal(-16)))
        CFI (cfiCond35) V2 load(1, XDATA, add(CFA_XSP16, literal(-15)))
        CFI (cfiCond35) V3 load(1, XDATA, add(CFA_XSP16, literal(-14)))
        CFI (cfiCond35) V4 load(1, XDATA, add(CFA_XSP16, literal(-13)))
        CFI (cfiCond35) V5 load(1, XDATA, add(CFA_XSP16, literal(-12)))
        CFI (cfiCond35) V6 load(1, XDATA, add(CFA_XSP16, literal(-11)))
        CFI (cfiCond35) V7 load(1, XDATA, add(CFA_XSP16, literal(-10)))
        CFI (cfiCond35) V8 load(1, XDATA, add(CFA_XSP16, literal(-9)))
        CFI (cfiCond35) V9 load(1, XDATA, add(CFA_XSP16, literal(-8)))
        CFI (cfiCond35) V10 load(1, XDATA, add(CFA_XSP16, literal(-7)))
        CFI (cfiCond35) R7 load(1, XDATA, add(CFA_XSP16, literal(-6)))
        CFI (cfiCond35) ?RET_LOW load(1, XDATA, add(CFA_XSP16, literal(-5)))
        CFI (cfiCond35) ?RET_HIGH load(1, XDATA, add(CFA_XSP16, literal(-4)))
        CFI (cfiCond35) ?BRET_EXT load(1, XDATA, add(CFA_XSP16, literal(-3)))
        CFI (cfiCond35) DPL0 load(1, XDATA, add(CFA_XSP16, literal(-2)))
        CFI (cfiCond35) DPH0 load(1, XDATA, add(CFA_XSP16, literal(-1)))
        CFI (cfiCond35) CFA_SP SP+0
        CFI (cfiCond35) CFA_XSP16 add(XSP16, 23)
        CFI Block cfiCond36 Using cfiCommon0
        CFI (cfiCond36) NoFunction
        CFI (cfiCond36) Conditional ??CrossCallReturnLabel_34
        CFI (cfiCond36) R6 load(1, XDATA, add(CFA_XSP16, literal(-19)))
        CFI (cfiCond36) VB load(1, XDATA, add(CFA_XSP16, literal(-18)))
        CFI (cfiCond36) V0 load(1, XDATA, add(CFA_XSP16, literal(-17)))
        CFI (cfiCond36) V1 load(1, XDATA, add(CFA_XSP16, literal(-16)))
        CFI (cfiCond36) V2 load(1, XDATA, add(CFA_XSP16, literal(-15)))
        CFI (cfiCond36) V3 load(1, XDATA, add(CFA_XSP16, literal(-14)))
        CFI (cfiCond36) V4 load(1, XDATA, add(CFA_XSP16, literal(-13)))
        CFI (cfiCond36) V5 load(1, XDATA, add(CFA_XSP16, literal(-12)))
        CFI (cfiCond36) V6 load(1, XDATA, add(CFA_XSP16, literal(-11)))
        CFI (cfiCond36) V7 load(1, XDATA, add(CFA_XSP16, literal(-10)))
        CFI (cfiCond36) V8 load(1, XDATA, add(CFA_XSP16, literal(-9)))
        CFI (cfiCond36) V9 load(1, XDATA, add(CFA_XSP16, literal(-8)))
        CFI (cfiCond36) V10 load(1, XDATA, add(CFA_XSP16, literal(-7)))
        CFI (cfiCond36) R7 load(1, XDATA, add(CFA_XSP16, literal(-6)))
        CFI (cfiCond36) ?RET_LOW load(1, XDATA, add(CFA_XSP16, literal(-5)))
        CFI (cfiCond36) ?RET_HIGH load(1, XDATA, add(CFA_XSP16, literal(-4)))
        CFI (cfiCond36) ?BRET_EXT load(1, XDATA, add(CFA_XSP16, literal(-3)))
        CFI (cfiCond36) DPL0 load(1, XDATA, add(CFA_XSP16, literal(-2)))
        CFI (cfiCond36) DPH0 load(1, XDATA, add(CFA_XSP16, literal(-1)))
        CFI (cfiCond36) CFA_SP SP+0
        CFI (cfiCond36) CFA_XSP16 add(XSP16, 23)
        CFI Block cfiCond37 Using cfiCommon0
        CFI (cfiCond37) NoFunction
        CFI (cfiCond37) Conditional ??CrossCallReturnLabel_35
        CFI (cfiCond37) R6 load(1, XDATA, add(CFA_XSP16, literal(-19)))
        CFI (cfiCond37) VB load(1, XDATA, add(CFA_XSP16, literal(-18)))
        CFI (cfiCond37) V0 load(1, XDATA, add(CFA_XSP16, literal(-17)))
        CFI (cfiCond37) V1 load(1, XDATA, add(CFA_XSP16, literal(-16)))
        CFI (cfiCond37) V2 load(1, XDATA, add(CFA_XSP16, literal(-15)))
        CFI (cfiCond37) V3 load(1, XDATA, add(CFA_XSP16, literal(-14)))
        CFI (cfiCond37) V4 load(1, XDATA, add(CFA_XSP16, literal(-13)))
        CFI (cfiCond37) V5 load(1, XDATA, add(CFA_XSP16, literal(-12)))
        CFI (cfiCond37) V6 load(1, XDATA, add(CFA_XSP16, literal(-11)))
        CFI (cfiCond37) V7 load(1, XDATA, add(CFA_XSP16, literal(-10)))
        CFI (cfiCond37) V8 load(1, XDATA, add(CFA_XSP16, literal(-9)))
        CFI (cfiCond37) V9 load(1, XDATA, add(CFA_XSP16, literal(-8)))
        CFI (cfiCond37) V10 load(1, XDATA, add(CFA_XSP16, literal(-7)))
        CFI (cfiCond37) R7 load(1, XDATA, add(CFA_XSP16, literal(-6)))
        CFI (cfiCond37) ?RET_LOW load(1, XDATA, add(CFA_XSP16, literal(-5)))
        CFI (cfiCond37) ?RET_HIGH load(1, XDATA, add(CFA_XSP16, literal(-4)))
        CFI (cfiCond37) ?BRET_EXT load(1, XDATA, add(CFA_XSP16, literal(-3)))
        CFI (cfiCond37) DPL0 load(1, XDATA, add(CFA_XSP16, literal(-2)))
        CFI (cfiCond37) DPH0 load(1, XDATA, add(CFA_XSP16, literal(-1)))
        CFI (cfiCond37) CFA_SP SP+0
        CFI (cfiCond37) CFA_XSP16 add(XSP16, 23)
        CFI Block cfiPicker38 Using cfiCommon1
        CFI (cfiPicker38) NoFunction
        CFI (cfiPicker38) Picker
        MOVX    A,@DPTR
        MOV     DPH,A
        MOV     DPL,R0
        RET
        CFI EndBlock cfiCond34
        CFI EndBlock cfiCond35
        CFI EndBlock cfiCond36
        CFI EndBlock cfiCond37
        CFI EndBlock cfiPicker38

        RSEG BANKED_CODE:CODE:NOROOT(0)
?Subroutine5:
        CFI Block cfiCond39 Using cfiCommon0
        CFI NoFunction
        CFI Conditional ??CrossCallReturnLabel_11
        CFI R6 load(1, XDATA, add(CFA_XSP16, literal(-19)))
        CFI VB load(1, XDATA, add(CFA_XSP16, literal(-18)))
        CFI V0 load(1, XDATA, add(CFA_XSP16, literal(-17)))
        CFI V1 load(1, XDATA, add(CFA_XSP16, literal(-16)))
        CFI V2 load(1, XDATA, add(CFA_XSP16, literal(-15)))
        CFI V3 load(1, XDATA, add(CFA_XSP16, literal(-14)))
        CFI V4 load(1, XDATA, add(CFA_XSP16, literal(-13)))
        CFI V5 load(1, XDATA, add(CFA_XSP16, literal(-12)))
        CFI V6 load(1, XDATA, add(CFA_XSP16, literal(-11)))
        CFI V7 load(1, XDATA, add(CFA_XSP16, literal(-10)))
        CFI V8 load(1, XDATA, add(CFA_XSP16, literal(-9)))
        CFI V9 load(1, XDATA, add(CFA_XSP16, literal(-8)))
        CFI V10 load(1, XDATA, add(CFA_XSP16, literal(-7)))
        CFI R7 load(1, XDATA, add(CFA_XSP16, literal(-6)))
        CFI ?RET_LOW load(1, XDATA, add(CFA_XSP16, literal(-5)))
        CFI ?RET_HIGH load(1, XDATA, add(CFA_XSP16, literal(-4)))
        CFI ?BRET_EXT load(1, XDATA, add(CFA_XSP16, literal(-3)))
        CFI DPL0 load(1, XDATA, add(CFA_XSP16, literal(-2)))
        CFI DPH0 load(1, XDATA, add(CFA_XSP16, literal(-1)))
        CFI CFA_SP SP+0
        CFI CFA_XSP16 add(XSP16, 23)
        CFI Block cfiCond40 Using cfiCommon0
        CFI (cfiCond40) NoFunction
        CFI (cfiCond40) Conditional ??CrossCallReturnLabel_12
        CFI (cfiCond40) R6 load(1, XDATA, add(CFA_XSP16, literal(-19)))
        CFI (cfiCond40) VB load(1, XDATA, add(CFA_XSP16, literal(-18)))
        CFI (cfiCond40) V0 load(1, XDATA, add(CFA_XSP16, literal(-17)))
        CFI (cfiCond40) V1 load(1, XDATA, add(CFA_XSP16, literal(-16)))
        CFI (cfiCond40) V2 load(1, XDATA, add(CFA_XSP16, literal(-15)))
        CFI (cfiCond40) V3 load(1, XDATA, add(CFA_XSP16, literal(-14)))
        CFI (cfiCond40) V4 load(1, XDATA, add(CFA_XSP16, literal(-13)))
        CFI (cfiCond40) V5 load(1, XDATA, add(CFA_XSP16, literal(-12)))
        CFI (cfiCond40) V6 load(1, XDATA, add(CFA_XSP16, literal(-11)))
        CFI (cfiCond40) V7 load(1, XDATA, add(CFA_XSP16, literal(-10)))
        CFI (cfiCond40) V8 load(1, XDATA, add(CFA_XSP16, literal(-9)))
        CFI (cfiCond40) V9 load(1, XDATA, add(CFA_XSP16, literal(-8)))
        CFI (cfiCond40) V10 load(1, XDATA, add(CFA_XSP16, literal(-7)))
        CFI (cfiCond40) R7 load(1, XDATA, add(CFA_XSP16, literal(-6)))
        CFI (cfiCond40) ?RET_LOW load(1, XDATA, add(CFA_XSP16, literal(-5)))
        CFI (cfiCond40) ?RET_HIGH load(1, XDATA, add(CFA_XSP16, literal(-4)))
        CFI (cfiCond40) ?BRET_EXT load(1, XDATA, add(CFA_XSP16, literal(-3)))
        CFI (cfiCond40) DPL0 load(1, XDATA, add(CFA_XSP16, literal(-2)))
        CFI (cfiCond40) DPH0 load(1, XDATA, add(CFA_XSP16, literal(-1)))
        CFI (cfiCond40) CFA_SP SP+0
        CFI (cfiCond40) CFA_XSP16 add(XSP16, 23)
        CFI Block cfiPicker41 Using cfiCommon1
        CFI (cfiPicker41) NoFunction
        CFI (cfiPicker41) Picker
        MOV     DPL,R4
        MOV     DPH,R5
        MOVX    A,@DPTR
        MOV     R0,A
        MOV     R1,#0x0
        MOV     A,?V0 + 0
        CLR     C
        SUBB    A,#0x32
        RET
        CFI EndBlock cfiCond39
        CFI EndBlock cfiCond40
        CFI EndBlock cfiPicker41

        RSEG BANKED_CODE:CODE:NOROOT(0)
?Subroutine4:
        CFI Block cfiCond42 Using cfiCommon0
        CFI NoFunction
        CFI Conditional ??CrossCallReturnLabel_9
        CFI R6 load(1, XDATA, add(CFA_XSP16, literal(-19)))
        CFI VB load(1, XDATA, add(CFA_XSP16, literal(-18)))
        CFI V0 load(1, XDATA, add(CFA_XSP16, literal(-17)))
        CFI V1 load(1, XDATA, add(CFA_XSP16, literal(-16)))
        CFI V2 load(1, XDATA, add(CFA_XSP16, literal(-15)))
        CFI V3 load(1, XDATA, add(CFA_XSP16, literal(-14)))
        CFI V4 load(1, XDATA, add(CFA_XSP16, literal(-13)))
        CFI V5 load(1, XDATA, add(CFA_XSP16, literal(-12)))
        CFI V6 load(1, XDATA, add(CFA_XSP16, literal(-11)))
        CFI V7 load(1, XDATA, add(CFA_XSP16, literal(-10)))
        CFI V8 load(1, XDATA, add(CFA_XSP16, literal(-9)))
        CFI V9 load(1, XDATA, add(CFA_XSP16, literal(-8)))
        CFI V10 load(1, XDATA, add(CFA_XSP16, literal(-7)))
        CFI R7 load(1, XDATA, add(CFA_XSP16, literal(-6)))
        CFI ?RET_LOW load(1, XDATA, add(CFA_XSP16, literal(-5)))
        CFI ?RET_HIGH load(1, XDATA, add(CFA_XSP16, literal(-4)))
        CFI ?BRET_EXT load(1, XDATA, add(CFA_XSP16, literal(-3)))
        CFI DPL0 load(1, XDATA, add(CFA_XSP16, literal(-2)))
        CFI DPH0 load(1, XDATA, add(CFA_XSP16, literal(-1)))
        CFI CFA_SP SP+0
        CFI CFA_XSP16 add(XSP16, 23)
        CFI Block cfiCond43 Using cfiCommon0
        CFI (cfiCond43) NoFunction
        CFI (cfiCond43) Conditional ??CrossCallReturnLabel_10
        CFI (cfiCond43) R6 load(1, XDATA, add(CFA_XSP16, literal(-19)))
        CFI (cfiCond43) VB load(1, XDATA, add(CFA_XSP16, literal(-18)))
        CFI (cfiCond43) V0 load(1, XDATA, add(CFA_XSP16, literal(-17)))
        CFI (cfiCond43) V1 load(1, XDATA, add(CFA_XSP16, literal(-16)))
        CFI (cfiCond43) V2 load(1, XDATA, add(CFA_XSP16, literal(-15)))
        CFI (cfiCond43) V3 load(1, XDATA, add(CFA_XSP16, literal(-14)))
        CFI (cfiCond43) V4 load(1, XDATA, add(CFA_XSP16, literal(-13)))
        CFI (cfiCond43) V5 load(1, XDATA, add(CFA_XSP16, literal(-12)))
        CFI (cfiCond43) V6 load(1, XDATA, add(CFA_XSP16, literal(-11)))
        CFI (cfiCond43) V7 load(1, XDATA, add(CFA_XSP16, literal(-10)))
        CFI (cfiCond43) V8 load(1, XDATA, add(CFA_XSP16, literal(-9)))
        CFI (cfiCond43) V9 load(1, XDATA, add(CFA_XSP16, literal(-8)))
        CFI (cfiCond43) V10 load(1, XDATA, add(CFA_XSP16, literal(-7)))
        CFI (cfiCond43) R7 load(1, XDATA, add(CFA_XSP16, literal(-6)))
        CFI (cfiCond43) ?RET_LOW load(1, XDATA, add(CFA_XSP16, literal(-5)))
        CFI (cfiCond43) ?RET_HIGH load(1, XDATA, add(CFA_XSP16, literal(-4)))
        CFI (cfiCond43) ?BRET_EXT load(1, XDATA, add(CFA_XSP16, literal(-3)))
        CFI (cfiCond43) DPL0 load(1, XDATA, add(CFA_XSP16, literal(-2)))
        CFI (cfiCond43) DPH0 load(1, XDATA, add(CFA_XSP16, literal(-1)))
        CFI (cfiCond43) CFA_SP SP+0
        CFI (cfiCond43) CFA_XSP16 add(XSP16, 23)
        CFI Block cfiPicker44 Using cfiCommon1
        CFI (cfiPicker44) NoFunction
        CFI (cfiPicker44) Picker
        LCALL   ?Subroutine14 & 0xFFFF
??CrossCallReturnLabel_38:
        RET
        CFI EndBlock cfiCond42
        CFI EndBlock cfiCond43
        CFI EndBlock cfiPicker44

        RSEG BANKED_CODE:CODE:NOROOT(0)
?Subroutine14:
        CFI Block cfiCond45 Using cfiCommon0
        CFI NoFunction
        CFI Conditional ??CrossCallReturnLabel_38, ??CrossCallReturnLabel_9
        CFI R6 load(1, XDATA, add(CFA_XSP16, literal(-19)))
        CFI VB load(1, XDATA, add(CFA_XSP16, literal(-18)))
        CFI V0 load(1, XDATA, add(CFA_XSP16, literal(-17)))
        CFI V1 load(1, XDATA, add(CFA_XSP16, literal(-16)))
        CFI V2 load(1, XDATA, add(CFA_XSP16, literal(-15)))
        CFI V3 load(1, XDATA, add(CFA_XSP16, literal(-14)))
        CFI V4 load(1, XDATA, add(CFA_XSP16, literal(-13)))
        CFI V5 load(1, XDATA, add(CFA_XSP16, literal(-12)))
        CFI V6 load(1, XDATA, add(CFA_XSP16, literal(-11)))
        CFI V7 load(1, XDATA, add(CFA_XSP16, literal(-10)))
        CFI V8 load(1, XDATA, add(CFA_XSP16, literal(-9)))
        CFI V9 load(1, XDATA, add(CFA_XSP16, literal(-8)))
        CFI V10 load(1, XDATA, add(CFA_XSP16, literal(-7)))
        CFI R7 load(1, XDATA, add(CFA_XSP16, literal(-6)))
        CFI ?RET_LOW load(1, XDATA, add(CFA_XSP16, literal(-5)))
        CFI ?RET_HIGH load(1, XDATA, add(CFA_XSP16, literal(-4)))
        CFI ?BRET_EXT load(1, XDATA, add(CFA_XSP16, literal(-3)))
        CFI DPL0 load(1, XDATA, add(CFA_XSP16, literal(-2)))
        CFI DPH0 load(1, XDATA, add(CFA_XSP16, literal(-1)))
        CFI CFA_SP SP+0
        CFI CFA_XSP16 add(XSP16, 23)
        CFI Block cfiCond46 Using cfiCommon0
        CFI (cfiCond46) NoFunction
        CFI (cfiCond46) Conditional ??CrossCallReturnLabel_38, ??CrossCallReturnLabel_10
        CFI (cfiCond46) R6 load(1, XDATA, add(CFA_XSP16, literal(-19)))
        CFI (cfiCond46) VB load(1, XDATA, add(CFA_XSP16, literal(-18)))
        CFI (cfiCond46) V0 load(1, XDATA, add(CFA_XSP16, literal(-17)))
        CFI (cfiCond46) V1 load(1, XDATA, add(CFA_XSP16, literal(-16)))
        CFI (cfiCond46) V2 load(1, XDATA, add(CFA_XSP16, literal(-15)))
        CFI (cfiCond46) V3 load(1, XDATA, add(CFA_XSP16, literal(-14)))
        CFI (cfiCond46) V4 load(1, XDATA, add(CFA_XSP16, literal(-13)))
        CFI (cfiCond46) V5 load(1, XDATA, add(CFA_XSP16, literal(-12)))
        CFI (cfiCond46) V6 load(1, XDATA, add(CFA_XSP16, literal(-11)))
        CFI (cfiCond46) V7 load(1, XDATA, add(CFA_XSP16, literal(-10)))
        CFI (cfiCond46) V8 load(1, XDATA, add(CFA_XSP16, literal(-9)))
        CFI (cfiCond46) V9 load(1, XDATA, add(CFA_XSP16, literal(-8)))
        CFI (cfiCond46) V10 load(1, XDATA, add(CFA_XSP16, literal(-7)))
        CFI (cfiCond46) R7 load(1, XDATA, add(CFA_XSP16, literal(-6)))
        CFI (cfiCond46) ?RET_LOW load(1, XDATA, add(CFA_XSP16, literal(-5)))
        CFI (cfiCond46) ?RET_HIGH load(1, XDATA, add(CFA_XSP16, literal(-4)))
        CFI (cfiCond46) ?BRET_EXT load(1, XDATA, add(CFA_XSP16, literal(-3)))
        CFI (cfiCond46) DPL0 load(1, XDATA, add(CFA_XSP16, literal(-2)))
        CFI (cfiCond46) DPH0 load(1, XDATA, add(CFA_XSP16, literal(-1)))
        CFI (cfiCond46) CFA_SP SP+0
        CFI (cfiCond46) CFA_XSP16 add(XSP16, 23)
        CFI Block cfiCond47 Using cfiCommon0
        CFI (cfiCond47) NoFunction
        CFI (cfiCond47) Conditional ??CrossCallReturnLabel_37, ??CrossCallReturnLabel_7
        CFI (cfiCond47) R6 load(1, XDATA, add(CFA_XSP16, literal(-19)))
        CFI (cfiCond47) VB load(1, XDATA, add(CFA_XSP16, literal(-18)))
        CFI (cfiCond47) V0 load(1, XDATA, add(CFA_XSP16, literal(-17)))
        CFI (cfiCond47) V1 load(1, XDATA, add(CFA_XSP16, literal(-16)))
        CFI (cfiCond47) V2 load(1, XDATA, add(CFA_XSP16, literal(-15)))
        CFI (cfiCond47) V3 load(1, XDATA, add(CFA_XSP16, literal(-14)))
        CFI (cfiCond47) V4 load(1, XDATA, add(CFA_XSP16, literal(-13)))
        CFI (cfiCond47) V5 load(1, XDATA, add(CFA_XSP16, literal(-12)))
        CFI (cfiCond47) V6 load(1, XDATA, add(CFA_XSP16, literal(-11)))
        CFI (cfiCond47) V7 load(1, XDATA, add(CFA_XSP16, literal(-10)))
        CFI (cfiCond47) V8 load(1, XDATA, add(CFA_XSP16, literal(-9)))
        CFI (cfiCond47) V9 load(1, XDATA, add(CFA_XSP16, literal(-8)))
        CFI (cfiCond47) V10 load(1, XDATA, add(CFA_XSP16, literal(-7)))
        CFI (cfiCond47) R7 load(1, XDATA, add(CFA_XSP16, literal(-6)))
        CFI (cfiCond47) ?RET_LOW load(1, XDATA, add(CFA_XSP16, literal(-5)))
        CFI (cfiCond47) ?RET_HIGH load(1, XDATA, add(CFA_XSP16, literal(-4)))
        CFI (cfiCond47) ?BRET_EXT load(1, XDATA, add(CFA_XSP16, literal(-3)))
        CFI (cfiCond47) DPL0 load(1, XDATA, add(CFA_XSP16, literal(-2)))
        CFI (cfiCond47) DPH0 load(1, XDATA, add(CFA_XSP16, literal(-1)))
        CFI (cfiCond47) CFA_SP SP+0
        CFI (cfiCond47) CFA_XSP16 add(XSP16, 23)
        CFI Block cfiCond48 Using cfiCommon0
        CFI (cfiCond48) NoFunction
        CFI (cfiCond48) Conditional ??CrossCallReturnLabel_37, ??CrossCallReturnLabel_8
        CFI (cfiCond48) R6 load(1, XDATA, add(CFA_XSP16, literal(-19)))
        CFI (cfiCond48) VB load(1, XDATA, add(CFA_XSP16, literal(-18)))
        CFI (cfiCond48) V0 load(1, XDATA, add(CFA_XSP16, literal(-17)))
        CFI (cfiCond48) V1 load(1, XDATA, add(CFA_XSP16, literal(-16)))
        CFI (cfiCond48) V2 load(1, XDATA, add(CFA_XSP16, literal(-15)))
        CFI (cfiCond48) V3 load(1, XDATA, add(CFA_XSP16, literal(-14)))
        CFI (cfiCond48) V4 load(1, XDATA, add(CFA_XSP16, literal(-13)))
        CFI (cfiCond48) V5 load(1, XDATA, add(CFA_XSP16, literal(-12)))
        CFI (cfiCond48) V6 load(1, XDATA, add(CFA_XSP16, literal(-11)))
        CFI (cfiCond48) V7 load(1, XDATA, add(CFA_XSP16, literal(-10)))
        CFI (cfiCond48) V8 load(1, XDATA, add(CFA_XSP16, literal(-9)))
        CFI (cfiCond48) V9 load(1, XDATA, add(CFA_XSP16, literal(-8)))
        CFI (cfiCond48) V10 load(1, XDATA, add(CFA_XSP16, literal(-7)))
        CFI (cfiCond48) R7 load(1, XDATA, add(CFA_XSP16, literal(-6)))
        CFI (cfiCond48) ?RET_LOW load(1, XDATA, add(CFA_XSP16, literal(-5)))
        CFI (cfiCond48) ?RET_HIGH load(1, XDATA, add(CFA_XSP16, literal(-4)))
        CFI (cfiCond48) ?BRET_EXT load(1, XDATA, add(CFA_XSP16, literal(-3)))
        CFI (cfiCond48) DPL0 load(1, XDATA, add(CFA_XSP16, literal(-2)))
        CFI (cfiCond48) DPH0 load(1, XDATA, add(CFA_XSP16, literal(-1)))
        CFI (cfiCond48) CFA_SP SP+0
        CFI (cfiCond48) CFA_XSP16 add(XSP16, 23)
        CFI Block cfiPicker49 Using cfiCommon1
        CFI (cfiPicker49) NoFunction
        CFI (cfiPicker49) Picker
        MOV     DPL,?XSP + 0
        MOV     DPH,?XSP + 1
        CFI EndBlock cfiCond45
        CFI EndBlock cfiCond46
        CFI EndBlock cfiCond47
        CFI EndBlock cfiCond48
        CFI EndBlock cfiPicker49
        REQUIRE ??Subroutine19_0
        ; // Fall through to label ??Subroutine19_0

        RSEG BANKED_CODE:CODE:NOROOT(0)
??Subroutine19_0:
        CFI Block cfiCond50 Using cfiCommon0
        CFI NoFunction
        CFI Conditional ??CrossCallReturnLabel_36, ??CrossCallReturnLabel_5
        CFI R6 load(1, XDATA, add(CFA_XSP16, literal(-19)))
        CFI VB load(1, XDATA, add(CFA_XSP16, literal(-18)))
        CFI V0 load(1, XDATA, add(CFA_XSP16, literal(-17)))
        CFI V1 load(1, XDATA, add(CFA_XSP16, literal(-16)))
        CFI V2 load(1, XDATA, add(CFA_XSP16, literal(-15)))
        CFI V3 load(1, XDATA, add(CFA_XSP16, literal(-14)))
        CFI V4 load(1, XDATA, add(CFA_XSP16, literal(-13)))
        CFI V5 load(1, XDATA, add(CFA_XSP16, literal(-12)))
        CFI V6 load(1, XDATA, add(CFA_XSP16, literal(-11)))
        CFI V7 load(1, XDATA, add(CFA_XSP16, literal(-10)))
        CFI V8 load(1, XDATA, add(CFA_XSP16, literal(-9)))
        CFI V9 load(1, XDATA, add(CFA_XSP16, literal(-8)))
        CFI V10 load(1, XDATA, add(CFA_XSP16, literal(-7)))
        CFI R7 load(1, XDATA, add(CFA_XSP16, literal(-6)))
        CFI ?RET_LOW load(1, XDATA, add(CFA_XSP16, literal(-5)))
        CFI ?RET_HIGH load(1, XDATA, add(CFA_XSP16, literal(-4)))
        CFI ?BRET_EXT load(1, XDATA, add(CFA_XSP16, literal(-3)))
        CFI DPL0 load(1, XDATA, add(CFA_XSP16, literal(-2)))
        CFI DPH0 load(1, XDATA, add(CFA_XSP16, literal(-1)))
        CFI CFA_SP SP+0
        CFI CFA_XSP16 add(XSP16, 23)
        CFI Block cfiCond51 Using cfiCommon0
        CFI (cfiCond51) NoFunction
        CFI (cfiCond51) Conditional ??CrossCallReturnLabel_36, ??CrossCallReturnLabel_6
        CFI (cfiCond51) R6 load(1, XDATA, add(CFA_XSP16, literal(-19)))
        CFI (cfiCond51) VB load(1, XDATA, add(CFA_XSP16, literal(-18)))
        CFI (cfiCond51) V0 load(1, XDATA, add(CFA_XSP16, literal(-17)))
        CFI (cfiCond51) V1 load(1, XDATA, add(CFA_XSP16, literal(-16)))
        CFI (cfiCond51) V2 load(1, XDATA, add(CFA_XSP16, literal(-15)))
        CFI (cfiCond51) V3 load(1, XDATA, add(CFA_XSP16, literal(-14)))
        CFI (cfiCond51) V4 load(1, XDATA, add(CFA_XSP16, literal(-13)))
        CFI (cfiCond51) V5 load(1, XDATA, add(CFA_XSP16, literal(-12)))
        CFI (cfiCond51) V6 load(1, XDATA, add(CFA_XSP16, literal(-11)))
        CFI (cfiCond51) V7 load(1, XDATA, add(CFA_XSP16, literal(-10)))
        CFI (cfiCond51) V8 load(1, XDATA, add(CFA_XSP16, literal(-9)))
        CFI (cfiCond51) V9 load(1, XDATA, add(CFA_XSP16, literal(-8)))
        CFI (cfiCond51) V10 load(1, XDATA, add(CFA_XSP16, literal(-7)))
        CFI (cfiCond51) R7 load(1, XDATA, add(CFA_XSP16, literal(-6)))
        CFI (cfiCond51) ?RET_LOW load(1, XDATA, add(CFA_XSP16, literal(-5)))
        CFI (cfiCond51) ?RET_HIGH load(1, XDATA, add(CFA_XSP16, literal(-4)))
        CFI (cfiCond51) ?BRET_EXT load(1, XDATA, add(CFA_XSP16, literal(-3)))
        CFI (cfiCond51) DPL0 load(1, XDATA, add(CFA_XSP16, literal(-2)))
        CFI (cfiCond51) DPH0 load(1, XDATA, add(CFA_XSP16, literal(-1)))
        CFI (cfiCond51) CFA_SP SP+0
        CFI (cfiCond51) CFA_XSP16 add(XSP16, 23)
        CFI Block cfiCond52 Using cfiCommon0
        CFI (cfiCond52) NoFunction
        CFI (cfiCond52) Conditional ??CrossCallReturnLabel_38, ??CrossCallReturnLabel_9
        CFI (cfiCond52) R6 load(1, XDATA, add(CFA_XSP16, literal(-19)))
        CFI (cfiCond52) VB load(1, XDATA, add(CFA_XSP16, literal(-18)))
        CFI (cfiCond52) V0 load(1, XDATA, add(CFA_XSP16, literal(-17)))
        CFI (cfiCond52) V1 load(1, XDATA, add(CFA_XSP16, literal(-16)))
        CFI (cfiCond52) V2 load(1, XDATA, add(CFA_XSP16, literal(-15)))
        CFI (cfiCond52) V3 load(1, XDATA, add(CFA_XSP16, literal(-14)))
        CFI (cfiCond52) V4 load(1, XDATA, add(CFA_XSP16, literal(-13)))
        CFI (cfiCond52) V5 load(1, XDATA, add(CFA_XSP16, literal(-12)))
        CFI (cfiCond52) V6 load(1, XDATA, add(CFA_XSP16, literal(-11)))
        CFI (cfiCond52) V7 load(1, XDATA, add(CFA_XSP16, literal(-10)))
        CFI (cfiCond52) V8 load(1, XDATA, add(CFA_XSP16, literal(-9)))
        CFI (cfiCond52) V9 load(1, XDATA, add(CFA_XSP16, literal(-8)))
        CFI (cfiCond52) V10 load(1, XDATA, add(CFA_XSP16, literal(-7)))
        CFI (cfiCond52) R7 load(1, XDATA, add(CFA_XSP16, literal(-6)))
        CFI (cfiCond52) ?RET_LOW load(1, XDATA, add(CFA_XSP16, literal(-5)))
        CFI (cfiCond52) ?RET_HIGH load(1, XDATA, add(CFA_XSP16, literal(-4)))
        CFI (cfiCond52) ?BRET_EXT load(1, XDATA, add(CFA_XSP16, literal(-3)))
        CFI (cfiCond52) DPL0 load(1, XDATA, add(CFA_XSP16, literal(-2)))
        CFI (cfiCond52) DPH0 load(1, XDATA, add(CFA_XSP16, literal(-1)))
        CFI (cfiCond52) CFA_SP SP+0
        CFI (cfiCond52) CFA_XSP16 add(XSP16, 23)
        CFI Block cfiCond53 Using cfiCommon0
        CFI (cfiCond53) NoFunction
        CFI (cfiCond53) Conditional ??CrossCallReturnLabel_38, ??CrossCallReturnLabel_10
        CFI (cfiCond53) R6 load(1, XDATA, add(CFA_XSP16, literal(-19)))
        CFI (cfiCond53) VB load(1, XDATA, add(CFA_XSP16, literal(-18)))
        CFI (cfiCond53) V0 load(1, XDATA, add(CFA_XSP16, literal(-17)))
        CFI (cfiCond53) V1 load(1, XDATA, add(CFA_XSP16, literal(-16)))
        CFI (cfiCond53) V2 load(1, XDATA, add(CFA_XSP16, literal(-15)))
        CFI (cfiCond53) V3 load(1, XDATA, add(CFA_XSP16, literal(-14)))
        CFI (cfiCond53) V4 load(1, XDATA, add(CFA_XSP16, literal(-13)))
        CFI (cfiCond53) V5 load(1, XDATA, add(CFA_XSP16, literal(-12)))
        CFI (cfiCond53) V6 load(1, XDATA, add(CFA_XSP16, literal(-11)))
        CFI (cfiCond53) V7 load(1, XDATA, add(CFA_XSP16, literal(-10)))
        CFI (cfiCond53) V8 load(1, XDATA, add(CFA_XSP16, literal(-9)))
        CFI (cfiCond53) V9 load(1, XDATA, add(CFA_XSP16, literal(-8)))
        CFI (cfiCond53) V10 load(1, XDATA, add(CFA_XSP16, literal(-7)))
        CFI (cfiCond53) R7 load(1, XDATA, add(CFA_XSP16, literal(-6)))
        CFI (cfiCond53) ?RET_LOW load(1, XDATA, add(CFA_XSP16, literal(-5)))
        CFI (cfiCond53) ?RET_HIGH load(1, XDATA, add(CFA_XSP16, literal(-4)))
        CFI (cfiCond53) ?BRET_EXT load(1, XDATA, add(CFA_XSP16, literal(-3)))
        CFI (cfiCond53) DPL0 load(1, XDATA, add(CFA_XSP16, literal(-2)))
        CFI (cfiCond53) DPH0 load(1, XDATA, add(CFA_XSP16, literal(-1)))
        CFI (cfiCond53) CFA_SP SP+0
        CFI (cfiCond53) CFA_XSP16 add(XSP16, 23)
        CFI Block cfiCond54 Using cfiCommon0
        CFI (cfiCond54) NoFunction
        CFI (cfiCond54) Conditional ??CrossCallReturnLabel_37, ??CrossCallReturnLabel_7
        CFI (cfiCond54) R6 load(1, XDATA, add(CFA_XSP16, literal(-19)))
        CFI (cfiCond54) VB load(1, XDATA, add(CFA_XSP16, literal(-18)))
        CFI (cfiCond54) V0 load(1, XDATA, add(CFA_XSP16, literal(-17)))
        CFI (cfiCond54) V1 load(1, XDATA, add(CFA_XSP16, literal(-16)))
        CFI (cfiCond54) V2 load(1, XDATA, add(CFA_XSP16, literal(-15)))
        CFI (cfiCond54) V3 load(1, XDATA, add(CFA_XSP16, literal(-14)))
        CFI (cfiCond54) V4 load(1, XDATA, add(CFA_XSP16, literal(-13)))
        CFI (cfiCond54) V5 load(1, XDATA, add(CFA_XSP16, literal(-12)))
        CFI (cfiCond54) V6 load(1, XDATA, add(CFA_XSP16, literal(-11)))
        CFI (cfiCond54) V7 load(1, XDATA, add(CFA_XSP16, literal(-10)))
        CFI (cfiCond54) V8 load(1, XDATA, add(CFA_XSP16, literal(-9)))
        CFI (cfiCond54) V9 load(1, XDATA, add(CFA_XSP16, literal(-8)))
        CFI (cfiCond54) V10 load(1, XDATA, add(CFA_XSP16, literal(-7)))
        CFI (cfiCond54) R7 load(1, XDATA, add(CFA_XSP16, literal(-6)))
        CFI (cfiCond54) ?RET_LOW load(1, XDATA, add(CFA_XSP16, literal(-5)))
        CFI (cfiCond54) ?RET_HIGH load(1, XDATA, add(CFA_XSP16, literal(-4)))
        CFI (cfiCond54) ?BRET_EXT load(1, XDATA, add(CFA_XSP16, literal(-3)))
        CFI (cfiCond54) DPL0 load(1, XDATA, add(CFA_XSP16, literal(-2)))
        CFI (cfiCond54) DPH0 load(1, XDATA, add(CFA_XSP16, literal(-1)))
        CFI (cfiCond54) CFA_SP SP+0
        CFI (cfiCond54) CFA_XSP16 add(XSP16, 23)
        CFI Block cfiCond55 Using cfiCommon0
        CFI (cfiCond55) NoFunction
        CFI (cfiCond55) Conditional ??CrossCallReturnLabel_37, ??CrossCallReturnLabel_8
        CFI (cfiCond55) R6 load(1, XDATA, add(CFA_XSP16, literal(-19)))
        CFI (cfiCond55) VB load(1, XDATA, add(CFA_XSP16, literal(-18)))
        CFI (cfiCond55) V0 load(1, XDATA, add(CFA_XSP16, literal(-17)))
        CFI (cfiCond55) V1 load(1, XDATA, add(CFA_XSP16, literal(-16)))
        CFI (cfiCond55) V2 load(1, XDATA, add(CFA_XSP16, literal(-15)))
        CFI (cfiCond55) V3 load(1, XDATA, add(CFA_XSP16, literal(-14)))
        CFI (cfiCond55) V4 load(1, XDATA, add(CFA_XSP16, literal(-13)))
        CFI (cfiCond55) V5 load(1, XDATA, add(CFA_XSP16, literal(-12)))
        CFI (cfiCond55) V6 load(1, XDATA, add(CFA_XSP16, literal(-11)))
        CFI (cfiCond55) V7 load(1, XDATA, add(CFA_XSP16, literal(-10)))
        CFI (cfiCond55) V8 load(1, XDATA, add(CFA_XSP16, literal(-9)))
        CFI (cfiCond55) V9 load(1, XDATA, add(CFA_XSP16, literal(-8)))
        CFI (cfiCond55) V10 load(1, XDATA, add(CFA_XSP16, literal(-7)))
        CFI (cfiCond55) R7 load(1, XDATA, add(CFA_XSP16, literal(-6)))
        CFI (cfiCond55) ?RET_LOW load(1, XDATA, add(CFA_XSP16, literal(-5)))
        CFI (cfiCond55) ?RET_HIGH load(1, XDATA, add(CFA_XSP16, literal(-4)))
        CFI (cfiCond55) ?BRET_EXT load(1, XDATA, add(CFA_XSP16, literal(-3)))
        CFI (cfiCond55) DPL0 load(1, XDATA, add(CFA_XSP16, literal(-2)))
        CFI (cfiCond55) DPH0 load(1, XDATA, add(CFA_XSP16, literal(-1)))
        CFI (cfiCond55) CFA_SP SP+0
        CFI (cfiCond55) CFA_XSP16 add(XSP16, 23)
        CFI Block cfiPicker56 Using cfiCommon1
        CFI (cfiPicker56) NoFunction
        CFI (cfiPicker56) Picker
        MOVX    A,@DPTR
        MOV     R0,A
        INC     DPTR
        MOVX    A,@DPTR
        MOV     DPH,A
        MOV     DPL,R0
        INC     DPTR
        INC     DPTR
        RET
        CFI EndBlock cfiCond50
        CFI EndBlock cfiCond51
        CFI EndBlock cfiCond52
        CFI EndBlock cfiCond53
        CFI EndBlock cfiCond54
        CFI EndBlock cfiCond55
        CFI EndBlock cfiPicker56

        RSEG BANKED_CODE:CODE:NOROOT(0)
?Subroutine3:
        CFI Block cfiCond57 Using cfiCommon0
        CFI NoFunction
        CFI Conditional ??CrossCallReturnLabel_7
        CFI R6 load(1, XDATA, add(CFA_XSP16, literal(-19)))
        CFI VB load(1, XDATA, add(CFA_XSP16, literal(-18)))
        CFI V0 load(1, XDATA, add(CFA_XSP16, literal(-17)))
        CFI V1 load(1, XDATA, add(CFA_XSP16, literal(-16)))
        CFI V2 load(1, XDATA, add(CFA_XSP16, literal(-15)))
        CFI V3 load(1, XDATA, add(CFA_XSP16, literal(-14)))
        CFI V4 load(1, XDATA, add(CFA_XSP16, literal(-13)))
        CFI V5 load(1, XDATA, add(CFA_XSP16, literal(-12)))
        CFI V6 load(1, XDATA, add(CFA_XSP16, literal(-11)))
        CFI V7 load(1, XDATA, add(CFA_XSP16, literal(-10)))
        CFI V8 load(1, XDATA, add(CFA_XSP16, literal(-9)))
        CFI V9 load(1, XDATA, add(CFA_XSP16, literal(-8)))
        CFI V10 load(1, XDATA, add(CFA_XSP16, literal(-7)))
        CFI R7 load(1, XDATA, add(CFA_XSP16, literal(-6)))
        CFI ?RET_LOW load(1, XDATA, add(CFA_XSP16, literal(-5)))
        CFI ?RET_HIGH load(1, XDATA, add(CFA_XSP16, literal(-4)))
        CFI ?BRET_EXT load(1, XDATA, add(CFA_XSP16, literal(-3)))
        CFI DPL0 load(1, XDATA, add(CFA_XSP16, literal(-2)))
        CFI DPH0 load(1, XDATA, add(CFA_XSP16, literal(-1)))
        CFI CFA_SP SP+0
        CFI CFA_XSP16 add(XSP16, 23)
        CFI Block cfiCond58 Using cfiCommon0
        CFI (cfiCond58) NoFunction
        CFI (cfiCond58) Conditional ??CrossCallReturnLabel_8
        CFI (cfiCond58) R6 load(1, XDATA, add(CFA_XSP16, literal(-19)))
        CFI (cfiCond58) VB load(1, XDATA, add(CFA_XSP16, literal(-18)))
        CFI (cfiCond58) V0 load(1, XDATA, add(CFA_XSP16, literal(-17)))
        CFI (cfiCond58) V1 load(1, XDATA, add(CFA_XSP16, literal(-16)))
        CFI (cfiCond58) V2 load(1, XDATA, add(CFA_XSP16, literal(-15)))
        CFI (cfiCond58) V3 load(1, XDATA, add(CFA_XSP16, literal(-14)))
        CFI (cfiCond58) V4 load(1, XDATA, add(CFA_XSP16, literal(-13)))
        CFI (cfiCond58) V5 load(1, XDATA, add(CFA_XSP16, literal(-12)))
        CFI (cfiCond58) V6 load(1, XDATA, add(CFA_XSP16, literal(-11)))
        CFI (cfiCond58) V7 load(1, XDATA, add(CFA_XSP16, literal(-10)))
        CFI (cfiCond58) V8 load(1, XDATA, add(CFA_XSP16, literal(-9)))
        CFI (cfiCond58) V9 load(1, XDATA, add(CFA_XSP16, literal(-8)))
        CFI (cfiCond58) V10 load(1, XDATA, add(CFA_XSP16, literal(-7)))
        CFI (cfiCond58) R7 load(1, XDATA, add(CFA_XSP16, literal(-6)))
        CFI (cfiCond58) ?RET_LOW load(1, XDATA, add(CFA_XSP16, literal(-5)))
        CFI (cfiCond58) ?RET_HIGH load(1, XDATA, add(CFA_XSP16, literal(-4)))
        CFI (cfiCond58) ?BRET_EXT load(1, XDATA, add(CFA_XSP16, literal(-3)))
        CFI (cfiCond58) DPL0 load(1, XDATA, add(CFA_XSP16, literal(-2)))
        CFI (cfiCond58) DPH0 load(1, XDATA, add(CFA_XSP16, literal(-1)))
        CFI (cfiCond58) CFA_SP SP+0
        CFI (cfiCond58) CFA_XSP16 add(XSP16, 23)
        CFI Block cfiPicker59 Using cfiCommon1
        CFI (cfiPicker59) NoFunction
        CFI (cfiPicker59) Picker
        LCALL   ?Subroutine14 & 0xFFFF
??CrossCallReturnLabel_37:
        MOVX    A,@DPTR
        RET
        CFI EndBlock cfiCond57
        CFI EndBlock cfiCond58
        CFI EndBlock cfiPicker59

        RSEG BANKED_CODE:CODE:NOROOT(0)
?Subroutine2:
        CFI Block cfiCond60 Using cfiCommon0
        CFI NoFunction
        CFI Conditional ??CrossCallReturnLabel_5
        CFI R6 load(1, XDATA, add(CFA_XSP16, literal(-19)))
        CFI VB load(1, XDATA, add(CFA_XSP16, literal(-18)))
        CFI V0 load(1, XDATA, add(CFA_XSP16, literal(-17)))
        CFI V1 load(1, XDATA, add(CFA_XSP16, literal(-16)))
        CFI V2 load(1, XDATA, add(CFA_XSP16, literal(-15)))
        CFI V3 load(1, XDATA, add(CFA_XSP16, literal(-14)))
        CFI V4 load(1, XDATA, add(CFA_XSP16, literal(-13)))
        CFI V5 load(1, XDATA, add(CFA_XSP16, literal(-12)))
        CFI V6 load(1, XDATA, add(CFA_XSP16, literal(-11)))
        CFI V7 load(1, XDATA, add(CFA_XSP16, literal(-10)))
        CFI V8 load(1, XDATA, add(CFA_XSP16, literal(-9)))
        CFI V9 load(1, XDATA, add(CFA_XSP16, literal(-8)))
        CFI V10 load(1, XDATA, add(CFA_XSP16, literal(-7)))
        CFI R7 load(1, XDATA, add(CFA_XSP16, literal(-6)))
        CFI ?RET_LOW load(1, XDATA, add(CFA_XSP16, literal(-5)))
        CFI ?RET_HIGH load(1, XDATA, add(CFA_XSP16, literal(-4)))
        CFI ?BRET_EXT load(1, XDATA, add(CFA_XSP16, literal(-3)))
        CFI DPL0 load(1, XDATA, add(CFA_XSP16, literal(-2)))
        CFI DPH0 load(1, XDATA, add(CFA_XSP16, literal(-1)))
        CFI CFA_SP SP+0
        CFI CFA_XSP16 add(XSP16, 23)
        CFI Block cfiCond61 Using cfiCommon0
        CFI (cfiCond61) NoFunction
        CFI (cfiCond61) Conditional ??CrossCallReturnLabel_6
        CFI (cfiCond61) R6 load(1, XDATA, add(CFA_XSP16, literal(-19)))
        CFI (cfiCond61) VB load(1, XDATA, add(CFA_XSP16, literal(-18)))
        CFI (cfiCond61) V0 load(1, XDATA, add(CFA_XSP16, literal(-17)))
        CFI (cfiCond61) V1 load(1, XDATA, add(CFA_XSP16, literal(-16)))
        CFI (cfiCond61) V2 load(1, XDATA, add(CFA_XSP16, literal(-15)))
        CFI (cfiCond61) V3 load(1, XDATA, add(CFA_XSP16, literal(-14)))
        CFI (cfiCond61) V4 load(1, XDATA, add(CFA_XSP16, literal(-13)))
        CFI (cfiCond61) V5 load(1, XDATA, add(CFA_XSP16, literal(-12)))
        CFI (cfiCond61) V6 load(1, XDATA, add(CFA_XSP16, literal(-11)))
        CFI (cfiCond61) V7 load(1, XDATA, add(CFA_XSP16, literal(-10)))
        CFI (cfiCond61) V8 load(1, XDATA, add(CFA_XSP16, literal(-9)))
        CFI (cfiCond61) V9 load(1, XDATA, add(CFA_XSP16, literal(-8)))
        CFI (cfiCond61) V10 load(1, XDATA, add(CFA_XSP16, literal(-7)))
        CFI (cfiCond61) R7 load(1, XDATA, add(CFA_XSP16, literal(-6)))
        CFI (cfiCond61) ?RET_LOW load(1, XDATA, add(CFA_XSP16, literal(-5)))
        CFI (cfiCond61) ?RET_HIGH load(1, XDATA, add(CFA_XSP16, literal(-4)))
        CFI (cfiCond61) ?BRET_EXT load(1, XDATA, add(CFA_XSP16, literal(-3)))
        CFI (cfiCond61) DPL0 load(1, XDATA, add(CFA_XSP16, literal(-2)))
        CFI (cfiCond61) DPH0 load(1, XDATA, add(CFA_XSP16, literal(-1)))
        CFI (cfiCond61) CFA_SP SP+0
        CFI (cfiCond61) CFA_XSP16 add(XSP16, 23)
        CFI Block cfiPicker62 Using cfiCommon1
        CFI (cfiPicker62) NoFunction
        CFI (cfiPicker62) Picker
        LCALL   ??Subroutine19_0 & 0xFFFF
??CrossCallReturnLabel_36:
        INC     DPTR
        INC     DPTR
        INC     DPTR
        INC     DPTR
        RET
        CFI EndBlock cfiCond60
        CFI EndBlock cfiCond61
        CFI EndBlock cfiPicker62

        RSEG BANKED_CODE:CODE:NOROOT(0)
?Subroutine1:
        CFI Block cfiCond63 Using cfiCommon0
        CFI NoFunction
        CFI Conditional ??CrossCallReturnLabel_2
        CFI R6 load(1, XDATA, add(CFA_XSP16, literal(-19)))
        CFI VB load(1, XDATA, add(CFA_XSP16, literal(-18)))
        CFI V0 load(1, XDATA, add(CFA_XSP16, literal(-17)))
        CFI V1 load(1, XDATA, add(CFA_XSP16, literal(-16)))
        CFI V2 load(1, XDATA, add(CFA_XSP16, literal(-15)))
        CFI V3 load(1, XDATA, add(CFA_XSP16, literal(-14)))
        CFI V4 load(1, XDATA, add(CFA_XSP16, literal(-13)))
        CFI V5 load(1, XDATA, add(CFA_XSP16, literal(-12)))
        CFI V6 load(1, XDATA, add(CFA_XSP16, literal(-11)))
        CFI V7 load(1, XDATA, add(CFA_XSP16, literal(-10)))
        CFI V8 load(1, XDATA, add(CFA_XSP16, literal(-9)))
        CFI V9 load(1, XDATA, add(CFA_XSP16, literal(-8)))
        CFI V10 load(1, XDATA, add(CFA_XSP16, literal(-7)))
        CFI R7 load(1, XDATA, add(CFA_XSP16, literal(-6)))
        CFI ?RET_LOW load(1, XDATA, add(CFA_XSP16, literal(-5)))
        CFI ?RET_HIGH load(1, XDATA, add(CFA_XSP16, literal(-4)))
        CFI ?BRET_EXT load(1, XDATA, add(CFA_XSP16, literal(-3)))
        CFI DPL0 load(1, XDATA, add(CFA_XSP16, literal(-2)))
        CFI DPH0 load(1, XDATA, add(CFA_XSP16, literal(-1)))
        CFI CFA_SP SP+0
        CFI CFA_XSP16 add(XSP16, 23)
        CFI Block cfiCond64 Using cfiCommon0
        CFI (cfiCond64) NoFunction
        CFI (cfiCond64) Conditional ??CrossCallReturnLabel_3
        CFI (cfiCond64) R6 load(1, XDATA, add(CFA_XSP16, literal(-19)))
        CFI (cfiCond64) VB load(1, XDATA, add(CFA_XSP16, literal(-18)))
        CFI (cfiCond64) V0 load(1, XDATA, add(CFA_XSP16, literal(-17)))
        CFI (cfiCond64) V1 load(1, XDATA, add(CFA_XSP16, literal(-16)))
        CFI (cfiCond64) V2 load(1, XDATA, add(CFA_XSP16, literal(-15)))
        CFI (cfiCond64) V3 load(1, XDATA, add(CFA_XSP16, literal(-14)))
        CFI (cfiCond64) V4 load(1, XDATA, add(CFA_XSP16, literal(-13)))
        CFI (cfiCond64) V5 load(1, XDATA, add(CFA_XSP16, literal(-12)))
        CFI (cfiCond64) V6 load(1, XDATA, add(CFA_XSP16, literal(-11)))
        CFI (cfiCond64) V7 load(1, XDATA, add(CFA_XSP16, literal(-10)))
        CFI (cfiCond64) V8 load(1, XDATA, add(CFA_XSP16, literal(-9)))
        CFI (cfiCond64) V9 load(1, XDATA, add(CFA_XSP16, literal(-8)))
        CFI (cfiCond64) V10 load(1, XDATA, add(CFA_XSP16, literal(-7)))
        CFI (cfiCond64) R7 load(1, XDATA, add(CFA_XSP16, literal(-6)))
        CFI (cfiCond64) ?RET_LOW load(1, XDATA, add(CFA_XSP16, literal(-5)))
        CFI (cfiCond64) ?RET_HIGH load(1, XDATA, add(CFA_XSP16, literal(-4)))
        CFI (cfiCond64) ?BRET_EXT load(1, XDATA, add(CFA_XSP16, literal(-3)))
        CFI (cfiCond64) DPL0 load(1, XDATA, add(CFA_XSP16, literal(-2)))
        CFI (cfiCond64) DPH0 load(1, XDATA, add(CFA_XSP16, literal(-1)))
        CFI (cfiCond64) CFA_SP SP+0
        CFI (cfiCond64) CFA_XSP16 add(XSP16, 23)
        CFI Block cfiCond65 Using cfiCommon0
        CFI (cfiCond65) NoFunction
        CFI (cfiCond65) Conditional ??CrossCallReturnLabel_4
        CFI (cfiCond65) R6 load(1, XDATA, add(CFA_XSP16, literal(-19)))
        CFI (cfiCond65) VB load(1, XDATA, add(CFA_XSP16, literal(-18)))
        CFI (cfiCond65) V0 load(1, XDATA, add(CFA_XSP16, literal(-17)))
        CFI (cfiCond65) V1 load(1, XDATA, add(CFA_XSP16, literal(-16)))
        CFI (cfiCond65) V2 load(1, XDATA, add(CFA_XSP16, literal(-15)))
        CFI (cfiCond65) V3 load(1, XDATA, add(CFA_XSP16, literal(-14)))
        CFI (cfiCond65) V4 load(1, XDATA, add(CFA_XSP16, literal(-13)))
        CFI (cfiCond65) V5 load(1, XDATA, add(CFA_XSP16, literal(-12)))
        CFI (cfiCond65) V6 load(1, XDATA, add(CFA_XSP16, literal(-11)))
        CFI (cfiCond65) V7 load(1, XDATA, add(CFA_XSP16, literal(-10)))
        CFI (cfiCond65) V8 load(1, XDATA, add(CFA_XSP16, literal(-9)))
        CFI (cfiCond65) V9 load(1, XDATA, add(CFA_XSP16, literal(-8)))
        CFI (cfiCond65) V10 load(1, XDATA, add(CFA_XSP16, literal(-7)))
        CFI (cfiCond65) R7 load(1, XDATA, add(CFA_XSP16, literal(-6)))
        CFI (cfiCond65) ?RET_LOW load(1, XDATA, add(CFA_XSP16, literal(-5)))
        CFI (cfiCond65) ?RET_HIGH load(1, XDATA, add(CFA_XSP16, literal(-4)))
        CFI (cfiCond65) ?BRET_EXT load(1, XDATA, add(CFA_XSP16, literal(-3)))
        CFI (cfiCond65) DPL0 load(1, XDATA, add(CFA_XSP16, literal(-2)))
        CFI (cfiCond65) DPH0 load(1, XDATA, add(CFA_XSP16, literal(-1)))
        CFI (cfiCond65) CFA_SP SP+0
        CFI (cfiCond65) CFA_XSP16 add(XSP16, 23)
        CFI Block cfiPicker66 Using cfiCommon1
        CFI (cfiPicker66) NoFunction
        CFI (cfiPicker66) Picker
        MOV     R0,A
        INC     DPTR
        MOVX    A,@DPTR
        ADDC    A,#0x0
        MOV     R1,A
        MOV     DPL,R0
        MOV     DPH,R1
        MOVX    A,@DPTR
        RET
        CFI EndBlock cfiCond63
        CFI EndBlock cfiCond64
        CFI EndBlock cfiCond65
        CFI EndBlock cfiPicker66

        RSEG BANKED_CODE:CODE:NOROOT(0)
?Subroutine0:
        CFI Block cfiCond67 Using cfiCommon0
        CFI NoFunction
        CFI Conditional ??CrossCallReturnLabel_0
        CFI R6 load(1, XDATA, add(CFA_XSP16, literal(-19)))
        CFI VB load(1, XDATA, add(CFA_XSP16, literal(-18)))
        CFI V0 load(1, XDATA, add(CFA_XSP16, literal(-17)))
        CFI V1 load(1, XDATA, add(CFA_XSP16, literal(-16)))
        CFI V2 load(1, XDATA, add(CFA_XSP16, literal(-15)))
        CFI V3 load(1, XDATA, add(CFA_XSP16, literal(-14)))
        CFI V4 load(1, XDATA, add(CFA_XSP16, literal(-13)))
        CFI V5 load(1, XDATA, add(CFA_XSP16, literal(-12)))
        CFI V6 load(1, XDATA, add(CFA_XSP16, literal(-11)))
        CFI V7 load(1, XDATA, add(CFA_XSP16, literal(-10)))
        CFI V8 load(1, XDATA, add(CFA_XSP16, literal(-9)))
        CFI V9 load(1, XDATA, add(CFA_XSP16, literal(-8)))
        CFI V10 load(1, XDATA, add(CFA_XSP16, literal(-7)))
        CFI R7 load(1, XDATA, add(CFA_XSP16, literal(-6)))
        CFI ?RET_LOW load(1, XDATA, add(CFA_XSP16, literal(-5)))
        CFI ?RET_HIGH load(1, XDATA, add(CFA_XSP16, literal(-4)))
        CFI ?BRET_EXT load(1, XDATA, add(CFA_XSP16, literal(-3)))
        CFI DPL0 load(1, XDATA, add(CFA_XSP16, literal(-2)))
        CFI DPH0 load(1, XDATA, add(CFA_XSP16, literal(-1)))
        CFI CFA_SP SP+0
        CFI CFA_XSP16 add(XSP16, 23)
        CFI Block cfiCond68 Using cfiCommon0
        CFI (cfiCond68) NoFunction
        CFI (cfiCond68) Conditional ??CrossCallReturnLabel_1
        CFI (cfiCond68) R6 load(1, XDATA, add(CFA_XSP16, literal(-19)))
        CFI (cfiCond68) VB load(1, XDATA, add(CFA_XSP16, literal(-18)))
        CFI (cfiCond68) V0 load(1, XDATA, add(CFA_XSP16, literal(-17)))
        CFI (cfiCond68) V1 load(1, XDATA, add(CFA_XSP16, literal(-16)))
        CFI (cfiCond68) V2 load(1, XDATA, add(CFA_XSP16, literal(-15)))
        CFI (cfiCond68) V3 load(1, XDATA, add(CFA_XSP16, literal(-14)))
        CFI (cfiCond68) V4 load(1, XDATA, add(CFA_XSP16, literal(-13)))
        CFI (cfiCond68) V5 load(1, XDATA, add(CFA_XSP16, literal(-12)))
        CFI (cfiCond68) V6 load(1, XDATA, add(CFA_XSP16, literal(-11)))
        CFI (cfiCond68) V7 load(1, XDATA, add(CFA_XSP16, literal(-10)))
        CFI (cfiCond68) V8 load(1, XDATA, add(CFA_XSP16, literal(-9)))
        CFI (cfiCond68) V9 load(1, XDATA, add(CFA_XSP16, literal(-8)))
        CFI (cfiCond68) V10 load(1, XDATA, add(CFA_XSP16, literal(-7)))
        CFI (cfiCond68) R7 load(1, XDATA, add(CFA_XSP16, literal(-6)))
        CFI (cfiCond68) ?RET_LOW load(1, XDATA, add(CFA_XSP16, literal(-5)))
        CFI (cfiCond68) ?RET_HIGH load(1, XDATA, add(CFA_XSP16, literal(-4)))
        CFI (cfiCond68) ?BRET_EXT load(1, XDATA, add(CFA_XSP16, literal(-3)))
        CFI (cfiCond68) DPL0 load(1, XDATA, add(CFA_XSP16, literal(-2)))
        CFI (cfiCond68) DPH0 load(1, XDATA, add(CFA_XSP16, literal(-1)))
        CFI (cfiCond68) CFA_SP SP+0
        CFI (cfiCond68) CFA_XSP16 add(XSP16, 23)
        CFI Block cfiPicker69 Using cfiCommon1
        CFI (cfiPicker69) NoFunction
        CFI (cfiPicker69) Picker
        MOV     DPL,?XSP + 0
        MOV     DPH,?XSP + 1
        MOVX    A,@DPTR
        ADD     A,#0x3
        MOV     R2,A
        INC     DPTR
        MOVX    A,@DPTR
        ADDC    A,#0x0
        MOV     R3,A
        MOV     DPL,R2
        MOV     DPH,R3
        LCALL   ?Subroutine15 & 0xFFFF
??CrossCallReturnLabel_27:
        RET
        CFI EndBlock cfiCond67
        CFI EndBlock cfiCond68
        CFI EndBlock cfiPicker69

        RSEG BANKED_CODE:CODE:NOROOT(0)
?Subroutine15:
        CFI Block cfiCond70 Using cfiCommon0
        CFI NoFunction
        CFI Conditional ??CrossCallReturnLabel_25
        CFI R6 load(1, XDATA, add(CFA_XSP16, literal(-19)))
        CFI VB load(1, XDATA, add(CFA_XSP16, literal(-18)))
        CFI V0 load(1, XDATA, add(CFA_XSP16, literal(-17)))
        CFI V1 load(1, XDATA, add(CFA_XSP16, literal(-16)))
        CFI V2 load(1, XDATA, add(CFA_XSP16, literal(-15)))
        CFI V3 load(1, XDATA, add(CFA_XSP16, literal(-14)))
        CFI V4 load(1, XDATA, add(CFA_XSP16, literal(-13)))
        CFI V5 load(1, XDATA, add(CFA_XSP16, literal(-12)))
        CFI V6 load(1, XDATA, add(CFA_XSP16, literal(-11)))
        CFI V7 load(1, XDATA, add(CFA_XSP16, literal(-10)))
        CFI V8 load(1, XDATA, add(CFA_XSP16, literal(-9)))
        CFI V9 load(1, XDATA, add(CFA_XSP16, literal(-8)))
        CFI V10 load(1, XDATA, add(CFA_XSP16, literal(-7)))
        CFI R7 load(1, XDATA, add(CFA_XSP16, literal(-6)))
        CFI ?RET_LOW load(1, XDATA, add(CFA_XSP16, literal(-5)))
        CFI ?RET_HIGH load(1, XDATA, add(CFA_XSP16, literal(-4)))
        CFI ?BRET_EXT load(1, XDATA, add(CFA_XSP16, literal(-3)))
        CFI DPL0 load(1, XDATA, add(CFA_XSP16, literal(-2)))
        CFI DPH0 load(1, XDATA, add(CFA_XSP16, literal(-1)))
        CFI CFA_SP SP+0
        CFI CFA_XSP16 add(XSP16, 23)
        CFI Block cfiCond71 Using cfiCommon0
        CFI (cfiCond71) NoFunction
        CFI (cfiCond71) Conditional ??CrossCallReturnLabel_26
        CFI (cfiCond71) R6 load(1, XDATA, add(CFA_XSP16, literal(-19)))
        CFI (cfiCond71) VB load(1, XDATA, add(CFA_XSP16, literal(-18)))
        CFI (cfiCond71) V0 load(1, XDATA, add(CFA_XSP16, literal(-17)))
        CFI (cfiCond71) V1 load(1, XDATA, add(CFA_XSP16, literal(-16)))
        CFI (cfiCond71) V2 load(1, XDATA, add(CFA_XSP16, literal(-15)))
        CFI (cfiCond71) V3 load(1, XDATA, add(CFA_XSP16, literal(-14)))
        CFI (cfiCond71) V4 load(1, XDATA, add(CFA_XSP16, literal(-13)))
        CFI (cfiCond71) V5 load(1, XDATA, add(CFA_XSP16, literal(-12)))
        CFI (cfiCond71) V6 load(1, XDATA, add(CFA_XSP16, literal(-11)))
        CFI (cfiCond71) V7 load(1, XDATA, add(CFA_XSP16, literal(-10)))
        CFI (cfiCond71) V8 load(1, XDATA, add(CFA_XSP16, literal(-9)))
        CFI (cfiCond71) V9 load(1, XDATA, add(CFA_XSP16, literal(-8)))
        CFI (cfiCond71) V10 load(1, XDATA, add(CFA_XSP16, literal(-7)))
        CFI (cfiCond71) R7 load(1, XDATA, add(CFA_XSP16, literal(-6)))
        CFI (cfiCond71) ?RET_LOW load(1, XDATA, add(CFA_XSP16, literal(-5)))
        CFI (cfiCond71) ?RET_HIGH load(1, XDATA, add(CFA_XSP16, literal(-4)))
        CFI (cfiCond71) ?BRET_EXT load(1, XDATA, add(CFA_XSP16, literal(-3)))
        CFI (cfiCond71) DPL0 load(1, XDATA, add(CFA_XSP16, literal(-2)))
        CFI (cfiCond71) DPH0 load(1, XDATA, add(CFA_XSP16, literal(-1)))
        CFI (cfiCond71) CFA_SP SP+0
        CFI (cfiCond71) CFA_XSP16 add(XSP16, 23)
        CFI Block cfiCond72 Using cfiCommon0
        CFI (cfiCond72) NoFunction
        CFI (cfiCond72) Conditional ??CrossCallReturnLabel_27, ??CrossCallReturnLabel_0
        CFI (cfiCond72) R6 load(1, XDATA, add(CFA_XSP16, literal(-19)))
        CFI (cfiCond72) VB load(1, XDATA, add(CFA_XSP16, literal(-18)))
        CFI (cfiCond72) V0 load(1, XDATA, add(CFA_XSP16, literal(-17)))
        CFI (cfiCond72) V1 load(1, XDATA, add(CFA_XSP16, literal(-16)))
        CFI (cfiCond72) V2 load(1, XDATA, add(CFA_XSP16, literal(-15)))
        CFI (cfiCond72) V3 load(1, XDATA, add(CFA_XSP16, literal(-14)))
        CFI (cfiCond72) V4 load(1, XDATA, add(CFA_XSP16, literal(-13)))
        CFI (cfiCond72) V5 load(1, XDATA, add(CFA_XSP16, literal(-12)))
        CFI (cfiCond72) V6 load(1, XDATA, add(CFA_XSP16, literal(-11)))
        CFI (cfiCond72) V7 load(1, XDATA, add(CFA_XSP16, literal(-10)))
        CFI (cfiCond72) V8 load(1, XDATA, add(CFA_XSP16, literal(-9)))
        CFI (cfiCond72) V9 load(1, XDATA, add(CFA_XSP16, literal(-8)))
        CFI (cfiCond72) V10 load(1, XDATA, add(CFA_XSP16, literal(-7)))
        CFI (cfiCond72) R7 load(1, XDATA, add(CFA_XSP16, literal(-6)))
        CFI (cfiCond72) ?RET_LOW load(1, XDATA, add(CFA_XSP16, literal(-5)))
        CFI (cfiCond72) ?RET_HIGH load(1, XDATA, add(CFA_XSP16, literal(-4)))
        CFI (cfiCond72) ?BRET_EXT load(1, XDATA, add(CFA_XSP16, literal(-3)))
        CFI (cfiCond72) DPL0 load(1, XDATA, add(CFA_XSP16, literal(-2)))
        CFI (cfiCond72) DPH0 load(1, XDATA, add(CFA_XSP16, literal(-1)))
        CFI (cfiCond72) CFA_SP SP+0
        CFI (cfiCond72) CFA_XSP16 add(XSP16, 23)
        CFI Block cfiCond73 Using cfiCommon0
        CFI (cfiCond73) NoFunction
        CFI (cfiCond73) Conditional ??CrossCallReturnLabel_27, ??CrossCallReturnLabel_1
        CFI (cfiCond73) R6 load(1, XDATA, add(CFA_XSP16, literal(-19)))
        CFI (cfiCond73) VB load(1, XDATA, add(CFA_XSP16, literal(-18)))
        CFI (cfiCond73) V0 load(1, XDATA, add(CFA_XSP16, literal(-17)))
        CFI (cfiCond73) V1 load(1, XDATA, add(CFA_XSP16, literal(-16)))
        CFI (cfiCond73) V2 load(1, XDATA, add(CFA_XSP16, literal(-15)))
        CFI (cfiCond73) V3 load(1, XDATA, add(CFA_XSP16, literal(-14)))
        CFI (cfiCond73) V4 load(1, XDATA, add(CFA_XSP16, literal(-13)))
        CFI (cfiCond73) V5 load(1, XDATA, add(CFA_XSP16, literal(-12)))
        CFI (cfiCond73) V6 load(1, XDATA, add(CFA_XSP16, literal(-11)))
        CFI (cfiCond73) V7 load(1, XDATA, add(CFA_XSP16, literal(-10)))
        CFI (cfiCond73) V8 load(1, XDATA, add(CFA_XSP16, literal(-9)))
        CFI (cfiCond73) V9 load(1, XDATA, add(CFA_XSP16, literal(-8)))
        CFI (cfiCond73) V10 load(1, XDATA, add(CFA_XSP16, literal(-7)))
        CFI (cfiCond73) R7 load(1, XDATA, add(CFA_XSP16, literal(-6)))
        CFI (cfiCond73) ?RET_LOW load(1, XDATA, add(CFA_XSP16, literal(-5)))
        CFI (cfiCond73) ?RET_HIGH load(1, XDATA, add(CFA_XSP16, literal(-4)))
        CFI (cfiCond73) ?BRET_EXT load(1, XDATA, add(CFA_XSP16, literal(-3)))
        CFI (cfiCond73) DPL0 load(1, XDATA, add(CFA_XSP16, literal(-2)))
        CFI (cfiCond73) DPH0 load(1, XDATA, add(CFA_XSP16, literal(-1)))
        CFI (cfiCond73) CFA_SP SP+0
        CFI (cfiCond73) CFA_XSP16 add(XSP16, 23)
        CFI Block cfiPicker74 Using cfiCommon1
        CFI (cfiPicker74) NoFunction
        CFI (cfiPicker74) Picker
        MOVX    A,@DPTR
        MOV     R0,A
        INC     DPTR
        MOVX    A,@DPTR
        MOV     R1,A
        MOV     A,R0
        ORL     A,R1
        RET
        CFI EndBlock cfiCond70
        CFI EndBlock cfiCond71
        CFI EndBlock cfiCond72
        CFI EndBlock cfiCond73
        CFI EndBlock cfiPicker74
//  305 #else  // ifdef MT_MAC_CB_FUNC
//  306 {
//  307   /* Check if MT has subscribed for this callback If so, pass it as an event to MonitorTest */
//  308   switch (pData->hdr.event)
//  309   {
//  310     case MAC_MLME_ASSOCIATE_IND:
//  311       if ( _macCallbackSub & CB_ID_NWK_ASSOCIATE_IND )
//  312         nwk_MTCallbackSubNwkAssociateInd ( (ZMacAssociateInd_t *)pData );
//  313       break;
//  314 
//  315     case MAC_MLME_ASSOCIATE_CNF:
//  316       if ( _macCallbackSub & CB_ID_NWK_ASSOCIATE_CNF )
//  317         nwk_MTCallbackSubNwkAssociateCnf ( (ZMacAssociateCnf_t *)pData );
//  318       break;
//  319 
//  320     case MAC_MLME_DISASSOCIATE_IND:
//  321       if ( _macCallbackSub & CB_ID_NWK_DISASSOCIATE_IND )
//  322         nwk_MTCallbackSubNwkDisassociateInd ( (ZMacDisassociateInd_t *)pData );
//  323       break;
//  324 
//  325     case MAC_MLME_DISASSOCIATE_CNF:
//  326       if ( _macCallbackSub & CB_ID_NWK_DISASSOCIATE_CNF )
//  327         nwk_MTCallbackSubNwkDisassociateCnf ( (ZMacDisassociateCnf_t *)pData );
//  328       break;
//  329 
//  330     case MAC_MLME_BEACON_NOTIFY_IND:
//  331       if ( _macCallbackSub & CB_ID_NWK_BEACON_NOTIFY_IND )
//  332         nwk_MTCallbackSubNwkBeaconNotifyInd( (ZMacBeaconNotifyInd_t *)pData );
//  333       break;
//  334 
//  335     case MAC_MLME_ORPHAN_IND:
//  336       if ( _macCallbackSub & CB_ID_NWK_ORPHAN_IND )
//  337         nwk_MTCallbackSubNwkOrphanInd( (ZMacOrphanInd_t *) pData );
//  338       break;
//  339 
//  340     case MAC_MLME_SCAN_CNF:
//  341       if ( _macCallbackSub & CB_ID_NWK_SCAN_CNF )
//  342       {
//  343         pData->scanCnf.result.pEnergyDetect = ZMac_ScanBuf;
//  344         nwk_MTCallbackSubNwkScanCnf ( (ZMacScanCnf_t *) pData );
//  345       }
//  346 
//  347       if (ZMac_ScanBuf != NULL)
//  348       {
//  349         void *pTmp = ZMac_ScanBuf;
//  350         ZMac_ScanBuf = NULL;
//  351         osal_mem_free(pTmp);
//  352       }
//  353       break;
//  354 
//  355     case MAC_MLME_START_CNF:
//  356       if ( _macCallbackSub & CB_ID_NWK_START_CNF )
//  357         nwk_MTCallbackSubNwkStartCnf ( pData->hdr.status );
//  358       break;
//  359 
//  360     case MAC_MLME_SYNC_LOSS_IND:
//  361       if ( _macCallbackSub & CB_ID_NWK_SYNC_LOSS_IND )
//  362        nwk_MTCallbackSubNwkSyncLossInd( (ZMacSyncLossInd_t *) pData );
//  363       break;
//  364 
//  365     case MAC_MLME_POLL_CNF:
//  366       if ( _macCallbackSub & CB_ID_NWK_POLL_CNF )
//  367          nwk_MTCallbackSubNwkPollCnf( pData->hdr.status );
//  368       break;
//  369 
//  370     case MAC_MLME_COMM_STATUS_IND:
//  371       if ( _macCallbackSub & CB_ID_NWK_COMM_STATUS_IND )
//  372         nwk_MTCallbackSubCommStatusInd ( (ZMacCommStatusInd_t *) pData );
//  373       break;
//  374 
//  375     case MAC_MCPS_DATA_CNF:
//  376       if (pData->dataCnf.pDataReq != NULL)
//  377         mac_msg_deallocate((uint8**)&pData->dataCnf.pDataReq);
//  378 
//  379       if ( _macCallbackSub & CB_ID_NWK_DATA_CNF )
//  380         nwk_MTCallbackSubNwkDataCnf( (ZMacDataCnf_t *) pData );
//  381       break;
//  382 
//  383     case MAC_MCPS_DATA_IND:
//  384       {
//  385         /*
//  386            Data Ind is unconventional: to save an alloc/copy, reuse the MAC
//  387            buffer and re-organize the contents into ZMAC format.
//  388         */
//  389         ZMacDataInd_t *pDataInd = (ZMacDataInd_t *) pData;
//  390         uint8 event, status, len, *msdu;
//  391 
//  392         /* Store parameters */
//  393         event = pData->hdr.event;
//  394         status = pData->hdr.status;
//  395         len = pData->dataInd.msdu.len;
//  396         msdu = pData->dataInd.msdu.p;
//  397 
//  398         /* Copy security fields */
//  399         osal_memcpy(&pDataInd->Sec, &pData->dataInd.sec, sizeof(ZMacSec_t));
//  400         
//  401         /* Copy mac fields one by one since the two buffers overlap. */
//  402         osal_memcpy(&pDataInd->SrcAddr, &pData->dataInd.mac.srcAddr, sizeof(zAddrType_t));
//  403         osal_memcpy(&pDataInd->DstAddr, &pData->dataInd.mac.dstAddr, sizeof(zAddrType_t));
//  404         pDataInd->Timestamp = pData->dataInd.mac.timestamp;
//  405         pDataInd->Timestamp2 = pData->dataInd.mac.timestamp2;
//  406         pDataInd->SrcPANId = pData->dataInd.mac.srcPanId;
//  407         pDataInd->DstPANId = pData->dataInd.mac.dstPanId;
//  408         pDataInd->mpduLinkQuality = pData->dataInd.mac.mpduLinkQuality;
//  409         pDataInd->Correlation = pData->dataInd.mac.correlation;
//  410         pDataInd->Rssi = pData->dataInd.mac.rssi;
//  411         pDataInd->Dsn = pData->dataInd.mac.dsn;
//  412 
//  413         /* Restore parameters */
//  414         pDataInd->hdr.Status = status;
//  415         pDataInd->hdr.Event = event;
//  416         pDataInd->msduLength = len;
//  417 
//  418         if (len)
//  419           pDataInd->msdu = msdu;
//  420         else
//  421           pDataInd->msdu = NULL;
//  422 
//  423         if ( _macCallbackSub & CB_ID_NWK_DATA_IND )
//  424           nwk_MTCallbackSubNwkDataInd ( pDataInd );
//  425       }
//  426 
//  427       /* free buffer */
//  428       mac_msg_deallocate( (uint8 **)&pData );
//  429       break;
//  430 
//  431     case MAC_MCPS_PURGE_CNF:
//  432       if ( _macCallbackSub & CB_ID_NWK_PURGE_CNF )
//  433         nwk_MTCallbackSubNwkPurgeCnf( (ZMacPurgeCnf_t *) pData);
//  434       break;
//  435 
//  436     default:
//  437       break;
//  438   }
//  439 }
//  440 #endif
//  441 
//  442 /********************************************************************************************************
//  443  * @fn      MAC_CbackCheckPending
//  444  *
//  445  * @brief   Return number of pending indirect msg
//  446  *
//  447  * @param   None
//  448  *
//  449  * @return  Number of indirect msg holding
//  450  ********************************************************************************************************/

        RSEG BANKED_CODE:CODE:NOROOT(0)
//  451 uint8 MAC_CbackCheckPending(void)
MAC_CbackCheckPending:
        CFI Block cfiBlock75 Using cfiCommon0
        CFI Function MAC_CbackCheckPending
        CODE
//  452 {
        ; Saved register size: 0
        ; Auto size: 0
//  453 #if !defined (NONWK)
//  454   if ( ZSTACK_ROUTER_BUILD )
//  455   {
//  456     return (nwkDB_ReturnIndirectHoldingCnt());
//  457   }
//  458   else
//  459   {
//  460     return (0);
        MOV     R1,#0x0
        LJMP    ?BRET
        CFI EndBlock cfiBlock75
//  461   }
//  462 #else
//  463   return (0);
//  464 #endif
//  465 }
//  466 
//  467 /********************************************************************************************************
//  468  * @fn      ZMacLqiAdjustMode
//  469  *
//  470  * @brief   Sets/return LQI adjust mode
//  471  *
//  472  * @param   mode - LQI_ADJ_GET = return current mode only
//  473  *                 LQI_ADJ_OFF = disable LQI adjusts
//  474  *                 LQI_ADJ_MODEx = set to LQI adjust MODEx
//  475  *
//  476  * @return  current LQI adjust mode
//  477  ********************************************************************************************************/

        RSEG BANKED_CODE:CODE:NOROOT(0)
//  478 ZMacLqiAdjust_t ZMacLqiAdjustMode( ZMacLqiAdjust_t mode )
ZMacLqiAdjustMode:
        CFI Block cfiBlock76 Using cfiCommon0
        CFI Function ZMacLqiAdjustMode
        CODE
//  479 {
        PUSH    DPL
        CFI DPL0 Frame(CFA_SP, 4)
        CFI CFA_SP SP+-4
        PUSH    DPH
        CFI DPH0 Frame(CFA_SP, 5)
        CFI CFA_SP SP+-5
        ; Saved register size: 2
        ; Auto size: 0
        MOV     A,R1
        MOV     R0,A
//  480   if ( mode != LQI_ADJ_GET )
        MOV     A,#-0x1
        XRL     A,R0
        JZ      ??ZMacLqiAdjustMode_0
//  481   {
//  482     lqiAdjMode = mode;
        MOV     A,R0
        MOV     DPTR,#lqiAdjMode
        MOVX    @DPTR,A
//  483   }
//  484   return ( lqiAdjMode );
??ZMacLqiAdjustMode_0:
        MOV     DPTR,#lqiAdjMode
        MOVX    A,@DPTR
        MOV     R1,A
        POP     DPH
        CFI DPH0 SameValue
        CFI CFA_SP SP+-4
        POP     DPL
        CFI DPL0 SameValue
        CFI CFA_SP SP+-3
        LJMP    ?BRET
        CFI EndBlock cfiBlock76
//  485 }

        RSEG BANK_RELAYS:CODE:REORDER:NOROOT(0)
??MAC_CbackEvent?relay:
        LCALL   ?BDISPATCH
        DATA
        DC24    MAC_CbackEvent

        RSEG BANK_RELAYS:CODE:REORDER:NOROOT(0)
??MAC_CbackCheckPending?relay:
        LCALL   ?BDISPATCH
        DATA
        DC24    MAC_CbackCheckPending

        RSEG BANK_RELAYS:CODE:REORDER:NOROOT(0)
??ZMacLqiAdjustMode?relay:
        LCALL   ?BDISPATCH
        DATA
        DC24    ZMacLqiAdjustMode

        END
//  486 
//  487 #if !defined NONWK
//  488 /********************************************************************************************************
//  489  * @fn      ZMacLqiAdjust
//  490  *
//  491  * @brief   Adjust LQI according to correlation value
//  492  *
//  493  * @notes - the IEEE 802.15.4 specification provides some general statements on
//  494  *          the subject of LQI. Section 6.7.8: "The minimum and maximum LQI values
//  495  *          (0x00 and 0xFF) should be associated with the lowest and highest IEEE
//  496  *          802.15.4 signals detectable by the receiver, and LQ values should be
//  497  *          uniformly distributed between these two limits." Section E.2.3: "The
//  498  *          LQI (see 6.7.8) measures the received energy and/or SNR for each
//  499  *          received packet. When energy level and SNR information are combined,
//  500  *          they can indicate whether a corrupt packet resulted from low signal
//  501  *          strength or from high signal strength plus interference."
//  502  *        - LQI Adjustment Mode1 provided below is a simple algorithm to use the
//  503  *          packet correlation value (related to SNR) to scale incoming LQI value
//  504  *          (related to signal strength) to 'derate' noisy packets.
//  505  *        - LQI Adjustment Mode2 provided below is a location for a developer to
//  506  *          implement their own proprietary LQI adjustment algorithm.
//  507  *
//  508  * @param   corr - packet correlation value
//  509  * @param   lqi  - ptr to link quality (scaled rssi)
//  510  *
//  511  * @return  *lqi - adjusted link quality
//  512  ********************************************************************************************************/
//  513 static void ZMacLqiAdjust( uint8 corr, uint8 *lqi )
//  514 {
//  515   if ( lqiAdjMode != LQI_ADJ_OFF )
//  516   {
//  517     uint16 adjLqi = *lqi;
//  518 
//  519     // Keep correlation within theoretical limits
//  520     if ( corr < LQI_CORR_MIN )
//  521     {
//  522        corr = LQI_CORR_MIN;
//  523     }
//  524     else if ( corr > LQI_CORR_MAX )
//  525     {
//  526        corr = LQI_CORR_MAX;
//  527     }
//  528 
//  529     if ( lqiAdjMode == LQI_ADJ_MODE1 )
//  530     {
//  531       /* MODE1 - linear scaling of incoming LQI with a "correlation percentage"
//  532                  which is computed from the incoming correlation value between
//  533                  theorectical minimum/maximum values. This is a very simple way
//  534                  of 'derating' the incoming LQI as correlation value drops. */
//  535       adjLqi = (adjLqi * (corr - LQI_CORR_MIN)) / (LQI_CORR_MAX - LQI_CORR_MIN);
//  536     }
//  537     else if ( lqiAdjMode == LQI_ADJ_MODE2 )
//  538     {
//  539       /* MODE2 - location for developer to implement a proprietary algorithm */
//  540     }
//  541 
//  542     // Replace incoming LQI with scaled value
//  543     *lqi = (adjLqi > 255) ? 255 : (uint8)adjLqi;
//  544   }
//  545 }
//  546 #endif
// 
// 1 233 bytes in segment BANKED_CODE
//    18 bytes in segment BANK_RELAYS
//    17 bytes in segment CODE_C
//     1 byte  in segment SFR_AN
//     3 bytes in segment XDATA_Z
// 
// 1 268 bytes of CODE  memory
//     0 bytes of DATA  memory (+ 1 byte shared)
//     3 bytes of XDATA memory
//
//Errors: none
//Warnings: none
